; Listing generated by Microsoft (R) Optimizing Compiler Version 19.00.23026.0 

	TITLE	C:\Users\Manu343726\Documents\joaquin-dod\dod_perf.cpp
	.686P
	.XMM
	include listing.inc
	.model	flat

INCLUDELIB MSVCRTD
INCLUDELIB OLDNAMES

_BSS	SEGMENT
?render_output@@3HA DD 01H DUP (?)			; render_output
_BSS	ENDS
CONST	SEGMENT
$SG69117 DB	'render:', 00H
$SG69118 DB	'n;oop;raw;dod;render_dod;oop[i];raw[i];dod[i];render_dod'
	DB	'[i]', 00H
$SG69119 DB	';', 00H
	ORG $+2
$SG69120 DB	';', 00H
	ORG $+2
$SG69121 DB	';', 00H
	ORG $+2
$SG69122 DB	';', 00H
	ORG $+2
$SG69123 DB	';', 00H
	ORG $+2
$SG69124 DB	';', 00H
	ORG $+2
$SG69125 DB	';', 00H
	ORG $+2
$SG69126 DB	';', 00H
CONST	ENDS
PUBLIC	?__empty_global_delete@@YAXPAX@Z		; __empty_global_delete
PUBLIC	?__empty_global_delete@@YAXPAXI@Z		; __empty_global_delete
PUBLIC	??2@YAPAXIPAX@Z					; operator new
PUBLIC	?length@?$char_traits@D@std@@SAIPBD@Z		; std::char_traits<char>::length
PUBLIC	?eq_int_type@?$char_traits@D@std@@SA_NABH0@Z	; std::char_traits<char>::eq_int_type
PUBLIC	?eof@?$char_traits@D@std@@SAHXZ			; std::char_traits<char>::eof
PUBLIC	??0_Container_proxy@std@@QAE@XZ			; std::_Container_proxy::_Container_proxy
PUBLIC	??0_Container_base12@std@@QAE@XZ		; std::_Container_base12::_Container_base12
PUBLIC	??1_Container_base12@std@@QAE@XZ		; std::_Container_base12::~_Container_base12
PUBLIC	?_Getpfirst@_Container_base12@std@@QBEPAPAU_Iterator_base12@2@XZ ; std::_Container_base12::_Getpfirst
PUBLIC	?_Orphan_all@_Container_base12@std@@QAEXXZ	; std::_Container_base12::_Orphan_all
PUBLIC	??0_Iterator_base12@std@@QAE@XZ			; std::_Iterator_base12::_Iterator_base12
PUBLIC	??0_Iterator_base12@std@@QAE@ABU01@@Z		; std::_Iterator_base12::_Iterator_base12
PUBLIC	??4_Iterator_base12@std@@QAEAAU01@ABU01@@Z	; std::_Iterator_base12::operator=
PUBLIC	??1_Iterator_base12@std@@QAE@XZ			; std::_Iterator_base12::~_Iterator_base12
PUBLIC	?_Adopt@_Iterator_base12@std@@QAEXPBU_Container_base12@2@@Z ; std::_Iterator_base12::_Adopt
PUBLIC	?_Clrcont@_Iterator_base12@std@@QAEXXZ		; std::_Iterator_base12::_Clrcont
PUBLIC	?_Getcont@_Iterator_base12@std@@QBEPBU_Container_base12@2@XZ ; std::_Iterator_base12::_Getcont
PUBLIC	?_Getpnext@_Iterator_base12@std@@QAEPAPAU12@XZ	; std::_Iterator_base12::_Getpnext
PUBLIC	?_Orphan_me@_Iterator_base12@std@@QAEXXZ	; std::_Iterator_base12::_Orphan_me
PUBLIC	??0?$allocator@D@std@@QAE@XZ			; std::allocator<char>::allocator<char>
PUBLIC	??0?$allocator@D@std@@QAE@ABV01@@Z		; std::allocator<char>::allocator<char>
PUBLIC	?deallocate@?$allocator@D@std@@QAEXPADI@Z	; std::allocator<char>::deallocate
PUBLIC	?allocate@?$allocator@D@std@@QAEPADI@Z		; std::allocator<char>::allocate
PUBLIC	?max_size@?$allocator@D@std@@QBEIXZ		; std::allocator<char>::max_size
PUBLIC	?max_size@?$allocator_traits@V?$allocator@D@std@@@std@@SAIABV?$allocator@D@2@@Z ; std::allocator_traits<std::allocator<char> >::max_size
PUBLIC	??0?$_Wrap_alloc@V?$allocator@D@std@@@std@@QAE@ABV?$allocator@D@1@@Z ; std::_Wrap_alloc<std::allocator<char> >::_Wrap_alloc<std::allocator<char> >
PUBLIC	?allocate@?$_Wrap_alloc@V?$allocator@D@std@@@std@@QAEPADI@Z ; std::_Wrap_alloc<std::allocator<char> >::allocate
PUBLIC	?deallocate@?$_Wrap_alloc@V?$allocator@D@std@@@std@@QAEXPADI@Z ; std::_Wrap_alloc<std::allocator<char> >::deallocate
PUBLIC	?max_size@?$_Wrap_alloc@V?$allocator@D@std@@@std@@QBEIU_Nil@2@@Z ; std::_Wrap_alloc<std::allocator<char> >::max_size
PUBLIC	?now@steady_clock@chrono@std@@SA?AV?$time_point@Usteady_clock@chrono@std@@V?$duration@_JU?$ratio@$00$0DLJKMKAA@@std@@@23@@23@XZ ; std::chrono::steady_clock::now
PUBLIC	?count@?$duration@_JU?$ratio@$00$0DLJKMKAA@@std@@@chrono@std@@QBE_JXZ ; std::chrono::duration<__int64,std::ratio<1,1000000000> >::count
PUBLIC	??Y?$duration@_JU?$ratio@$00$0DLJKMKAA@@std@@@chrono@std@@QAEAAV012@ABV012@@Z ; std::chrono::duration<__int64,std::ratio<1,1000000000> >::operator+=
PUBLIC	?zero@?$duration@_JU?$ratio@$00$0DLJKMKAA@@std@@@chrono@std@@SA?AV123@XZ ; std::chrono::duration<__int64,std::ratio<1,1000000000> >::zero
PUBLIC	??0?$time_point@Usteady_clock@chrono@std@@V?$duration@_JU?$ratio@$00$0DLJKMKAA@@std@@@23@@chrono@std@@QAE@XZ ; std::chrono::time_point<std::chrono::steady_clock,std::chrono::duration<__int64,std::ratio<1,1000000000> > >::time_point<std::chrono::steady_clock,std::chrono::duration<__int64,std::ratio<1,1000000000> > >
PUBLIC	??0?$time_point@Usteady_clock@chrono@std@@V?$duration@_JU?$ratio@$00$0DLJKMKAA@@std@@@23@@chrono@std@@QAE@ABV?$duration@_JU?$ratio@$00$0DLJKMKAA@@std@@@12@@Z ; std::chrono::time_point<std::chrono::steady_clock,std::chrono::duration<__int64,std::ratio<1,1000000000> > >::time_point<std::chrono::steady_clock,std::chrono::duration<__int64,std::ratio<1,1000000000> > >
PUBLIC	?time_since_epoch@?$time_point@Usteady_clock@chrono@std@@V?$duration@_JU?$ratio@$00$0DLJKMKAA@@std@@@23@@chrono@std@@QBE?AV?$duration@_JU?$ratio@$00$0DLJKMKAA@@std@@@23@XZ ; std::chrono::time_point<std::chrono::steady_clock,std::chrono::duration<__int64,std::ratio<1,1000000000> > >::time_since_epoch
PUBLIC	??Y?$time_point@Usteady_clock@chrono@std@@V?$duration@_JU?$ratio@$00$0DLJKMKAA@@std@@@23@@chrono@std@@QAEAAV012@ABV?$duration@_JU?$ratio@$00$0DLJKMKAA@@std@@@12@@Z ; std::chrono::time_point<std::chrono::steady_clock,std::chrono::duration<__int64,std::ratio<1,1000000000> > >::operator+=
PUBLIC	??$?0_JX@?$duration@_JU?$ratio@$00$0DLJKMKAA@@std@@@chrono@std@@QAE@AB_J@Z ; std::chrono::duration<__int64,std::ratio<1,1000000000> >::duration<__int64,std::ratio<1,1000000000> ><__int64,void>
PUBLIC	?count@?$duration@NU?$ratio@$00$00@std@@@chrono@std@@QBENXZ ; std::chrono::duration<double,std::ratio<1,1> >::count
PUBLIC	?count@?$duration@_JU?$ratio@$00$0DOI@@std@@@chrono@std@@QBE_JXZ ; std::chrono::duration<__int64,std::ratio<1,1000> >::count
PUBLIC	?pause_timing@@YAXXZ				; pause_timing
PUBLIC	?resume_timing@@YAXXZ				; resume_timing
PUBLIC	??$?GUsteady_clock@chrono@std@@V?$duration@_JU?$ratio@$00$0DLJKMKAA@@std@@@12@V312@@chrono@std@@YA?AV?$duration@_JU?$ratio@$00$0DLJKMKAA@@std@@@01@ABV?$time_point@Usteady_clock@chrono@std@@V?$duration@_JU?$ratio@$00$0DLJKMKAA@@std@@@23@@01@0@Z ; std::chrono::operator-<std::chrono::steady_clock,std::chrono::duration<__int64,std::ratio<1,1000000000> >,std::chrono::duration<__int64,std::ratio<1,1000000000> > >
PUBLIC	?do_render@@YAXHHD@Z				; do_render
PUBLIC	??0plain_particle@@QAE@DHHHH@Z			; plain_particle::plain_particle
PUBLIC	?render@plain_particle@@QBEXXZ			; plain_particle::render
PUBLIC	?render@@YAHPAD0PAH1@Z				; render
PUBLIC	?render@@YAHPADPAH1I@Z				; render
PUBLIC	_main
PUBLIC	??$?6U?$char_traits@D@std@@@std@@YAAAV?$basic_ostream@DU?$char_traits@D@std@@@0@AAV10@PBD@Z ; std::operator<<<std::char_traits<char> >
PUBLIC	??$endl@DU?$char_traits@D@std@@@std@@YAAAV?$basic_ostream@DU?$char_traits@D@std@@@0@AAV10@@Z ; std::endl<char,std::char_traits<char> >
PUBLIC	??0?$_Vector_alloc@U?$_Vec_base_types@DV?$allocator@D@std@@@std@@@std@@QAE@ABV?$allocator@D@1@@Z ; std::_Vector_alloc<std::_Vec_base_types<char,std::allocator<char> > >::_Vector_alloc<std::_Vec_base_types<char,std::allocator<char> > >
PUBLIC	??1?$_Vector_alloc@U?$_Vec_base_types@DV?$allocator@D@std@@@std@@@std@@QAE@XZ ; std::_Vector_alloc<std::_Vec_base_types<char,std::allocator<char> > >::~_Vector_alloc<std::_Vec_base_types<char,std::allocator<char> > >
PUBLIC	?_Alloc_proxy@?$_Vector_alloc@U?$_Vec_base_types@DV?$allocator@D@std@@@std@@@std@@QAEXXZ ; std::_Vector_alloc<std::_Vec_base_types<char,std::allocator<char> > >::_Alloc_proxy
PUBLIC	?_Free_proxy@?$_Vector_alloc@U?$_Vec_base_types@DV?$allocator@D@std@@@std@@@std@@QAEXXZ ; std::_Vector_alloc<std::_Vec_base_types<char,std::allocator<char> > >::_Free_proxy
PUBLIC	?_Getpfirst@?$_Vector_alloc@U?$_Vec_base_types@DV?$allocator@D@std@@@std@@@std@@QBEPAPAU_Iterator_base12@2@XZ ; std::_Vector_alloc<std::_Vec_base_types<char,std::allocator<char> > >::_Getpfirst
PUBLIC	?_Myproxy@?$_Vector_alloc@U?$_Vec_base_types@DV?$allocator@D@std@@@std@@@std@@QAEAAPAU_Container_proxy@2@XZ ; std::_Vector_alloc<std::_Vec_base_types<char,std::allocator<char> > >::_Myproxy
PUBLIC	?_Orphan_all@?$_Vector_alloc@U?$_Vec_base_types@DV?$allocator@D@std@@@std@@@std@@QAEXXZ ; std::_Vector_alloc<std::_Vec_base_types<char,std::allocator<char> > >::_Orphan_all
PUBLIC	?_Getal@?$_Vector_alloc@U?$_Vec_base_types@DV?$allocator@D@std@@@std@@@std@@QAEAAU?$_Wrap_alloc@V?$allocator@D@std@@@2@XZ ; std::_Vector_alloc<std::_Vec_base_types<char,std::allocator<char> > >::_Getal
PUBLIC	?_Getal@?$_Vector_alloc@U?$_Vec_base_types@DV?$allocator@D@std@@@std@@@std@@QBEABU?$_Wrap_alloc@V?$allocator@D@std@@@2@XZ ; std::_Vector_alloc<std::_Vec_base_types<char,std::allocator<char> > >::_Getal
PUBLIC	?_Get_data@?$_Vector_alloc@U?$_Vec_base_types@DV?$allocator@D@std@@@std@@@std@@QAEAAV?$_Vector_val@U?$_Simple_types@D@std@@@2@XZ ; std::_Vector_alloc<std::_Vec_base_types<char,std::allocator<char> > >::_Get_data
PUBLIC	?_Get_data@?$_Vector_alloc@U?$_Vec_base_types@DV?$allocator@D@std@@@std@@@std@@QBEABV?$_Vector_val@U?$_Simple_types@D@std@@@2@XZ ; std::_Vector_alloc<std::_Vec_base_types<char,std::allocator<char> > >::_Get_data
PUBLIC	?_Myfirst@?$_Vector_alloc@U?$_Vec_base_types@DV?$allocator@D@std@@@std@@@std@@QAEAAPADXZ ; std::_Vector_alloc<std::_Vec_base_types<char,std::allocator<char> > >::_Myfirst
PUBLIC	?_Myfirst@?$_Vector_alloc@U?$_Vec_base_types@DV?$allocator@D@std@@@std@@@std@@QBEABQADXZ ; std::_Vector_alloc<std::_Vec_base_types<char,std::allocator<char> > >::_Myfirst
PUBLIC	?_Mylast@?$_Vector_alloc@U?$_Vec_base_types@DV?$allocator@D@std@@@std@@@std@@QAEAAPADXZ ; std::_Vector_alloc<std::_Vec_base_types<char,std::allocator<char> > >::_Mylast
PUBLIC	?_Mylast@?$_Vector_alloc@U?$_Vec_base_types@DV?$allocator@D@std@@@std@@@std@@QBEABQADXZ ; std::_Vector_alloc<std::_Vec_base_types<char,std::allocator<char> > >::_Mylast
PUBLIC	?_Myend@?$_Vector_alloc@U?$_Vec_base_types@DV?$allocator@D@std@@@std@@@std@@QAEAAPADXZ ; std::_Vector_alloc<std::_Vec_base_types<char,std::allocator<char> > >::_Myend
PUBLIC	?_Myend@?$_Vector_alloc@U?$_Vec_base_types@DV?$allocator@D@std@@@std@@@std@@QBEABQADXZ ; std::_Vector_alloc<std::_Vec_base_types<char,std::allocator<char> > >::_Myend
PUBLIC	??0?$_Vector_val@U?$_Simple_types@D@std@@@std@@QAE@XZ ; std::_Vector_val<std::_Simple_types<char> >::_Vector_val<std::_Simple_types<char> >
PUBLIC	??1?$_Vector_val@U?$_Simple_types@D@std@@@std@@QAE@XZ ; std::_Vector_val<std::_Simple_types<char> >::~_Vector_val<std::_Simple_types<char> >
PUBLIC	?_Get_first@?$_Compressed_pair@U?$_Wrap_alloc@V?$allocator@D@std@@@std@@V?$_Vector_val@U?$_Simple_types@D@std@@@2@$00@std@@QAEAAU?$_Wrap_alloc@V?$allocator@D@std@@@2@XZ ; std::_Compressed_pair<std::_Wrap_alloc<std::allocator<char> >,std::_Vector_val<std::_Simple_types<char> >,1>::_Get_first
PUBLIC	?_Get_first@?$_Compressed_pair@U?$_Wrap_alloc@V?$allocator@D@std@@@std@@V?$_Vector_val@U?$_Simple_types@D@std@@@2@$00@std@@QBEABU?$_Wrap_alloc@V?$allocator@D@std@@@2@XZ ; std::_Compressed_pair<std::_Wrap_alloc<std::allocator<char> >,std::_Vector_val<std::_Simple_types<char> >,1>::_Get_first
PUBLIC	?_Get_second@?$_Compressed_pair@U?$_Wrap_alloc@V?$allocator@D@std@@@std@@V?$_Vector_val@U?$_Simple_types@D@std@@@2@$00@std@@QAEAAV?$_Vector_val@U?$_Simple_types@D@std@@@2@XZ ; std::_Compressed_pair<std::_Wrap_alloc<std::allocator<char> >,std::_Vector_val<std::_Simple_types<char> >,1>::_Get_second
PUBLIC	?_Get_second@?$_Compressed_pair@U?$_Wrap_alloc@V?$allocator@D@std@@@std@@V?$_Vector_val@U?$_Simple_types@D@std@@@2@$00@std@@QBEABV?$_Vector_val@U?$_Simple_types@D@std@@@2@XZ ; std::_Compressed_pair<std::_Wrap_alloc<std::allocator<char> >,std::_Vector_val<std::_Simple_types<char> >,1>::_Get_second
PUBLIC	??1?$_Compressed_pair@U?$_Wrap_alloc@V?$allocator@D@std@@@std@@V?$_Vector_val@U?$_Simple_types@D@std@@@2@$00@std@@QAE@XZ ; std::_Compressed_pair<std::_Wrap_alloc<std::allocator<char> >,std::_Vector_val<std::_Simple_types<char> >,1>::~_Compressed_pair<std::_Wrap_alloc<std::allocator<char> >,std::_Vector_val<std::_Simple_types<char> >,1>
PUBLIC	??0?$vector@DV?$allocator@D@std@@@std@@QAE@XZ	; std::vector<char,std::allocator<char> >::vector<char,std::allocator<char> >
PUBLIC	??1?$vector@DV?$allocator@D@std@@@std@@QAE@XZ	; std::vector<char,std::allocator<char> >::~vector<char,std::allocator<char> >
PUBLIC	?capacity@?$vector@DV?$allocator@D@std@@@std@@QBEIXZ ; std::vector<char,std::allocator<char> >::capacity
PUBLIC	?_Unused_capacity@?$vector@DV?$allocator@D@std@@@std@@QBEIXZ ; std::vector<char,std::allocator<char> >::_Unused_capacity
PUBLIC	?size@?$vector@DV?$allocator@D@std@@@std@@QBEIXZ ; std::vector<char,std::allocator<char> >::size
PUBLIC	?max_size@?$vector@DV?$allocator@D@std@@@std@@QBEIXZ ; std::vector<char,std::allocator<char> >::max_size
PUBLIC	??A?$vector@DV?$allocator@D@std@@@std@@QAEAADI@Z ; std::vector<char,std::allocator<char> >::operator[]
PUBLIC	?push_back@?$vector@DV?$allocator@D@std@@@std@@QAEXABD@Z ; std::vector<char,std::allocator<char> >::push_back
PUBLIC	?_Destroy@?$vector@DV?$allocator@D@std@@@std@@IAEXPAD0@Z ; std::vector<char,std::allocator<char> >::_Destroy
PUBLIC	?_Grow_to@?$vector@DV?$allocator@D@std@@@std@@IBEII@Z ; std::vector<char,std::allocator<char> >::_Grow_to
PUBLIC	?_Inside@?$vector@DV?$allocator@D@std@@@std@@IBE_NPBD@Z ; std::vector<char,std::allocator<char> >::_Inside
PUBLIC	?_Reallocate@?$vector@DV?$allocator@D@std@@@std@@IAEXI@Z ; std::vector<char,std::allocator<char> >::_Reallocate
PUBLIC	?_Reserve@?$vector@DV?$allocator@D@std@@@std@@IAEXI@Z ; std::vector<char,std::allocator<char> >::_Reserve
PUBLIC	?_Tidy@?$vector@DV?$allocator@D@std@@@std@@IAEXXZ ; std::vector<char,std::allocator<char> >::_Tidy
PUBLIC	?_Xlen@?$vector@DV?$allocator@D@std@@@std@@IBEXXZ ; std::vector<char,std::allocator<char> >::_Xlen
PUBLIC	?_Orphan_range@?$vector@DV?$allocator@D@std@@@std@@IBEXPAD0@Z ; std::vector<char,std::allocator<char> >::_Orphan_range
PUBLIC	??0?$allocator@H@std@@QAE@XZ			; std::allocator<int>::allocator<int>
PUBLIC	??0?$allocator@H@std@@QAE@ABV01@@Z		; std::allocator<int>::allocator<int>
PUBLIC	?deallocate@?$allocator@H@std@@QAEXPAHI@Z	; std::allocator<int>::deallocate
PUBLIC	?allocate@?$allocator@H@std@@QAEPAHI@Z		; std::allocator<int>::allocate
PUBLIC	?max_size@?$allocator@H@std@@QBEIXZ		; std::allocator<int>::max_size
PUBLIC	?max_size@?$allocator_traits@V?$allocator@H@std@@@std@@SAIABV?$allocator@H@2@@Z ; std::allocator_traits<std::allocator<int> >::max_size
PUBLIC	??0?$_Wrap_alloc@V?$allocator@H@std@@@std@@QAE@ABV?$allocator@H@1@@Z ; std::_Wrap_alloc<std::allocator<int> >::_Wrap_alloc<std::allocator<int> >
PUBLIC	?allocate@?$_Wrap_alloc@V?$allocator@H@std@@@std@@QAEPAHI@Z ; std::_Wrap_alloc<std::allocator<int> >::allocate
PUBLIC	?deallocate@?$_Wrap_alloc@V?$allocator@H@std@@@std@@QAEXPAHI@Z ; std::_Wrap_alloc<std::allocator<int> >::deallocate
PUBLIC	?max_size@?$_Wrap_alloc@V?$allocator@H@std@@@std@@QBEIU_Nil@2@@Z ; std::_Wrap_alloc<std::allocator<int> >::max_size
PUBLIC	??0?$_Vector_alloc@U?$_Vec_base_types@HV?$allocator@H@std@@@std@@@std@@QAE@ABV?$allocator@H@1@@Z ; std::_Vector_alloc<std::_Vec_base_types<int,std::allocator<int> > >::_Vector_alloc<std::_Vec_base_types<int,std::allocator<int> > >
PUBLIC	??1?$_Vector_alloc@U?$_Vec_base_types@HV?$allocator@H@std@@@std@@@std@@QAE@XZ ; std::_Vector_alloc<std::_Vec_base_types<int,std::allocator<int> > >::~_Vector_alloc<std::_Vec_base_types<int,std::allocator<int> > >
PUBLIC	?_Alloc_proxy@?$_Vector_alloc@U?$_Vec_base_types@HV?$allocator@H@std@@@std@@@std@@QAEXXZ ; std::_Vector_alloc<std::_Vec_base_types<int,std::allocator<int> > >::_Alloc_proxy
PUBLIC	?_Free_proxy@?$_Vector_alloc@U?$_Vec_base_types@HV?$allocator@H@std@@@std@@@std@@QAEXXZ ; std::_Vector_alloc<std::_Vec_base_types<int,std::allocator<int> > >::_Free_proxy
PUBLIC	?_Getpfirst@?$_Vector_alloc@U?$_Vec_base_types@HV?$allocator@H@std@@@std@@@std@@QBEPAPAU_Iterator_base12@2@XZ ; std::_Vector_alloc<std::_Vec_base_types<int,std::allocator<int> > >::_Getpfirst
PUBLIC	?_Myproxy@?$_Vector_alloc@U?$_Vec_base_types@HV?$allocator@H@std@@@std@@@std@@QAEAAPAU_Container_proxy@2@XZ ; std::_Vector_alloc<std::_Vec_base_types<int,std::allocator<int> > >::_Myproxy
PUBLIC	?_Orphan_all@?$_Vector_alloc@U?$_Vec_base_types@HV?$allocator@H@std@@@std@@@std@@QAEXXZ ; std::_Vector_alloc<std::_Vec_base_types<int,std::allocator<int> > >::_Orphan_all
PUBLIC	?_Getal@?$_Vector_alloc@U?$_Vec_base_types@HV?$allocator@H@std@@@std@@@std@@QAEAAU?$_Wrap_alloc@V?$allocator@H@std@@@2@XZ ; std::_Vector_alloc<std::_Vec_base_types<int,std::allocator<int> > >::_Getal
PUBLIC	?_Getal@?$_Vector_alloc@U?$_Vec_base_types@HV?$allocator@H@std@@@std@@@std@@QBEABU?$_Wrap_alloc@V?$allocator@H@std@@@2@XZ ; std::_Vector_alloc<std::_Vec_base_types<int,std::allocator<int> > >::_Getal
PUBLIC	?_Get_data@?$_Vector_alloc@U?$_Vec_base_types@HV?$allocator@H@std@@@std@@@std@@QAEAAV?$_Vector_val@U?$_Simple_types@H@std@@@2@XZ ; std::_Vector_alloc<std::_Vec_base_types<int,std::allocator<int> > >::_Get_data
PUBLIC	?_Get_data@?$_Vector_alloc@U?$_Vec_base_types@HV?$allocator@H@std@@@std@@@std@@QBEABV?$_Vector_val@U?$_Simple_types@H@std@@@2@XZ ; std::_Vector_alloc<std::_Vec_base_types<int,std::allocator<int> > >::_Get_data
PUBLIC	?_Myfirst@?$_Vector_alloc@U?$_Vec_base_types@HV?$allocator@H@std@@@std@@@std@@QAEAAPAHXZ ; std::_Vector_alloc<std::_Vec_base_types<int,std::allocator<int> > >::_Myfirst
PUBLIC	?_Myfirst@?$_Vector_alloc@U?$_Vec_base_types@HV?$allocator@H@std@@@std@@@std@@QBEABQAHXZ ; std::_Vector_alloc<std::_Vec_base_types<int,std::allocator<int> > >::_Myfirst
PUBLIC	?_Mylast@?$_Vector_alloc@U?$_Vec_base_types@HV?$allocator@H@std@@@std@@@std@@QAEAAPAHXZ ; std::_Vector_alloc<std::_Vec_base_types<int,std::allocator<int> > >::_Mylast
PUBLIC	?_Mylast@?$_Vector_alloc@U?$_Vec_base_types@HV?$allocator@H@std@@@std@@@std@@QBEABQAHXZ ; std::_Vector_alloc<std::_Vec_base_types<int,std::allocator<int> > >::_Mylast
PUBLIC	?_Myend@?$_Vector_alloc@U?$_Vec_base_types@HV?$allocator@H@std@@@std@@@std@@QAEAAPAHXZ ; std::_Vector_alloc<std::_Vec_base_types<int,std::allocator<int> > >::_Myend
PUBLIC	?_Myend@?$_Vector_alloc@U?$_Vec_base_types@HV?$allocator@H@std@@@std@@@std@@QBEABQAHXZ ; std::_Vector_alloc<std::_Vec_base_types<int,std::allocator<int> > >::_Myend
PUBLIC	??0?$_Vector_val@U?$_Simple_types@H@std@@@std@@QAE@XZ ; std::_Vector_val<std::_Simple_types<int> >::_Vector_val<std::_Simple_types<int> >
PUBLIC	??1?$_Vector_val@U?$_Simple_types@H@std@@@std@@QAE@XZ ; std::_Vector_val<std::_Simple_types<int> >::~_Vector_val<std::_Simple_types<int> >
PUBLIC	?_Get_first@?$_Compressed_pair@U?$_Wrap_alloc@V?$allocator@H@std@@@std@@V?$_Vector_val@U?$_Simple_types@H@std@@@2@$00@std@@QAEAAU?$_Wrap_alloc@V?$allocator@H@std@@@2@XZ ; std::_Compressed_pair<std::_Wrap_alloc<std::allocator<int> >,std::_Vector_val<std::_Simple_types<int> >,1>::_Get_first
PUBLIC	?_Get_first@?$_Compressed_pair@U?$_Wrap_alloc@V?$allocator@H@std@@@std@@V?$_Vector_val@U?$_Simple_types@H@std@@@2@$00@std@@QBEABU?$_Wrap_alloc@V?$allocator@H@std@@@2@XZ ; std::_Compressed_pair<std::_Wrap_alloc<std::allocator<int> >,std::_Vector_val<std::_Simple_types<int> >,1>::_Get_first
PUBLIC	?_Get_second@?$_Compressed_pair@U?$_Wrap_alloc@V?$allocator@H@std@@@std@@V?$_Vector_val@U?$_Simple_types@H@std@@@2@$00@std@@QAEAAV?$_Vector_val@U?$_Simple_types@H@std@@@2@XZ ; std::_Compressed_pair<std::_Wrap_alloc<std::allocator<int> >,std::_Vector_val<std::_Simple_types<int> >,1>::_Get_second
PUBLIC	?_Get_second@?$_Compressed_pair@U?$_Wrap_alloc@V?$allocator@H@std@@@std@@V?$_Vector_val@U?$_Simple_types@H@std@@@2@$00@std@@QBEABV?$_Vector_val@U?$_Simple_types@H@std@@@2@XZ ; std::_Compressed_pair<std::_Wrap_alloc<std::allocator<int> >,std::_Vector_val<std::_Simple_types<int> >,1>::_Get_second
PUBLIC	??1?$_Compressed_pair@U?$_Wrap_alloc@V?$allocator@H@std@@@std@@V?$_Vector_val@U?$_Simple_types@H@std@@@2@$00@std@@QAE@XZ ; std::_Compressed_pair<std::_Wrap_alloc<std::allocator<int> >,std::_Vector_val<std::_Simple_types<int> >,1>::~_Compressed_pair<std::_Wrap_alloc<std::allocator<int> >,std::_Vector_val<std::_Simple_types<int> >,1>
PUBLIC	??0?$vector@HV?$allocator@H@std@@@std@@QAE@XZ	; std::vector<int,std::allocator<int> >::vector<int,std::allocator<int> >
PUBLIC	??1?$vector@HV?$allocator@H@std@@@std@@QAE@XZ	; std::vector<int,std::allocator<int> >::~vector<int,std::allocator<int> >
PUBLIC	?capacity@?$vector@HV?$allocator@H@std@@@std@@QBEIXZ ; std::vector<int,std::allocator<int> >::capacity
PUBLIC	?_Unused_capacity@?$vector@HV?$allocator@H@std@@@std@@QBEIXZ ; std::vector<int,std::allocator<int> >::_Unused_capacity
PUBLIC	?size@?$vector@HV?$allocator@H@std@@@std@@QBEIXZ ; std::vector<int,std::allocator<int> >::size
PUBLIC	?max_size@?$vector@HV?$allocator@H@std@@@std@@QBEIXZ ; std::vector<int,std::allocator<int> >::max_size
PUBLIC	??A?$vector@HV?$allocator@H@std@@@std@@QAEAAHI@Z ; std::vector<int,std::allocator<int> >::operator[]
PUBLIC	?push_back@?$vector@HV?$allocator@H@std@@@std@@QAEXABH@Z ; std::vector<int,std::allocator<int> >::push_back
PUBLIC	?_Destroy@?$vector@HV?$allocator@H@std@@@std@@IAEXPAH0@Z ; std::vector<int,std::allocator<int> >::_Destroy
PUBLIC	?_Grow_to@?$vector@HV?$allocator@H@std@@@std@@IBEII@Z ; std::vector<int,std::allocator<int> >::_Grow_to
PUBLIC	?_Inside@?$vector@HV?$allocator@H@std@@@std@@IBE_NPBH@Z ; std::vector<int,std::allocator<int> >::_Inside
PUBLIC	?_Reallocate@?$vector@HV?$allocator@H@std@@@std@@IAEXI@Z ; std::vector<int,std::allocator<int> >::_Reallocate
PUBLIC	?_Reserve@?$vector@HV?$allocator@H@std@@@std@@IAEXI@Z ; std::vector<int,std::allocator<int> >::_Reserve
PUBLIC	?_Tidy@?$vector@HV?$allocator@H@std@@@std@@IAEXXZ ; std::vector<int,std::allocator<int> >::_Tidy
PUBLIC	?_Xlen@?$vector@HV?$allocator@H@std@@@std@@IBEXXZ ; std::vector<int,std::allocator<int> >::_Xlen
PUBLIC	?_Orphan_range@?$vector@HV?$allocator@H@std@@@std@@IBEXPAH0@Z ; std::vector<int,std::allocator<int> >::_Orphan_range
PUBLIC	??0?$allocator@Vplain_particle@@@std@@QAE@XZ	; std::allocator<plain_particle>::allocator<plain_particle>
PUBLIC	??0?$allocator@Vplain_particle@@@std@@QAE@ABV01@@Z ; std::allocator<plain_particle>::allocator<plain_particle>
PUBLIC	?deallocate@?$allocator@Vplain_particle@@@std@@QAEXPAVplain_particle@@I@Z ; std::allocator<plain_particle>::deallocate
PUBLIC	?allocate@?$allocator@Vplain_particle@@@std@@QAEPAVplain_particle@@I@Z ; std::allocator<plain_particle>::allocate
PUBLIC	?max_size@?$allocator@Vplain_particle@@@std@@QBEIXZ ; std::allocator<plain_particle>::max_size
PUBLIC	?max_size@?$allocator_traits@V?$allocator@Vplain_particle@@@std@@@std@@SAIABV?$allocator@Vplain_particle@@@2@@Z ; std::allocator_traits<std::allocator<plain_particle> >::max_size
PUBLIC	??0?$_Wrap_alloc@V?$allocator@Vplain_particle@@@std@@@std@@QAE@ABV?$allocator@Vplain_particle@@@1@@Z ; std::_Wrap_alloc<std::allocator<plain_particle> >::_Wrap_alloc<std::allocator<plain_particle> >
PUBLIC	?allocate@?$_Wrap_alloc@V?$allocator@Vplain_particle@@@std@@@std@@QAEPAVplain_particle@@I@Z ; std::_Wrap_alloc<std::allocator<plain_particle> >::allocate
PUBLIC	?deallocate@?$_Wrap_alloc@V?$allocator@Vplain_particle@@@std@@@std@@QAEXPAVplain_particle@@I@Z ; std::_Wrap_alloc<std::allocator<plain_particle> >::deallocate
PUBLIC	?max_size@?$_Wrap_alloc@V?$allocator@Vplain_particle@@@std@@@std@@QBEIU_Nil@2@@Z ; std::_Wrap_alloc<std::allocator<plain_particle> >::max_size
PUBLIC	??0?$_Vector_alloc@U?$_Vec_base_types@Vplain_particle@@V?$allocator@Vplain_particle@@@std@@@std@@@std@@QAE@ABV?$allocator@Vplain_particle@@@1@@Z ; std::_Vector_alloc<std::_Vec_base_types<plain_particle,std::allocator<plain_particle> > >::_Vector_alloc<std::_Vec_base_types<plain_particle,std::allocator<plain_particle> > >
PUBLIC	??1?$_Vector_alloc@U?$_Vec_base_types@Vplain_particle@@V?$allocator@Vplain_particle@@@std@@@std@@@std@@QAE@XZ ; std::_Vector_alloc<std::_Vec_base_types<plain_particle,std::allocator<plain_particle> > >::~_Vector_alloc<std::_Vec_base_types<plain_particle,std::allocator<plain_particle> > >
PUBLIC	?_Alloc_proxy@?$_Vector_alloc@U?$_Vec_base_types@Vplain_particle@@V?$allocator@Vplain_particle@@@std@@@std@@@std@@QAEXXZ ; std::_Vector_alloc<std::_Vec_base_types<plain_particle,std::allocator<plain_particle> > >::_Alloc_proxy
PUBLIC	?_Free_proxy@?$_Vector_alloc@U?$_Vec_base_types@Vplain_particle@@V?$allocator@Vplain_particle@@@std@@@std@@@std@@QAEXXZ ; std::_Vector_alloc<std::_Vec_base_types<plain_particle,std::allocator<plain_particle> > >::_Free_proxy
PUBLIC	?_Getpfirst@?$_Vector_alloc@U?$_Vec_base_types@Vplain_particle@@V?$allocator@Vplain_particle@@@std@@@std@@@std@@QBEPAPAU_Iterator_base12@2@XZ ; std::_Vector_alloc<std::_Vec_base_types<plain_particle,std::allocator<plain_particle> > >::_Getpfirst
PUBLIC	?_Myproxy@?$_Vector_alloc@U?$_Vec_base_types@Vplain_particle@@V?$allocator@Vplain_particle@@@std@@@std@@@std@@QAEAAPAU_Container_proxy@2@XZ ; std::_Vector_alloc<std::_Vec_base_types<plain_particle,std::allocator<plain_particle> > >::_Myproxy
PUBLIC	?_Orphan_all@?$_Vector_alloc@U?$_Vec_base_types@Vplain_particle@@V?$allocator@Vplain_particle@@@std@@@std@@@std@@QAEXXZ ; std::_Vector_alloc<std::_Vec_base_types<plain_particle,std::allocator<plain_particle> > >::_Orphan_all
PUBLIC	?_Getal@?$_Vector_alloc@U?$_Vec_base_types@Vplain_particle@@V?$allocator@Vplain_particle@@@std@@@std@@@std@@QAEAAU?$_Wrap_alloc@V?$allocator@Vplain_particle@@@std@@@2@XZ ; std::_Vector_alloc<std::_Vec_base_types<plain_particle,std::allocator<plain_particle> > >::_Getal
PUBLIC	?_Getal@?$_Vector_alloc@U?$_Vec_base_types@Vplain_particle@@V?$allocator@Vplain_particle@@@std@@@std@@@std@@QBEABU?$_Wrap_alloc@V?$allocator@Vplain_particle@@@std@@@2@XZ ; std::_Vector_alloc<std::_Vec_base_types<plain_particle,std::allocator<plain_particle> > >::_Getal
PUBLIC	?_Get_data@?$_Vector_alloc@U?$_Vec_base_types@Vplain_particle@@V?$allocator@Vplain_particle@@@std@@@std@@@std@@QAEAAV?$_Vector_val@U?$_Simple_types@Vplain_particle@@@std@@@2@XZ ; std::_Vector_alloc<std::_Vec_base_types<plain_particle,std::allocator<plain_particle> > >::_Get_data
PUBLIC	?_Get_data@?$_Vector_alloc@U?$_Vec_base_types@Vplain_particle@@V?$allocator@Vplain_particle@@@std@@@std@@@std@@QBEABV?$_Vector_val@U?$_Simple_types@Vplain_particle@@@std@@@2@XZ ; std::_Vector_alloc<std::_Vec_base_types<plain_particle,std::allocator<plain_particle> > >::_Get_data
PUBLIC	?_Myfirst@?$_Vector_alloc@U?$_Vec_base_types@Vplain_particle@@V?$allocator@Vplain_particle@@@std@@@std@@@std@@QAEAAPAVplain_particle@@XZ ; std::_Vector_alloc<std::_Vec_base_types<plain_particle,std::allocator<plain_particle> > >::_Myfirst
PUBLIC	?_Myfirst@?$_Vector_alloc@U?$_Vec_base_types@Vplain_particle@@V?$allocator@Vplain_particle@@@std@@@std@@@std@@QBEABQAVplain_particle@@XZ ; std::_Vector_alloc<std::_Vec_base_types<plain_particle,std::allocator<plain_particle> > >::_Myfirst
PUBLIC	?_Mylast@?$_Vector_alloc@U?$_Vec_base_types@Vplain_particle@@V?$allocator@Vplain_particle@@@std@@@std@@@std@@QAEAAPAVplain_particle@@XZ ; std::_Vector_alloc<std::_Vec_base_types<plain_particle,std::allocator<plain_particle> > >::_Mylast
PUBLIC	?_Mylast@?$_Vector_alloc@U?$_Vec_base_types@Vplain_particle@@V?$allocator@Vplain_particle@@@std@@@std@@@std@@QBEABQAVplain_particle@@XZ ; std::_Vector_alloc<std::_Vec_base_types<plain_particle,std::allocator<plain_particle> > >::_Mylast
PUBLIC	?_Myend@?$_Vector_alloc@U?$_Vec_base_types@Vplain_particle@@V?$allocator@Vplain_particle@@@std@@@std@@@std@@QAEAAPAVplain_particle@@XZ ; std::_Vector_alloc<std::_Vec_base_types<plain_particle,std::allocator<plain_particle> > >::_Myend
PUBLIC	?_Myend@?$_Vector_alloc@U?$_Vec_base_types@Vplain_particle@@V?$allocator@Vplain_particle@@@std@@@std@@@std@@QBEABQAVplain_particle@@XZ ; std::_Vector_alloc<std::_Vec_base_types<plain_particle,std::allocator<plain_particle> > >::_Myend
PUBLIC	??0?$_Vector_val@U?$_Simple_types@Vplain_particle@@@std@@@std@@QAE@XZ ; std::_Vector_val<std::_Simple_types<plain_particle> >::_Vector_val<std::_Simple_types<plain_particle> >
PUBLIC	??1?$_Vector_val@U?$_Simple_types@Vplain_particle@@@std@@@std@@QAE@XZ ; std::_Vector_val<std::_Simple_types<plain_particle> >::~_Vector_val<std::_Simple_types<plain_particle> >
PUBLIC	?_Get_first@?$_Compressed_pair@U?$_Wrap_alloc@V?$allocator@Vplain_particle@@@std@@@std@@V?$_Vector_val@U?$_Simple_types@Vplain_particle@@@std@@@2@$00@std@@QAEAAU?$_Wrap_alloc@V?$allocator@Vplain_particle@@@std@@@2@XZ ; std::_Compressed_pair<std::_Wrap_alloc<std::allocator<plain_particle> >,std::_Vector_val<std::_Simple_types<plain_particle> >,1>::_Get_first
PUBLIC	?_Get_first@?$_Compressed_pair@U?$_Wrap_alloc@V?$allocator@Vplain_particle@@@std@@@std@@V?$_Vector_val@U?$_Simple_types@Vplain_particle@@@std@@@2@$00@std@@QBEABU?$_Wrap_alloc@V?$allocator@Vplain_particle@@@std@@@2@XZ ; std::_Compressed_pair<std::_Wrap_alloc<std::allocator<plain_particle> >,std::_Vector_val<std::_Simple_types<plain_particle> >,1>::_Get_first
PUBLIC	?_Get_second@?$_Compressed_pair@U?$_Wrap_alloc@V?$allocator@Vplain_particle@@@std@@@std@@V?$_Vector_val@U?$_Simple_types@Vplain_particle@@@std@@@2@$00@std@@QAEAAV?$_Vector_val@U?$_Simple_types@Vplain_particle@@@std@@@2@XZ ; std::_Compressed_pair<std::_Wrap_alloc<std::allocator<plain_particle> >,std::_Vector_val<std::_Simple_types<plain_particle> >,1>::_Get_second
PUBLIC	?_Get_second@?$_Compressed_pair@U?$_Wrap_alloc@V?$allocator@Vplain_particle@@@std@@@std@@V?$_Vector_val@U?$_Simple_types@Vplain_particle@@@std@@@2@$00@std@@QBEABV?$_Vector_val@U?$_Simple_types@Vplain_particle@@@std@@@2@XZ ; std::_Compressed_pair<std::_Wrap_alloc<std::allocator<plain_particle> >,std::_Vector_val<std::_Simple_types<plain_particle> >,1>::_Get_second
PUBLIC	??1?$_Compressed_pair@U?$_Wrap_alloc@V?$allocator@Vplain_particle@@@std@@@std@@V?$_Vector_val@U?$_Simple_types@Vplain_particle@@@std@@@2@$00@std@@QAE@XZ ; std::_Compressed_pair<std::_Wrap_alloc<std::allocator<plain_particle> >,std::_Vector_val<std::_Simple_types<plain_particle> >,1>::~_Compressed_pair<std::_Wrap_alloc<std::allocator<plain_particle> >,std::_Vector_val<std::_Simple_types<plain_particle> >,1>
PUBLIC	??0?$vector@Vplain_particle@@V?$allocator@Vplain_particle@@@std@@@std@@QAE@XZ ; std::vector<plain_particle,std::allocator<plain_particle> >::vector<plain_particle,std::allocator<plain_particle> >
PUBLIC	?push_back@?$vector@Vplain_particle@@V?$allocator@Vplain_particle@@@std@@@std@@QAEX$$QAVplain_particle@@@Z ; std::vector<plain_particle,std::allocator<plain_particle> >::push_back
PUBLIC	??1?$vector@Vplain_particle@@V?$allocator@Vplain_particle@@@std@@@std@@QAE@XZ ; std::vector<plain_particle,std::allocator<plain_particle> >::~vector<plain_particle,std::allocator<plain_particle> >
PUBLIC	?capacity@?$vector@Vplain_particle@@V?$allocator@Vplain_particle@@@std@@@std@@QBEIXZ ; std::vector<plain_particle,std::allocator<plain_particle> >::capacity
PUBLIC	?_Unused_capacity@?$vector@Vplain_particle@@V?$allocator@Vplain_particle@@@std@@@std@@QBEIXZ ; std::vector<plain_particle,std::allocator<plain_particle> >::_Unused_capacity
PUBLIC	?begin@?$vector@Vplain_particle@@V?$allocator@Vplain_particle@@@std@@@std@@QAE?AV?$_Vector_iterator@V?$_Vector_val@U?$_Simple_types@Vplain_particle@@@std@@@std@@@2@XZ ; std::vector<plain_particle,std::allocator<plain_particle> >::begin
PUBLIC	?end@?$vector@Vplain_particle@@V?$allocator@Vplain_particle@@@std@@@std@@QAE?AV?$_Vector_iterator@V?$_Vector_val@U?$_Simple_types@Vplain_particle@@@std@@@std@@@2@XZ ; std::vector<plain_particle,std::allocator<plain_particle> >::end
PUBLIC	?size@?$vector@Vplain_particle@@V?$allocator@Vplain_particle@@@std@@@std@@QBEIXZ ; std::vector<plain_particle,std::allocator<plain_particle> >::size
PUBLIC	?max_size@?$vector@Vplain_particle@@V?$allocator@Vplain_particle@@@std@@@std@@QBEIXZ ; std::vector<plain_particle,std::allocator<plain_particle> >::max_size
PUBLIC	?_Destroy@?$vector@Vplain_particle@@V?$allocator@Vplain_particle@@@std@@@std@@IAEXPAVplain_particle@@0@Z ; std::vector<plain_particle,std::allocator<plain_particle> >::_Destroy
PUBLIC	?_Grow_to@?$vector@Vplain_particle@@V?$allocator@Vplain_particle@@@std@@@std@@IBEII@Z ; std::vector<plain_particle,std::allocator<plain_particle> >::_Grow_to
PUBLIC	?_Inside@?$vector@Vplain_particle@@V?$allocator@Vplain_particle@@@std@@@std@@IBE_NPBVplain_particle@@@Z ; std::vector<plain_particle,std::allocator<plain_particle> >::_Inside
PUBLIC	?_Reallocate@?$vector@Vplain_particle@@V?$allocator@Vplain_particle@@@std@@@std@@IAEXI@Z ; std::vector<plain_particle,std::allocator<plain_particle> >::_Reallocate
PUBLIC	?_Reserve@?$vector@Vplain_particle@@V?$allocator@Vplain_particle@@@std@@@std@@IAEXI@Z ; std::vector<plain_particle,std::allocator<plain_particle> >::_Reserve
PUBLIC	?_Tidy@?$vector@Vplain_particle@@V?$allocator@Vplain_particle@@@std@@@std@@IAEXXZ ; std::vector<plain_particle,std::allocator<plain_particle> >::_Tidy
PUBLIC	?_Xlen@?$vector@Vplain_particle@@V?$allocator@Vplain_particle@@@std@@@std@@IBEXXZ ; std::vector<plain_particle,std::allocator<plain_particle> >::_Xlen
PUBLIC	?_Orphan_range@?$vector@Vplain_particle@@V?$allocator@Vplain_particle@@@std@@@std@@IBEXPAVplain_particle@@0@Z ; std::vector<plain_particle,std::allocator<plain_particle> >::_Orphan_range
PUBLIC	??0?$_Iterator012@Urandom_access_iterator_tag@std@@Vplain_particle@@HPBV3@ABV3@U_Iterator_base12@2@@std@@QAE@XZ ; std::_Iterator012<std::random_access_iterator_tag,plain_particle,int,plain_particle const *,plain_particle const &,std::_Iterator_base12>::_Iterator012<std::random_access_iterator_tag,plain_particle,int,plain_particle const *,plain_particle const &,std::_Iterator_base12>
PUBLIC	??1?$_Iterator012@Urandom_access_iterator_tag@std@@Vplain_particle@@HPBV3@ABV3@U_Iterator_base12@2@@std@@QAE@XZ ; std::_Iterator012<std::random_access_iterator_tag,plain_particle,int,plain_particle const *,plain_particle const &,std::_Iterator_base12>::~_Iterator012<std::random_access_iterator_tag,plain_particle,int,plain_particle const *,plain_particle const &,std::_Iterator_base12>
PUBLIC	??0?$_Iterator012@Urandom_access_iterator_tag@std@@Vplain_particle@@HPBV3@ABV3@U_Iterator_base12@2@@std@@QAE@ABU01@@Z ; std::_Iterator012<std::random_access_iterator_tag,plain_particle,int,plain_particle const *,plain_particle const &,std::_Iterator_base12>::_Iterator012<std::random_access_iterator_tag,plain_particle,int,plain_particle const *,plain_particle const &,std::_Iterator_base12>
PUBLIC	??0?$_Iterator012@Urandom_access_iterator_tag@std@@Vplain_particle@@HPBV3@ABV3@U_Iterator_base12@2@@std@@QAE@$$QAU01@@Z ; std::_Iterator012<std::random_access_iterator_tag,plain_particle,int,plain_particle const *,plain_particle const &,std::_Iterator_base12>::_Iterator012<std::random_access_iterator_tag,plain_particle,int,plain_particle const *,plain_particle const &,std::_Iterator_base12>
PUBLIC	??0?$_Vector_const_iterator@V?$_Vector_val@U?$_Simple_types@Vplain_particle@@@std@@@std@@@std@@QAE@PAVplain_particle@@PBU_Container_base12@1@@Z ; std::_Vector_const_iterator<std::_Vector_val<std::_Simple_types<plain_particle> > >::_Vector_const_iterator<std::_Vector_val<std::_Simple_types<plain_particle> > >
PUBLIC	??D?$_Vector_const_iterator@V?$_Vector_val@U?$_Simple_types@Vplain_particle@@@std@@@std@@@std@@QBEABVplain_particle@@XZ ; std::_Vector_const_iterator<std::_Vector_val<std::_Simple_types<plain_particle> > >::operator*
PUBLIC	??E?$_Vector_const_iterator@V?$_Vector_val@U?$_Simple_types@Vplain_particle@@@std@@@std@@@std@@QAEAAV01@XZ ; std::_Vector_const_iterator<std::_Vector_val<std::_Simple_types<plain_particle> > >::operator++
PUBLIC	??Y?$_Vector_const_iterator@V?$_Vector_val@U?$_Simple_types@Vplain_particle@@@std@@@std@@@std@@QAEAAV01@H@Z ; std::_Vector_const_iterator<std::_Vector_val<std::_Simple_types<plain_particle> > >::operator+=
PUBLIC	??8?$_Vector_const_iterator@V?$_Vector_val@U?$_Simple_types@Vplain_particle@@@std@@@std@@@std@@QBE_NABV01@@Z ; std::_Vector_const_iterator<std::_Vector_val<std::_Simple_types<plain_particle> > >::operator==
PUBLIC	??9?$_Vector_const_iterator@V?$_Vector_val@U?$_Simple_types@Vplain_particle@@@std@@@std@@@std@@QBE_NABV01@@Z ; std::_Vector_const_iterator<std::_Vector_val<std::_Simple_types<plain_particle> > >::operator!=
PUBLIC	?_Compat@?$_Vector_const_iterator@V?$_Vector_val@U?$_Simple_types@Vplain_particle@@@std@@@std@@@std@@QBEXABV12@@Z ; std::_Vector_const_iterator<std::_Vector_val<std::_Simple_types<plain_particle> > >::_Compat
PUBLIC	??1?$_Vector_const_iterator@V?$_Vector_val@U?$_Simple_types@Vplain_particle@@@std@@@std@@@std@@QAE@XZ ; std::_Vector_const_iterator<std::_Vector_val<std::_Simple_types<plain_particle> > >::~_Vector_const_iterator<std::_Vector_val<std::_Simple_types<plain_particle> > >
PUBLIC	??0?$_Vector_const_iterator@V?$_Vector_val@U?$_Simple_types@Vplain_particle@@@std@@@std@@@std@@QAE@ABV01@@Z ; std::_Vector_const_iterator<std::_Vector_val<std::_Simple_types<plain_particle> > >::_Vector_const_iterator<std::_Vector_val<std::_Simple_types<plain_particle> > >
PUBLIC	??0?$_Vector_const_iterator@V?$_Vector_val@U?$_Simple_types@Vplain_particle@@@std@@@std@@@std@@QAE@$$QAV01@@Z ; std::_Vector_const_iterator<std::_Vector_val<std::_Simple_types<plain_particle> > >::_Vector_const_iterator<std::_Vector_val<std::_Simple_types<plain_particle> > >
PUBLIC	??0?$_Vector_iterator@V?$_Vector_val@U?$_Simple_types@Vplain_particle@@@std@@@std@@@std@@QAE@PAVplain_particle@@PBU_Container_base12@1@@Z ; std::_Vector_iterator<std::_Vector_val<std::_Simple_types<plain_particle> > >::_Vector_iterator<std::_Vector_val<std::_Simple_types<plain_particle> > >
PUBLIC	??D?$_Vector_iterator@V?$_Vector_val@U?$_Simple_types@Vplain_particle@@@std@@@std@@@std@@QBEAAVplain_particle@@XZ ; std::_Vector_iterator<std::_Vector_val<std::_Simple_types<plain_particle> > >::operator*
PUBLIC	??C?$_Vector_iterator@V?$_Vector_val@U?$_Simple_types@Vplain_particle@@@std@@@std@@@std@@QBEPAVplain_particle@@XZ ; std::_Vector_iterator<std::_Vector_val<std::_Simple_types<plain_particle> > >::operator->
PUBLIC	??E?$_Vector_iterator@V?$_Vector_val@U?$_Simple_types@Vplain_particle@@@std@@@std@@@std@@QAEAAV01@XZ ; std::_Vector_iterator<std::_Vector_val<std::_Simple_types<plain_particle> > >::operator++
PUBLIC	??E?$_Vector_iterator@V?$_Vector_val@U?$_Simple_types@Vplain_particle@@@std@@@std@@@std@@QAE?AV01@H@Z ; std::_Vector_iterator<std::_Vector_val<std::_Simple_types<plain_particle> > >::operator++
PUBLIC	??Y?$_Vector_iterator@V?$_Vector_val@U?$_Simple_types@Vplain_particle@@@std@@@std@@@std@@QAEAAV01@H@Z ; std::_Vector_iterator<std::_Vector_val<std::_Simple_types<plain_particle> > >::operator+=
PUBLIC	??H?$_Vector_iterator@V?$_Vector_val@U?$_Simple_types@Vplain_particle@@@std@@@std@@@std@@QBE?AV01@H@Z ; std::_Vector_iterator<std::_Vector_val<std::_Simple_types<plain_particle> > >::operator+
PUBLIC	??A?$_Vector_iterator@V?$_Vector_val@U?$_Simple_types@Vplain_particle@@@std@@@std@@@std@@QBEAAVplain_particle@@H@Z ; std::_Vector_iterator<std::_Vector_val<std::_Simple_types<plain_particle> > >::operator[]
PUBLIC	??1?$_Vector_iterator@V?$_Vector_val@U?$_Simple_types@Vplain_particle@@@std@@@std@@@std@@QAE@XZ ; std::_Vector_iterator<std::_Vector_val<std::_Simple_types<plain_particle> > >::~_Vector_iterator<std::_Vector_val<std::_Simple_types<plain_particle> > >
PUBLIC	??0?$_Vector_iterator@V?$_Vector_val@U?$_Simple_types@Vplain_particle@@@std@@@std@@@std@@QAE@ABV01@@Z ; std::_Vector_iterator<std::_Vector_val<std::_Simple_types<plain_particle> > >::_Vector_iterator<std::_Vector_val<std::_Simple_types<plain_particle> > >
PUBLIC	??0?$_Vector_iterator@V?$_Vector_val@U?$_Simple_types@Vplain_particle@@@std@@@std@@@std@@QAE@$$QAV01@@Z ; std::_Vector_iterator<std::_Vector_val<std::_Simple_types<plain_particle> > >::_Vector_iterator<std::_Vector_val<std::_Simple_types<plain_particle> > >
PUBLIC	??0?$access@U?$member@D$0A@@dod@@@dod@@QAE@PAD@Z ; dod::access<dod::member<char,0> >::access<dod::member<char,0> >
PUBLIC	?get@?$access@U?$member@D$0A@@dod@@@dod@@QBEABDU?$member@D$0A@@2@@Z ; dod::access<dod::member<char,0> >::get
PUBLIC	?equal@?$access@U?$member@D$0A@@dod@@@dod@@QBE_NABV12@@Z ; dod::access<dod::member<char,0> >::equal
PUBLIC	?increment@?$access@U?$member@D$0A@@dod@@@dod@@QAEXXZ ; dod::access<dod::member<char,0> >::increment
PUBLIC	?advance@?$access@U?$member@D$0A@@dod@@@dod@@QAEXI@Z ; dod::access<dod::member<char,0> >::advance
PUBLIC	??0?$access@U?$member@H$0A@@dod@@@dod@@QAE@PAH@Z ; dod::access<dod::member<int,0> >::access<dod::member<int,0> >
PUBLIC	?get@?$access@U?$member@H$0A@@dod@@@dod@@QBEABHU?$member@H$0A@@2@@Z ; dod::access<dod::member<int,0> >::get
PUBLIC	?increment@?$access@U?$member@H$0A@@dod@@@dod@@QAEXXZ ; dod::access<dod::member<int,0> >::increment
PUBLIC	?advance@?$access@U?$member@H$0A@@dod@@@dod@@QAEXI@Z ; dod::access<dod::member<int,0> >::advance
PUBLIC	??0?$access@U?$member@H$00@dod@@@dod@@QAE@PAH@Z	; dod::access<dod::member<int,1> >::access<dod::member<int,1> >
PUBLIC	?get@?$access@U?$member@H$00@dod@@@dod@@QBEABHU?$member@H$00@2@@Z ; dod::access<dod::member<int,1> >::get
PUBLIC	?increment@?$access@U?$member@H$00@dod@@@dod@@QAEXXZ ; dod::access<dod::member<int,1> >::increment
PUBLIC	?advance@?$access@U?$member@H$00@dod@@@dod@@QAEXI@Z ; dod::access<dod::member<int,1> >::advance
PUBLIC	??0?$access@U?$member@H$01@dod@@@dod@@QAE@PAH@Z	; dod::access<dod::member<int,2> >::access<dod::member<int,2> >
PUBLIC	?increment@?$access@U?$member@H$01@dod@@@dod@@QAEXXZ ; dod::access<dod::member<int,2> >::increment
PUBLIC	?advance@?$access@U?$member@H$01@dod@@@dod@@QAEXI@Z ; dod::access<dod::member<int,2> >::advance
PUBLIC	??0?$access@U?$member@H$02@dod@@@dod@@QAE@PAH@Z	; dod::access<dod::member<int,3> >::access<dod::member<int,3> >
PUBLIC	?increment@?$access@U?$member@H$02@dod@@@dod@@QAEXXZ ; dod::access<dod::member<int,3> >::increment
PUBLIC	?advance@?$access@U?$member@H$02@dod@@@dod@@QAEXI@Z ; dod::access<dod::member<int,3> >::advance
PUBLIC	?increment@?$access@U?$member@H$01@dod@@U?$member@H$02@2@@dod@@QAEXXZ ; dod::access<dod::member<int,2>,dod::member<int,3> >::increment
PUBLIC	?advance@?$access@U?$member@H$01@dod@@U?$member@H$02@2@@dod@@QAEXI@Z ; dod::access<dod::member<int,2>,dod::member<int,3> >::advance
PUBLIC	?increment@?$access@U?$member@H$00@dod@@U?$member@H$01@2@U?$member@H$02@2@@dod@@QAEXXZ ; dod::access<dod::member<int,1>,dod::member<int,2>,dod::member<int,3> >::increment
PUBLIC	?advance@?$access@U?$member@H$00@dod@@U?$member@H$01@2@U?$member@H$02@2@@dod@@QAEXI@Z ; dod::access<dod::member<int,1>,dod::member<int,2>,dod::member<int,3> >::advance
PUBLIC	?increment@?$access@U?$member@H$0A@@dod@@U?$member@H$00@2@U?$member@H$01@2@U?$member@H$02@2@@dod@@QAEXXZ ; dod::access<dod::member<int,0>,dod::member<int,1>,dod::member<int,2>,dod::member<int,3> >::increment
PUBLIC	?advance@?$access@U?$member@H$0A@@dod@@U?$member@H$00@2@U?$member@H$01@2@U?$member@H$02@2@@dod@@QAEXI@Z ; dod::access<dod::member<int,0>,dod::member<int,1>,dod::member<int,2>,dod::member<int,3> >::advance
PUBLIC	?equal@?$access@U?$member@D$0A@@dod@@U?$member@H$0A@@2@U?$member@H$00@2@U?$member@H$01@2@U?$member@H$02@2@@dod@@QBE_NABV12@@Z ; dod::access<dod::member<char,0>,dod::member<int,0>,dod::member<int,1>,dod::member<int,2>,dod::member<int,3> >::equal
PUBLIC	?increment@?$access@U?$member@D$0A@@dod@@U?$member@H$0A@@2@U?$member@H$00@2@U?$member@H$01@2@U?$member@H$02@2@@dod@@QAEXXZ ; dod::access<dod::member<char,0>,dod::member<int,0>,dod::member<int,1>,dod::member<int,2>,dod::member<int,3> >::increment
PUBLIC	?advance@?$access@U?$member@D$0A@@dod@@U?$member@H$0A@@2@U?$member@H$00@2@U?$member@H$01@2@U?$member@H$02@2@@dod@@QAEXI@Z ; dod::access<dod::member<char,0>,dod::member<int,0>,dod::member<int,1>,dod::member<int,2>,dod::member<int,3> >::advance
PUBLIC	??$?0PADPAHPAHPAHPAH@?$access@U?$member@D$0A@@dod@@U?$member@H$0A@@2@U?$member@H$00@2@U?$member@H$01@2@U?$member@H$02@2@@dod@@QAE@$$QAPAD$$QAPAH111@Z ; dod::access<dod::member<char,0>,dod::member<int,0>,dod::member<int,1>,dod::member<int,2>,dod::member<int,3> >::access<dod::member<char,0>,dod::member<int,0>,dod::member<int,1>,dod::member<int,2>,dod::member<int,3> ><char *,int *,int *,int *,int *>
PUBLIC	??$make_pointer@Vparticle@@V?$access@U?$member@D$0A@@dod@@U?$member@H$0A@@2@U?$member@H$00@2@U?$member@H$01@2@U?$member@H$02@2@@dod@@@dod@@YA?AV?$pointer@V?$particle@V?$access@U?$member@D$0A@@dod@@U?$member@H$0A@@2@U?$member@H$00@2@U?$member@H$01@2@U?$member@H$02@2@@dod@@@@@0@ABV?$access@U?$member@D$0A@@dod@@U?$member@H$0A@@2@U?$member@H$00@2@U?$member@H$01@2@U?$member@H$02@2@@0@@Z ; dod::make_pointer<particle,dod::access<dod::member<char,0>,dod::member<int,0>,dod::member<int,1>,dod::member<int,2>,dod::member<int,3> > >
PUBLIC	??0?$particle@V?$access@U?$member@D$0A@@dod@@U?$member@H$0A@@2@U?$member@H$00@2@U?$member@H$01@2@U?$member@H$02@2@@dod@@@@QAE@ABV?$access@U?$member@D$0A@@dod@@U?$member@H$0A@@2@U?$member@H$00@2@U?$member@H$01@2@U?$member@H$02@2@@dod@@@Z ; particle<dod::access<dod::member<char,0>,dod::member<int,0>,dod::member<int,1>,dod::member<int,2>,dod::member<int,3> > >::particle<dod::access<dod::member<char,0>,dod::member<int,0>,dod::member<int,1>,dod::member<int,2>,dod::member<int,3> > >
PUBLIC	?render@?$particle@V?$access@U?$member@D$0A@@dod@@U?$member@H$0A@@2@U?$member@H$00@2@U?$member@H$01@2@U?$member@H$02@2@@dod@@@@QBEXXZ ; particle<dod::access<dod::member<char,0>,dod::member<int,0>,dod::member<int,1>,dod::member<int,2>,dod::member<int,3> > >::render
PUBLIC	?apply@?$operator_arrow_dispatch@V?$particle@V?$access@U?$member@D$0A@@dod@@U?$member@H$0A@@2@U?$member@H$00@2@U?$member@H$01@2@U?$member@H$02@2@@dod@@@@PAV1@@detail@iterators@boost@@SA?AUproxy@1234@ABV?$particle@V?$access@U?$member@D$0A@@dod@@U?$member@H$0A@@2@U?$member@H$00@2@U?$member@H$01@2@U?$member@H$02@2@@dod@@@@@Z ; boost::iterators::detail::operator_arrow_dispatch<particle<dod::access<dod::member<char,0>,dod::member<int,0>,dod::member<int,1>,dod::member<int,2>,dod::member<int,3> > >,particle<dod::access<dod::member<char,0>,dod::member<int,0>,dod::member<int,1>,dod::member<int,2>,dod::member<int,3> > > *>::apply
PUBLIC	??D?$iterator_facade_base@V?$pointer@V?$particle@V?$access@U?$member@D$0A@@dod@@U?$member@H$0A@@2@U?$member@H$00@2@U?$member@H$01@2@U?$member@H$02@2@@dod@@@@@dod@@V?$particle@V?$access@U?$member@D$0A@@dod@@U?$member@H$0A@@2@U?$member@H$00@2@U?$member@H$01@2@U?$member@H$02@2@@dod@@@@Urandom_access_traversal_tag@iterators@boost@@V3@H$0A@$0A@@detail@iterators@boost@@QBE?AV?$particle@V?$access@U?$member@D$0A@@dod@@U?$member@H$0A@@2@U?$member@H$00@2@U?$member@H$01@2@U?$member@H$02@2@@dod@@@@XZ ; boost::iterators::detail::iterator_facade_base<dod::pointer<particle<dod::access<dod::member<char,0>,dod::member<int,0>,dod::member<int,1>,dod::member<int,2>,dod::member<int,3> > > >,particle<dod::access<dod::member<char,0>,dod::member<int,0>,dod::member<int,1>,dod::member<int,2>,dod::member<int,3> > >,boost::iterators::random_access_traversal_tag,particle<dod::access<dod::member<char,0>,dod::member<int,0>,dod::member<int,1>,dod::member<int,2>,dod::member<int,3> > >,int,0,0>::operator*
PUBLIC	??C?$iterator_facade_base@V?$pointer@V?$particle@V?$access@U?$member@D$0A@@dod@@U?$member@H$0A@@2@U?$member@H$00@2@U?$member@H$01@2@U?$member@H$02@2@@dod@@@@@dod@@V?$particle@V?$access@U?$member@D$0A@@dod@@U?$member@H$0A@@2@U?$member@H$00@2@U?$member@H$01@2@U?$member@H$02@2@@dod@@@@Urandom_access_traversal_tag@iterators@boost@@V3@H$0A@$0A@@detail@iterators@boost@@QBE?AUproxy@?$operator_arrow_dispatch@V?$particle@V?$access@U?$member@D$0A@@dod@@U?$member@H$0A@@2@U?$member@H$00@2@U?$member@H$01@2@U?$member@H$02@2@@dod@@@@PAV1@@123@XZ ; boost::iterators::detail::iterator_facade_base<dod::pointer<particle<dod::access<dod::member<char,0>,dod::member<int,0>,dod::member<int,1>,dod::member<int,2>,dod::member<int,3> > > >,particle<dod::access<dod::member<char,0>,dod::member<int,0>,dod::member<int,1>,dod::member<int,2>,dod::member<int,3> > >,boost::iterators::random_access_traversal_tag,particle<dod::access<dod::member<char,0>,dod::member<int,0>,dod::member<int,1>,dod::member<int,2>,dod::member<int,3> > >,int,0,0>::operator->
PUBLIC	??E?$iterator_facade_base@V?$pointer@V?$particle@V?$access@U?$member@D$0A@@dod@@U?$member@H$0A@@2@U?$member@H$00@2@U?$member@H$01@2@U?$member@H$02@2@@dod@@@@@dod@@V?$particle@V?$access@U?$member@D$0A@@dod@@U?$member@H$0A@@2@U?$member@H$00@2@U?$member@H$01@2@U?$member@H$02@2@@dod@@@@Urandom_access_traversal_tag@iterators@boost@@V3@H$0A@$0A@@detail@iterators@boost@@QAEAAV?$pointer@V?$particle@V?$access@U?$member@D$0A@@dod@@U?$member@H$0A@@2@U?$member@H$00@2@U?$member@H$01@2@U?$member@H$02@2@@dod@@@@@dod@@XZ ; boost::iterators::detail::iterator_facade_base<dod::pointer<particle<dod::access<dod::member<char,0>,dod::member<int,0>,dod::member<int,1>,dod::member<int,2>,dod::member<int,3> > > >,particle<dod::access<dod::member<char,0>,dod::member<int,0>,dod::member<int,1>,dod::member<int,2>,dod::member<int,3> > >,boost::iterators::random_access_traversal_tag,particle<dod::access<dod::member<char,0>,dod::member<int,0>,dod::member<int,1>,dod::member<int,2>,dod::member<int,3> > >,int,0,0>::operator++
PUBLIC	?derived@?$iterator_facade_base@V?$pointer@V?$particle@V?$access@U?$member@D$0A@@dod@@U?$member@H$0A@@2@U?$member@H$00@2@U?$member@H$01@2@U?$member@H$02@2@@dod@@@@@dod@@V?$particle@V?$access@U?$member@D$0A@@dod@@U?$member@H$0A@@2@U?$member@H$00@2@U?$member@H$01@2@U?$member@H$02@2@@dod@@@@Urandom_access_traversal_tag@iterators@boost@@V3@H$0A@$0A@@detail@iterators@boost@@IAEAAV?$pointer@V?$particle@V?$access@U?$member@D$0A@@dod@@U?$member@H$0A@@2@U?$member@H$00@2@U?$member@H$01@2@U?$member@H$02@2@@dod@@@@@dod@@XZ ; boost::iterators::detail::iterator_facade_base<dod::pointer<particle<dod::access<dod::member<char,0>,dod::member<int,0>,dod::member<int,1>,dod::member<int,2>,dod::member<int,3> > > >,particle<dod::access<dod::member<char,0>,dod::member<int,0>,dod::member<int,1>,dod::member<int,2>,dod::member<int,3> > >,boost::iterators::random_access_traversal_tag,particle<dod::access<dod::member<char,0>,dod::member<int,0>,dod::member<int,1>,dod::member<int,2>,dod::member<int,3> > >,int,0,0>::derived
PUBLIC	?derived@?$iterator_facade_base@V?$pointer@V?$particle@V?$access@U?$member@D$0A@@dod@@U?$member@H$0A@@2@U?$member@H$00@2@U?$member@H$01@2@U?$member@H$02@2@@dod@@@@@dod@@V?$particle@V?$access@U?$member@D$0A@@dod@@U?$member@H$0A@@2@U?$member@H$00@2@U?$member@H$01@2@U?$member@H$02@2@@dod@@@@Urandom_access_traversal_tag@iterators@boost@@V3@H$0A@$0A@@detail@iterators@boost@@IBEABV?$pointer@V?$particle@V?$access@U?$member@D$0A@@dod@@U?$member@H$0A@@2@U?$member@H$00@2@U?$member@H$01@2@U?$member@H$02@2@@dod@@@@@dod@@XZ ; boost::iterators::detail::iterator_facade_base<dod::pointer<particle<dod::access<dod::member<char,0>,dod::member<int,0>,dod::member<int,1>,dod::member<int,2>,dod::member<int,3> > > >,particle<dod::access<dod::member<char,0>,dod::member<int,0>,dod::member<int,1>,dod::member<int,2>,dod::member<int,3> > >,boost::iterators::random_access_traversal_tag,particle<dod::access<dod::member<char,0>,dod::member<int,0>,dod::member<int,1>,dod::member<int,2>,dod::member<int,3> > >,int,0,0>::derived
PUBLIC	??Y?$iterator_facade_base@V?$pointer@V?$particle@V?$access@U?$member@D$0A@@dod@@U?$member@H$0A@@2@U?$member@H$00@2@U?$member@H$01@2@U?$member@H$02@2@@dod@@@@@dod@@V?$particle@V?$access@U?$member@D$0A@@dod@@U?$member@H$0A@@2@U?$member@H$00@2@U?$member@H$01@2@U?$member@H$02@2@@dod@@@@Urandom_access_traversal_tag@iterators@boost@@V3@H$00$00@detail@iterators@boost@@QAEAAV?$pointer@V?$particle@V?$access@U?$member@D$0A@@dod@@U?$member@H$0A@@2@U?$member@H$00@2@U?$member@H$01@2@U?$member@H$02@2@@dod@@@@@dod@@H@Z ; boost::iterators::detail::iterator_facade_base<dod::pointer<particle<dod::access<dod::member<char,0>,dod::member<int,0>,dod::member<int,1>,dod::member<int,2>,dod::member<int,3> > > >,particle<dod::access<dod::member<char,0>,dod::member<int,0>,dod::member<int,1>,dod::member<int,2>,dod::member<int,3> > >,boost::iterators::random_access_traversal_tag,particle<dod::access<dod::member<char,0>,dod::member<int,0>,dod::member<int,1>,dod::member<int,2>,dod::member<int,3> > >,int,1,1>::operator+=
PUBLIC	??0?$pointer@V?$particle@V?$access@U?$member@D$0A@@dod@@U?$member@H$0A@@2@U?$member@H$00@2@U?$member@H$01@2@U?$member@H$02@2@@dod@@@@@dod@@QAE@ABV?$access@U?$member@D$0A@@dod@@U?$member@H$0A@@2@U?$member@H$00@2@U?$member@H$01@2@U?$member@H$02@2@@1@@Z ; dod::pointer<particle<dod::access<dod::member<char,0>,dod::member<int,0>,dod::member<int,1>,dod::member<int,2>,dod::member<int,3> > > >::pointer<particle<dod::access<dod::member<char,0>,dod::member<int,0>,dod::member<int,1>,dod::member<int,2>,dod::member<int,3> > > >
PUBLIC	??A?$pointer@V?$particle@V?$access@U?$member@D$0A@@dod@@U?$member@H$0A@@2@U?$member@H$00@2@U?$member@H$01@2@U?$member@H$02@2@@dod@@@@@dod@@QBE?AV?$particle@V?$access@U?$member@D$0A@@dod@@U?$member@H$0A@@2@U?$member@H$00@2@U?$member@H$01@2@U?$member@H$02@2@@dod@@@@I@Z ; dod::pointer<particle<dod::access<dod::member<char,0>,dod::member<int,0>,dod::member<int,1>,dod::member<int,2>,dod::member<int,3> > > >::operator[]
PUBLIC	?dereference@?$pointer@V?$particle@V?$access@U?$member@D$0A@@dod@@U?$member@H$0A@@2@U?$member@H$00@2@U?$member@H$01@2@U?$member@H$02@2@@dod@@@@@dod@@ABE?AV?$particle@V?$access@U?$member@D$0A@@dod@@U?$member@H$0A@@2@U?$member@H$00@2@U?$member@H$01@2@U?$member@H$02@2@@dod@@@@XZ ; dod::pointer<particle<dod::access<dod::member<char,0>,dod::member<int,0>,dod::member<int,1>,dod::member<int,2>,dod::member<int,3> > > >::dereference
PUBLIC	?equal@?$pointer@V?$particle@V?$access@U?$member@D$0A@@dod@@U?$member@H$0A@@2@U?$member@H$00@2@U?$member@H$01@2@U?$member@H$02@2@@dod@@@@@dod@@ABE_NABV12@@Z ; dod::pointer<particle<dod::access<dod::member<char,0>,dod::member<int,0>,dod::member<int,1>,dod::member<int,2>,dod::member<int,3> > > >::equal
PUBLIC	?increment@?$pointer@V?$particle@V?$access@U?$member@D$0A@@dod@@U?$member@H$0A@@2@U?$member@H$00@2@U?$member@H$01@2@U?$member@H$02@2@@dod@@@@@dod@@AAEXXZ ; dod::pointer<particle<dod::access<dod::member<char,0>,dod::member<int,0>,dod::member<int,1>,dod::member<int,2>,dod::member<int,3> > > >::increment
PUBLIC	?advance@?$pointer@V?$particle@V?$access@U?$member@D$0A@@dod@@U?$member@H$0A@@2@U?$member@H$00@2@U?$member@H$01@2@U?$member@H$02@2@@dod@@@@@dod@@AAEXI@Z ; dod::pointer<particle<dod::access<dod::member<char,0>,dod::member<int,0>,dod::member<int,1>,dod::member<int,2>,dod::member<int,3> > > >::advance
PUBLIC	??$?HV?$pointer@V?$particle@V?$access@U?$member@D$0A@@dod@@U?$member@H$0A@@2@U?$member@H$00@2@U?$member@H$01@2@U?$member@H$02@2@@dod@@@@@dod@@V?$particle@V?$access@U?$member@D$0A@@dod@@U?$member@H$0A@@2@U?$member@H$00@2@U?$member@H$01@2@U?$member@H$02@2@@dod@@@@Urandom_access_traversal_tag@iterators@boost@@V2@H@iterators@boost@@YA?AV?$pointer@V?$particle@V?$access@U?$member@D$0A@@dod@@U?$member@H$0A@@2@U?$member@H$00@2@U?$member@H$01@2@U?$member@H$02@2@@dod@@@@@dod@@ABV?$iterator_facade@V?$pointer@V?$particle@V?$access@U?$member@D$0A@@dod@@U?$member@H$0A@@2@U?$member@H$00@2@U?$member@H$01@2@U?$member@H$02@2@@dod@@@@@dod@@V?$particle@V?$access@U?$member@D$0A@@dod@@U?$member@H$0A@@2@U?$member@H$00@2@U?$member@H$01@2@U?$member@H$02@2@@dod@@@@Urandom_access_traversal_tag@iterators@boost@@V3@H@01@H@Z ; boost::iterators::operator+<dod::pointer<particle<dod::access<dod::member<char,0>,dod::member<int,0>,dod::member<int,1>,dod::member<int,2>,dod::member<int,3> > > >,particle<dod::access<dod::member<char,0>,dod::member<int,0>,dod::member<int,1>,dod::member<int,2>,dod::member<int,3> > >,boost::iterators::random_access_traversal_tag,particle<dod::access<dod::member<char,0>,dod::member<int,0>,dod::member<int,1>,dod::member<int,2>,dod::member<int,3> > >,int>
PUBLIC	?increment@?$access@U?$member@H$0A@@dod@@U?$member@H$00@2@@dod@@QAEXXZ ; dod::access<dod::member<int,0>,dod::member<int,1> >::increment
PUBLIC	?advance@?$access@U?$member@H$0A@@dod@@U?$member@H$00@2@@dod@@QAEXI@Z ; dod::access<dod::member<int,0>,dod::member<int,1> >::advance
PUBLIC	?equal@?$access@U?$member@D$0A@@dod@@U?$member@H$0A@@2@U?$member@H$00@2@@dod@@QBE_NABV12@@Z ; dod::access<dod::member<char,0>,dod::member<int,0>,dod::member<int,1> >::equal
PUBLIC	?increment@?$access@U?$member@D$0A@@dod@@U?$member@H$0A@@2@U?$member@H$00@2@@dod@@QAEXXZ ; dod::access<dod::member<char,0>,dod::member<int,0>,dod::member<int,1> >::increment
PUBLIC	?advance@?$access@U?$member@D$0A@@dod@@U?$member@H$0A@@2@U?$member@H$00@2@@dod@@QAEXI@Z ; dod::access<dod::member<char,0>,dod::member<int,0>,dod::member<int,1> >::advance
PUBLIC	??$?0PADPAHPAH@?$access@U?$member@D$0A@@dod@@U?$member@H$0A@@2@U?$member@H$00@2@@dod@@QAE@$$QAPAD$$QAPAH1@Z ; dod::access<dod::member<char,0>,dod::member<int,0>,dod::member<int,1> >::access<dod::member<char,0>,dod::member<int,0>,dod::member<int,1> ><char *,int *,int *>
PUBLIC	??$make_pointer@Vparticle@@V?$access@U?$member@D$0A@@dod@@U?$member@H$0A@@2@U?$member@H$00@2@@dod@@@dod@@YA?AV?$pointer@V?$particle@V?$access@U?$member@D$0A@@dod@@U?$member@H$0A@@2@U?$member@H$00@2@@dod@@@@@0@ABV?$access@U?$member@D$0A@@dod@@U?$member@H$0A@@2@U?$member@H$00@2@@0@@Z ; dod::make_pointer<particle,dod::access<dod::member<char,0>,dod::member<int,0>,dod::member<int,1> > >
PUBLIC	??0?$particle@V?$access@U?$member@D$0A@@dod@@U?$member@H$0A@@2@U?$member@H$00@2@@dod@@@@QAE@ABV?$access@U?$member@D$0A@@dod@@U?$member@H$0A@@2@U?$member@H$00@2@@dod@@@Z ; particle<dod::access<dod::member<char,0>,dod::member<int,0>,dod::member<int,1> > >::particle<dod::access<dod::member<char,0>,dod::member<int,0>,dod::member<int,1> > >
PUBLIC	?render@?$particle@V?$access@U?$member@D$0A@@dod@@U?$member@H$0A@@2@U?$member@H$00@2@@dod@@@@QBEXXZ ; particle<dod::access<dod::member<char,0>,dod::member<int,0>,dod::member<int,1> > >::render
PUBLIC	?apply@?$operator_arrow_dispatch@V?$particle@V?$access@U?$member@D$0A@@dod@@U?$member@H$0A@@2@U?$member@H$00@2@@dod@@@@PAV1@@detail@iterators@boost@@SA?AUproxy@1234@ABV?$particle@V?$access@U?$member@D$0A@@dod@@U?$member@H$0A@@2@U?$member@H$00@2@@dod@@@@@Z ; boost::iterators::detail::operator_arrow_dispatch<particle<dod::access<dod::member<char,0>,dod::member<int,0>,dod::member<int,1> > >,particle<dod::access<dod::member<char,0>,dod::member<int,0>,dod::member<int,1> > > *>::apply
PUBLIC	??D?$iterator_facade_base@V?$pointer@V?$particle@V?$access@U?$member@D$0A@@dod@@U?$member@H$0A@@2@U?$member@H$00@2@@dod@@@@@dod@@V?$particle@V?$access@U?$member@D$0A@@dod@@U?$member@H$0A@@2@U?$member@H$00@2@@dod@@@@Urandom_access_traversal_tag@iterators@boost@@V3@H$0A@$0A@@detail@iterators@boost@@QBE?AV?$particle@V?$access@U?$member@D$0A@@dod@@U?$member@H$0A@@2@U?$member@H$00@2@@dod@@@@XZ ; boost::iterators::detail::iterator_facade_base<dod::pointer<particle<dod::access<dod::member<char,0>,dod::member<int,0>,dod::member<int,1> > > >,particle<dod::access<dod::member<char,0>,dod::member<int,0>,dod::member<int,1> > >,boost::iterators::random_access_traversal_tag,particle<dod::access<dod::member<char,0>,dod::member<int,0>,dod::member<int,1> > >,int,0,0>::operator*
PUBLIC	??C?$iterator_facade_base@V?$pointer@V?$particle@V?$access@U?$member@D$0A@@dod@@U?$member@H$0A@@2@U?$member@H$00@2@@dod@@@@@dod@@V?$particle@V?$access@U?$member@D$0A@@dod@@U?$member@H$0A@@2@U?$member@H$00@2@@dod@@@@Urandom_access_traversal_tag@iterators@boost@@V3@H$0A@$0A@@detail@iterators@boost@@QBE?AUproxy@?$operator_arrow_dispatch@V?$particle@V?$access@U?$member@D$0A@@dod@@U?$member@H$0A@@2@U?$member@H$00@2@@dod@@@@PAV1@@123@XZ ; boost::iterators::detail::iterator_facade_base<dod::pointer<particle<dod::access<dod::member<char,0>,dod::member<int,0>,dod::member<int,1> > > >,particle<dod::access<dod::member<char,0>,dod::member<int,0>,dod::member<int,1> > >,boost::iterators::random_access_traversal_tag,particle<dod::access<dod::member<char,0>,dod::member<int,0>,dod::member<int,1> > >,int,0,0>::operator->
PUBLIC	??E?$iterator_facade_base@V?$pointer@V?$particle@V?$access@U?$member@D$0A@@dod@@U?$member@H$0A@@2@U?$member@H$00@2@@dod@@@@@dod@@V?$particle@V?$access@U?$member@D$0A@@dod@@U?$member@H$0A@@2@U?$member@H$00@2@@dod@@@@Urandom_access_traversal_tag@iterators@boost@@V3@H$0A@$0A@@detail@iterators@boost@@QAEAAV?$pointer@V?$particle@V?$access@U?$member@D$0A@@dod@@U?$member@H$0A@@2@U?$member@H$00@2@@dod@@@@@dod@@XZ ; boost::iterators::detail::iterator_facade_base<dod::pointer<particle<dod::access<dod::member<char,0>,dod::member<int,0>,dod::member<int,1> > > >,particle<dod::access<dod::member<char,0>,dod::member<int,0>,dod::member<int,1> > >,boost::iterators::random_access_traversal_tag,particle<dod::access<dod::member<char,0>,dod::member<int,0>,dod::member<int,1> > >,int,0,0>::operator++
PUBLIC	?derived@?$iterator_facade_base@V?$pointer@V?$particle@V?$access@U?$member@D$0A@@dod@@U?$member@H$0A@@2@U?$member@H$00@2@@dod@@@@@dod@@V?$particle@V?$access@U?$member@D$0A@@dod@@U?$member@H$0A@@2@U?$member@H$00@2@@dod@@@@Urandom_access_traversal_tag@iterators@boost@@V3@H$0A@$0A@@detail@iterators@boost@@IAEAAV?$pointer@V?$particle@V?$access@U?$member@D$0A@@dod@@U?$member@H$0A@@2@U?$member@H$00@2@@dod@@@@@dod@@XZ ; boost::iterators::detail::iterator_facade_base<dod::pointer<particle<dod::access<dod::member<char,0>,dod::member<int,0>,dod::member<int,1> > > >,particle<dod::access<dod::member<char,0>,dod::member<int,0>,dod::member<int,1> > >,boost::iterators::random_access_traversal_tag,particle<dod::access<dod::member<char,0>,dod::member<int,0>,dod::member<int,1> > >,int,0,0>::derived
PUBLIC	?derived@?$iterator_facade_base@V?$pointer@V?$particle@V?$access@U?$member@D$0A@@dod@@U?$member@H$0A@@2@U?$member@H$00@2@@dod@@@@@dod@@V?$particle@V?$access@U?$member@D$0A@@dod@@U?$member@H$0A@@2@U?$member@H$00@2@@dod@@@@Urandom_access_traversal_tag@iterators@boost@@V3@H$0A@$0A@@detail@iterators@boost@@IBEABV?$pointer@V?$particle@V?$access@U?$member@D$0A@@dod@@U?$member@H$0A@@2@U?$member@H$00@2@@dod@@@@@dod@@XZ ; boost::iterators::detail::iterator_facade_base<dod::pointer<particle<dod::access<dod::member<char,0>,dod::member<int,0>,dod::member<int,1> > > >,particle<dod::access<dod::member<char,0>,dod::member<int,0>,dod::member<int,1> > >,boost::iterators::random_access_traversal_tag,particle<dod::access<dod::member<char,0>,dod::member<int,0>,dod::member<int,1> > >,int,0,0>::derived
PUBLIC	??Y?$iterator_facade_base@V?$pointer@V?$particle@V?$access@U?$member@D$0A@@dod@@U?$member@H$0A@@2@U?$member@H$00@2@@dod@@@@@dod@@V?$particle@V?$access@U?$member@D$0A@@dod@@U?$member@H$0A@@2@U?$member@H$00@2@@dod@@@@Urandom_access_traversal_tag@iterators@boost@@V3@H$00$00@detail@iterators@boost@@QAEAAV?$pointer@V?$particle@V?$access@U?$member@D$0A@@dod@@U?$member@H$0A@@2@U?$member@H$00@2@@dod@@@@@dod@@H@Z ; boost::iterators::detail::iterator_facade_base<dod::pointer<particle<dod::access<dod::member<char,0>,dod::member<int,0>,dod::member<int,1> > > >,particle<dod::access<dod::member<char,0>,dod::member<int,0>,dod::member<int,1> > >,boost::iterators::random_access_traversal_tag,particle<dod::access<dod::member<char,0>,dod::member<int,0>,dod::member<int,1> > >,int,1,1>::operator+=
PUBLIC	??0?$pointer@V?$particle@V?$access@U?$member@D$0A@@dod@@U?$member@H$0A@@2@U?$member@H$00@2@@dod@@@@@dod@@QAE@ABV?$access@U?$member@D$0A@@dod@@U?$member@H$0A@@2@U?$member@H$00@2@@1@@Z ; dod::pointer<particle<dod::access<dod::member<char,0>,dod::member<int,0>,dod::member<int,1> > > >::pointer<particle<dod::access<dod::member<char,0>,dod::member<int,0>,dod::member<int,1> > > >
PUBLIC	??A?$pointer@V?$particle@V?$access@U?$member@D$0A@@dod@@U?$member@H$0A@@2@U?$member@H$00@2@@dod@@@@@dod@@QBE?AV?$particle@V?$access@U?$member@D$0A@@dod@@U?$member@H$0A@@2@U?$member@H$00@2@@dod@@@@I@Z ; dod::pointer<particle<dod::access<dod::member<char,0>,dod::member<int,0>,dod::member<int,1> > > >::operator[]
PUBLIC	?dereference@?$pointer@V?$particle@V?$access@U?$member@D$0A@@dod@@U?$member@H$0A@@2@U?$member@H$00@2@@dod@@@@@dod@@ABE?AV?$particle@V?$access@U?$member@D$0A@@dod@@U?$member@H$0A@@2@U?$member@H$00@2@@dod@@@@XZ ; dod::pointer<particle<dod::access<dod::member<char,0>,dod::member<int,0>,dod::member<int,1> > > >::dereference
PUBLIC	?equal@?$pointer@V?$particle@V?$access@U?$member@D$0A@@dod@@U?$member@H$0A@@2@U?$member@H$00@2@@dod@@@@@dod@@ABE_NABV12@@Z ; dod::pointer<particle<dod::access<dod::member<char,0>,dod::member<int,0>,dod::member<int,1> > > >::equal
PUBLIC	?increment@?$pointer@V?$particle@V?$access@U?$member@D$0A@@dod@@U?$member@H$0A@@2@U?$member@H$00@2@@dod@@@@@dod@@AAEXXZ ; dod::pointer<particle<dod::access<dod::member<char,0>,dod::member<int,0>,dod::member<int,1> > > >::increment
PUBLIC	?advance@?$pointer@V?$particle@V?$access@U?$member@D$0A@@dod@@U?$member@H$0A@@2@U?$member@H$00@2@@dod@@@@@dod@@AAEXI@Z ; dod::pointer<particle<dod::access<dod::member<char,0>,dod::member<int,0>,dod::member<int,1> > > >::advance
PUBLIC	??$?HV?$pointer@V?$particle@V?$access@U?$member@D$0A@@dod@@U?$member@H$0A@@2@U?$member@H$00@2@@dod@@@@@dod@@V?$particle@V?$access@U?$member@D$0A@@dod@@U?$member@H$0A@@2@U?$member@H$00@2@@dod@@@@Urandom_access_traversal_tag@iterators@boost@@V2@H@iterators@boost@@YA?AV?$pointer@V?$particle@V?$access@U?$member@D$0A@@dod@@U?$member@H$0A@@2@U?$member@H$00@2@@dod@@@@@dod@@ABV?$iterator_facade@V?$pointer@V?$particle@V?$access@U?$member@D$0A@@dod@@U?$member@H$0A@@2@U?$member@H$00@2@@dod@@@@@dod@@V?$particle@V?$access@U?$member@D$0A@@dod@@U?$member@H$0A@@2@U?$member@H$00@2@@dod@@@@Urandom_access_traversal_tag@iterators@boost@@V3@H@01@H@Z ; boost::iterators::operator+<dod::pointer<particle<dod::access<dod::member<char,0>,dod::member<int,0>,dod::member<int,1> > > >,particle<dod::access<dod::member<char,0>,dod::member<int,0>,dod::member<int,1> > >,boost::iterators::random_access_traversal_tag,particle<dod::access<dod::member<char,0>,dod::member<int,0>,dod::member<int,1> > >,int>
PUBLIC	??$render@V?$_Vector_iterator@V?$_Vector_val@U?$_Simple_types@Vplain_particle@@@std@@@std@@@std@@@@YAHV?$_Vector_iterator@V?$_Vector_val@U?$_Simple_types@Vplain_particle@@@std@@@std@@@std@@0@Z ; render<std::_Vector_iterator<std::_Vector_val<std::_Simple_types<plain_particle> > > >
PUBLIC	??$measure@V<lambda_3c38aff788b9781cf78ca5a917f16ae4>@@@@YANV<lambda_3c38aff788b9781cf78ca5a917f16ae4>@@I@Z ; measure<<lambda_3c38aff788b9781cf78ca5a917f16ae4> >
PUBLIC	??$measure@V<lambda_0e8cd367240c9f8b6afbbc7d85139419>@@@@YANV<lambda_0e8cd367240c9f8b6afbbc7d85139419>@@I@Z ; measure<<lambda_0e8cd367240c9f8b6afbbc7d85139419> >
PUBLIC	??$render@V?$pointer@V?$particle@V?$access@U?$member@D$0A@@dod@@U?$member@H$0A@@2@U?$member@H$00@2@U?$member@H$01@2@U?$member@H$02@2@@dod@@@@@dod@@@@YAHV?$pointer@V?$particle@V?$access@U?$member@D$0A@@dod@@U?$member@H$0A@@2@U?$member@H$00@2@U?$member@H$01@2@U?$member@H$02@2@@dod@@@@@dod@@0@Z ; render<dod::pointer<particle<dod::access<dod::member<char,0>,dod::member<int,0>,dod::member<int,1>,dod::member<int,2>,dod::member<int,3> > > > >
PUBLIC	??$measure@V<lambda_4bb02fb8e2d5361150321278473362ff>@@@@YANV<lambda_4bb02fb8e2d5361150321278473362ff>@@I@Z ; measure<<lambda_4bb02fb8e2d5361150321278473362ff> >
PUBLIC	??$render@V?$pointer@V?$particle@V?$access@U?$member@D$0A@@dod@@U?$member@H$0A@@2@U?$member@H$00@2@@dod@@@@@dod@@@@YAHV?$pointer@V?$particle@V?$access@U?$member@D$0A@@dod@@U?$member@H$0A@@2@U?$member@H$00@2@@dod@@@@@dod@@0@Z ; render<dod::pointer<particle<dod::access<dod::member<char,0>,dod::member<int,0>,dod::member<int,1> > > > >
PUBLIC	??$measure@V<lambda_fe4b9e6fc2b2fbcfeea78297fbfefccb>@@@@YANV<lambda_fe4b9e6fc2b2fbcfeea78297fbfefccb>@@I@Z ; measure<<lambda_fe4b9e6fc2b2fbcfeea78297fbfefccb> >
PUBLIC	??$render@V?$_Vector_iterator@V?$_Vector_val@U?$_Simple_types@Vplain_particle@@@std@@@std@@@std@@I@@YAHV?$_Vector_iterator@V?$_Vector_val@U?$_Simple_types@Vplain_particle@@@std@@@std@@@std@@I@Z ; render<std::_Vector_iterator<std::_Vector_val<std::_Simple_types<plain_particle> > >,unsigned int>
PUBLIC	??$measure@V<lambda_ce14b79be95f650ececed4b3079e7cf8>@@@@YANV<lambda_ce14b79be95f650ececed4b3079e7cf8>@@I@Z ; measure<<lambda_ce14b79be95f650ececed4b3079e7cf8> >
PUBLIC	??$measure@V<lambda_a29049cf6153b725a6a331d7121b9876>@@@@YANV<lambda_a29049cf6153b725a6a331d7121b9876>@@I@Z ; measure<<lambda_a29049cf6153b725a6a331d7121b9876> >
PUBLIC	??$render@V?$pointer@V?$particle@V?$access@U?$member@D$0A@@dod@@U?$member@H$0A@@2@U?$member@H$00@2@U?$member@H$01@2@U?$member@H$02@2@@dod@@@@@dod@@I@@YAHV?$pointer@V?$particle@V?$access@U?$member@D$0A@@dod@@U?$member@H$0A@@2@U?$member@H$00@2@U?$member@H$01@2@U?$member@H$02@2@@dod@@@@@dod@@I@Z ; render<dod::pointer<particle<dod::access<dod::member<char,0>,dod::member<int,0>,dod::member<int,1>,dod::member<int,2>,dod::member<int,3> > > >,unsigned int>
PUBLIC	??$measure@V<lambda_668201fb256ca3039b30842ebf04ef83>@@@@YANV<lambda_668201fb256ca3039b30842ebf04ef83>@@I@Z ; measure<<lambda_668201fb256ca3039b30842ebf04ef83> >
PUBLIC	??$render@V?$pointer@V?$particle@V?$access@U?$member@D$0A@@dod@@U?$member@H$0A@@2@U?$member@H$00@2@@dod@@@@@dod@@I@@YAHV?$pointer@V?$particle@V?$access@U?$member@D$0A@@dod@@U?$member@H$0A@@2@U?$member@H$00@2@@dod@@@@@dod@@I@Z ; render<dod::pointer<particle<dod::access<dod::member<char,0>,dod::member<int,0>,dod::member<int,1> > > >,unsigned int>
PUBLIC	??$measure@V<lambda_4c02ba5ef62215ee51f4e58ccd3418c3>@@@@YANV<lambda_4c02ba5ef62215ee51f4e58ccd3418c3>@@I@Z ; measure<<lambda_4c02ba5ef62215ee51f4e58ccd3418c3> >
PUBLIC	??$addressof@Vplain_particle@@@std@@YAPAVplain_particle@@AAV1@@Z ; std::addressof<plain_particle>
PUBLIC	??$forward@Vplain_particle@@@std@@YA$$QAVplain_particle@@AAV1@@Z ; std::forward<plain_particle>
PUBLIC	??$construct@Vplain_particle@@V1@@?$_Wrap_alloc@V?$allocator@Vplain_particle@@@std@@@std@@QAEXPAVplain_particle@@$$QAV2@@Z ; std::_Wrap_alloc<std::allocator<plain_particle> >::construct<plain_particle,plain_particle>
PUBLIC	??$addressof@$$CBH@std@@YAPBHABH@Z		; std::addressof<int const >
PUBLIC	??$construct@HAAH@?$_Wrap_alloc@V?$allocator@H@std@@@std@@QAEXPAHAAH@Z ; std::_Wrap_alloc<std::allocator<int> >::construct<int,int &>
PUBLIC	??$construct@HABH@?$_Wrap_alloc@V?$allocator@H@std@@@std@@QAEXPAHABH@Z ; std::_Wrap_alloc<std::allocator<int> >::construct<int,int const &>
PUBLIC	??$addressof@$$CBD@std@@YAPBDABD@Z		; std::addressof<char const >
PUBLIC	??$construct@DAAD@?$_Wrap_alloc@V?$allocator@D@std@@@std@@QAEXPADAAD@Z ; std::_Wrap_alloc<std::allocator<char> >::construct<char,char &>
PUBLIC	??$construct@DABD@?$_Wrap_alloc@V?$allocator@D@std@@@std@@QAEXPADABD@Z ; std::_Wrap_alloc<std::allocator<char> >::construct<char,char const &>
PUBLIC	??0_Sentry_base@?$basic_ostream@DU?$char_traits@D@std@@@std@@QAE@AAV12@@Z ; std::basic_ostream<char,std::char_traits<char> >::_Sentry_base::_Sentry_base
PUBLIC	??1_Sentry_base@?$basic_ostream@DU?$char_traits@D@std@@@std@@QAE@XZ ; std::basic_ostream<char,std::char_traits<char> >::_Sentry_base::~_Sentry_base
PUBLIC	??0sentry@?$basic_ostream@DU?$char_traits@D@std@@@std@@QAE@AAV12@@Z ; std::basic_ostream<char,std::char_traits<char> >::sentry::sentry
PUBLIC	??1sentry@?$basic_ostream@DU?$char_traits@D@std@@@std@@QAE@XZ ; std::basic_ostream<char,std::char_traits<char> >::sentry::~sentry
PUBLIC	??Bsentry@?$basic_ostream@DU?$char_traits@D@std@@@std@@QBE_NXZ ; std::basic_ostream<char,std::char_traits<char> >::sentry::operator bool
PUBLIC	??$?0ABV?$allocator@Vplain_particle@@@std@@$$V@?$_Compressed_pair@U?$_Wrap_alloc@V?$allocator@Vplain_particle@@@std@@@std@@V?$_Vector_val@U?$_Simple_types@Vplain_particle@@@std@@@2@$00@std@@QAE@U_One_then_variadic_args_t@1@ABV?$allocator@Vplain_particle@@@1@@Z ; std::_Compressed_pair<std::_Wrap_alloc<std::allocator<plain_particle> >,std::_Vector_val<std::_Simple_types<plain_particle> >,1>::_Compressed_pair<std::_Wrap_alloc<std::allocator<plain_particle> >,std::_Vector_val<std::_Simple_types<plain_particle> >,1><std::allocator<plain_particle> const &>
PUBLIC	??$?0ABV?$allocator@H@std@@$$V@?$_Compressed_pair@U?$_Wrap_alloc@V?$allocator@H@std@@@std@@V?$_Vector_val@U?$_Simple_types@H@std@@@2@$00@std@@QAE@U_One_then_variadic_args_t@1@ABV?$allocator@H@1@@Z ; std::_Compressed_pair<std::_Wrap_alloc<std::allocator<int> >,std::_Vector_val<std::_Simple_types<int> >,1>::_Compressed_pair<std::_Wrap_alloc<std::allocator<int> >,std::_Vector_val<std::_Simple_types<int> >,1><std::allocator<int> const &>
PUBLIC	??$?0ABV?$allocator@D@std@@$$V@?$_Compressed_pair@U?$_Wrap_alloc@V?$allocator@D@std@@@std@@V?$_Vector_val@U?$_Simple_types@D@std@@@2@$00@std@@QAE@U_One_then_variadic_args_t@1@ABV?$allocator@D@1@@Z ; std::_Compressed_pair<std::_Wrap_alloc<std::allocator<char> >,std::_Vector_val<std::_Simple_types<char> >,1>::_Compressed_pair<std::_Wrap_alloc<std::allocator<char> >,std::_Vector_val<std::_Simple_types<char> >,1><std::allocator<char> const &>
PUBLIC	?zero@?$duration_values@_J@chrono@std@@SA_JXZ	; std::chrono::duration_values<__int64>::zero
PUBLIC	?deallocate@?$allocator@U_Container_proxy@std@@@std@@QAEXPAU_Container_proxy@2@I@Z ; std::allocator<std::_Container_proxy>::deallocate
PUBLIC	?allocate@?$allocator@U_Container_proxy@std@@@std@@QAEPAU_Container_proxy@2@I@Z ; std::allocator<std::_Container_proxy>::allocate
PUBLIC	?allocate@?$_Wrap_alloc@V?$allocator@U_Container_proxy@std@@@std@@@std@@QAEPAU_Container_proxy@2@I@Z ; std::_Wrap_alloc<std::allocator<std::_Container_proxy> >::allocate
PUBLIC	?deallocate@?$_Wrap_alloc@V?$allocator@U_Container_proxy@std@@@std@@@std@@QAEXPAU_Container_proxy@2@I@Z ; std::_Wrap_alloc<std::allocator<std::_Container_proxy> >::deallocate
PUBLIC	??$?0U?$_Wrap_alloc@V?$allocator@Vplain_particle@@@std@@@std@@@?$_Wrap_alloc@V?$allocator@U_Container_proxy@std@@@std@@@std@@QAE@AAU?$_Wrap_alloc@V?$allocator@Vplain_particle@@@std@@@1@@Z ; std::_Wrap_alloc<std::allocator<std::_Container_proxy> >::_Wrap_alloc<std::allocator<std::_Container_proxy> ><std::_Wrap_alloc<std::allocator<plain_particle> > >
PUBLIC	??$?0Vplain_particle@@@?$allocator@U_Container_proxy@std@@@std@@QAE@ABV?$allocator@Vplain_particle@@@1@@Z ; std::allocator<std::_Container_proxy>::allocator<std::_Container_proxy><plain_particle>
PUBLIC	??$destroy@U_Container_proxy@std@@@?$_Wrap_alloc@V?$allocator@U_Container_proxy@std@@@std@@@std@@QAEXPAU_Container_proxy@1@@Z ; std::_Wrap_alloc<std::allocator<std::_Container_proxy> >::destroy<std::_Container_proxy>
PUBLIC	??$construct@U_Container_proxy@std@@U12@@?$_Wrap_alloc@V?$allocator@U_Container_proxy@std@@@std@@@std@@QAEXPAU_Container_proxy@1@$$QAU21@@Z ; std::_Wrap_alloc<std::allocator<std::_Container_proxy> >::construct<std::_Container_proxy,std::_Container_proxy>
PUBLIC	??$_Umove@PAVplain_particle@@@?$vector@Vplain_particle@@V?$allocator@Vplain_particle@@@std@@@std@@IAEPAVplain_particle@@PAV2@00@Z ; std::vector<plain_particle,std::allocator<plain_particle> >::_Umove<plain_particle *>
PUBLIC	??$_Destroy_range@U?$_Wrap_alloc@V?$allocator@Vplain_particle@@@std@@@std@@@std@@YAXPAVplain_particle@@0AAU?$_Wrap_alloc@V?$allocator@Vplain_particle@@@std@@@0@@Z ; std::_Destroy_range<std::_Wrap_alloc<std::allocator<plain_particle> > >
PUBLIC	??$?0U?$_Wrap_alloc@V?$allocator@H@std@@@std@@@?$_Wrap_alloc@V?$allocator@U_Container_proxy@std@@@std@@@std@@QAE@AAU?$_Wrap_alloc@V?$allocator@H@std@@@1@@Z ; std::_Wrap_alloc<std::allocator<std::_Container_proxy> >::_Wrap_alloc<std::allocator<std::_Container_proxy> ><std::_Wrap_alloc<std::allocator<int> > >
PUBLIC	??$?0H@?$allocator@U_Container_proxy@std@@@std@@QAE@ABV?$allocator@H@1@@Z ; std::allocator<std::_Container_proxy>::allocator<std::_Container_proxy><int>
PUBLIC	??$_Umove@PAH@?$vector@HV?$allocator@H@std@@@std@@IAEPAHPAH00@Z ; std::vector<int,std::allocator<int> >::_Umove<int *>
PUBLIC	??$_Destroy_range@U?$_Wrap_alloc@V?$allocator@H@std@@@std@@@std@@YAXPAH0AAU?$_Wrap_alloc@V?$allocator@H@std@@@0@@Z ; std::_Destroy_range<std::_Wrap_alloc<std::allocator<int> > >
PUBLIC	??$?0U?$_Wrap_alloc@V?$allocator@D@std@@@std@@@?$_Wrap_alloc@V?$allocator@U_Container_proxy@std@@@std@@@std@@QAE@AAU?$_Wrap_alloc@V?$allocator@D@std@@@1@@Z ; std::_Wrap_alloc<std::allocator<std::_Container_proxy> >::_Wrap_alloc<std::allocator<std::_Container_proxy> ><std::_Wrap_alloc<std::allocator<char> > >
PUBLIC	??$?0D@?$allocator@U_Container_proxy@std@@@std@@QAE@ABV?$allocator@D@1@@Z ; std::allocator<std::_Container_proxy>::allocator<std::_Container_proxy><char>
PUBLIC	??$_Umove@PAD@?$vector@DV?$allocator@D@std@@@std@@IAEPADPAD00@Z ; std::vector<char,std::allocator<char> >::_Umove<char *>
PUBLIC	??$_Destroy_range@U?$_Wrap_alloc@V?$allocator@D@std@@@std@@@std@@YAXPAD0AAU?$_Wrap_alloc@V?$allocator@D@std@@@0@@Z ; std::_Destroy_range<std::_Wrap_alloc<std::allocator<char> > >
PUBLIC	??$_Deallocate@Vplain_particle@@@std@@YAXPAVplain_particle@@I@Z ; std::_Deallocate<plain_particle>
PUBLIC	??$_Deallocate@H@std@@YAXPAHI@Z			; std::_Deallocate<int>
PUBLIC	??$_Deallocate@D@std@@YAXPADI@Z			; std::_Deallocate<char>
PUBLIC	??$_Allocate@U_Container_proxy@std@@@std@@YAPAU_Container_proxy@0@IPAU10@_N@Z ; std::_Allocate<std::_Container_proxy>
PUBLIC	??$_Deallocate@U_Container_proxy@std@@@std@@YAXPAU_Container_proxy@0@I@Z ; std::_Deallocate<std::_Container_proxy>
PUBLIC	??$_Allocate@Vplain_particle@@@std@@YAPAVplain_particle@@IPAV1@_N@Z ; std::_Allocate<plain_particle>
PUBLIC	??$_Allocate@H@std@@YAPAHIPAH_N@Z		; std::_Allocate<int>
PUBLIC	??$_Allocate@D@std@@YAPADIPAD_N@Z		; std::_Allocate<char>
PUBLIC	??$_Iter_cat@PAD@std@@YA?AUrandom_access_iterator_tag@0@ABQAD@Z ; std::_Iter_cat<char *>
PUBLIC	??$?G_JU?$ratio@$00$0DLJKMKAA@@std@@_JU01@@chrono@std@@YA?AV?$duration@_JU?$ratio@$00$0DLJKMKAA@@std@@@01@ABV201@0@Z ; std::chrono::operator-<__int64,std::ratio<1,1000000000>,__int64,std::ratio<1,1000000000> >
PUBLIC	??$forward@PAD@std@@YA$$QAPADAAPAD@Z		; std::forward<char *>
PUBLIC	??$forward@PAH@std@@YA$$QAPAHAAPAH@Z		; std::forward<int *>
PUBLIC	??$?0PAHPAHPAHPAH@?$access@U?$member@H$0A@@dod@@U?$member@H$00@2@U?$member@H$01@2@U?$member@H$02@2@@dod@@QAE@$$QAPAH000@Z ; dod::access<dod::member<int,0>,dod::member<int,1>,dod::member<int,2>,dod::member<int,3> >::access<dod::member<int,0>,dod::member<int,1>,dod::member<int,2>,dod::member<int,3> ><int *,int *,int *,int *>
PUBLIC	??$?0PAHPAH@?$access@U?$member@H$0A@@dod@@U?$member@H$00@2@@dod@@QAE@$$QAPAH0@Z ; dod::access<dod::member<int,0>,dod::member<int,1> >::access<dod::member<int,0>,dod::member<int,1> ><int *,int *>
PUBLIC	??$measure@V<lambda_3c38aff788b9781cf78ca5a917f16ae4>@@@@YANV<lambda_3c38aff788b9781cf78ca5a917f16ae4>@@@Z ; measure<<lambda_3c38aff788b9781cf78ca5a917f16ae4> >
PUBLIC	??$measure@V<lambda_0e8cd367240c9f8b6afbbc7d85139419>@@@@YANV<lambda_0e8cd367240c9f8b6afbbc7d85139419>@@@Z ; measure<<lambda_0e8cd367240c9f8b6afbbc7d85139419> >
PUBLIC	??$?9V?$pointer@V?$particle@V?$access@U?$member@D$0A@@dod@@U?$member@H$0A@@2@U?$member@H$00@2@U?$member@H$01@2@U?$member@H$02@2@@dod@@@@@dod@@V?$particle@V?$access@U?$member@D$0A@@dod@@U?$member@H$0A@@2@U?$member@H$00@2@U?$member@H$01@2@U?$member@H$02@2@@dod@@@@Urandom_access_traversal_tag@iterators@boost@@V2@HV01@V2@U345@V2@H@iterators@boost@@YA_NABV?$iterator_facade@V?$pointer@V?$particle@V?$access@U?$member@D$0A@@dod@@U?$member@H$0A@@2@U?$member@H$00@2@U?$member@H$01@2@U?$member@H$02@2@@dod@@@@@dod@@V?$particle@V?$access@U?$member@D$0A@@dod@@U?$member@H$0A@@2@U?$member@H$00@2@U?$member@H$01@2@U?$member@H$02@2@@dod@@@@Urandom_access_traversal_tag@iterators@boost@@V3@H@01@0@Z ; boost::iterators::operator!=<dod::pointer<particle<dod::access<dod::member<char,0>,dod::member<int,0>,dod::member<int,1>,dod::member<int,2>,dod::member<int,3> > > >,particle<dod::access<dod::member<char,0>,dod::member<int,0>,dod::member<int,1>,dod::member<int,2>,dod::member<int,3> > >,boost::iterators::random_access_traversal_tag,particle<dod::access<dod::member<char,0>,dod::member<int,0>,dod::member<int,1>,dod::member<int,2>,dod::member<int,3> > >,int,dod::pointer<particle<dod::access<dod::member<char,0>,dod::member<int,0>,dod::member<int,1>,dod::member<int,2>,dod::member<int,3> > > >,particle<dod::access<dod::member<char,0>,dod::member<int,0>,dod::member<int,1>,dod::member<int,2>,dod::member<int,3> > >,boost::iterators::random_access_traversal_tag,particle<dod::access<dod::member<char,0>,dod::member<int,0>,dod::member<int,1>,dod::member<int,2>,dod::member<int,3> > >,int>
PUBLIC	??$?EV?$pointer@V?$particle@V?$access@U?$member@D$0A@@dod@@U?$member@H$0A@@2@U?$member@H$00@2@U?$member@H$01@2@U?$member@H$02@2@@dod@@@@@dod@@V?$particle@V?$access@U?$member@D$0A@@dod@@U?$member@H$0A@@2@U?$member@H$00@2@U?$member@H$01@2@U?$member@H$02@2@@dod@@@@Urandom_access_traversal_tag@iterators@boost@@V2@H@iterators@boost@@YA?AV?$pointer@V?$particle@V?$access@U?$member@D$0A@@dod@@U?$member@H$0A@@2@U?$member@H$00@2@U?$member@H$01@2@U?$member@H$02@2@@dod@@@@@dod@@AAV?$iterator_facade@V?$pointer@V?$particle@V?$access@U?$member@D$0A@@dod@@U?$member@H$0A@@2@U?$member@H$00@2@U?$member@H$01@2@U?$member@H$02@2@@dod@@@@@dod@@V?$particle@V?$access@U?$member@D$0A@@dod@@U?$member@H$0A@@2@U?$member@H$00@2@U?$member@H$01@2@U?$member@H$02@2@@dod@@@@Urandom_access_traversal_tag@iterators@boost@@V3@H@01@H@Z ; boost::iterators::operator++<dod::pointer<particle<dod::access<dod::member<char,0>,dod::member<int,0>,dod::member<int,1>,dod::member<int,2>,dod::member<int,3> > > >,particle<dod::access<dod::member<char,0>,dod::member<int,0>,dod::member<int,1>,dod::member<int,2>,dod::member<int,3> > >,boost::iterators::random_access_traversal_tag,particle<dod::access<dod::member<char,0>,dod::member<int,0>,dod::member<int,1>,dod::member<int,2>,dod::member<int,3> > >,int>
PUBLIC	??0proxy@?$operator_arrow_dispatch@V?$particle@V?$access@U?$member@D$0A@@dod@@U?$member@H$0A@@2@U?$member@H$00@2@U?$member@H$01@2@U?$member@H$02@2@@dod@@@@PAV1@@detail@iterators@boost@@QAE@ABV?$particle@V?$access@U?$member@D$0A@@dod@@U?$member@H$0A@@2@U?$member@H$00@2@U?$member@H$01@2@U?$member@H$02@2@@dod@@@@@Z ; boost::iterators::detail::operator_arrow_dispatch<particle<dod::access<dod::member<char,0>,dod::member<int,0>,dod::member<int,1>,dod::member<int,2>,dod::member<int,3> > >,particle<dod::access<dod::member<char,0>,dod::member<int,0>,dod::member<int,1>,dod::member<int,2>,dod::member<int,3> > > *>::proxy::proxy
PUBLIC	??Cproxy@?$operator_arrow_dispatch@V?$particle@V?$access@U?$member@D$0A@@dod@@U?$member@H$0A@@2@U?$member@H$00@2@U?$member@H$01@2@U?$member@H$02@2@@dod@@@@PAV1@@detail@iterators@boost@@QAEPAV?$particle@V?$access@U?$member@D$0A@@dod@@U?$member@H$0A@@2@U?$member@H$00@2@U?$member@H$01@2@U?$member@H$02@2@@dod@@@@XZ ; boost::iterators::detail::operator_arrow_dispatch<particle<dod::access<dod::member<char,0>,dod::member<int,0>,dod::member<int,1>,dod::member<int,2>,dod::member<int,3> > >,particle<dod::access<dod::member<char,0>,dod::member<int,0>,dod::member<int,1>,dod::member<int,2>,dod::member<int,3> > > *>::proxy::operator->
PUBLIC	??$measure@V<lambda_4bb02fb8e2d5361150321278473362ff>@@@@YANV<lambda_4bb02fb8e2d5361150321278473362ff>@@@Z ; measure<<lambda_4bb02fb8e2d5361150321278473362ff> >
PUBLIC	??$?9V?$pointer@V?$particle@V?$access@U?$member@D$0A@@dod@@U?$member@H$0A@@2@U?$member@H$00@2@@dod@@@@@dod@@V?$particle@V?$access@U?$member@D$0A@@dod@@U?$member@H$0A@@2@U?$member@H$00@2@@dod@@@@Urandom_access_traversal_tag@iterators@boost@@V2@HV01@V2@U345@V2@H@iterators@boost@@YA_NABV?$iterator_facade@V?$pointer@V?$particle@V?$access@U?$member@D$0A@@dod@@U?$member@H$0A@@2@U?$member@H$00@2@@dod@@@@@dod@@V?$particle@V?$access@U?$member@D$0A@@dod@@U?$member@H$0A@@2@U?$member@H$00@2@@dod@@@@Urandom_access_traversal_tag@iterators@boost@@V3@H@01@0@Z ; boost::iterators::operator!=<dod::pointer<particle<dod::access<dod::member<char,0>,dod::member<int,0>,dod::member<int,1> > > >,particle<dod::access<dod::member<char,0>,dod::member<int,0>,dod::member<int,1> > >,boost::iterators::random_access_traversal_tag,particle<dod::access<dod::member<char,0>,dod::member<int,0>,dod::member<int,1> > >,int,dod::pointer<particle<dod::access<dod::member<char,0>,dod::member<int,0>,dod::member<int,1> > > >,particle<dod::access<dod::member<char,0>,dod::member<int,0>,dod::member<int,1> > >,boost::iterators::random_access_traversal_tag,particle<dod::access<dod::member<char,0>,dod::member<int,0>,dod::member<int,1> > >,int>
PUBLIC	??$?EV?$pointer@V?$particle@V?$access@U?$member@D$0A@@dod@@U?$member@H$0A@@2@U?$member@H$00@2@@dod@@@@@dod@@V?$particle@V?$access@U?$member@D$0A@@dod@@U?$member@H$0A@@2@U?$member@H$00@2@@dod@@@@Urandom_access_traversal_tag@iterators@boost@@V2@H@iterators@boost@@YA?AV?$pointer@V?$particle@V?$access@U?$member@D$0A@@dod@@U?$member@H$0A@@2@U?$member@H$00@2@@dod@@@@@dod@@AAV?$iterator_facade@V?$pointer@V?$particle@V?$access@U?$member@D$0A@@dod@@U?$member@H$0A@@2@U?$member@H$00@2@@dod@@@@@dod@@V?$particle@V?$access@U?$member@D$0A@@dod@@U?$member@H$0A@@2@U?$member@H$00@2@@dod@@@@Urandom_access_traversal_tag@iterators@boost@@V3@H@01@H@Z ; boost::iterators::operator++<dod::pointer<particle<dod::access<dod::member<char,0>,dod::member<int,0>,dod::member<int,1> > > >,particle<dod::access<dod::member<char,0>,dod::member<int,0>,dod::member<int,1> > >,boost::iterators::random_access_traversal_tag,particle<dod::access<dod::member<char,0>,dod::member<int,0>,dod::member<int,1> > >,int>
PUBLIC	??0proxy@?$operator_arrow_dispatch@V?$particle@V?$access@U?$member@D$0A@@dod@@U?$member@H$0A@@2@U?$member@H$00@2@@dod@@@@PAV1@@detail@iterators@boost@@QAE@ABV?$particle@V?$access@U?$member@D$0A@@dod@@U?$member@H$0A@@2@U?$member@H$00@2@@dod@@@@@Z ; boost::iterators::detail::operator_arrow_dispatch<particle<dod::access<dod::member<char,0>,dod::member<int,0>,dod::member<int,1> > >,particle<dod::access<dod::member<char,0>,dod::member<int,0>,dod::member<int,1> > > *>::proxy::proxy
PUBLIC	??Cproxy@?$operator_arrow_dispatch@V?$particle@V?$access@U?$member@D$0A@@dod@@U?$member@H$0A@@2@U?$member@H$00@2@@dod@@@@PAV1@@detail@iterators@boost@@QAEPAV?$particle@V?$access@U?$member@D$0A@@dod@@U?$member@H$0A@@2@U?$member@H$00@2@@dod@@@@XZ ; boost::iterators::detail::operator_arrow_dispatch<particle<dod::access<dod::member<char,0>,dod::member<int,0>,dod::member<int,1> > >,particle<dod::access<dod::member<char,0>,dod::member<int,0>,dod::member<int,1> > > *>::proxy::operator->
PUBLIC	??$measure@V<lambda_fe4b9e6fc2b2fbcfeea78297fbfefccb>@@@@YANV<lambda_fe4b9e6fc2b2fbcfeea78297fbfefccb>@@@Z ; measure<<lambda_fe4b9e6fc2b2fbcfeea78297fbfefccb> >
PUBLIC	??$measure@V<lambda_ce14b79be95f650ececed4b3079e7cf8>@@@@YANV<lambda_ce14b79be95f650ececed4b3079e7cf8>@@@Z ; measure<<lambda_ce14b79be95f650ececed4b3079e7cf8> >
PUBLIC	??$measure@V<lambda_a29049cf6153b725a6a331d7121b9876>@@@@YANV<lambda_a29049cf6153b725a6a331d7121b9876>@@@Z ; measure<<lambda_a29049cf6153b725a6a331d7121b9876> >
PUBLIC	??$measure@V<lambda_668201fb256ca3039b30842ebf04ef83>@@@@YANV<lambda_668201fb256ca3039b30842ebf04ef83>@@@Z ; measure<<lambda_668201fb256ca3039b30842ebf04ef83> >
PUBLIC	??$measure@V<lambda_4c02ba5ef62215ee51f4e58ccd3418c3>@@@@YANV<lambda_4c02ba5ef62215ee51f4e58ccd3418c3>@@@Z ; measure<<lambda_4c02ba5ef62215ee51f4e58ccd3418c3> >
PUBLIC	??$_Addressof@Vplain_particle@@@std@@YAPAVplain_particle@@AAV1@U?$integral_constant@_N$0A@@0@@Z ; std::_Addressof<plain_particle>
PUBLIC	??$construct@Vplain_particle@@V1@@?$allocator_traits@V?$allocator@Vplain_particle@@@std@@@std@@SAXAAV?$allocator@Vplain_particle@@@1@PAVplain_particle@@$$QAV3@@Z ; std::allocator_traits<std::allocator<plain_particle> >::construct<plain_particle,plain_particle>
PUBLIC	??$_Addressof@$$CBH@std@@YAPBHABHU?$integral_constant@_N$0A@@0@@Z ; std::_Addressof<int const >
PUBLIC	??$forward@AAH@std@@YAAAHAAH@Z			; std::forward<int &>
PUBLIC	??$construct@HAAH@?$allocator_traits@V?$allocator@H@std@@@std@@SAXAAV?$allocator@H@1@PAHAAH@Z ; std::allocator_traits<std::allocator<int> >::construct<int,int &>
PUBLIC	??$forward@ABH@std@@YAABHABH@Z			; std::forward<int const &>
PUBLIC	??$construct@HABH@?$allocator_traits@V?$allocator@H@std@@@std@@SAXAAV?$allocator@H@1@PAHABH@Z ; std::allocator_traits<std::allocator<int> >::construct<int,int const &>
PUBLIC	??$_Addressof@$$CBD@std@@YAPBDABDU?$integral_constant@_N$0A@@0@@Z ; std::_Addressof<char const >
PUBLIC	??$forward@AAD@std@@YAAADAAD@Z			; std::forward<char &>
PUBLIC	??$construct@DAAD@?$allocator_traits@V?$allocator@D@std@@@std@@SAXAAV?$allocator@D@1@PADAAD@Z ; std::allocator_traits<std::allocator<char> >::construct<char,char &>
PUBLIC	??$forward@ABD@std@@YAABDABD@Z			; std::forward<char const &>
PUBLIC	??$construct@DABD@?$allocator_traits@V?$allocator@D@std@@@std@@SAXAAV?$allocator@D@1@PADABD@Z ; std::allocator_traits<std::allocator<char> >::construct<char,char const &>
PUBLIC	??$forward@ABV?$allocator@Vplain_particle@@@std@@@std@@YAABV?$allocator@Vplain_particle@@@0@ABV10@@Z ; std::forward<std::allocator<plain_particle> const &>
PUBLIC	??$forward@ABV?$allocator@H@std@@@std@@YAABV?$allocator@H@0@ABV10@@Z ; std::forward<std::allocator<int> const &>
PUBLIC	??$forward@ABV?$allocator@D@std@@@std@@YAABV?$allocator@D@0@ABV10@@Z ; std::forward<std::allocator<char> const &>
PUBLIC	??$destroy@U_Container_proxy@std@@@?$allocator_traits@V?$allocator@U_Container_proxy@std@@@std@@@std@@SAXAAV?$allocator@U_Container_proxy@std@@@1@PAU_Container_proxy@1@@Z ; std::allocator_traits<std::allocator<std::_Container_proxy> >::destroy<std::_Container_proxy>
PUBLIC	??$forward@U_Container_proxy@std@@@std@@YA$$QAU_Container_proxy@0@AAU10@@Z ; std::forward<std::_Container_proxy>
PUBLIC	??$construct@U_Container_proxy@std@@U12@@?$allocator_traits@V?$allocator@U_Container_proxy@std@@@std@@@std@@SAXAAV?$allocator@U_Container_proxy@std@@@1@PAU_Container_proxy@1@$$QAU31@@Z ; std::allocator_traits<std::allocator<std::_Container_proxy> >::construct<std::_Container_proxy,std::_Container_proxy>
PUBLIC	??$_Uninitialized_move@PAVplain_particle@@PAV1@U?$_Wrap_alloc@V?$allocator@Vplain_particle@@@std@@@std@@@std@@YAPAVplain_particle@@PAV1@00AAU?$_Wrap_alloc@V?$allocator@Vplain_particle@@@std@@@0@@Z ; std::_Uninitialized_move<plain_particle *,plain_particle *,std::_Wrap_alloc<std::allocator<plain_particle> > >
PUBLIC	??$_Ptr_cat@Vplain_particle@@V1@@std@@YA?AU_Nonscalar_ptr_iterator_tag@0@PAVplain_particle@@0@Z ; std::_Ptr_cat<plain_particle,plain_particle>
PUBLIC	??$_Destroy_range@U?$_Wrap_alloc@V?$allocator@Vplain_particle@@@std@@@std@@@std@@YAXPAVplain_particle@@0AAU?$_Wrap_alloc@V?$allocator@Vplain_particle@@@std@@@0@U_Nonscalar_ptr_iterator_tag@0@@Z ; std::_Destroy_range<std::_Wrap_alloc<std::allocator<plain_particle> > >
PUBLIC	??$_Uninitialized_move@PAHPAHU?$_Wrap_alloc@V?$allocator@H@std@@@std@@@std@@YAPAHPAH00AAU?$_Wrap_alloc@V?$allocator@H@std@@@0@@Z ; std::_Uninitialized_move<int *,int *,std::_Wrap_alloc<std::allocator<int> > >
PUBLIC	??$_Ptr_cat@HH@std@@YA?AU_Scalar_ptr_iterator_tag@0@PAH0@Z ; std::_Ptr_cat<int,int>
PUBLIC	??$_Destroy_range@U?$_Wrap_alloc@V?$allocator@H@std@@@std@@@std@@YAXPAH0AAU?$_Wrap_alloc@V?$allocator@H@std@@@0@U_Scalar_ptr_iterator_tag@0@@Z ; std::_Destroy_range<std::_Wrap_alloc<std::allocator<int> > >
PUBLIC	??$_Uninitialized_move@PADPADU?$_Wrap_alloc@V?$allocator@D@std@@@std@@@std@@YAPADPAD00AAU?$_Wrap_alloc@V?$allocator@D@std@@@0@@Z ; std::_Uninitialized_move<char *,char *,std::_Wrap_alloc<std::allocator<char> > >
PUBLIC	??$_Ptr_cat@DD@std@@YA?AU_Scalar_ptr_iterator_tag@0@PAD0@Z ; std::_Ptr_cat<char,char>
PUBLIC	??$_Destroy_range@U?$_Wrap_alloc@V?$allocator@D@std@@@std@@@std@@YAXPAD0AAU?$_Wrap_alloc@V?$allocator@D@std@@@0@U_Scalar_ptr_iterator_tag@0@@Z ; std::_Destroy_range<std::_Wrap_alloc<std::allocator<char> > >
PUBLIC	??$addressof@V?$particle@V?$access@U?$member@D$0A@@dod@@U?$member@H$0A@@2@U?$member@H$00@2@@dod@@@@@boost@@YAPAV?$particle@V?$access@U?$member@D$0A@@dod@@U?$member@H$0A@@2@U?$member@H$00@2@@dod@@@@AAV1@@Z ; boost::addressof<particle<dod::access<dod::member<char,0>,dod::member<int,0>,dod::member<int,1> > > >
PUBLIC	??$advance@V?$pointer@V?$particle@V?$access@U?$member@D$0A@@dod@@U?$member@H$0A@@2@U?$member@H$00@2@@dod@@@@@dod@@@iterator_core_access@iterators@boost@@CAXAAV?$pointer@V?$particle@V?$access@U?$member@D$0A@@dod@@U?$member@H$0A@@2@U?$member@H$00@2@@dod@@@@@dod@@H@Z ; boost::iterators::iterator_core_access::advance<dod::pointer<particle<dod::access<dod::member<char,0>,dod::member<int,0>,dod::member<int,1> > > > >
PUBLIC	??$addressof@V?$particle@V?$access@U?$member@D$0A@@dod@@U?$member@H$0A@@2@U?$member@H$00@2@U?$member@H$01@2@U?$member@H$02@2@@dod@@@@@boost@@YAPAV?$particle@V?$access@U?$member@D$0A@@dod@@U?$member@H$0A@@2@U?$member@H$00@2@U?$member@H$01@2@U?$member@H$02@2@@dod@@@@AAV1@@Z ; boost::addressof<particle<dod::access<dod::member<char,0>,dod::member<int,0>,dod::member<int,1>,dod::member<int,2>,dod::member<int,3> > > >
PUBLIC	??$advance@V?$pointer@V?$particle@V?$access@U?$member@D$0A@@dod@@U?$member@H$0A@@2@U?$member@H$00@2@U?$member@H$01@2@U?$member@H$02@2@@dod@@@@@dod@@@iterator_core_access@iterators@boost@@CAXAAV?$pointer@V?$particle@V?$access@U?$member@D$0A@@dod@@U?$member@H$0A@@2@U?$member@H$00@2@U?$member@H$01@2@U?$member@H$02@2@@dod@@@@@dod@@H@Z ; boost::iterators::iterator_core_access::advance<dod::pointer<particle<dod::access<dod::member<char,0>,dod::member<int,0>,dod::member<int,1>,dod::member<int,2>,dod::member<int,3> > > > >
PUBLIC	?pointer_to@?$pointer_traits@PAVplain_particle@@@std@@SAPAVplain_particle@@AAV3@@Z ; std::pointer_traits<plain_particle *>::pointer_to
PUBLIC	??$dereference@V?$pointer@V?$particle@V?$access@U?$member@D$0A@@dod@@U?$member@H$0A@@2@U?$member@H$00@2@@dod@@@@@dod@@@iterator_core_access@iterators@boost@@CA?AV?$particle@V?$access@U?$member@D$0A@@dod@@U?$member@H$0A@@2@U?$member@H$00@2@@dod@@@@ABV?$pointer@V?$particle@V?$access@U?$member@D$0A@@dod@@U?$member@H$0A@@2@U?$member@H$00@2@@dod@@@@@dod@@@Z ; boost::iterators::iterator_core_access::dereference<dod::pointer<particle<dod::access<dod::member<char,0>,dod::member<int,0>,dod::member<int,1> > > > >
PUBLIC	??$dereference@V?$pointer@V?$particle@V?$access@U?$member@D$0A@@dod@@U?$member@H$0A@@2@U?$member@H$00@2@U?$member@H$01@2@U?$member@H$02@2@@dod@@@@@dod@@@iterator_core_access@iterators@boost@@CA?AV?$particle@V?$access@U?$member@D$0A@@dod@@U?$member@H$0A@@2@U?$member@H$00@2@U?$member@H$01@2@U?$member@H$02@2@@dod@@@@ABV?$pointer@V?$particle@V?$access@U?$member@D$0A@@dod@@U?$member@H$0A@@2@U?$member@H$00@2@U?$member@H$01@2@U?$member@H$02@2@@dod@@@@@dod@@@Z ; boost::iterators::iterator_core_access::dereference<dod::pointer<particle<dod::access<dod::member<char,0>,dod::member<int,0>,dod::member<int,1>,dod::member<int,2>,dod::member<int,3> > > > >
PUBLIC	??$_Debug_pointer@D@std@@YAXPADPB_WI@Z		; std::_Debug_pointer<char>
PUBLIC	??$?0PAHPAHPAH@?$access@U?$member@H$00@dod@@U?$member@H$01@2@U?$member@H$02@2@@dod@@QAE@$$QAPAH00@Z ; dod::access<dod::member<int,1>,dod::member<int,2>,dod::member<int,3> >::access<dod::member<int,1>,dod::member<int,2>,dod::member<int,3> ><int *,int *,int *>
PUBLIC	??$?0HX@?$duration@_JU?$ratio@$00$0DOI@@std@@@chrono@std@@QAE@ABH@Z ; std::chrono::duration<__int64,std::ratio<1,1000> >::duration<__int64,std::ratio<1,1000> ><int,void>
PUBLIC	?begin@?$array@N$09@std@@QAE?AV?$_Array_iterator@N$09@2@XZ ; std::array<double,10>::begin
PUBLIC	?end@?$array@N$09@std@@QAE?AV?$_Array_iterator@N$09@2@XZ ; std::array<double,10>::end
PUBLIC	?size@?$array@N$09@std@@QBEIXZ			; std::array<double,10>::size
PUBLIC	??A?$array@N$09@std@@QAEAANI@Z			; std::array<double,10>::operator[]
PUBLIC	??$?M_JU?$ratio@$00$0DLJKMKAA@@std@@_JU?$ratio@$00$0DOI@@1@@chrono@std@@YA_NABV?$duration@_JU?$ratio@$00$0DLJKMKAA@@std@@@01@ABV?$duration@_JU?$ratio@$00$0DOI@@std@@@01@@Z ; std::chrono::operator<<__int64,std::ratio<1,1000000000>,__int64,std::ratio<1,1000> >
PUBLIC	??$duration_cast@V?$duration@NU?$ratio@$00$00@std@@@chrono@std@@_JU?$ratio@$00$0DLJKMKAA@@3@@chrono@std@@YA?AV?$duration@NU?$ratio@$00$00@std@@@01@ABV?$duration@_JU?$ratio@$00$0DLJKMKAA@@std@@@01@@Z ; std::chrono::duration_cast<std::chrono::duration<double,std::ratio<1,1> >,__int64,std::ratio<1,1000000000> >
PUBLIC	??0?$_Iterator012@Urandom_access_iterator_tag@std@@NHPBNABNU_Iterator_base12@2@@std@@QAE@XZ ; std::_Iterator012<std::random_access_iterator_tag,double,int,double const *,double const &,std::_Iterator_base12>::_Iterator012<std::random_access_iterator_tag,double,int,double const *,double const &,std::_Iterator_base12>
PUBLIC	??1?$_Iterator012@Urandom_access_iterator_tag@std@@NHPBNABNU_Iterator_base12@2@@std@@QAE@XZ ; std::_Iterator012<std::random_access_iterator_tag,double,int,double const *,double const &,std::_Iterator_base12>::~_Iterator012<std::random_access_iterator_tag,double,int,double const *,double const &,std::_Iterator_base12>
PUBLIC	??0?$_Iterator012@Urandom_access_iterator_tag@std@@NHPBNABNU_Iterator_base12@2@@std@@QAE@ABU01@@Z ; std::_Iterator012<std::random_access_iterator_tag,double,int,double const *,double const &,std::_Iterator_base12>::_Iterator012<std::random_access_iterator_tag,double,int,double const *,double const &,std::_Iterator_base12>
PUBLIC	??0?$_Array_const_iterator@N$09@std@@QAE@PBNI@Z	; std::_Array_const_iterator<double,10>::_Array_const_iterator<double,10>
PUBLIC	?_Unchecked@?$_Array_const_iterator@N$09@std@@QBEPBNXZ ; std::_Array_const_iterator<double,10>::_Unchecked
PUBLIC	??Y?$_Array_const_iterator@N$09@std@@QAEAAV01@H@Z ; std::_Array_const_iterator<double,10>::operator+=
PUBLIC	??G?$_Array_const_iterator@N$09@std@@QBEHABV01@@Z ; std::_Array_const_iterator<double,10>::operator-
PUBLIC	??8?$_Array_const_iterator@N$09@std@@QBE_NABV01@@Z ; std::_Array_const_iterator<double,10>::operator==
PUBLIC	??9?$_Array_const_iterator@N$09@std@@QBE_NABV01@@Z ; std::_Array_const_iterator<double,10>::operator!=
PUBLIC	??M?$_Array_const_iterator@N$09@std@@QBE_NABV01@@Z ; std::_Array_const_iterator<double,10>::operator<
PUBLIC	?_Compat@?$_Array_const_iterator@N$09@std@@QBEXABV12@@Z ; std::_Array_const_iterator<double,10>::_Compat
PUBLIC	??1?$_Array_const_iterator@N$09@std@@QAE@XZ	; std::_Array_const_iterator<double,10>::~_Array_const_iterator<double,10>
PUBLIC	??0?$_Array_const_iterator@N$09@std@@QAE@ABV01@@Z ; std::_Array_const_iterator<double,10>::_Array_const_iterator<double,10>
PUBLIC	??0?$_Array_iterator@N$09@std@@QAE@PANI@Z	; std::_Array_iterator<double,10>::_Array_iterator<double,10>
PUBLIC	?_Unchecked@?$_Array_iterator@N$09@std@@QBEPANXZ ; std::_Array_iterator<double,10>::_Unchecked
PUBLIC	??Y?$_Array_iterator@N$09@std@@QAEAAV01@H@Z	; std::_Array_iterator<double,10>::operator+=
PUBLIC	??H?$_Array_iterator@N$09@std@@QBE?AV01@H@Z	; std::_Array_iterator<double,10>::operator+
PUBLIC	??Z?$_Array_iterator@N$09@std@@QAEAAV01@H@Z	; std::_Array_iterator<double,10>::operator-=
PUBLIC	??G?$_Array_iterator@N$09@std@@QBE?AV01@H@Z	; std::_Array_iterator<double,10>::operator-
PUBLIC	??G?$_Array_iterator@N$09@std@@QBEHABV?$_Array_const_iterator@N$09@1@@Z ; std::_Array_iterator<double,10>::operator-
PUBLIC	??1?$_Array_iterator@N$09@std@@QAE@XZ		; std::_Array_iterator<double,10>::~_Array_iterator<double,10>
PUBLIC	??0?$_Array_iterator@N$09@std@@QAE@ABV01@@Z	; std::_Array_iterator<double,10>::_Array_iterator<double,10>
PUBLIC	??$sort@V?$_Array_iterator@N$09@std@@@std@@YAXV?$_Array_iterator@N$09@0@0@Z ; std::sort<std::_Array_iterator<double,10> >
PUBLIC	??$accumulate@V?$_Array_iterator@N$09@std@@N@std@@YANV?$_Array_iterator@N$09@0@0N@Z ; std::accumulate<std::_Array_iterator<double,10>,double>
PUBLIC	??$equal@V?$pointer@V?$particle@V?$access@U?$member@D$0A@@dod@@U?$member@H$0A@@2@U?$member@H$00@2@U?$member@H$01@2@U?$member@H$02@2@@dod@@@@@dod@@V12@@iterator_core_access@iterators@boost@@CA_NABV?$pointer@V?$particle@V?$access@U?$member@D$0A@@dod@@U?$member@H$0A@@2@U?$member@H$00@2@U?$member@H$01@2@U?$member@H$02@2@@dod@@@@@dod@@0U?$bool_@$00@mpl@2@@Z ; boost::iterators::iterator_core_access::equal<dod::pointer<particle<dod::access<dod::member<char,0>,dod::member<int,0>,dod::member<int,1>,dod::member<int,2>,dod::member<int,3> > > >,dod::pointer<particle<dod::access<dod::member<char,0>,dod::member<int,0>,dod::member<int,1>,dod::member<int,2>,dod::member<int,3> > > > >
PUBLIC	??$equal@V?$pointer@V?$particle@V?$access@U?$member@D$0A@@dod@@U?$member@H$0A@@2@U?$member@H$00@2@@dod@@@@@dod@@V12@@iterator_core_access@iterators@boost@@CA_NABV?$pointer@V?$particle@V?$access@U?$member@D$0A@@dod@@U?$member@H$0A@@2@U?$member@H$00@2@@dod@@@@@dod@@0U?$bool_@$00@mpl@2@@Z ; boost::iterators::iterator_core_access::equal<dod::pointer<particle<dod::access<dod::member<char,0>,dod::member<int,0>,dod::member<int,1> > > >,dod::pointer<particle<dod::access<dod::member<char,0>,dod::member<int,0>,dod::member<int,1> > > > >
PUBLIC	??$construct@Vplain_particle@@V1@@?$allocator@Vplain_particle@@@std@@QAEXPAVplain_particle@@$$QAV2@@Z ; std::allocator<plain_particle>::construct<plain_particle,plain_particle>
PUBLIC	??$construct@HAAH@?$allocator@H@std@@QAEXPAHAAH@Z ; std::allocator<int>::construct<int,int &>
PUBLIC	??$construct@HABH@?$allocator@H@std@@QAEXPAHABH@Z ; std::allocator<int>::construct<int,int const &>
PUBLIC	??$construct@DAAD@?$allocator@D@std@@QAEXPADAAD@Z ; std::allocator<char>::construct<char,char &>
PUBLIC	??$construct@DABD@?$allocator@D@std@@QAEXPADABD@Z ; std::allocator<char>::construct<char,char const &>
PUBLIC	??$destroy@U_Container_proxy@std@@@?$allocator@U_Container_proxy@std@@@std@@QAEXPAU_Container_proxy@1@@Z ; std::allocator<std::_Container_proxy>::destroy<std::_Container_proxy>
PUBLIC	??$construct@U_Container_proxy@std@@U12@@?$allocator@U_Container_proxy@std@@@std@@QAEXPAU_Container_proxy@1@$$QAU21@@Z ; std::allocator<std::_Container_proxy>::construct<std::_Container_proxy,std::_Container_proxy>
PUBLIC	??$_Unchecked@PAVplain_particle@@@std@@YAPAVplain_particle@@PAV1@@Z ; std::_Unchecked<plain_particle *>
PUBLIC	??$_Uninit_move@PAVplain_particle@@PAV1@U?$_Wrap_alloc@V?$allocator@Vplain_particle@@@std@@@std@@@std@@YAPAVplain_particle@@PAV1@00AAU?$_Wrap_alloc@V?$allocator@Vplain_particle@@@std@@@0@@Z ; std::_Uninit_move<plain_particle *,plain_particle *,std::_Wrap_alloc<std::allocator<plain_particle> > >
PUBLIC	??$_Rechecked@PAVplain_particle@@PAV1@@std@@YAAAPAVplain_particle@@AAPAV1@PAV1@@Z ; std::_Rechecked<plain_particle *,plain_particle *>
PUBLIC	??$destroy@Vplain_particle@@@?$_Wrap_alloc@V?$allocator@Vplain_particle@@@std@@@std@@QAEXPAVplain_particle@@@Z ; std::_Wrap_alloc<std::allocator<plain_particle> >::destroy<plain_particle>
PUBLIC	??$_Unchecked@PAH@std@@YAPAHPAH@Z		; std::_Unchecked<int *>
PUBLIC	??$_Uninit_move@PAHPAHU?$_Wrap_alloc@V?$allocator@H@std@@@std@@@std@@YAPAHPAH00AAU?$_Wrap_alloc@V?$allocator@H@std@@@0@@Z ; std::_Uninit_move<int *,int *,std::_Wrap_alloc<std::allocator<int> > >
PUBLIC	??$_Rechecked@PAHPAH@std@@YAAAPAHAAPAHPAH@Z	; std::_Rechecked<int *,int *>
PUBLIC	??$_Unchecked@PAD@std@@YAPADPAD@Z		; std::_Unchecked<char *>
PUBLIC	??$_Uninit_move@PADPADU?$_Wrap_alloc@V?$allocator@D@std@@@std@@@std@@YAPADPAD00AAU?$_Wrap_alloc@V?$allocator@D@std@@@0@@Z ; std::_Uninit_move<char *,char *,std::_Wrap_alloc<std::allocator<char> > >
PUBLIC	??$_Rechecked@PADPAD@std@@YAAAPADAAPADPAD@Z	; std::_Rechecked<char *,char *>
PUBLIC	?f@?$addressof_impl@V?$particle@V?$access@U?$member@D$0A@@dod@@U?$member@H$0A@@2@U?$member@H$00@2@@dod@@@@@detail@boost@@SAPAV?$particle@V?$access@U?$member@D$0A@@dod@@U?$member@H$0A@@2@U?$member@H$00@2@@dod@@@@AAV4@J@Z ; boost::detail::addressof_impl<particle<dod::access<dod::member<char,0>,dod::member<int,0>,dod::member<int,1> > > >::f
PUBLIC	??0?$addr_impl_ref@V?$particle@V?$access@U?$member@D$0A@@dod@@U?$member@H$0A@@2@U?$member@H$00@2@@dod@@@@@detail@boost@@QAE@AAV?$particle@V?$access@U?$member@D$0A@@dod@@U?$member@H$0A@@2@U?$member@H$00@2@@dod@@@@@Z ; boost::detail::addr_impl_ref<particle<dod::access<dod::member<char,0>,dod::member<int,0>,dod::member<int,1> > > >::addr_impl_ref<particle<dod::access<dod::member<char,0>,dod::member<int,0>,dod::member<int,1> > > >
PUBLIC	??B?$addr_impl_ref@V?$particle@V?$access@U?$member@D$0A@@dod@@U?$member@H$0A@@2@U?$member@H$00@2@@dod@@@@@detail@boost@@QBEAAV?$particle@V?$access@U?$member@D$0A@@dod@@U?$member@H$0A@@2@U?$member@H$00@2@@dod@@@@XZ ; boost::detail::addr_impl_ref<particle<dod::access<dod::member<char,0>,dod::member<int,0>,dod::member<int,1> > > >::operator particle<dod::access<dod::member<char,0>,dod::member<int,0>,dod::member<int,1> > > &
PUBLIC	?f@?$addressof_impl@V?$particle@V?$access@U?$member@D$0A@@dod@@U?$member@H$0A@@2@U?$member@H$00@2@U?$member@H$01@2@U?$member@H$02@2@@dod@@@@@detail@boost@@SAPAV?$particle@V?$access@U?$member@D$0A@@dod@@U?$member@H$0A@@2@U?$member@H$00@2@U?$member@H$01@2@U?$member@H$02@2@@dod@@@@AAV4@J@Z ; boost::detail::addressof_impl<particle<dod::access<dod::member<char,0>,dod::member<int,0>,dod::member<int,1>,dod::member<int,2>,dod::member<int,3> > > >::f
PUBLIC	??0?$addr_impl_ref@V?$particle@V?$access@U?$member@D$0A@@dod@@U?$member@H$0A@@2@U?$member@H$00@2@U?$member@H$01@2@U?$member@H$02@2@@dod@@@@@detail@boost@@QAE@AAV?$particle@V?$access@U?$member@D$0A@@dod@@U?$member@H$0A@@2@U?$member@H$00@2@U?$member@H$01@2@U?$member@H$02@2@@dod@@@@@Z ; boost::detail::addr_impl_ref<particle<dod::access<dod::member<char,0>,dod::member<int,0>,dod::member<int,1>,dod::member<int,2>,dod::member<int,3> > > >::addr_impl_ref<particle<dod::access<dod::member<char,0>,dod::member<int,0>,dod::member<int,1>,dod::member<int,2>,dod::member<int,3> > > >
PUBLIC	??B?$addr_impl_ref@V?$particle@V?$access@U?$member@D$0A@@dod@@U?$member@H$0A@@2@U?$member@H$00@2@U?$member@H$01@2@U?$member@H$02@2@@dod@@@@@detail@boost@@QBEAAV?$particle@V?$access@U?$member@D$0A@@dod@@U?$member@H$0A@@2@U?$member@H$00@2@U?$member@H$01@2@U?$member@H$02@2@@dod@@@@XZ ; boost::detail::addr_impl_ref<particle<dod::access<dod::member<char,0>,dod::member<int,0>,dod::member<int,1>,dod::member<int,2>,dod::member<int,3> > > >::operator particle<dod::access<dod::member<char,0>,dod::member<int,0>,dod::member<int,1>,dod::member<int,2>,dod::member<int,3> > > &
PUBLIC	??$addressof@N@std@@YAPANAAN@Z			; std::addressof<double>
PUBLIC	??$increment@V?$pointer@V?$particle@V?$access@U?$member@D$0A@@dod@@U?$member@H$0A@@2@U?$member@H$00@2@@dod@@@@@dod@@@iterator_core_access@iterators@boost@@CAXAAV?$pointer@V?$particle@V?$access@U?$member@D$0A@@dod@@U?$member@H$0A@@2@U?$member@H$00@2@@dod@@@@@dod@@@Z ; boost::iterators::iterator_core_access::increment<dod::pointer<particle<dod::access<dod::member<char,0>,dod::member<int,0>,dod::member<int,1> > > > >
PUBLIC	??$increment@V?$pointer@V?$particle@V?$access@U?$member@D$0A@@dod@@U?$member@H$0A@@2@U?$member@H$00@2@U?$member@H$01@2@U?$member@H$02@2@@dod@@@@@dod@@@iterator_core_access@iterators@boost@@CAXAAV?$pointer@V?$particle@V?$access@U?$member@D$0A@@dod@@U?$member@H$0A@@2@U?$member@H$00@2@U?$member@H$01@2@U?$member@H$02@2@@dod@@@@@dod@@@Z ; boost::iterators::iterator_core_access::increment<dod::pointer<particle<dod::access<dod::member<char,0>,dod::member<int,0>,dod::member<int,1>,dod::member<int,2>,dod::member<int,3> > > > >
PUBLIC	??$?0PAHPAH@?$access@U?$member@H$01@dod@@U?$member@H$02@2@@dod@@QAE@$$QAPAH0@Z ; dod::access<dod::member<int,2>,dod::member<int,3> >::access<dod::member<int,2>,dod::member<int,3> ><int *,int *>
PUBLIC	??$?0_JU?$ratio@$00$0DOI@@std@@X@?$duration@_JU?$ratio@$00$0DLJKMKAA@@std@@@chrono@std@@QAE@ABV?$duration@_JU?$ratio@$00$0DOI@@std@@@12@@Z ; std::chrono::duration<__int64,std::ratio<1,1000000000> >::duration<__int64,std::ratio<1,1000000000> ><__int64,std::ratio<1,1000>,void>
PUBLIC	??$?0NX@?$duration@NU?$ratio@$00$00@std@@@chrono@std@@QAE@ABN@Z ; std::chrono::duration<double,std::ratio<1,1> >::duration<double,std::ratio<1,1> ><double,void>
PUBLIC	??$sort@V?$_Array_iterator@N$09@std@@U?$less@X@2@@std@@YAXV?$_Array_iterator@N$09@0@0U?$less@X@0@@Z ; std::sort<std::_Array_iterator<double,10>,std::less<void> >
PUBLIC	??$accumulate@V?$_Array_iterator@N$09@std@@NU?$plus@X@2@@std@@YANV?$_Array_iterator@N$09@0@0NU?$plus@X@0@@Z ; std::accumulate<std::_Array_iterator<double,10>,double,std::plus<void> >
PUBLIC	??$_Val_type@PAVplain_particle@@@std@@YAPAVplain_particle@@PAV1@@Z ; std::_Val_type<plain_particle *>
PUBLIC	??$_Uninit_move@PAVplain_particle@@PAV1@V?$allocator@Vplain_particle@@@std@@V1@@std@@YAPAVplain_particle@@PAV1@00AAU?$_Wrap_alloc@V?$allocator@Vplain_particle@@@std@@@0@0U_Nonscalar_ptr_iterator_tag@0@@Z ; std::_Uninit_move<plain_particle *,plain_particle *,std::allocator<plain_particle>,plain_particle>
PUBLIC	??$destroy@Vplain_particle@@@?$allocator_traits@V?$allocator@Vplain_particle@@@std@@@std@@SAXAAV?$allocator@Vplain_particle@@@1@PAVplain_particle@@@Z ; std::allocator_traits<std::allocator<plain_particle> >::destroy<plain_particle>
PUBLIC	??$_Val_type@PAH@std@@YAPAHPAH@Z		; std::_Val_type<int *>
PUBLIC	??$_Uninit_move@HHH@std@@YAPAHPAH00AAU?$_Wrap_alloc@V?$allocator@H@std@@@0@0U_Scalar_ptr_iterator_tag@0@@Z ; std::_Uninit_move<int,int,int>
PUBLIC	??$_Val_type@PAD@std@@YAPADPAD@Z		; std::_Val_type<char *>
PUBLIC	??$_Uninit_move@DDD@std@@YAPADPAD00AAU?$_Wrap_alloc@V?$allocator@D@std@@@0@0U_Scalar_ptr_iterator_tag@0@@Z ; std::_Uninit_move<char,char,char>
PUBLIC	??$_Addressof@N@std@@YAPANAANU?$integral_constant@_N$0A@@0@@Z ; std::_Addressof<double>
PUBLIC	??$duration_cast@V?$duration@_JU?$ratio@$00$0DLJKMKAA@@std@@@chrono@std@@_JU?$ratio@$00$0DOI@@3@@chrono@std@@YA?AV?$duration@_JU?$ratio@$00$0DLJKMKAA@@std@@@01@ABV?$duration@_JU?$ratio@$00$0DOI@@std@@@01@@Z ; std::chrono::duration_cast<std::chrono::duration<__int64,std::ratio<1,1000000000> >,__int64,std::ratio<1,1000> >
PUBLIC	??$_Debug_range@V?$_Array_iterator@N$09@std@@@std@@YAXV?$_Array_iterator@N$09@0@0PB_WI@Z ; std::_Debug_range<std::_Array_iterator<double,10> >
PUBLIC	??$_Debug_pointer_if@U?$less@X@std@@@std@@YAX_NAAU?$less@X@0@PB_WI@Z ; std::_Debug_pointer_if<std::less<void> >
PUBLIC	??$_Unchecked@N$09@std@@YAPANV?$_Array_iterator@N$09@0@@Z ; std::_Unchecked<double,10>
PUBLIC	??$_Sort@PANHU?$less@X@std@@@std@@YAXPAN0HU?$less@X@0@@Z ; std::_Sort<double *,int,std::less<void> >
PUBLIC	??$_Debug_range_ptr@V?$_Array_iterator@N$09@std@@U?$plus@X@2@@std@@YAXV?$_Array_iterator@N$09@0@0AAU?$plus@X@0@PB_WI@Z ; std::_Debug_range_ptr<std::_Array_iterator<double,10>,std::plus<void> >
PUBLIC	??$_Accumulate@PANNU?$plus@X@std@@@std@@YANPAN0NU?$plus@X@0@@Z ; std::_Accumulate<double *,double,std::plus<void> >
PUBLIC	??$_Debug_range_ptr@PAVplain_particle@@PAV1@@std@@YAXPAVplain_particle@@0AAPAV1@PB_WI@Z ; std::_Debug_range_ptr<plain_particle *,plain_particle *>
PUBLIC	??$destroy@Vplain_particle@@@?$allocator@Vplain_particle@@@std@@QAEXPAVplain_particle@@@Z ; std::allocator<plain_particle>::destroy<plain_particle>
PUBLIC	??$_Debug_range_ptr@PAHPAH@std@@YAXPAH0AAPAHPB_WI@Z ; std::_Debug_range_ptr<int *,int *>
PUBLIC	??$_Debug_range_ptr@PADPAD@std@@YAXPAD0AAPADPB_WI@Z ; std::_Debug_range_ptr<char *,char *>
PUBLIC	??$_Iter_cat@V?$_Array_iterator@N$09@std@@@std@@YA?AUrandom_access_iterator_tag@0@ABV?$_Array_iterator@N$09@0@@Z ; std::_Iter_cat<std::_Array_iterator<double,10> >
PUBLIC	??$_Debug_range2@V?$_Array_iterator@N$09@std@@@std@@YAXV?$_Array_iterator@N$09@0@0PB_WIUrandom_access_iterator_tag@0@@Z ; std::_Debug_range2<std::_Array_iterator<double,10> >
PUBLIC	??$_Unguarded_partition@PANU?$less@X@std@@@std@@YA?AU?$pair@PANPAN@0@PAN0U?$less@X@0@@Z ; std::_Unguarded_partition<double *,std::less<void> >
PUBLIC	??$make_heap@PANU?$less@X@std@@@std@@YAXPAN0U?$less@X@0@@Z ; std::make_heap<double *,std::less<void> >
PUBLIC	??$sort_heap@PANU?$less@X@std@@@std@@YAXPAN0U?$less@X@0@@Z ; std::sort_heap<double *,std::less<void> >
PUBLIC	??$_Insertion_sort@PANU?$less@X@std@@@std@@YAXPAN0U?$less@X@0@@Z ; std::_Insertion_sort<double *,std::less<void> >
PUBLIC	??$_Debug_range_ptr2@V?$_Array_iterator@N$09@std@@U?$plus@X@2@@std@@YAXV?$_Array_iterator@N$09@0@0AAU?$plus@X@0@PB_WIUrandom_access_iterator_tag@0@@Z ; std::_Debug_range_ptr2<std::_Array_iterator<double,10>,std::plus<void> >
PUBLIC	??$?RAANAAN@?$plus@X@std@@QBENAAN0@Z		; std::plus<void>::operator()<double &,double &>
PUBLIC	??$_Iter_cat@PAVplain_particle@@@std@@YA?AUrandom_access_iterator_tag@0@ABQAVplain_particle@@@Z ; std::_Iter_cat<plain_particle *>
PUBLIC	??$_Debug_range_ptr2@PAVplain_particle@@PAV1@@std@@YAXPAVplain_particle@@0AAPAV1@PB_WIUrandom_access_iterator_tag@0@@Z ; std::_Debug_range_ptr2<plain_particle *,plain_particle *>
PUBLIC	??$_Iter_cat@PAH@std@@YA?AUrandom_access_iterator_tag@0@ABQAH@Z ; std::_Iter_cat<int *>
PUBLIC	??$_Debug_range_ptr2@PAHPAH@std@@YAXPAH0AAPAHPB_WIUrandom_access_iterator_tag@0@@Z ; std::_Debug_range_ptr2<int *,int *>
PUBLIC	??$_Debug_range_ptr2@PADPAD@std@@YAXPAD0AAPADPB_WIUrandom_access_iterator_tag@0@@Z ; std::_Debug_range_ptr2<char *,char *>
PUBLIC	??$_Debug_pointer@V?$_Array_iterator@N$09@std@@@std@@YAXAAV?$_Array_iterator@N$09@0@PB_WI@Z ; std::_Debug_pointer<std::_Array_iterator<double,10> >
PUBLIC	??$_Median@PANU?$less@X@std@@@std@@YAXPAN00U?$less@X@0@@Z ; std::_Median<double *,std::less<void> >
PUBLIC	??$_Debug_lt_pred@U?$less@X@std@@AANAAN@std@@YA_NU?$less@X@0@AAN1PB_WI@Z ; std::_Debug_lt_pred<std::less<void>,double &,double &>
PUBLIC	??$?RAANAAN@?$less@X@std@@QBE_NAAN0@Z		; std::less<void>::operator()<double &,double &>
PUBLIC	??$iter_swap@PANPAN@std@@YAXPAN0@Z		; std::iter_swap<double *,double *>
PUBLIC	??$?0AAPANAAPANX@?$pair@PANPAN@std@@QAE@AAPAN0@Z ; std::pair<double *,double *>::pair<double *,double *><double * &,double * &,void>
PUBLIC	??$_Debug_range@PAN@std@@YAXPAN0PB_WI@Z		; std::_Debug_range<double *>
PUBLIC	??$_Debug_pointer@U?$less@X@std@@@std@@YAXAAU?$less@X@0@PB_WI@Z ; std::_Debug_pointer<std::less<void> >
PUBLIC	??$_Unchecked@PAN@std@@YAPANPAN@Z		; std::_Unchecked<double *>
PUBLIC	??$_Dist_type@PAN@std@@YAPAHPAN@Z		; std::_Dist_type<double *>
PUBLIC	??$_Val_type@PAN@std@@YAPANPAN@Z		; std::_Val_type<double *>
PUBLIC	??$_Make_heap@PANHNU?$less@X@std@@@std@@YAXPAN0U?$less@X@0@PAH0@Z ; std::_Make_heap<double *,int,double,std::less<void> >
PUBLIC	??$_Debug_heap@PANU?$less@X@std@@@std@@YAXPAN0U?$less@X@0@@Z ; std::_Debug_heap<double *,std::less<void> >
PUBLIC	??$_Sort_heap@PANU?$less@X@std@@@std@@YAXPAN0U?$less@X@0@@Z ; std::_Sort_heap<double *,std::less<void> >
PUBLIC	??$_Insertion_sort1@PANU?$less@X@std@@N@std@@YAXPAN0U?$less@X@0@0@Z ; std::_Insertion_sort1<double *,std::less<void>,double>
PUBLIC	??$_Debug_pointer@U?$plus@X@std@@@std@@YAXAAU?$plus@X@0@PB_WI@Z ; std::_Debug_pointer<std::plus<void> >
PUBLIC	??$_Debug_pointer@Vplain_particle@@@std@@YAXPAVplain_particle@@PB_WI@Z ; std::_Debug_pointer<plain_particle>
PUBLIC	??$_Debug_pointer@H@std@@YAXPAHPB_WI@Z		; std::_Debug_pointer<int>
PUBLIC	??$_Med3@PANU?$less@X@std@@@std@@YAXPAN00U?$less@X@0@@Z ; std::_Med3<double *,std::less<void> >
PUBLIC	??$swap@N@std@@YAXAAN0@Z			; std::swap<double>
PUBLIC	??$forward@AAPAN@std@@YAAAPANAAPAN@Z		; std::forward<double * &>
PUBLIC	??$_Iter_cat@PAN@std@@YA?AUrandom_access_iterator_tag@0@ABQAN@Z ; std::_Iter_cat<double *>
PUBLIC	??$_Debug_range2@PAN@std@@YAXPAN0PB_WIUrandom_access_iterator_tag@0@@Z ; std::_Debug_range2<double *>
PUBLIC	??$_Move@AAN@std@@YA$$QANAAN@Z			; std::_Move<double &>
PUBLIC	??$_Adjust_heap@PANHNU?$less@X@std@@@std@@YAXPANHH$$QANU?$less@X@0@@Z ; std::_Adjust_heap<double *,int,double,std::less<void> >
PUBLIC	??$_Pop_heap@PANU?$less@X@std@@@std@@YAXPAN0U?$less@X@0@@Z ; std::_Pop_heap<double *,std::less<void> >
PUBLIC	??$_Move_backward@PANPAN@std@@YAPANPAN00@Z	; std::_Move_backward<double *,double *>
PUBLIC	??$_Debug_pointer@N@std@@YAXPANPB_WI@Z		; std::_Debug_pointer<double>
PUBLIC	??$_Push_heap@PANHNU?$less@X@std@@@std@@YAXPANHH$$QANU?$less@X@0@@Z ; std::_Push_heap<double *,int,double,std::less<void> >
PUBLIC	??$_Pop_heap_0@PANNU?$less@X@std@@@std@@YAXPAN0U?$less@X@0@0@Z ; std::_Pop_heap_0<double *,double,std::less<void> >
PUBLIC	??$_Ptr_cat@NN@std@@YA?AU_Scalar_ptr_iterator_tag@0@PAN0@Z ; std::_Ptr_cat<double,double>
PUBLIC	??$_Move_backward@PANPAN@std@@YAPANPAN00U_Scalar_ptr_iterator_tag@0@@Z ; std::_Move_backward<double *,double *>
PUBLIC	??$_Pop_heap@PANHNU?$less@X@std@@@std@@YAXPAN00$$QANU?$less@X@0@PAH@Z ; std::_Pop_heap<double *,int,double,std::less<void> >
PUBLIC	??_C@_1JA@IJKHNLMB@?$AAC?$AA?3?$AA?2?$AAP?$AAr?$AAo?$AAg?$AAr?$AAa?$AAm?$AA?5?$AAF?$AAi?$AAl?$AAe?$AAs?$AA?5?$AA?$CI?$AAx?$AA8?$AA6?$AA?$CJ?$AA?2?$AAM?$AAi?$AAc?$AAr?$AAo?$AAs?$AAo?$AAf?$AAt@ ; `string'
PUBLIC	??_C@_1DC@POOIKBAO@?$AAI?$AAT?$AAE?$AAR?$AAA?$AAT?$AAO?$AAR?$AA?5?$AAL?$AAI?$AAS?$AAT?$AA?5?$AAC?$AAO?$AAR?$AAR?$AAU?$AAP?$AAT?$AAE?$AAD?$AA?$CB?$AA?$AA@ ; `string'
PUBLIC	?_Freq@?1??now@steady_clock@chrono@std@@SA?AV?$time_point@Usteady_clock@chrono@std@@V?$duration@_JU?$ratio@$00$0DLJKMKAA@@std@@@23@@34@XZ@4_JB ; `std::chrono::steady_clock::now'::`2'::_Freq
PUBLIC	?$TSS0@?1??now@steady_clock@chrono@std@@SA?AV?$time_point@Usteady_clock@chrono@std@@V?$duration@_JU?$ratio@$00$0DLJKMKAA@@std@@@23@@34@XZ@4HA ; TSS0<`template-parameter-2',std::chrono::steady_clock::ow,std::chrono::Usteady_clock::me_point,chrono::steady_clock::duration<__int64,std::ratio<1,1000000000> > >
PUBLIC	?measure_start@@3V?$time_point@Usteady_clock@chrono@std@@V?$duration@_JU?$ratio@$00$0DLJKMKAA@@std@@@23@@chrono@std@@A ; measure_start
PUBLIC	?measure_pause@@3V?$time_point@Usteady_clock@chrono@std@@V?$duration@_JU?$ratio@$00$0DLJKMKAA@@std@@@23@@chrono@std@@A ; measure_pause
PUBLIC	??_C@_1IM@LECEOODI@?$AAC?$AA?3?$AA?2?$AAP?$AAr?$AAo?$AAg?$AAr?$AAa?$AAm?$AA?5?$AAF?$AAi?$AAl?$AAe?$AAs?$AA?5?$AA?$CI?$AAx?$AA8?$AA6?$AA?$CJ?$AA?2?$AAM?$AAi?$AAc?$AAr?$AAo?$AAs?$AAo?$AAf?$AAt@ ; `string'
PUBLIC	??_C@_1DM@LHGCHCBA@?$AAv?$AAe?$AAc?$AAt?$AAo?$AAr?$AA?5?$AAs?$AAu?$AAb?$AAs?$AAc?$AAr?$AAi?$AAp?$AAt?$AA?5?$AAo?$AAu?$AAt?$AA?5?$AAo?$AAf?$AA?5?$AAr?$AAa?$AAn?$AAg?$AAe?$AA?$AA@ ; `string'
PUBLIC	??_C@_0CE@OFMIGAMM@Standard?5C?$CL?$CL?5Libraries?5Out?5of?5Ra@ ; `string'
PUBLIC	??_C@_1FG@IBPIFFN@?$AA?$CC?$AAS?$AAt?$AAa?$AAn?$AAd?$AAa?$AAr?$AAd?$AA?5?$AAC?$AA?$CL?$AA?$CL?$AA?5?$AAL?$AAi?$AAb?$AAr?$AAa?$AAr?$AAi?$AAe?$AAs?$AA?5?$AAO?$AAu?$AAt?$AA?5?$AAo?$AAf?$AA?5?$AAR@ ; `string'
PUBLIC	??_C@_17CNPHIMPH@?$AA?$CF?$AAl?$AAs?$AA?$AA@	; `string'
PUBLIC	??_C@_1HC@HBCEAHKD@?$AAs?$AAt?$AAd?$AA?3?$AA?3?$AAv?$AAe?$AAc?$AAt?$AAo?$AAr?$AA?$DM?$AAi?$AAn?$AAt?$AA?0?$AAc?$AAl?$AAa?$AAs?$AAs?$AA?5?$AAs?$AAt?$AAd?$AA?3?$AA?3?$AAa?$AAl?$AAl?$AAo?$AAc@ ; `string'
PUBLIC	??_C@_1BO@MEPPHOO@?$AA?$CC?$AAo?$AAu?$AAt?$AA?5?$AAo?$AAf?$AA?5?$AAr?$AAa?$AAn?$AAg?$AAe?$AA?$CC?$AA?$AA@ ; `string'
PUBLIC	??_C@_1HG@EBINAPHK@?$AAs?$AAt?$AAd?$AA?3?$AA?3?$AAv?$AAe?$AAc?$AAt?$AAo?$AAr?$AA?$DM?$AAc?$AAh?$AAa?$AAr?$AA?0?$AAc?$AAl?$AAa?$AAs?$AAs?$AA?5?$AAs?$AAt?$AAd?$AA?3?$AA?3?$AAa?$AAl?$AAl?$AAo@ ; `string'
PUBLIC	??_C@_0BD@OLBABOEK@vector?$DMT?$DO?5too?5long?$AA@ ; `string'
PUBLIC	??_C@_1CK@EOPGIILJ@?$AAi?$AAn?$AAv?$AAa?$AAl?$AAi?$AAd?$AA?5?$AAn?$AAu?$AAl?$AAl?$AA?5?$AAp?$AAo?$AAi?$AAn?$AAt?$AAe?$AAr?$AA?$AA@ ; `string'
PUBLIC	??_C@_0CG@FHBDFCGK@_Count?5?$DM?$DN?5?$CIsize_t?$CJ?$CI?91?$CJ?5?1?5sizeof?5@ ; `string'
PUBLIC	??_C@_1FK@EJGLHMGC@?$AA?$CC?$AA_?$AAC?$AAo?$AAu?$AAn?$AAt?$AA?5?$AA?$DM?$AA?$DN?$AA?5?$AA?$CI?$AAs?$AAi?$AAz?$AAe?$AA_?$AAt?$AA?$CJ?$AA?$CI?$AA?9?$AA1?$AA?$CJ?$AA?5?$AA?1?$AA?5?$AAs?$AAi?$AAz?$AAe?$AAo?$AAf@ ; `string'
PUBLIC	??_C@_1JA@HEEMAOGC@?$AAC?$AA?3?$AA?2?$AAP?$AAr?$AAo?$AAg?$AAr?$AAa?$AAm?$AA?5?$AAF?$AAi?$AAl?$AAe?$AAs?$AA?5?$AA?$CI?$AAx?$AA8?$AA6?$AA?$CJ?$AA?2?$AAM?$AAi?$AAc?$AAr?$AAo?$AAs?$AAo?$AAf?$AAt@ ; `string'
PUBLIC	??_C@_1CC@LOFJFFDB@?$AAs?$AAt?$AAd?$AA?3?$AA?3?$AA_?$AAD?$AAe?$AAa?$AAl?$AAl?$AAo?$AAc?$AAa?$AAt?$AAe?$AA?$AA@ ; `string'
PUBLIC	??_C@_1CG@JNLFBNGN@?$AA?$CC?$AAi?$AAn?$AAv?$AAa?$AAl?$AAi?$AAd?$AA?5?$AAa?$AAr?$AAg?$AAu?$AAm?$AAe?$AAn?$AAt?$AA?$CC?$AA?$AA@ ; `string'
PUBLIC	??_C@_0DD@GBGGGKGG@?$CI_Ptr_user?5?$CG?5?$CI_BIG_ALLOCATION_AL@ ; `string'
PUBLIC	??_C@_1HE@CDMBFOKC@?$AA?$CC?$AA?$CI?$AA_?$AAP?$AAt?$AAr?$AA_?$AAu?$AAs?$AAe?$AAr?$AA?5?$AA?$CG?$AA?5?$AA?$CI?$AA_?$AAB?$AAI?$AAG?$AA_?$AAA?$AAL?$AAL?$AAO?$AAC?$AAA?$AAT?$AAI?$AAO?$AAN?$AA_?$AAA@ ; `string'
PUBLIC	??_C@_0EI@NOJHEJCJ@reinterpret_cast?$DMuintptr_t?5?$CK?$DO?$CI_P@ ; `string'
PUBLIC	??_C@_1JO@EKLKIEHP@?$AA?$CC?$AAr?$AAe?$AAi?$AAn?$AAt?$AAe?$AAr?$AAp?$AAr?$AAe?$AAt?$AA_?$AAc?$AAa?$AAs?$AAt?$AA?$DM?$AAu?$AAi?$AAn?$AAt?$AAp?$AAt?$AAr?$AA_?$AAt?$AA?5?$AA?$CK?$AA?$DO?$AA?$CI?$AA_@ ; `string'
PUBLIC	??_C@_0BL@OCKMEJON@_Ptr_container?5?$DM?5_Ptr_user?$AA@ ; `string'
PUBLIC	??_C@_1EE@PDHAHDDC@?$AA?$CC?$AA_?$AAP?$AAt?$AAr?$AA_?$AAc?$AAo?$AAn?$AAt?$AAa?$AAi?$AAn?$AAe?$AAr?$AA?5?$AA?$DM?$AA?5?$AA_?$AAP?$AAt?$AAr?$AA_?$AAu?$AAs?$AAe?$AAr?$AA?$CC?$AA?5?$AA?$CG?$AA?$CG?$AA?5@ ; `string'
PUBLIC	??_C@_0DB@GLFJLNCE@2?5?$CK?5sizeof?$CIvoid?5?$CK?$CJ?5?$DM?$DN?5_Ptr_user?5@ ; `string'
PUBLIC	??_C@_1HA@NAPGMHAO@?$AA?$CC?$AA2?$AA?5?$AA?$CK?$AA?5?$AAs?$AAi?$AAz?$AAe?$AAo?$AAf?$AA?$CI?$AAv?$AAo?$AAi?$AAd?$AA?5?$AA?$CK?$AA?$CJ?$AA?5?$AA?$DM?$AA?$DN?$AA?5?$AA_?$AAP?$AAt?$AAr?$AA_?$AAu?$AAs?$AAe?$AAr@ ; `string'
PUBLIC	??_C@_0CN@BLHJCAL@_Ptr_user?5?9?5_Ptr_container?5?$DM?$DN?5_N@ ; `string'
PUBLIC	??_C@_1GI@DHJGPFNI@?$AA?$CC?$AA_?$AAP?$AAt?$AAr?$AA_?$AAu?$AAs?$AAe?$AAr?$AA?5?$AA?9?$AA?5?$AA_?$AAP?$AAt?$AAr?$AA_?$AAc?$AAo?$AAn?$AAt?$AAa?$AAi?$AAn?$AAe?$AAr?$AA?5?$AA?$DM?$AA?$DN?$AA?5?$AA_@ ; `string'
PUBLIC	??_C@_0BE@LMNLACIC@_Ptr_container?5?$CB?$DN?50?$AA@ ; `string'
PUBLIC	??_C@_1DG@HGDKEBPG@?$AA?$CC?$AA_?$AAP?$AAt?$AAr?$AA_?$AAc?$AAo?$AAn?$AAt?$AAa?$AAi?$AAn?$AAe?$AAr?$AA?5?$AA?$CB?$AA?$DN?$AA?5?$AA0?$AA?$CC?$AA?5?$AA?$CG?$AA?$CG?$AA?5?$AA0?$AA?$AA@ ; `string'
PUBLIC	??_C@_1BO@NKFMJPA@?$AAs?$AAt?$AAd?$AA?3?$AA?3?$AA_?$AAA?$AAl?$AAl?$AAo?$AAc?$AAa?$AAt?$AAe?$AA?$AA@ ; `string'
PUBLIC	??_C@_09GLJCAGLP@_Ptr?5?$CB?$DN?50?$AA@		; `string'
PUBLIC	??_C@_1CC@GKJLLHIM@?$AA?$CC?$AA_?$AAP?$AAt?$AAr?$AA?5?$AA?$CB?$AA?$DN?$AA?5?$AA0?$AA?$CC?$AA?5?$AA?$CG?$AA?$CG?$AA?5?$AA0?$AA?$AA@ ; `string'
PUBLIC	??_C@_1DM@HINDPMBP@?$AAv?$AAe?$AAc?$AAt?$AAo?$AAr?$AA?5?$AAi?$AAt?$AAe?$AAr?$AAa?$AAt?$AAo?$AAr?$AAs?$AA?5?$AAi?$AAn?$AAc?$AAo?$AAm?$AAp?$AAa?$AAt?$AAi?$AAb?$AAl?$AAe?$AA?$AA@ ; `string'
PUBLIC	??_C@_0CI@FNPHFCCM@Standard?5C?$CL?$CL?5Libraries?5Invalid?5A@ ; `string'
PUBLIC	??_C@_1FO@GJIHNDLM@?$AA?$CC?$AAS?$AAt?$AAa?$AAn?$AAd?$AAa?$AAr?$AAd?$AA?5?$AAC?$AA?$CL?$AA?$CL?$AA?5?$AAL?$AAi?$AAb?$AAr?$AAa?$AAr?$AAi?$AAe?$AAs?$AA?5?$AAI?$AAn?$AAv?$AAa?$AAl?$AAi?$AAd?$AA?5@ ; `string'
PUBLIC	??_C@_1OA@EJBLODPM@?$AAs?$AAt?$AAd?$AA?3?$AA?3?$AA_?$AAV?$AAe?$AAc?$AAt?$AAo?$AAr?$AA_?$AAc?$AAo?$AAn?$AAs?$AAt?$AA_?$AAi?$AAt?$AAe?$AAr?$AAa?$AAt?$AAo?$AAr?$AA?$DM?$AAc?$AAl?$AAa?$AAs@ ; `string'
PUBLIC	??_C@_1EE@EJDKCLKB@?$AAv?$AAe?$AAc?$AAt?$AAo?$AAr?$AA?5?$AAi?$AAt?$AAe?$AAr?$AAa?$AAt?$AAo?$AAr?$AA?5?$AAn?$AAo?$AAt?$AA?5?$AAi?$AAn?$AAc?$AAr?$AAe?$AAm?$AAe?$AAn?$AAt?$AAa?$AAb?$AAl@ ; `string'
PUBLIC	??_C@_1OI@HGFMIHOB@?$AAs?$AAt?$AAd?$AA?3?$AA?3?$AA_?$AAV?$AAe?$AAc?$AAt?$AAo?$AAr?$AA_?$AAc?$AAo?$AAn?$AAs?$AAt?$AA_?$AAi?$AAt?$AAe?$AAr?$AAa?$AAt?$AAo?$AAr?$AA?$DM?$AAc?$AAl?$AAa?$AAs@ ; `string'
PUBLIC	??_C@_1EG@FOHJJHAC@?$AAv?$AAe?$AAc?$AAt?$AAo?$AAr?$AA?5?$AAi?$AAt?$AAe?$AAr?$AAa?$AAt?$AAo?$AAr?$AA?5?$AAn?$AAo?$AAt?$AA?5?$AAd?$AAe?$AAr?$AAe?$AAf?$AAe?$AAr?$AAe?$AAn?$AAc?$AAa?$AAb@ ; `string'
PUBLIC	??_C@_1OG@GNNKBBJJ@?$AAs?$AAt?$AAd?$AA?3?$AA?3?$AA_?$AAV?$AAe?$AAc?$AAt?$AAo?$AAr?$AA_?$AAc?$AAo?$AAn?$AAs?$AAt?$AA_?$AAi?$AAt?$AAe?$AAr?$AAa?$AAt?$AAo?$AAr?$AA?$DM?$AAc?$AAl?$AAa?$AAs@ ; `string'
PUBLIC	??_C@_1EM@FKAOCOMF@?$AAv?$AAe?$AAc?$AAt?$AAo?$AAr?$AA?5?$AAi?$AAt?$AAe?$AAr?$AAa?$AAt?$AAo?$AAr?$AA?5?$AA?$CL?$AA?5?$AAo?$AAf?$AAf?$AAs?$AAe?$AAt?$AA?5?$AAo?$AAu?$AAt?$AA?5?$AAo?$AAf?$AA?5@ ; `string'
PUBLIC	??_C@_1OI@DCOIPKC@?$AAs?$AAt?$AAd?$AA?3?$AA?3?$AA_?$AAV?$AAe?$AAc?$AAt?$AAo?$AAr?$AA_?$AAc?$AAo?$AAn?$AAs?$AAt?$AA_?$AAi?$AAt?$AAe?$AAr?$AAa?$AAt?$AAo?$AAr?$AA?$DM?$AAc?$AAl?$AAa?$AAs@ ; `string'
PUBLIC	??_C@_1CO@DGLIKNHI@?$AAi?$AAn?$AAv?$AAa?$AAl?$AAi?$AAd?$AA?5?$AAi?$AAt?$AAe?$AAr?$AAa?$AAt?$AAo?$AAr?$AA?5?$AAr?$AAa?$AAn?$AAg?$AAe?$AA?$AA@ ; `string'
PUBLIC	?min_time_per_trial@?1???$measure@V<lambda_3c38aff788b9781cf78ca5a917f16ae4>@@@@YANV<lambda_3c38aff788b9781cf78ca5a917f16ae4>@@@Z@4V?$duration@_JU?$ratio@$00$0DOI@@std@@@chrono@std@@B ; `measure<<lambda_3c38aff788b9781cf78ca5a917f16ae4> >'::`2'::min_time_per_trial
PUBLIC	?$TSS0@?1???$measure@V<lambda_3c38aff788b9781cf78ca5a917f16ae4>@@@@YANV<lambda_3c38aff788b9781cf78ca5a917f16ae4>@@@Z@4HA ; TSS0<`template-parameter-2',V<lambda_3c38aff788b9781cf78ca5a917f16ae4>::asure>
PUBLIC	?res@?1???$measure@V<lambda_3c38aff788b9781cf78ca5a917f16ae4>@@@@YANV<lambda_3c38aff788b9781cf78ca5a917f16ae4>@@@Z@4HA ; `measure<<lambda_3c38aff788b9781cf78ca5a917f16ae4> >'::`2'::res
PUBLIC	?min_time_per_trial@?1???$measure@V<lambda_0e8cd367240c9f8b6afbbc7d85139419>@@@@YANV<lambda_0e8cd367240c9f8b6afbbc7d85139419>@@@Z@4V?$duration@_JU?$ratio@$00$0DOI@@std@@@chrono@std@@B ; `measure<<lambda_0e8cd367240c9f8b6afbbc7d85139419> >'::`2'::min_time_per_trial
PUBLIC	?$TSS0@?1???$measure@V<lambda_0e8cd367240c9f8b6afbbc7d85139419>@@@@YANV<lambda_0e8cd367240c9f8b6afbbc7d85139419>@@@Z@4HA ; TSS0<`template-parameter-2',V<lambda_0e8cd367240c9f8b6afbbc7d85139419>::asure>
PUBLIC	?res@?1???$measure@V<lambda_0e8cd367240c9f8b6afbbc7d85139419>@@@@YANV<lambda_0e8cd367240c9f8b6afbbc7d85139419>@@@Z@4HA ; `measure<<lambda_0e8cd367240c9f8b6afbbc7d85139419> >'::`2'::res
PUBLIC	?min_time_per_trial@?1???$measure@V<lambda_4bb02fb8e2d5361150321278473362ff>@@@@YANV<lambda_4bb02fb8e2d5361150321278473362ff>@@@Z@4V?$duration@_JU?$ratio@$00$0DOI@@std@@@chrono@std@@B ; `measure<<lambda_4bb02fb8e2d5361150321278473362ff> >'::`2'::min_time_per_trial
PUBLIC	?$TSS0@?1???$measure@V<lambda_4bb02fb8e2d5361150321278473362ff>@@@@YANV<lambda_4bb02fb8e2d5361150321278473362ff>@@@Z@4HA ; TSS0<`template-parameter-2',V<lambda_4bb02fb8e2d5361150321278473362ff>::asure>
PUBLIC	?res@?1???$measure@V<lambda_4bb02fb8e2d5361150321278473362ff>@@@@YANV<lambda_4bb02fb8e2d5361150321278473362ff>@@@Z@4HA ; `measure<<lambda_4bb02fb8e2d5361150321278473362ff> >'::`2'::res
PUBLIC	?min_time_per_trial@?1???$measure@V<lambda_fe4b9e6fc2b2fbcfeea78297fbfefccb>@@@@YANV<lambda_fe4b9e6fc2b2fbcfeea78297fbfefccb>@@@Z@4V?$duration@_JU?$ratio@$00$0DOI@@std@@@chrono@std@@B ; `measure<<lambda_fe4b9e6fc2b2fbcfeea78297fbfefccb> >'::`2'::min_time_per_trial
PUBLIC	?$TSS0@?1???$measure@V<lambda_fe4b9e6fc2b2fbcfeea78297fbfefccb>@@@@YANV<lambda_fe4b9e6fc2b2fbcfeea78297fbfefccb>@@@Z@4HA ; TSS0<`template-parameter-2',V<lambda_fe4b9e6fc2b2fbcfeea78297fbfefccb>::asure>
PUBLIC	?res@?1???$measure@V<lambda_fe4b9e6fc2b2fbcfeea78297fbfefccb>@@@@YANV<lambda_fe4b9e6fc2b2fbcfeea78297fbfefccb>@@@Z@4HA ; `measure<<lambda_fe4b9e6fc2b2fbcfeea78297fbfefccb> >'::`2'::res
PUBLIC	?min_time_per_trial@?1???$measure@V<lambda_ce14b79be95f650ececed4b3079e7cf8>@@@@YANV<lambda_ce14b79be95f650ececed4b3079e7cf8>@@@Z@4V?$duration@_JU?$ratio@$00$0DOI@@std@@@chrono@std@@B ; `measure<<lambda_ce14b79be95f650ececed4b3079e7cf8> >'::`2'::min_time_per_trial
PUBLIC	?$TSS0@?1???$measure@V<lambda_ce14b79be95f650ececed4b3079e7cf8>@@@@YANV<lambda_ce14b79be95f650ececed4b3079e7cf8>@@@Z@4HA ; TSS0<`template-parameter-2',V<lambda_ce14b79be95f650ececed4b3079e7cf8>::asure>
PUBLIC	?res@?1???$measure@V<lambda_ce14b79be95f650ececed4b3079e7cf8>@@@@YANV<lambda_ce14b79be95f650ececed4b3079e7cf8>@@@Z@4HA ; `measure<<lambda_ce14b79be95f650ececed4b3079e7cf8> >'::`2'::res
PUBLIC	?min_time_per_trial@?1???$measure@V<lambda_a29049cf6153b725a6a331d7121b9876>@@@@YANV<lambda_a29049cf6153b725a6a331d7121b9876>@@@Z@4V?$duration@_JU?$ratio@$00$0DOI@@std@@@chrono@std@@B ; `measure<<lambda_a29049cf6153b725a6a331d7121b9876> >'::`2'::min_time_per_trial
PUBLIC	?$TSS0@?1???$measure@V<lambda_a29049cf6153b725a6a331d7121b9876>@@@@YANV<lambda_a29049cf6153b725a6a331d7121b9876>@@@Z@4HA ; TSS0<`template-parameter-2',V<lambda_a29049cf6153b725a6a331d7121b9876>::asure>
PUBLIC	?res@?1???$measure@V<lambda_a29049cf6153b725a6a331d7121b9876>@@@@YANV<lambda_a29049cf6153b725a6a331d7121b9876>@@@Z@4HA ; `measure<<lambda_a29049cf6153b725a6a331d7121b9876> >'::`2'::res
PUBLIC	?min_time_per_trial@?1???$measure@V<lambda_668201fb256ca3039b30842ebf04ef83>@@@@YANV<lambda_668201fb256ca3039b30842ebf04ef83>@@@Z@4V?$duration@_JU?$ratio@$00$0DOI@@std@@@chrono@std@@B ; `measure<<lambda_668201fb256ca3039b30842ebf04ef83> >'::`2'::min_time_per_trial
PUBLIC	?$TSS0@?1???$measure@V<lambda_668201fb256ca3039b30842ebf04ef83>@@@@YANV<lambda_668201fb256ca3039b30842ebf04ef83>@@@Z@4HA ; TSS0<`template-parameter-2',V<lambda_668201fb256ca3039b30842ebf04ef83>::asure>
PUBLIC	?res@?1???$measure@V<lambda_668201fb256ca3039b30842ebf04ef83>@@@@YANV<lambda_668201fb256ca3039b30842ebf04ef83>@@@Z@4HA ; `measure<<lambda_668201fb256ca3039b30842ebf04ef83> >'::`2'::res
PUBLIC	?min_time_per_trial@?1???$measure@V<lambda_4c02ba5ef62215ee51f4e58ccd3418c3>@@@@YANV<lambda_4c02ba5ef62215ee51f4e58ccd3418c3>@@@Z@4V?$duration@_JU?$ratio@$00$0DOI@@std@@@chrono@std@@B ; `measure<<lambda_4c02ba5ef62215ee51f4e58ccd3418c3> >'::`2'::min_time_per_trial
PUBLIC	?$TSS0@?1???$measure@V<lambda_4c02ba5ef62215ee51f4e58ccd3418c3>@@@@YANV<lambda_4c02ba5ef62215ee51f4e58ccd3418c3>@@@Z@4HA ; TSS0<`template-parameter-2',V<lambda_4c02ba5ef62215ee51f4e58ccd3418c3>::asure>
PUBLIC	?res@?1???$measure@V<lambda_4c02ba5ef62215ee51f4e58ccd3418c3>@@@@YANV<lambda_4c02ba5ef62215ee51f4e58ccd3418c3>@@@Z@4HA ; `measure<<lambda_4c02ba5ef62215ee51f4e58ccd3418c3> >'::`2'::res
PUBLIC	??_C@_1IK@JPAFEHE@?$AAC?$AA?3?$AA?2?$AAP?$AAr?$AAo?$AAg?$AAr?$AAa?$AAm?$AA?5?$AAF?$AAi?$AAl?$AAe?$AAs?$AA?5?$AA?$CI?$AAx?$AA8?$AA6?$AA?$CJ?$AA?2?$AAM?$AAi?$AAc?$AAr?$AAo?$AAs?$AAo?$AAf?$AAt@ ; `string'
PUBLIC	??_C@_1DK@PHOIHFMC@?$AAa?$AAr?$AAr?$AAa?$AAy?$AA?5?$AAs?$AAu?$AAb?$AAs?$AAc?$AAr?$AAi?$AAp?$AAt?$AA?5?$AAo?$AAu?$AAt?$AA?5?$AAo?$AAf?$AA?5?$AAr?$AAa?$AAn?$AAg?$AAe?$AA?$AA@ ; `string'
PUBLIC	??_C@_1EK@DOMCIFPO@?$AAa?$AAr?$AAr?$AAa?$AAy?$AA?5?$AAi?$AAt?$AAe?$AAr?$AAa?$AAt?$AAo?$AAr?$AA?5?$AA?$CL?$AA?5?$AAo?$AAf?$AAf?$AAs?$AAe?$AAt?$AA?5?$AAo?$AAu?$AAt?$AA?5?$AAo?$AAf?$AA?5?$AAr@ ; `string'
PUBLIC	??_C@_1GG@OCAPABD@?$AAs?$AAt?$AAd?$AA?3?$AA?3?$AA_?$AAA?$AAr?$AAr?$AAa?$AAy?$AA_?$AAc?$AAo?$AAn?$AAs?$AAt?$AA_?$AAi?$AAt?$AAe?$AAr?$AAa?$AAt?$AAo?$AAr?$AA?$DM?$AAd?$AAo?$AAu?$AAb?$AAl@ ; `string'
PUBLIC	??_C@_1JC@NOPIGHAI@?$AAC?$AA?3?$AA?2?$AAP?$AAr?$AAo?$AAg?$AAr?$AAa?$AAm?$AA?5?$AAF?$AAi?$AAl?$AAe?$AAs?$AA?5?$AA?$CI?$AAx?$AA8?$AA6?$AA?$CJ?$AA?2?$AAM?$AAi?$AAc?$AAr?$AAo?$AAs?$AAo?$AAf?$AAt@ ; `string'
PUBLIC	??_C@_1IO@CFMKONJK@?$AAC?$AA?3?$AA?2?$AAP?$AAr?$AAo?$AAg?$AAr?$AAa?$AAm?$AA?5?$AAF?$AAi?$AAl?$AAe?$AAs?$AA?5?$AA?$CI?$AAx?$AA8?$AA6?$AA?$CJ?$AA?2?$AAM?$AAi?$AAc?$AAr?$AAo?$AAs?$AAo?$AAf?$AAt@ ; `string'
PUBLIC	??_C@_1IO@GBEHMPOJ@?$AAC?$AA?3?$AA?2?$AAP?$AAr?$AAo?$AAg?$AAr?$AAa?$AAm?$AA?5?$AAF?$AAi?$AAl?$AAe?$AAs?$AA?5?$AA?$CI?$AAx?$AA8?$AA6?$AA?$CJ?$AA?2?$AAM?$AAi?$AAc?$AAr?$AAo?$AAs?$AAo?$AAf?$AAt@ ; `string'
PUBLIC	??_C@_1DK@DIFJPLMN@?$AAa?$AAr?$AAr?$AAa?$AAy?$AA?5?$AAi?$AAt?$AAe?$AAr?$AAa?$AAt?$AAo?$AAr?$AAs?$AA?5?$AAi?$AAn?$AAc?$AAo?$AAm?$AAp?$AAa?$AAt?$AAi?$AAb?$AAl?$AAe?$AA?$AA@ ; `string'
PUBLIC	??_C@_1FO@MGFMNKHO@?$AAs?$AAt?$AAd?$AA?3?$AA?3?$AA_?$AAA?$AAr?$AAr?$AAa?$AAy?$AA_?$AAc?$AAo?$AAn?$AAs?$AAt?$AA_?$AAi?$AAt?$AAe?$AAr?$AAa?$AAt?$AAo?$AAr?$AA?$DM?$AAd?$AAo?$AAu?$AAb?$AAl@ ; `string'
PUBLIC	??_C@_1CG@LEJCKCBB@?$AAi?$AAn?$AAv?$AAa?$AAl?$AAi?$AAd?$AA?5?$AAc?$AAo?$AAm?$AAp?$AAa?$AAr?$AAa?$AAt?$AAo?$AAr?$AA?$AA@ ; `string'
PUBLIC	??_C@_1BK@KAECGCDK@?$AAi?$AAn?$AAv?$AAa?$AAl?$AAi?$AAd?$AA?5?$AAh?$AAe?$AAa?$AAp?$AA?$AA@ ; `string'
PUBLIC	__real@0000000000000000
PUBLIC	__real@416312d000000000
PUBLIC	__xmm@41f00000000000000000000000000000
EXTRN	??2@YAPAXI@Z:PROC				; operator new
EXTRN	??3@YAXPAX@Z:PROC				; operator delete
EXTRN	__Init_thread_header:PROC
EXTRN	__Init_thread_footer:PROC
EXTRN	__imp___invalid_parameter:PROC
EXTRN	__imp_??0_Lockit@std@@QAE@H@Z:PROC
EXTRN	__imp_??1_Lockit@std@@QAE@XZ:PROC
EXTRN	__imp__memmove:PROC
EXTRN	__imp_?uncaught_exception@std@@YA_NXZ:PROC
EXTRN	_strlen:PROC
EXTRN	__imp___CrtDbgReportW:PROC
EXTRN	__imp_?_Debug_message@std@@YAXPB_W0I@Z:PROC
EXTRN	__imp_?_Xbad_alloc@std@@YAXXZ:PROC
EXTRN	__imp_?_Xlength_error@std@@YAXPBD@Z:PROC
EXTRN	__imp_?good@ios_base@std@@QBE_NXZ:PROC
EXTRN	__imp_?flags@ios_base@std@@QBEHXZ:PROC
EXTRN	__imp_?width@ios_base@std@@QBE_JXZ:PROC
EXTRN	__imp_?width@ios_base@std@@QAE_J_J@Z:PROC
EXTRN	__imp_?sputc@?$basic_streambuf@DU?$char_traits@D@std@@@std@@QAEHD@Z:PROC
EXTRN	__imp_?sputn@?$basic_streambuf@DU?$char_traits@D@std@@@std@@QAE_JPBD_J@Z:PROC
EXTRN	__imp_?setstate@?$basic_ios@DU?$char_traits@D@std@@@std@@QAEXH_N@Z:PROC
EXTRN	__imp_?tie@?$basic_ios@DU?$char_traits@D@std@@@std@@QBEPAV?$basic_ostream@DU?$char_traits@D@std@@@2@XZ:PROC
EXTRN	__imp_?rdbuf@?$basic_ios@DU?$char_traits@D@std@@@std@@QBEPAV?$basic_streambuf@DU?$char_traits@D@std@@@2@XZ:PROC
EXTRN	__imp_?fill@?$basic_ios@DU?$char_traits@D@std@@@std@@QBEDXZ:PROC
EXTRN	__imp_?widen@?$basic_ios@DU?$char_traits@D@std@@@std@@QBEDD@Z:PROC
EXTRN	__imp_?_Osfx@?$basic_ostream@DU?$char_traits@D@std@@@std@@QAEXXZ:PROC
EXTRN	__imp_??6?$basic_ostream@DU?$char_traits@D@std@@@std@@QAEAAV01@P6AAAV01@AAV01@@Z@Z:PROC
EXTRN	__imp_??6?$basic_ostream@DU?$char_traits@D@std@@@std@@QAEAAV01@I@Z:PROC
EXTRN	__imp_??6?$basic_ostream@DU?$char_traits@D@std@@@std@@QAEAAV01@N@Z:PROC
EXTRN	__imp_?put@?$basic_ostream@DU?$char_traits@D@std@@@std@@QAEAAV12@D@Z:PROC
EXTRN	__imp_?flush@?$basic_ostream@DU?$char_traits@D@std@@@std@@QAEAAV12@XZ:PROC
EXTRN	__imp___Query_perf_counter:PROC
EXTRN	__imp___Query_perf_frequency:PROC
EXTRN	@_RTC_CheckStackVars@8:PROC
EXTRN	@__security_check_cookie@4:PROC
EXTRN	__CxxThrowException@8:PROC
EXTRN	__RTC_CheckEsp:PROC
EXTRN	__RTC_InitBase:PROC
EXTRN	__RTC_Shutdown:PROC
EXTRN	___CxxFrameHandler3:PROC
EXTRN	__alldiv:PROC
EXTRN	__allmul:PROC
EXTRN	__allrem:PROC
EXTRN	__ltod3:PROC
EXTRN	__Init_thread_epoch:DWORD
EXTRN	__imp_?cout@std@@3V?$basic_ostream@DU?$char_traits@D@std@@@1@A:BYTE
EXTRN	___security_cookie:DWORD
EXTRN	__fltused:DWORD
EXTRN	__tls_array:DWORD
EXTRN	__tls_index:DWORD
;	COMDAT ?_Freq@?1??now@steady_clock@chrono@std@@SA?AV?$time_point@Usteady_clock@chrono@std@@V?$duration@_JU?$ratio@$00$0DLJKMKAA@@std@@@23@@34@XZ@4_JB
_BSS	SEGMENT
?_Freq@?1??now@steady_clock@chrono@std@@SA?AV?$time_point@Usteady_clock@chrono@std@@V?$duration@_JU?$ratio@$00$0DLJKMKAA@@std@@@23@@34@XZ@4_JB DQ 01H DUP (?) ; `std::chrono::steady_clock::now'::`2'::_Freq
_BSS	ENDS
;	COMDAT ?$TSS0@?1??now@steady_clock@chrono@std@@SA?AV?$time_point@Usteady_clock@chrono@std@@V?$duration@_JU?$ratio@$00$0DLJKMKAA@@std@@@23@@34@XZ@4HA
_BSS	SEGMENT
?$TSS0@?1??now@steady_clock@chrono@std@@SA?AV?$time_point@Usteady_clock@chrono@std@@V?$duration@_JU?$ratio@$00$0DLJKMKAA@@std@@@23@@34@XZ@4HA DD 01H DUP (?) ; TSS0<`template-parameter-2',std::chrono::steady_clock::ow,std::chrono::Usteady_clock::me_point,chrono::steady_clock::duration<__int64,std::ratio<1,1000000000> > >
_BSS	ENDS
_BSS	SEGMENT
	ALIGN	8

?measure_start@@3V?$time_point@Usteady_clock@chrono@std@@V?$duration@_JU?$ratio@$00$0DLJKMKAA@@std@@@23@@chrono@std@@A DQ 01H DUP (?) ; measure_start
?measure_pause@@3V?$time_point@Usteady_clock@chrono@std@@V?$duration@_JU?$ratio@$00$0DLJKMKAA@@std@@@23@@chrono@std@@A DQ 01H DUP (?) ; measure_pause
_BSS	ENDS
;	COMDAT ?min_time_per_trial@?1???$measure@V<lambda_3c38aff788b9781cf78ca5a917f16ae4>@@@@YANV<lambda_3c38aff788b9781cf78ca5a917f16ae4>@@@Z@4V?$duration@_JU?$ratio@$00$0DOI@@std@@@chrono@std@@B
_BSS	SEGMENT
?min_time_per_trial@?1???$measure@V<lambda_3c38aff788b9781cf78ca5a917f16ae4>@@@@YANV<lambda_3c38aff788b9781cf78ca5a917f16ae4>@@@Z@4V?$duration@_JU?$ratio@$00$0DOI@@std@@@chrono@std@@B DQ 01H DUP (?) ; `measure<<lambda_3c38aff788b9781cf78ca5a917f16ae4> >'::`2'::min_time_per_trial
_BSS	ENDS
;	COMDAT ?$TSS0@?1???$measure@V<lambda_3c38aff788b9781cf78ca5a917f16ae4>@@@@YANV<lambda_3c38aff788b9781cf78ca5a917f16ae4>@@@Z@4HA
_BSS	SEGMENT
?$TSS0@?1???$measure@V<lambda_3c38aff788b9781cf78ca5a917f16ae4>@@@@YANV<lambda_3c38aff788b9781cf78ca5a917f16ae4>@@@Z@4HA DD 01H DUP (?) ; TSS0<`template-parameter-2',V<lambda_3c38aff788b9781cf78ca5a917f16ae4>::asure>
_BSS	ENDS
;	COMDAT ?res@?1???$measure@V<lambda_3c38aff788b9781cf78ca5a917f16ae4>@@@@YANV<lambda_3c38aff788b9781cf78ca5a917f16ae4>@@@Z@4HA
_BSS	SEGMENT
?res@?1???$measure@V<lambda_3c38aff788b9781cf78ca5a917f16ae4>@@@@YANV<lambda_3c38aff788b9781cf78ca5a917f16ae4>@@@Z@4HA DD 01H DUP (?) ; `measure<<lambda_3c38aff788b9781cf78ca5a917f16ae4> >'::`2'::res
_BSS	ENDS
;	COMDAT ?min_time_per_trial@?1???$measure@V<lambda_0e8cd367240c9f8b6afbbc7d85139419>@@@@YANV<lambda_0e8cd367240c9f8b6afbbc7d85139419>@@@Z@4V?$duration@_JU?$ratio@$00$0DOI@@std@@@chrono@std@@B
_BSS	SEGMENT
?min_time_per_trial@?1???$measure@V<lambda_0e8cd367240c9f8b6afbbc7d85139419>@@@@YANV<lambda_0e8cd367240c9f8b6afbbc7d85139419>@@@Z@4V?$duration@_JU?$ratio@$00$0DOI@@std@@@chrono@std@@B DQ 01H DUP (?) ; `measure<<lambda_0e8cd367240c9f8b6afbbc7d85139419> >'::`2'::min_time_per_trial
_BSS	ENDS
;	COMDAT ?$TSS0@?1???$measure@V<lambda_0e8cd367240c9f8b6afbbc7d85139419>@@@@YANV<lambda_0e8cd367240c9f8b6afbbc7d85139419>@@@Z@4HA
_BSS	SEGMENT
?$TSS0@?1???$measure@V<lambda_0e8cd367240c9f8b6afbbc7d85139419>@@@@YANV<lambda_0e8cd367240c9f8b6afbbc7d85139419>@@@Z@4HA DD 01H DUP (?) ; TSS0<`template-parameter-2',V<lambda_0e8cd367240c9f8b6afbbc7d85139419>::asure>
_BSS	ENDS
;	COMDAT ?res@?1???$measure@V<lambda_0e8cd367240c9f8b6afbbc7d85139419>@@@@YANV<lambda_0e8cd367240c9f8b6afbbc7d85139419>@@@Z@4HA
_BSS	SEGMENT
?res@?1???$measure@V<lambda_0e8cd367240c9f8b6afbbc7d85139419>@@@@YANV<lambda_0e8cd367240c9f8b6afbbc7d85139419>@@@Z@4HA DD 01H DUP (?) ; `measure<<lambda_0e8cd367240c9f8b6afbbc7d85139419> >'::`2'::res
_BSS	ENDS
;	COMDAT ?min_time_per_trial@?1???$measure@V<lambda_4bb02fb8e2d5361150321278473362ff>@@@@YANV<lambda_4bb02fb8e2d5361150321278473362ff>@@@Z@4V?$duration@_JU?$ratio@$00$0DOI@@std@@@chrono@std@@B
_BSS	SEGMENT
?min_time_per_trial@?1???$measure@V<lambda_4bb02fb8e2d5361150321278473362ff>@@@@YANV<lambda_4bb02fb8e2d5361150321278473362ff>@@@Z@4V?$duration@_JU?$ratio@$00$0DOI@@std@@@chrono@std@@B DQ 01H DUP (?) ; `measure<<lambda_4bb02fb8e2d5361150321278473362ff> >'::`2'::min_time_per_trial
_BSS	ENDS
;	COMDAT ?$TSS0@?1???$measure@V<lambda_4bb02fb8e2d5361150321278473362ff>@@@@YANV<lambda_4bb02fb8e2d5361150321278473362ff>@@@Z@4HA
_BSS	SEGMENT
?$TSS0@?1???$measure@V<lambda_4bb02fb8e2d5361150321278473362ff>@@@@YANV<lambda_4bb02fb8e2d5361150321278473362ff>@@@Z@4HA DD 01H DUP (?) ; TSS0<`template-parameter-2',V<lambda_4bb02fb8e2d5361150321278473362ff>::asure>
_BSS	ENDS
;	COMDAT ?res@?1???$measure@V<lambda_4bb02fb8e2d5361150321278473362ff>@@@@YANV<lambda_4bb02fb8e2d5361150321278473362ff>@@@Z@4HA
_BSS	SEGMENT
?res@?1???$measure@V<lambda_4bb02fb8e2d5361150321278473362ff>@@@@YANV<lambda_4bb02fb8e2d5361150321278473362ff>@@@Z@4HA DD 01H DUP (?) ; `measure<<lambda_4bb02fb8e2d5361150321278473362ff> >'::`2'::res
_BSS	ENDS
;	COMDAT ?min_time_per_trial@?1???$measure@V<lambda_fe4b9e6fc2b2fbcfeea78297fbfefccb>@@@@YANV<lambda_fe4b9e6fc2b2fbcfeea78297fbfefccb>@@@Z@4V?$duration@_JU?$ratio@$00$0DOI@@std@@@chrono@std@@B
_BSS	SEGMENT
?min_time_per_trial@?1???$measure@V<lambda_fe4b9e6fc2b2fbcfeea78297fbfefccb>@@@@YANV<lambda_fe4b9e6fc2b2fbcfeea78297fbfefccb>@@@Z@4V?$duration@_JU?$ratio@$00$0DOI@@std@@@chrono@std@@B DQ 01H DUP (?) ; `measure<<lambda_fe4b9e6fc2b2fbcfeea78297fbfefccb> >'::`2'::min_time_per_trial
_BSS	ENDS
;	COMDAT ?$TSS0@?1???$measure@V<lambda_fe4b9e6fc2b2fbcfeea78297fbfefccb>@@@@YANV<lambda_fe4b9e6fc2b2fbcfeea78297fbfefccb>@@@Z@4HA
_BSS	SEGMENT
?$TSS0@?1???$measure@V<lambda_fe4b9e6fc2b2fbcfeea78297fbfefccb>@@@@YANV<lambda_fe4b9e6fc2b2fbcfeea78297fbfefccb>@@@Z@4HA DD 01H DUP (?) ; TSS0<`template-parameter-2',V<lambda_fe4b9e6fc2b2fbcfeea78297fbfefccb>::asure>
_BSS	ENDS
;	COMDAT ?res@?1???$measure@V<lambda_fe4b9e6fc2b2fbcfeea78297fbfefccb>@@@@YANV<lambda_fe4b9e6fc2b2fbcfeea78297fbfefccb>@@@Z@4HA
_BSS	SEGMENT
?res@?1???$measure@V<lambda_fe4b9e6fc2b2fbcfeea78297fbfefccb>@@@@YANV<lambda_fe4b9e6fc2b2fbcfeea78297fbfefccb>@@@Z@4HA DD 01H DUP (?) ; `measure<<lambda_fe4b9e6fc2b2fbcfeea78297fbfefccb> >'::`2'::res
_BSS	ENDS
;	COMDAT ?min_time_per_trial@?1???$measure@V<lambda_ce14b79be95f650ececed4b3079e7cf8>@@@@YANV<lambda_ce14b79be95f650ececed4b3079e7cf8>@@@Z@4V?$duration@_JU?$ratio@$00$0DOI@@std@@@chrono@std@@B
_BSS	SEGMENT
?min_time_per_trial@?1???$measure@V<lambda_ce14b79be95f650ececed4b3079e7cf8>@@@@YANV<lambda_ce14b79be95f650ececed4b3079e7cf8>@@@Z@4V?$duration@_JU?$ratio@$00$0DOI@@std@@@chrono@std@@B DQ 01H DUP (?) ; `measure<<lambda_ce14b79be95f650ececed4b3079e7cf8> >'::`2'::min_time_per_trial
_BSS	ENDS
;	COMDAT ?$TSS0@?1???$measure@V<lambda_ce14b79be95f650ececed4b3079e7cf8>@@@@YANV<lambda_ce14b79be95f650ececed4b3079e7cf8>@@@Z@4HA
_BSS	SEGMENT
?$TSS0@?1???$measure@V<lambda_ce14b79be95f650ececed4b3079e7cf8>@@@@YANV<lambda_ce14b79be95f650ececed4b3079e7cf8>@@@Z@4HA DD 01H DUP (?) ; TSS0<`template-parameter-2',V<lambda_ce14b79be95f650ececed4b3079e7cf8>::asure>
_BSS	ENDS
;	COMDAT ?res@?1???$measure@V<lambda_ce14b79be95f650ececed4b3079e7cf8>@@@@YANV<lambda_ce14b79be95f650ececed4b3079e7cf8>@@@Z@4HA
_BSS	SEGMENT
?res@?1???$measure@V<lambda_ce14b79be95f650ececed4b3079e7cf8>@@@@YANV<lambda_ce14b79be95f650ececed4b3079e7cf8>@@@Z@4HA DD 01H DUP (?) ; `measure<<lambda_ce14b79be95f650ececed4b3079e7cf8> >'::`2'::res
_BSS	ENDS
;	COMDAT ?min_time_per_trial@?1???$measure@V<lambda_a29049cf6153b725a6a331d7121b9876>@@@@YANV<lambda_a29049cf6153b725a6a331d7121b9876>@@@Z@4V?$duration@_JU?$ratio@$00$0DOI@@std@@@chrono@std@@B
_BSS	SEGMENT
?min_time_per_trial@?1???$measure@V<lambda_a29049cf6153b725a6a331d7121b9876>@@@@YANV<lambda_a29049cf6153b725a6a331d7121b9876>@@@Z@4V?$duration@_JU?$ratio@$00$0DOI@@std@@@chrono@std@@B DQ 01H DUP (?) ; `measure<<lambda_a29049cf6153b725a6a331d7121b9876> >'::`2'::min_time_per_trial
_BSS	ENDS
;	COMDAT ?$TSS0@?1???$measure@V<lambda_a29049cf6153b725a6a331d7121b9876>@@@@YANV<lambda_a29049cf6153b725a6a331d7121b9876>@@@Z@4HA
_BSS	SEGMENT
?$TSS0@?1???$measure@V<lambda_a29049cf6153b725a6a331d7121b9876>@@@@YANV<lambda_a29049cf6153b725a6a331d7121b9876>@@@Z@4HA DD 01H DUP (?) ; TSS0<`template-parameter-2',V<lambda_a29049cf6153b725a6a331d7121b9876>::asure>
_BSS	ENDS
;	COMDAT ?res@?1???$measure@V<lambda_a29049cf6153b725a6a331d7121b9876>@@@@YANV<lambda_a29049cf6153b725a6a331d7121b9876>@@@Z@4HA
_BSS	SEGMENT
?res@?1???$measure@V<lambda_a29049cf6153b725a6a331d7121b9876>@@@@YANV<lambda_a29049cf6153b725a6a331d7121b9876>@@@Z@4HA DD 01H DUP (?) ; `measure<<lambda_a29049cf6153b725a6a331d7121b9876> >'::`2'::res
_BSS	ENDS
;	COMDAT ?min_time_per_trial@?1???$measure@V<lambda_668201fb256ca3039b30842ebf04ef83>@@@@YANV<lambda_668201fb256ca3039b30842ebf04ef83>@@@Z@4V?$duration@_JU?$ratio@$00$0DOI@@std@@@chrono@std@@B
_BSS	SEGMENT
?min_time_per_trial@?1???$measure@V<lambda_668201fb256ca3039b30842ebf04ef83>@@@@YANV<lambda_668201fb256ca3039b30842ebf04ef83>@@@Z@4V?$duration@_JU?$ratio@$00$0DOI@@std@@@chrono@std@@B DQ 01H DUP (?) ; `measure<<lambda_668201fb256ca3039b30842ebf04ef83> >'::`2'::min_time_per_trial
_BSS	ENDS
;	COMDAT ?$TSS0@?1???$measure@V<lambda_668201fb256ca3039b30842ebf04ef83>@@@@YANV<lambda_668201fb256ca3039b30842ebf04ef83>@@@Z@4HA
_BSS	SEGMENT
?$TSS0@?1???$measure@V<lambda_668201fb256ca3039b30842ebf04ef83>@@@@YANV<lambda_668201fb256ca3039b30842ebf04ef83>@@@Z@4HA DD 01H DUP (?) ; TSS0<`template-parameter-2',V<lambda_668201fb256ca3039b30842ebf04ef83>::asure>
_BSS	ENDS
;	COMDAT ?res@?1???$measure@V<lambda_668201fb256ca3039b30842ebf04ef83>@@@@YANV<lambda_668201fb256ca3039b30842ebf04ef83>@@@Z@4HA
_BSS	SEGMENT
?res@?1???$measure@V<lambda_668201fb256ca3039b30842ebf04ef83>@@@@YANV<lambda_668201fb256ca3039b30842ebf04ef83>@@@Z@4HA DD 01H DUP (?) ; `measure<<lambda_668201fb256ca3039b30842ebf04ef83> >'::`2'::res
_BSS	ENDS
;	COMDAT ?min_time_per_trial@?1???$measure@V<lambda_4c02ba5ef62215ee51f4e58ccd3418c3>@@@@YANV<lambda_4c02ba5ef62215ee51f4e58ccd3418c3>@@@Z@4V?$duration@_JU?$ratio@$00$0DOI@@std@@@chrono@std@@B
_BSS	SEGMENT
?min_time_per_trial@?1???$measure@V<lambda_4c02ba5ef62215ee51f4e58ccd3418c3>@@@@YANV<lambda_4c02ba5ef62215ee51f4e58ccd3418c3>@@@Z@4V?$duration@_JU?$ratio@$00$0DOI@@std@@@chrono@std@@B DQ 01H DUP (?) ; `measure<<lambda_4c02ba5ef62215ee51f4e58ccd3418c3> >'::`2'::min_time_per_trial
_BSS	ENDS
;	COMDAT ?$TSS0@?1???$measure@V<lambda_4c02ba5ef62215ee51f4e58ccd3418c3>@@@@YANV<lambda_4c02ba5ef62215ee51f4e58ccd3418c3>@@@Z@4HA
_BSS	SEGMENT
?$TSS0@?1???$measure@V<lambda_4c02ba5ef62215ee51f4e58ccd3418c3>@@@@YANV<lambda_4c02ba5ef62215ee51f4e58ccd3418c3>@@@Z@4HA DD 01H DUP (?) ; TSS0<`template-parameter-2',V<lambda_4c02ba5ef62215ee51f4e58ccd3418c3>::asure>
_BSS	ENDS
;	COMDAT ?res@?1???$measure@V<lambda_4c02ba5ef62215ee51f4e58ccd3418c3>@@@@YANV<lambda_4c02ba5ef62215ee51f4e58ccd3418c3>@@@Z@4HA
_BSS	SEGMENT
?res@?1???$measure@V<lambda_4c02ba5ef62215ee51f4e58ccd3418c3>@@@@YANV<lambda_4c02ba5ef62215ee51f4e58ccd3418c3>@@@Z@4HA DD 01H DUP (?) ; `measure<<lambda_4c02ba5ef62215ee51f4e58ccd3418c3> >'::`2'::res
_BSS	ENDS
CRT$XCU	SEGMENT
?measure_start$initializer$@@3P6AXXZA DD FLAT:??__Emeasure_start@@YAXXZ ; measure_start$initializer$
CRT$XCU	ENDS
;	COMDAT __xmm@41f00000000000000000000000000000
CONST	SEGMENT
__xmm@41f00000000000000000000000000000 DB 00H, 00H, 00H, 00H, 00H, 00H, 00H
	DB	00H, 00H, 00H, 00H, 00H, 00H, 00H, 0f0H, 'A'
CONST	ENDS
;	COMDAT __real@416312d000000000
CONST	SEGMENT
__real@416312d000000000 DQ 0416312d000000000r	; 1e+07
CONST	ENDS
;	COMDAT __real@0000000000000000
CONST	SEGMENT
__real@0000000000000000 DQ 00000000000000000r	; 0
CONST	ENDS
;	COMDAT rtc$TMZ
rtc$TMZ	SEGMENT
__RTC_Shutdown.rtc$TMZ DD FLAT:__RTC_Shutdown
rtc$TMZ	ENDS
;	COMDAT rtc$IMZ
rtc$IMZ	SEGMENT
__RTC_InitBase.rtc$IMZ DD FLAT:__RTC_InitBase
rtc$IMZ	ENDS
;	COMDAT ??_C@_1BK@KAECGCDK@?$AAi?$AAn?$AAv?$AAa?$AAl?$AAi?$AAd?$AA?5?$AAh?$AAe?$AAa?$AAp?$AA?$AA@
CONST	SEGMENT
??_C@_1BK@KAECGCDK@?$AAi?$AAn?$AAv?$AAa?$AAl?$AAi?$AAd?$AA?5?$AAh?$AAe?$AAa?$AAp?$AA?$AA@ DB 'i'
	DB	00H, 'n', 00H, 'v', 00H, 'a', 00H, 'l', 00H, 'i', 00H, 'd', 00H
	DB	' ', 00H, 'h', 00H, 'e', 00H, 'a', 00H, 'p', 00H, 00H, 00H ; `string'
CONST	ENDS
;	COMDAT ??_C@_1CG@LEJCKCBB@?$AAi?$AAn?$AAv?$AAa?$AAl?$AAi?$AAd?$AA?5?$AAc?$AAo?$AAm?$AAp?$AAa?$AAr?$AAa?$AAt?$AAo?$AAr?$AA?$AA@
CONST	SEGMENT
??_C@_1CG@LEJCKCBB@?$AAi?$AAn?$AAv?$AAa?$AAl?$AAi?$AAd?$AA?5?$AAc?$AAo?$AAm?$AAp?$AAa?$AAr?$AAa?$AAt?$AAo?$AAr?$AA?$AA@ DB 'i'
	DB	00H, 'n', 00H, 'v', 00H, 'a', 00H, 'l', 00H, 'i', 00H, 'd', 00H
	DB	' ', 00H, 'c', 00H, 'o', 00H, 'm', 00H, 'p', 00H, 'a', 00H, 'r'
	DB	00H, 'a', 00H, 't', 00H, 'o', 00H, 'r', 00H, 00H, 00H ; `string'
CONST	ENDS
;	COMDAT ??_C@_1FO@MGFMNKHO@?$AAs?$AAt?$AAd?$AA?3?$AA?3?$AA_?$AAA?$AAr?$AAr?$AAa?$AAy?$AA_?$AAc?$AAo?$AAn?$AAs?$AAt?$AA_?$AAi?$AAt?$AAe?$AAr?$AAa?$AAt?$AAo?$AAr?$AA?$DM?$AAd?$AAo?$AAu?$AAb?$AAl@
CONST	SEGMENT
??_C@_1FO@MGFMNKHO@?$AAs?$AAt?$AAd?$AA?3?$AA?3?$AA_?$AAA?$AAr?$AAr?$AAa?$AAy?$AA_?$AAc?$AAo?$AAn?$AAs?$AAt?$AA_?$AAi?$AAt?$AAe?$AAr?$AAa?$AAt?$AAo?$AAr?$AA?$DM?$AAd?$AAo?$AAu?$AAb?$AAl@ DB 's'
	DB	00H, 't', 00H, 'd', 00H, ':', 00H, ':', 00H, '_', 00H, 'A', 00H
	DB	'r', 00H, 'r', 00H, 'a', 00H, 'y', 00H, '_', 00H, 'c', 00H, 'o'
	DB	00H, 'n', 00H, 's', 00H, 't', 00H, '_', 00H, 'i', 00H, 't', 00H
	DB	'e', 00H, 'r', 00H, 'a', 00H, 't', 00H, 'o', 00H, 'r', 00H, '<'
	DB	00H, 'd', 00H, 'o', 00H, 'u', 00H, 'b', 00H, 'l', 00H, 'e', 00H
	DB	',', 00H, '1', 00H, '0', 00H, '>', 00H, ':', 00H, ':', 00H, '_'
	DB	00H, 'C', 00H, 'o', 00H, 'm', 00H, 'p', 00H, 'a', 00H, 't', 00H
	DB	00H, 00H					; `string'
CONST	ENDS
;	COMDAT ??_C@_1DK@DIFJPLMN@?$AAa?$AAr?$AAr?$AAa?$AAy?$AA?5?$AAi?$AAt?$AAe?$AAr?$AAa?$AAt?$AAo?$AAr?$AAs?$AA?5?$AAi?$AAn?$AAc?$AAo?$AAm?$AAp?$AAa?$AAt?$AAi?$AAb?$AAl?$AAe?$AA?$AA@
CONST	SEGMENT
??_C@_1DK@DIFJPLMN@?$AAa?$AAr?$AAr?$AAa?$AAy?$AA?5?$AAi?$AAt?$AAe?$AAr?$AAa?$AAt?$AAo?$AAr?$AAs?$AA?5?$AAi?$AAn?$AAc?$AAo?$AAm?$AAp?$AAa?$AAt?$AAi?$AAb?$AAl?$AAe?$AA?$AA@ DB 'a'
	DB	00H, 'r', 00H, 'r', 00H, 'a', 00H, 'y', 00H, ' ', 00H, 'i', 00H
	DB	't', 00H, 'e', 00H, 'r', 00H, 'a', 00H, 't', 00H, 'o', 00H, 'r'
	DB	00H, 's', 00H, ' ', 00H, 'i', 00H, 'n', 00H, 'c', 00H, 'o', 00H
	DB	'm', 00H, 'p', 00H, 'a', 00H, 't', 00H, 'i', 00H, 'b', 00H, 'l'
	DB	00H, 'e', 00H, 00H, 00H			; `string'
CONST	ENDS
;	COMDAT ??_C@_1IO@GBEHMPOJ@?$AAC?$AA?3?$AA?2?$AAP?$AAr?$AAo?$AAg?$AAr?$AAa?$AAm?$AA?5?$AAF?$AAi?$AAl?$AAe?$AAs?$AA?5?$AA?$CI?$AAx?$AA8?$AA6?$AA?$CJ?$AA?2?$AAM?$AAi?$AAc?$AAr?$AAo?$AAs?$AAo?$AAf?$AAt@
CONST	SEGMENT
??_C@_1IO@GBEHMPOJ@?$AAC?$AA?3?$AA?2?$AAP?$AAr?$AAo?$AAg?$AAr?$AAa?$AAm?$AA?5?$AAF?$AAi?$AAl?$AAe?$AAs?$AA?5?$AA?$CI?$AAx?$AA8?$AA6?$AA?$CJ?$AA?2?$AAM?$AAi?$AAc?$AAr?$AAo?$AAs?$AAo?$AAf?$AAt@ DB 'C'
	DB	00H, ':', 00H, '\', 00H, 'P', 00H, 'r', 00H, 'o', 00H, 'g', 00H
	DB	'r', 00H, 'a', 00H, 'm', 00H, ' ', 00H, 'F', 00H, 'i', 00H, 'l'
	DB	00H, 'e', 00H, 's', 00H, ' ', 00H, '(', 00H, 'x', 00H, '8', 00H
	DB	'6', 00H, ')', 00H, '\', 00H, 'M', 00H, 'i', 00H, 'c', 00H, 'r'
	DB	00H, 'o', 00H, 's', 00H, 'o', 00H, 'f', 00H, 't', 00H, ' ', 00H
	DB	'V', 00H, 'i', 00H, 's', 00H, 'u', 00H, 'a', 00H, 'l', 00H, ' '
	DB	00H, 'S', 00H, 't', 00H, 'u', 00H, 'd', 00H, 'i', 00H, 'o', 00H
	DB	' ', 00H, '1', 00H, '4', 00H, '.', 00H, '0', 00H, '\', 00H, 'V'
	DB	00H, 'C', 00H, '\', 00H, 'i', 00H, 'n', 00H, 'c', 00H, 'l', 00H
	DB	'u', 00H, 'd', 00H, 'e', 00H, '\', 00H, 'x', 00H, 'm', 00H, 'e'
	DB	00H, 'm', 00H, 'o', 00H, 'r', 00H, 'y', 00H, 00H, 00H ; `string'
CONST	ENDS
;	COMDAT ??_C@_1IO@CFMKONJK@?$AAC?$AA?3?$AA?2?$AAP?$AAr?$AAo?$AAg?$AAr?$AAa?$AAm?$AA?5?$AAF?$AAi?$AAl?$AAe?$AAs?$AA?5?$AA?$CI?$AAx?$AA8?$AA6?$AA?$CJ?$AA?2?$AAM?$AAi?$AAc?$AAr?$AAo?$AAs?$AAo?$AAf?$AAt@
CONST	SEGMENT
??_C@_1IO@CFMKONJK@?$AAC?$AA?3?$AA?2?$AAP?$AAr?$AAo?$AAg?$AAr?$AAa?$AAm?$AA?5?$AAF?$AAi?$AAl?$AAe?$AAs?$AA?5?$AA?$CI?$AAx?$AA8?$AA6?$AA?$CJ?$AA?2?$AAM?$AAi?$AAc?$AAr?$AAo?$AAs?$AAo?$AAf?$AAt@ DB 'C'
	DB	00H, ':', 00H, '\', 00H, 'P', 00H, 'r', 00H, 'o', 00H, 'g', 00H
	DB	'r', 00H, 'a', 00H, 'm', 00H, ' ', 00H, 'F', 00H, 'i', 00H, 'l'
	DB	00H, 'e', 00H, 's', 00H, ' ', 00H, '(', 00H, 'x', 00H, '8', 00H
	DB	'6', 00H, ')', 00H, '\', 00H, 'M', 00H, 'i', 00H, 'c', 00H, 'r'
	DB	00H, 'o', 00H, 's', 00H, 'o', 00H, 'f', 00H, 't', 00H, ' ', 00H
	DB	'V', 00H, 'i', 00H, 's', 00H, 'u', 00H, 'a', 00H, 'l', 00H, ' '
	DB	00H, 'S', 00H, 't', 00H, 'u', 00H, 'd', 00H, 'i', 00H, 'o', 00H
	DB	' ', 00H, '1', 00H, '4', 00H, '.', 00H, '0', 00H, '\', 00H, 'V'
	DB	00H, 'C', 00H, '\', 00H, 'i', 00H, 'n', 00H, 'c', 00H, 'l', 00H
	DB	'u', 00H, 'd', 00H, 'e', 00H, '\', 00H, 'n', 00H, 'u', 00H, 'm'
	DB	00H, 'e', 00H, 'r', 00H, 'i', 00H, 'c', 00H, 00H, 00H ; `string'
CONST	ENDS
;	COMDAT ??_C@_1JC@NOPIGHAI@?$AAC?$AA?3?$AA?2?$AAP?$AAr?$AAo?$AAg?$AAr?$AAa?$AAm?$AA?5?$AAF?$AAi?$AAl?$AAe?$AAs?$AA?5?$AA?$CI?$AAx?$AA8?$AA6?$AA?$CJ?$AA?2?$AAM?$AAi?$AAc?$AAr?$AAo?$AAs?$AAo?$AAf?$AAt@
CONST	SEGMENT
??_C@_1JC@NOPIGHAI@?$AAC?$AA?3?$AA?2?$AAP?$AAr?$AAo?$AAg?$AAr?$AAa?$AAm?$AA?5?$AAF?$AAi?$AAl?$AAe?$AAs?$AA?5?$AA?$CI?$AAx?$AA8?$AA6?$AA?$CJ?$AA?2?$AAM?$AAi?$AAc?$AAr?$AAo?$AAs?$AAo?$AAf?$AAt@ DB 'C'
	DB	00H, ':', 00H, '\', 00H, 'P', 00H, 'r', 00H, 'o', 00H, 'g', 00H
	DB	'r', 00H, 'a', 00H, 'm', 00H, ' ', 00H, 'F', 00H, 'i', 00H, 'l'
	DB	00H, 'e', 00H, 's', 00H, ' ', 00H, '(', 00H, 'x', 00H, '8', 00H
	DB	'6', 00H, ')', 00H, '\', 00H, 'M', 00H, 'i', 00H, 'c', 00H, 'r'
	DB	00H, 'o', 00H, 's', 00H, 'o', 00H, 'f', 00H, 't', 00H, ' ', 00H
	DB	'V', 00H, 'i', 00H, 's', 00H, 'u', 00H, 'a', 00H, 'l', 00H, ' '
	DB	00H, 'S', 00H, 't', 00H, 'u', 00H, 'd', 00H, 'i', 00H, 'o', 00H
	DB	' ', 00H, '1', 00H, '4', 00H, '.', 00H, '0', 00H, '\', 00H, 'V'
	DB	00H, 'C', 00H, '\', 00H, 'i', 00H, 'n', 00H, 'c', 00H, 'l', 00H
	DB	'u', 00H, 'd', 00H, 'e', 00H, '\', 00H, 'a', 00H, 'l', 00H, 'g'
	DB	00H, 'o', 00H, 'r', 00H, 'i', 00H, 't', 00H, 'h', 00H, 'm', 00H
	DB	00H, 00H					; `string'
CONST	ENDS
;	COMDAT ??_C@_1GG@OCAPABD@?$AAs?$AAt?$AAd?$AA?3?$AA?3?$AA_?$AAA?$AAr?$AAr?$AAa?$AAy?$AA_?$AAc?$AAo?$AAn?$AAs?$AAt?$AA_?$AAi?$AAt?$AAe?$AAr?$AAa?$AAt?$AAo?$AAr?$AA?$DM?$AAd?$AAo?$AAu?$AAb?$AAl@
CONST	SEGMENT
??_C@_1GG@OCAPABD@?$AAs?$AAt?$AAd?$AA?3?$AA?3?$AA_?$AAA?$AAr?$AAr?$AAa?$AAy?$AA_?$AAc?$AAo?$AAn?$AAs?$AAt?$AA_?$AAi?$AAt?$AAe?$AAr?$AAa?$AAt?$AAo?$AAr?$AA?$DM?$AAd?$AAo?$AAu?$AAb?$AAl@ DB 's'
	DB	00H, 't', 00H, 'd', 00H, ':', 00H, ':', 00H, '_', 00H, 'A', 00H
	DB	'r', 00H, 'r', 00H, 'a', 00H, 'y', 00H, '_', 00H, 'c', 00H, 'o'
	DB	00H, 'n', 00H, 's', 00H, 't', 00H, '_', 00H, 'i', 00H, 't', 00H
	DB	'e', 00H, 'r', 00H, 'a', 00H, 't', 00H, 'o', 00H, 'r', 00H, '<'
	DB	00H, 'd', 00H, 'o', 00H, 'u', 00H, 'b', 00H, 'l', 00H, 'e', 00H
	DB	',', 00H, '1', 00H, '0', 00H, '>', 00H, ':', 00H, ':', 00H, 'o'
	DB	00H, 'p', 00H, 'e', 00H, 'r', 00H, 'a', 00H, 't', 00H, 'o', 00H
	DB	'r', 00H, ' ', 00H, '+', 00H, '=', 00H, 00H, 00H ; `string'
CONST	ENDS
;	COMDAT ??_C@_1EK@DOMCIFPO@?$AAa?$AAr?$AAr?$AAa?$AAy?$AA?5?$AAi?$AAt?$AAe?$AAr?$AAa?$AAt?$AAo?$AAr?$AA?5?$AA?$CL?$AA?5?$AAo?$AAf?$AAf?$AAs?$AAe?$AAt?$AA?5?$AAo?$AAu?$AAt?$AA?5?$AAo?$AAf?$AA?5?$AAr@
CONST	SEGMENT
??_C@_1EK@DOMCIFPO@?$AAa?$AAr?$AAr?$AAa?$AAy?$AA?5?$AAi?$AAt?$AAe?$AAr?$AAa?$AAt?$AAo?$AAr?$AA?5?$AA?$CL?$AA?5?$AAo?$AAf?$AAf?$AAs?$AAe?$AAt?$AA?5?$AAo?$AAu?$AAt?$AA?5?$AAo?$AAf?$AA?5?$AAr@ DB 'a'
	DB	00H, 'r', 00H, 'r', 00H, 'a', 00H, 'y', 00H, ' ', 00H, 'i', 00H
	DB	't', 00H, 'e', 00H, 'r', 00H, 'a', 00H, 't', 00H, 'o', 00H, 'r'
	DB	00H, ' ', 00H, '+', 00H, ' ', 00H, 'o', 00H, 'f', 00H, 'f', 00H
	DB	's', 00H, 'e', 00H, 't', 00H, ' ', 00H, 'o', 00H, 'u', 00H, 't'
	DB	00H, ' ', 00H, 'o', 00H, 'f', 00H, ' ', 00H, 'r', 00H, 'a', 00H
	DB	'n', 00H, 'g', 00H, 'e', 00H, 00H, 00H	; `string'
CONST	ENDS
;	COMDAT ??_C@_1DK@PHOIHFMC@?$AAa?$AAr?$AAr?$AAa?$AAy?$AA?5?$AAs?$AAu?$AAb?$AAs?$AAc?$AAr?$AAi?$AAp?$AAt?$AA?5?$AAo?$AAu?$AAt?$AA?5?$AAo?$AAf?$AA?5?$AAr?$AAa?$AAn?$AAg?$AAe?$AA?$AA@
CONST	SEGMENT
??_C@_1DK@PHOIHFMC@?$AAa?$AAr?$AAr?$AAa?$AAy?$AA?5?$AAs?$AAu?$AAb?$AAs?$AAc?$AAr?$AAi?$AAp?$AAt?$AA?5?$AAo?$AAu?$AAt?$AA?5?$AAo?$AAf?$AA?5?$AAr?$AAa?$AAn?$AAg?$AAe?$AA?$AA@ DB 'a'
	DB	00H, 'r', 00H, 'r', 00H, 'a', 00H, 'y', 00H, ' ', 00H, 's', 00H
	DB	'u', 00H, 'b', 00H, 's', 00H, 'c', 00H, 'r', 00H, 'i', 00H, 'p'
	DB	00H, 't', 00H, ' ', 00H, 'o', 00H, 'u', 00H, 't', 00H, ' ', 00H
	DB	'o', 00H, 'f', 00H, ' ', 00H, 'r', 00H, 'a', 00H, 'n', 00H, 'g'
	DB	00H, 'e', 00H, 00H, 00H			; `string'
CONST	ENDS
;	COMDAT ??_C@_1IK@JPAFEHE@?$AAC?$AA?3?$AA?2?$AAP?$AAr?$AAo?$AAg?$AAr?$AAa?$AAm?$AA?5?$AAF?$AAi?$AAl?$AAe?$AAs?$AA?5?$AA?$CI?$AAx?$AA8?$AA6?$AA?$CJ?$AA?2?$AAM?$AAi?$AAc?$AAr?$AAo?$AAs?$AAo?$AAf?$AAt@
CONST	SEGMENT
??_C@_1IK@JPAFEHE@?$AAC?$AA?3?$AA?2?$AAP?$AAr?$AAo?$AAg?$AAr?$AAa?$AAm?$AA?5?$AAF?$AAi?$AAl?$AAe?$AAs?$AA?5?$AA?$CI?$AAx?$AA8?$AA6?$AA?$CJ?$AA?2?$AAM?$AAi?$AAc?$AAr?$AAo?$AAs?$AAo?$AAf?$AAt@ DB 'C'
	DB	00H, ':', 00H, '\', 00H, 'P', 00H, 'r', 00H, 'o', 00H, 'g', 00H
	DB	'r', 00H, 'a', 00H, 'm', 00H, ' ', 00H, 'F', 00H, 'i', 00H, 'l'
	DB	00H, 'e', 00H, 's', 00H, ' ', 00H, '(', 00H, 'x', 00H, '8', 00H
	DB	'6', 00H, ')', 00H, '\', 00H, 'M', 00H, 'i', 00H, 'c', 00H, 'r'
	DB	00H, 'o', 00H, 's', 00H, 'o', 00H, 'f', 00H, 't', 00H, ' ', 00H
	DB	'V', 00H, 'i', 00H, 's', 00H, 'u', 00H, 'a', 00H, 'l', 00H, ' '
	DB	00H, 'S', 00H, 't', 00H, 'u', 00H, 'd', 00H, 'i', 00H, 'o', 00H
	DB	' ', 00H, '1', 00H, '4', 00H, '.', 00H, '0', 00H, '\', 00H, 'V'
	DB	00H, 'C', 00H, '\', 00H, 'i', 00H, 'n', 00H, 'c', 00H, 'l', 00H
	DB	'u', 00H, 'd', 00H, 'e', 00H, '\', 00H, 'a', 00H, 'r', 00H, 'r'
	DB	00H, 'a', 00H, 'y', 00H, 00H, 00H		; `string'
CONST	ENDS
;	COMDAT ??_C@_1CO@DGLIKNHI@?$AAi?$AAn?$AAv?$AAa?$AAl?$AAi?$AAd?$AA?5?$AAi?$AAt?$AAe?$AAr?$AAa?$AAt?$AAo?$AAr?$AA?5?$AAr?$AAa?$AAn?$AAg?$AAe?$AA?$AA@
CONST	SEGMENT
??_C@_1CO@DGLIKNHI@?$AAi?$AAn?$AAv?$AAa?$AAl?$AAi?$AAd?$AA?5?$AAi?$AAt?$AAe?$AAr?$AAa?$AAt?$AAo?$AAr?$AA?5?$AAr?$AAa?$AAn?$AAg?$AAe?$AA?$AA@ DB 'i'
	DB	00H, 'n', 00H, 'v', 00H, 'a', 00H, 'l', 00H, 'i', 00H, 'd', 00H
	DB	' ', 00H, 'i', 00H, 't', 00H, 'e', 00H, 'r', 00H, 'a', 00H, 't'
	DB	00H, 'o', 00H, 'r', 00H, ' ', 00H, 'r', 00H, 'a', 00H, 'n', 00H
	DB	'g', 00H, 'e', 00H, 00H, 00H			; `string'
CONST	ENDS
;	COMDAT ??_C@_1OI@DCOIPKC@?$AAs?$AAt?$AAd?$AA?3?$AA?3?$AA_?$AAV?$AAe?$AAc?$AAt?$AAo?$AAr?$AA_?$AAc?$AAo?$AAn?$AAs?$AAt?$AA_?$AAi?$AAt?$AAe?$AAr?$AAa?$AAt?$AAo?$AAr?$AA?$DM?$AAc?$AAl?$AAa?$AAs@
CONST	SEGMENT
??_C@_1OI@DCOIPKC@?$AAs?$AAt?$AAd?$AA?3?$AA?3?$AA_?$AAV?$AAe?$AAc?$AAt?$AAo?$AAr?$AA_?$AAc?$AAo?$AAn?$AAs?$AAt?$AA_?$AAi?$AAt?$AAe?$AAr?$AAa?$AAt?$AAo?$AAr?$AA?$DM?$AAc?$AAl?$AAa?$AAs@ DB 's'
	DB	00H, 't', 00H, 'd', 00H, ':', 00H, ':', 00H, '_', 00H, 'V', 00H
	DB	'e', 00H, 'c', 00H, 't', 00H, 'o', 00H, 'r', 00H, '_', 00H, 'c'
	DB	00H, 'o', 00H, 'n', 00H, 's', 00H, 't', 00H, '_', 00H, 'i', 00H
	DB	't', 00H, 'e', 00H, 'r', 00H, 'a', 00H, 't', 00H, 'o', 00H, 'r'
	DB	00H, '<', 00H, 'c', 00H, 'l', 00H, 'a', 00H, 's', 00H, 's', 00H
	DB	' ', 00H, 's', 00H, 't', 00H, 'd', 00H, ':', 00H, ':', 00H, '_'
	DB	00H, 'V', 00H, 'e', 00H, 'c', 00H, 't', 00H, 'o', 00H, 'r', 00H
	DB	'_', 00H, 'v', 00H, 'a', 00H, 'l', 00H, '<', 00H, 's', 00H, 't'
	DB	00H, 'r', 00H, 'u', 00H, 'c', 00H, 't', 00H, ' ', 00H, 's', 00H
	DB	't', 00H, 'd', 00H, ':', 00H, ':', 00H, '_', 00H, 'S', 00H, 'i'
	DB	00H, 'm', 00H, 'p', 00H, 'l', 00H, 'e', 00H, '_', 00H, 't', 00H
	DB	'y', 00H, 'p', 00H, 'e', 00H, 's', 00H, '<', 00H, 'c', 00H, 'l'
	DB	00H, 'a', 00H, 's', 00H, 's', 00H, ' ', 00H, 'p', 00H, 'l', 00H
	DB	'a', 00H, 'i', 00H, 'n', 00H, '_', 00H, 'p', 00H, 'a', 00H, 'r'
	DB	00H, 't', 00H, 'i', 00H, 'c', 00H, 'l', 00H, 'e', 00H, '>', 00H
	DB	' ', 00H, '>', 00H, ' ', 00H, '>', 00H, ':', 00H, ':', 00H, 'o'
	DB	00H, 'p', 00H, 'e', 00H, 'r', 00H, 'a', 00H, 't', 00H, 'o', 00H
	DB	'r', 00H, ' ', 00H, '+', 00H, '=', 00H, 00H, 00H ; `string'
CONST	ENDS
;	COMDAT ??_C@_1EM@FKAOCOMF@?$AAv?$AAe?$AAc?$AAt?$AAo?$AAr?$AA?5?$AAi?$AAt?$AAe?$AAr?$AAa?$AAt?$AAo?$AAr?$AA?5?$AA?$CL?$AA?5?$AAo?$AAf?$AAf?$AAs?$AAe?$AAt?$AA?5?$AAo?$AAu?$AAt?$AA?5?$AAo?$AAf?$AA?5@
CONST	SEGMENT
??_C@_1EM@FKAOCOMF@?$AAv?$AAe?$AAc?$AAt?$AAo?$AAr?$AA?5?$AAi?$AAt?$AAe?$AAr?$AAa?$AAt?$AAo?$AAr?$AA?5?$AA?$CL?$AA?5?$AAo?$AAf?$AAf?$AAs?$AAe?$AAt?$AA?5?$AAo?$AAu?$AAt?$AA?5?$AAo?$AAf?$AA?5@ DB 'v'
	DB	00H, 'e', 00H, 'c', 00H, 't', 00H, 'o', 00H, 'r', 00H, ' ', 00H
	DB	'i', 00H, 't', 00H, 'e', 00H, 'r', 00H, 'a', 00H, 't', 00H, 'o'
	DB	00H, 'r', 00H, ' ', 00H, '+', 00H, ' ', 00H, 'o', 00H, 'f', 00H
	DB	'f', 00H, 's', 00H, 'e', 00H, 't', 00H, ' ', 00H, 'o', 00H, 'u'
	DB	00H, 't', 00H, ' ', 00H, 'o', 00H, 'f', 00H, ' ', 00H, 'r', 00H
	DB	'a', 00H, 'n', 00H, 'g', 00H, 'e', 00H, 00H, 00H ; `string'
CONST	ENDS
;	COMDAT ??_C@_1OG@GNNKBBJJ@?$AAs?$AAt?$AAd?$AA?3?$AA?3?$AA_?$AAV?$AAe?$AAc?$AAt?$AAo?$AAr?$AA_?$AAc?$AAo?$AAn?$AAs?$AAt?$AA_?$AAi?$AAt?$AAe?$AAr?$AAa?$AAt?$AAo?$AAr?$AA?$DM?$AAc?$AAl?$AAa?$AAs@
CONST	SEGMENT
??_C@_1OG@GNNKBBJJ@?$AAs?$AAt?$AAd?$AA?3?$AA?3?$AA_?$AAV?$AAe?$AAc?$AAt?$AAo?$AAr?$AA_?$AAc?$AAo?$AAn?$AAs?$AAt?$AA_?$AAi?$AAt?$AAe?$AAr?$AAa?$AAt?$AAo?$AAr?$AA?$DM?$AAc?$AAl?$AAa?$AAs@ DB 's'
	DB	00H, 't', 00H, 'd', 00H, ':', 00H, ':', 00H, '_', 00H, 'V', 00H
	DB	'e', 00H, 'c', 00H, 't', 00H, 'o', 00H, 'r', 00H, '_', 00H, 'c'
	DB	00H, 'o', 00H, 'n', 00H, 's', 00H, 't', 00H, '_', 00H, 'i', 00H
	DB	't', 00H, 'e', 00H, 'r', 00H, 'a', 00H, 't', 00H, 'o', 00H, 'r'
	DB	00H, '<', 00H, 'c', 00H, 'l', 00H, 'a', 00H, 's', 00H, 's', 00H
	DB	' ', 00H, 's', 00H, 't', 00H, 'd', 00H, ':', 00H, ':', 00H, '_'
	DB	00H, 'V', 00H, 'e', 00H, 'c', 00H, 't', 00H, 'o', 00H, 'r', 00H
	DB	'_', 00H, 'v', 00H, 'a', 00H, 'l', 00H, '<', 00H, 's', 00H, 't'
	DB	00H, 'r', 00H, 'u', 00H, 'c', 00H, 't', 00H, ' ', 00H, 's', 00H
	DB	't', 00H, 'd', 00H, ':', 00H, ':', 00H, '_', 00H, 'S', 00H, 'i'
	DB	00H, 'm', 00H, 'p', 00H, 'l', 00H, 'e', 00H, '_', 00H, 't', 00H
	DB	'y', 00H, 'p', 00H, 'e', 00H, 's', 00H, '<', 00H, 'c', 00H, 'l'
	DB	00H, 'a', 00H, 's', 00H, 's', 00H, ' ', 00H, 'p', 00H, 'l', 00H
	DB	'a', 00H, 'i', 00H, 'n', 00H, '_', 00H, 'p', 00H, 'a', 00H, 'r'
	DB	00H, 't', 00H, 'i', 00H, 'c', 00H, 'l', 00H, 'e', 00H, '>', 00H
	DB	' ', 00H, '>', 00H, ' ', 00H, '>', 00H, ':', 00H, ':', 00H, 'o'
	DB	00H, 'p', 00H, 'e', 00H, 'r', 00H, 'a', 00H, 't', 00H, 'o', 00H
	DB	'r', 00H, ' ', 00H, '*', 00H, 00H, 00H	; `string'
CONST	ENDS
;	COMDAT ??_C@_1EG@FOHJJHAC@?$AAv?$AAe?$AAc?$AAt?$AAo?$AAr?$AA?5?$AAi?$AAt?$AAe?$AAr?$AAa?$AAt?$AAo?$AAr?$AA?5?$AAn?$AAo?$AAt?$AA?5?$AAd?$AAe?$AAr?$AAe?$AAf?$AAe?$AAr?$AAe?$AAn?$AAc?$AAa?$AAb@
CONST	SEGMENT
??_C@_1EG@FOHJJHAC@?$AAv?$AAe?$AAc?$AAt?$AAo?$AAr?$AA?5?$AAi?$AAt?$AAe?$AAr?$AAa?$AAt?$AAo?$AAr?$AA?5?$AAn?$AAo?$AAt?$AA?5?$AAd?$AAe?$AAr?$AAe?$AAf?$AAe?$AAr?$AAe?$AAn?$AAc?$AAa?$AAb@ DB 'v'
	DB	00H, 'e', 00H, 'c', 00H, 't', 00H, 'o', 00H, 'r', 00H, ' ', 00H
	DB	'i', 00H, 't', 00H, 'e', 00H, 'r', 00H, 'a', 00H, 't', 00H, 'o'
	DB	00H, 'r', 00H, ' ', 00H, 'n', 00H, 'o', 00H, 't', 00H, ' ', 00H
	DB	'd', 00H, 'e', 00H, 'r', 00H, 'e', 00H, 'f', 00H, 'e', 00H, 'r'
	DB	00H, 'e', 00H, 'n', 00H, 'c', 00H, 'a', 00H, 'b', 00H, 'l', 00H
	DB	'e', 00H, 00H, 00H				; `string'
CONST	ENDS
;	COMDAT ??_C@_1OI@HGFMIHOB@?$AAs?$AAt?$AAd?$AA?3?$AA?3?$AA_?$AAV?$AAe?$AAc?$AAt?$AAo?$AAr?$AA_?$AAc?$AAo?$AAn?$AAs?$AAt?$AA_?$AAi?$AAt?$AAe?$AAr?$AAa?$AAt?$AAo?$AAr?$AA?$DM?$AAc?$AAl?$AAa?$AAs@
CONST	SEGMENT
??_C@_1OI@HGFMIHOB@?$AAs?$AAt?$AAd?$AA?3?$AA?3?$AA_?$AAV?$AAe?$AAc?$AAt?$AAo?$AAr?$AA_?$AAc?$AAo?$AAn?$AAs?$AAt?$AA_?$AAi?$AAt?$AAe?$AAr?$AAa?$AAt?$AAo?$AAr?$AA?$DM?$AAc?$AAl?$AAa?$AAs@ DB 's'
	DB	00H, 't', 00H, 'd', 00H, ':', 00H, ':', 00H, '_', 00H, 'V', 00H
	DB	'e', 00H, 'c', 00H, 't', 00H, 'o', 00H, 'r', 00H, '_', 00H, 'c'
	DB	00H, 'o', 00H, 'n', 00H, 's', 00H, 't', 00H, '_', 00H, 'i', 00H
	DB	't', 00H, 'e', 00H, 'r', 00H, 'a', 00H, 't', 00H, 'o', 00H, 'r'
	DB	00H, '<', 00H, 'c', 00H, 'l', 00H, 'a', 00H, 's', 00H, 's', 00H
	DB	' ', 00H, 's', 00H, 't', 00H, 'd', 00H, ':', 00H, ':', 00H, '_'
	DB	00H, 'V', 00H, 'e', 00H, 'c', 00H, 't', 00H, 'o', 00H, 'r', 00H
	DB	'_', 00H, 'v', 00H, 'a', 00H, 'l', 00H, '<', 00H, 's', 00H, 't'
	DB	00H, 'r', 00H, 'u', 00H, 'c', 00H, 't', 00H, ' ', 00H, 's', 00H
	DB	't', 00H, 'd', 00H, ':', 00H, ':', 00H, '_', 00H, 'S', 00H, 'i'
	DB	00H, 'm', 00H, 'p', 00H, 'l', 00H, 'e', 00H, '_', 00H, 't', 00H
	DB	'y', 00H, 'p', 00H, 'e', 00H, 's', 00H, '<', 00H, 'c', 00H, 'l'
	DB	00H, 'a', 00H, 's', 00H, 's', 00H, ' ', 00H, 'p', 00H, 'l', 00H
	DB	'a', 00H, 'i', 00H, 'n', 00H, '_', 00H, 'p', 00H, 'a', 00H, 'r'
	DB	00H, 't', 00H, 'i', 00H, 'c', 00H, 'l', 00H, 'e', 00H, '>', 00H
	DB	' ', 00H, '>', 00H, ' ', 00H, '>', 00H, ':', 00H, ':', 00H, 'o'
	DB	00H, 'p', 00H, 'e', 00H, 'r', 00H, 'a', 00H, 't', 00H, 'o', 00H
	DB	'r', 00H, ' ', 00H, '+', 00H, '+', 00H, 00H, 00H ; `string'
CONST	ENDS
;	COMDAT ??_C@_1EE@EJDKCLKB@?$AAv?$AAe?$AAc?$AAt?$AAo?$AAr?$AA?5?$AAi?$AAt?$AAe?$AAr?$AAa?$AAt?$AAo?$AAr?$AA?5?$AAn?$AAo?$AAt?$AA?5?$AAi?$AAn?$AAc?$AAr?$AAe?$AAm?$AAe?$AAn?$AAt?$AAa?$AAb?$AAl@
CONST	SEGMENT
??_C@_1EE@EJDKCLKB@?$AAv?$AAe?$AAc?$AAt?$AAo?$AAr?$AA?5?$AAi?$AAt?$AAe?$AAr?$AAa?$AAt?$AAo?$AAr?$AA?5?$AAn?$AAo?$AAt?$AA?5?$AAi?$AAn?$AAc?$AAr?$AAe?$AAm?$AAe?$AAn?$AAt?$AAa?$AAb?$AAl@ DB 'v'
	DB	00H, 'e', 00H, 'c', 00H, 't', 00H, 'o', 00H, 'r', 00H, ' ', 00H
	DB	'i', 00H, 't', 00H, 'e', 00H, 'r', 00H, 'a', 00H, 't', 00H, 'o'
	DB	00H, 'r', 00H, ' ', 00H, 'n', 00H, 'o', 00H, 't', 00H, ' ', 00H
	DB	'i', 00H, 'n', 00H, 'c', 00H, 'r', 00H, 'e', 00H, 'm', 00H, 'e'
	DB	00H, 'n', 00H, 't', 00H, 'a', 00H, 'b', 00H, 'l', 00H, 'e', 00H
	DB	00H, 00H					; `string'
CONST	ENDS
;	COMDAT ??_C@_1OA@EJBLODPM@?$AAs?$AAt?$AAd?$AA?3?$AA?3?$AA_?$AAV?$AAe?$AAc?$AAt?$AAo?$AAr?$AA_?$AAc?$AAo?$AAn?$AAs?$AAt?$AA_?$AAi?$AAt?$AAe?$AAr?$AAa?$AAt?$AAo?$AAr?$AA?$DM?$AAc?$AAl?$AAa?$AAs@
CONST	SEGMENT
??_C@_1OA@EJBLODPM@?$AAs?$AAt?$AAd?$AA?3?$AA?3?$AA_?$AAV?$AAe?$AAc?$AAt?$AAo?$AAr?$AA_?$AAc?$AAo?$AAn?$AAs?$AAt?$AA_?$AAi?$AAt?$AAe?$AAr?$AAa?$AAt?$AAo?$AAr?$AA?$DM?$AAc?$AAl?$AAa?$AAs@ DB 's'
	DB	00H, 't', 00H, 'd', 00H, ':', 00H, ':', 00H, '_', 00H, 'V', 00H
	DB	'e', 00H, 'c', 00H, 't', 00H, 'o', 00H, 'r', 00H, '_', 00H, 'c'
	DB	00H, 'o', 00H, 'n', 00H, 's', 00H, 't', 00H, '_', 00H, 'i', 00H
	DB	't', 00H, 'e', 00H, 'r', 00H, 'a', 00H, 't', 00H, 'o', 00H, 'r'
	DB	00H, '<', 00H, 'c', 00H, 'l', 00H, 'a', 00H, 's', 00H, 's', 00H
	DB	' ', 00H, 's', 00H, 't', 00H, 'd', 00H, ':', 00H, ':', 00H, '_'
	DB	00H, 'V', 00H, 'e', 00H, 'c', 00H, 't', 00H, 'o', 00H, 'r', 00H
	DB	'_', 00H, 'v', 00H, 'a', 00H, 'l', 00H, '<', 00H, 's', 00H, 't'
	DB	00H, 'r', 00H, 'u', 00H, 'c', 00H, 't', 00H, ' ', 00H, 's', 00H
	DB	't', 00H, 'd', 00H, ':', 00H, ':', 00H, '_', 00H, 'S', 00H, 'i'
	DB	00H, 'm', 00H, 'p', 00H, 'l', 00H, 'e', 00H, '_', 00H, 't', 00H
	DB	'y', 00H, 'p', 00H, 'e', 00H, 's', 00H, '<', 00H, 'c', 00H, 'l'
	DB	00H, 'a', 00H, 's', 00H, 's', 00H, ' ', 00H, 'p', 00H, 'l', 00H
	DB	'a', 00H, 'i', 00H, 'n', 00H, '_', 00H, 'p', 00H, 'a', 00H, 'r'
	DB	00H, 't', 00H, 'i', 00H, 'c', 00H, 'l', 00H, 'e', 00H, '>', 00H
	DB	' ', 00H, '>', 00H, ' ', 00H, '>', 00H, ':', 00H, ':', 00H, '_'
	DB	00H, 'C', 00H, 'o', 00H, 'm', 00H, 'p', 00H, 'a', 00H, 't', 00H
	DB	00H, 00H					; `string'
CONST	ENDS
;	COMDAT ??_C@_1FO@GJIHNDLM@?$AA?$CC?$AAS?$AAt?$AAa?$AAn?$AAd?$AAa?$AAr?$AAd?$AA?5?$AAC?$AA?$CL?$AA?$CL?$AA?5?$AAL?$AAi?$AAb?$AAr?$AAa?$AAr?$AAi?$AAe?$AAs?$AA?5?$AAI?$AAn?$AAv?$AAa?$AAl?$AAi?$AAd?$AA?5@
CONST	SEGMENT
??_C@_1FO@GJIHNDLM@?$AA?$CC?$AAS?$AAt?$AAa?$AAn?$AAd?$AAa?$AAr?$AAd?$AA?5?$AAC?$AA?$CL?$AA?$CL?$AA?5?$AAL?$AAi?$AAb?$AAr?$AAa?$AAr?$AAi?$AAe?$AAs?$AA?5?$AAI?$AAn?$AAv?$AAa?$AAl?$AAi?$AAd?$AA?5@ DB '"'
	DB	00H, 'S', 00H, 't', 00H, 'a', 00H, 'n', 00H, 'd', 00H, 'a', 00H
	DB	'r', 00H, 'd', 00H, ' ', 00H, 'C', 00H, '+', 00H, '+', 00H, ' '
	DB	00H, 'L', 00H, 'i', 00H, 'b', 00H, 'r', 00H, 'a', 00H, 'r', 00H
	DB	'i', 00H, 'e', 00H, 's', 00H, ' ', 00H, 'I', 00H, 'n', 00H, 'v'
	DB	00H, 'a', 00H, 'l', 00H, 'i', 00H, 'd', 00H, ' ', 00H, 'A', 00H
	DB	'r', 00H, 'g', 00H, 'u', 00H, 'm', 00H, 'e', 00H, 'n', 00H, 't'
	DB	00H, '"', 00H, ' ', 00H, '&', 00H, '&', 00H, ' ', 00H, '0', 00H
	DB	00H, 00H					; `string'
CONST	ENDS
;	COMDAT ??_C@_0CI@FNPHFCCM@Standard?5C?$CL?$CL?5Libraries?5Invalid?5A@
CONST	SEGMENT
??_C@_0CI@FNPHFCCM@Standard?5C?$CL?$CL?5Libraries?5Invalid?5A@ DB 'Standa'
	DB	'rd C++ Libraries Invalid Argument', 00H	; `string'
CONST	ENDS
;	COMDAT ??_C@_1DM@HINDPMBP@?$AAv?$AAe?$AAc?$AAt?$AAo?$AAr?$AA?5?$AAi?$AAt?$AAe?$AAr?$AAa?$AAt?$AAo?$AAr?$AAs?$AA?5?$AAi?$AAn?$AAc?$AAo?$AAm?$AAp?$AAa?$AAt?$AAi?$AAb?$AAl?$AAe?$AA?$AA@
CONST	SEGMENT
??_C@_1DM@HINDPMBP@?$AAv?$AAe?$AAc?$AAt?$AAo?$AAr?$AA?5?$AAi?$AAt?$AAe?$AAr?$AAa?$AAt?$AAo?$AAr?$AAs?$AA?5?$AAi?$AAn?$AAc?$AAo?$AAm?$AAp?$AAa?$AAt?$AAi?$AAb?$AAl?$AAe?$AA?$AA@ DB 'v'
	DB	00H, 'e', 00H, 'c', 00H, 't', 00H, 'o', 00H, 'r', 00H, ' ', 00H
	DB	'i', 00H, 't', 00H, 'e', 00H, 'r', 00H, 'a', 00H, 't', 00H, 'o'
	DB	00H, 'r', 00H, 's', 00H, ' ', 00H, 'i', 00H, 'n', 00H, 'c', 00H
	DB	'o', 00H, 'm', 00H, 'p', 00H, 'a', 00H, 't', 00H, 'i', 00H, 'b'
	DB	00H, 'l', 00H, 'e', 00H, 00H, 00H		; `string'
CONST	ENDS
;	COMDAT ??_C@_1CC@GKJLLHIM@?$AA?$CC?$AA_?$AAP?$AAt?$AAr?$AA?5?$AA?$CB?$AA?$DN?$AA?5?$AA0?$AA?$CC?$AA?5?$AA?$CG?$AA?$CG?$AA?5?$AA0?$AA?$AA@
CONST	SEGMENT
??_C@_1CC@GKJLLHIM@?$AA?$CC?$AA_?$AAP?$AAt?$AAr?$AA?5?$AA?$CB?$AA?$DN?$AA?5?$AA0?$AA?$CC?$AA?5?$AA?$CG?$AA?$CG?$AA?5?$AA0?$AA?$AA@ DB '"'
	DB	00H, '_', 00H, 'P', 00H, 't', 00H, 'r', 00H, ' ', 00H, '!', 00H
	DB	'=', 00H, ' ', 00H, '0', 00H, '"', 00H, ' ', 00H, '&', 00H, '&'
	DB	00H, ' ', 00H, '0', 00H, 00H, 00H		; `string'
CONST	ENDS
;	COMDAT ??_C@_09GLJCAGLP@_Ptr?5?$CB?$DN?50?$AA@
CONST	SEGMENT
??_C@_09GLJCAGLP@_Ptr?5?$CB?$DN?50?$AA@ DB '_Ptr != 0', 00H ; `string'
CONST	ENDS
;	COMDAT ??_C@_1BO@NKFMJPA@?$AAs?$AAt?$AAd?$AA?3?$AA?3?$AA_?$AAA?$AAl?$AAl?$AAo?$AAc?$AAa?$AAt?$AAe?$AA?$AA@
CONST	SEGMENT
??_C@_1BO@NKFMJPA@?$AAs?$AAt?$AAd?$AA?3?$AA?3?$AA_?$AAA?$AAl?$AAl?$AAo?$AAc?$AAa?$AAt?$AAe?$AA?$AA@ DB 's'
	DB	00H, 't', 00H, 'd', 00H, ':', 00H, ':', 00H, '_', 00H, 'A', 00H
	DB	'l', 00H, 'l', 00H, 'o', 00H, 'c', 00H, 'a', 00H, 't', 00H, 'e'
	DB	00H, 00H, 00H				; `string'
CONST	ENDS
;	COMDAT ??_C@_1DG@HGDKEBPG@?$AA?$CC?$AA_?$AAP?$AAt?$AAr?$AA_?$AAc?$AAo?$AAn?$AAt?$AAa?$AAi?$AAn?$AAe?$AAr?$AA?5?$AA?$CB?$AA?$DN?$AA?5?$AA0?$AA?$CC?$AA?5?$AA?$CG?$AA?$CG?$AA?5?$AA0?$AA?$AA@
CONST	SEGMENT
??_C@_1DG@HGDKEBPG@?$AA?$CC?$AA_?$AAP?$AAt?$AAr?$AA_?$AAc?$AAo?$AAn?$AAt?$AAa?$AAi?$AAn?$AAe?$AAr?$AA?5?$AA?$CB?$AA?$DN?$AA?5?$AA0?$AA?$CC?$AA?5?$AA?$CG?$AA?$CG?$AA?5?$AA0?$AA?$AA@ DB '"'
	DB	00H, '_', 00H, 'P', 00H, 't', 00H, 'r', 00H, '_', 00H, 'c', 00H
	DB	'o', 00H, 'n', 00H, 't', 00H, 'a', 00H, 'i', 00H, 'n', 00H, 'e'
	DB	00H, 'r', 00H, ' ', 00H, '!', 00H, '=', 00H, ' ', 00H, '0', 00H
	DB	'"', 00H, ' ', 00H, '&', 00H, '&', 00H, ' ', 00H, '0', 00H, 00H
	DB	00H						; `string'
CONST	ENDS
;	COMDAT ??_C@_0BE@LMNLACIC@_Ptr_container?5?$CB?$DN?50?$AA@
CONST	SEGMENT
??_C@_0BE@LMNLACIC@_Ptr_container?5?$CB?$DN?50?$AA@ DB '_Ptr_container !='
	DB	' 0', 00H					; `string'
CONST	ENDS
;	COMDAT ??_C@_1GI@DHJGPFNI@?$AA?$CC?$AA_?$AAP?$AAt?$AAr?$AA_?$AAu?$AAs?$AAe?$AAr?$AA?5?$AA?9?$AA?5?$AA_?$AAP?$AAt?$AAr?$AA_?$AAc?$AAo?$AAn?$AAt?$AAa?$AAi?$AAn?$AAe?$AAr?$AA?5?$AA?$DM?$AA?$DN?$AA?5?$AA_@
CONST	SEGMENT
??_C@_1GI@DHJGPFNI@?$AA?$CC?$AA_?$AAP?$AAt?$AAr?$AA_?$AAu?$AAs?$AAe?$AAr?$AA?5?$AA?9?$AA?5?$AA_?$AAP?$AAt?$AAr?$AA_?$AAc?$AAo?$AAn?$AAt?$AAa?$AAi?$AAn?$AAe?$AAr?$AA?5?$AA?$DM?$AA?$DN?$AA?5?$AA_@ DB '"'
	DB	00H, '_', 00H, 'P', 00H, 't', 00H, 'r', 00H, '_', 00H, 'u', 00H
	DB	's', 00H, 'e', 00H, 'r', 00H, ' ', 00H, '-', 00H, ' ', 00H, '_'
	DB	00H, 'P', 00H, 't', 00H, 'r', 00H, '_', 00H, 'c', 00H, 'o', 00H
	DB	'n', 00H, 't', 00H, 'a', 00H, 'i', 00H, 'n', 00H, 'e', 00H, 'r'
	DB	00H, ' ', 00H, '<', 00H, '=', 00H, ' ', 00H, '_', 00H, 'N', 00H
	DB	'O', 00H, 'N', 00H, '_', 00H, 'U', 00H, 'S', 00H, 'E', 00H, 'R'
	DB	00H, '_', 00H, 'S', 00H, 'I', 00H, 'Z', 00H, 'E', 00H, '"', 00H
	DB	' ', 00H, '&', 00H, '&', 00H, ' ', 00H, '0', 00H, 00H, 00H ; `string'
CONST	ENDS
;	COMDAT ??_C@_0CN@BLHJCAL@_Ptr_user?5?9?5_Ptr_container?5?$DM?$DN?5_N@
CONST	SEGMENT
??_C@_0CN@BLHJCAL@_Ptr_user?5?9?5_Ptr_container?5?$DM?$DN?5_N@ DB '_Ptr_u'
	DB	'ser - _Ptr_container <= _NON_USER_SIZE', 00H ; `string'
CONST	ENDS
;	COMDAT ??_C@_1HA@NAPGMHAO@?$AA?$CC?$AA2?$AA?5?$AA?$CK?$AA?5?$AAs?$AAi?$AAz?$AAe?$AAo?$AAf?$AA?$CI?$AAv?$AAo?$AAi?$AAd?$AA?5?$AA?$CK?$AA?$CJ?$AA?5?$AA?$DM?$AA?$DN?$AA?5?$AA_?$AAP?$AAt?$AAr?$AA_?$AAu?$AAs?$AAe?$AAr@
CONST	SEGMENT
??_C@_1HA@NAPGMHAO@?$AA?$CC?$AA2?$AA?5?$AA?$CK?$AA?5?$AAs?$AAi?$AAz?$AAe?$AAo?$AAf?$AA?$CI?$AAv?$AAo?$AAi?$AAd?$AA?5?$AA?$CK?$AA?$CJ?$AA?5?$AA?$DM?$AA?$DN?$AA?5?$AA_?$AAP?$AAt?$AAr?$AA_?$AAu?$AAs?$AAe?$AAr@ DB '"'
	DB	00H, '2', 00H, ' ', 00H, '*', 00H, ' ', 00H, 's', 00H, 'i', 00H
	DB	'z', 00H, 'e', 00H, 'o', 00H, 'f', 00H, '(', 00H, 'v', 00H, 'o'
	DB	00H, 'i', 00H, 'd', 00H, ' ', 00H, '*', 00H, ')', 00H, ' ', 00H
	DB	'<', 00H, '=', 00H, ' ', 00H, '_', 00H, 'P', 00H, 't', 00H, 'r'
	DB	00H, '_', 00H, 'u', 00H, 's', 00H, 'e', 00H, 'r', 00H, ' ', 00H
	DB	'-', 00H, ' ', 00H, '_', 00H, 'P', 00H, 't', 00H, 'r', 00H, '_'
	DB	00H, 'c', 00H, 'o', 00H, 'n', 00H, 't', 00H, 'a', 00H, 'i', 00H
	DB	'n', 00H, 'e', 00H, 'r', 00H, '"', 00H, ' ', 00H, '&', 00H, '&'
	DB	00H, ' ', 00H, '0', 00H, 00H, 00H		; `string'
CONST	ENDS
;	COMDAT ??_C@_0DB@GLFJLNCE@2?5?$CK?5sizeof?$CIvoid?5?$CK?$CJ?5?$DM?$DN?5_Ptr_user?5@
CONST	SEGMENT
??_C@_0DB@GLFJLNCE@2?5?$CK?5sizeof?$CIvoid?5?$CK?$CJ?5?$DM?$DN?5_Ptr_user?5@ DB '2'
	DB	' * sizeof(void *) <= _Ptr_user - _Ptr_container', 00H ; `string'
CONST	ENDS
;	COMDAT ??_C@_1EE@PDHAHDDC@?$AA?$CC?$AA_?$AAP?$AAt?$AAr?$AA_?$AAc?$AAo?$AAn?$AAt?$AAa?$AAi?$AAn?$AAe?$AAr?$AA?5?$AA?$DM?$AA?5?$AA_?$AAP?$AAt?$AAr?$AA_?$AAu?$AAs?$AAe?$AAr?$AA?$CC?$AA?5?$AA?$CG?$AA?$CG?$AA?5@
CONST	SEGMENT
??_C@_1EE@PDHAHDDC@?$AA?$CC?$AA_?$AAP?$AAt?$AAr?$AA_?$AAc?$AAo?$AAn?$AAt?$AAa?$AAi?$AAn?$AAe?$AAr?$AA?5?$AA?$DM?$AA?5?$AA_?$AAP?$AAt?$AAr?$AA_?$AAu?$AAs?$AAe?$AAr?$AA?$CC?$AA?5?$AA?$CG?$AA?$CG?$AA?5@ DB '"'
	DB	00H, '_', 00H, 'P', 00H, 't', 00H, 'r', 00H, '_', 00H, 'c', 00H
	DB	'o', 00H, 'n', 00H, 't', 00H, 'a', 00H, 'i', 00H, 'n', 00H, 'e'
	DB	00H, 'r', 00H, ' ', 00H, '<', 00H, ' ', 00H, '_', 00H, 'P', 00H
	DB	't', 00H, 'r', 00H, '_', 00H, 'u', 00H, 's', 00H, 'e', 00H, 'r'
	DB	00H, '"', 00H, ' ', 00H, '&', 00H, '&', 00H, ' ', 00H, '0', 00H
	DB	00H, 00H					; `string'
CONST	ENDS
;	COMDAT ??_C@_0BL@OCKMEJON@_Ptr_container?5?$DM?5_Ptr_user?$AA@
CONST	SEGMENT
??_C@_0BL@OCKMEJON@_Ptr_container?5?$DM?5_Ptr_user?$AA@ DB '_Ptr_containe'
	DB	'r < _Ptr_user', 00H				; `string'
CONST	ENDS
;	COMDAT ??_C@_1JO@EKLKIEHP@?$AA?$CC?$AAr?$AAe?$AAi?$AAn?$AAt?$AAe?$AAr?$AAp?$AAr?$AAe?$AAt?$AA_?$AAc?$AAa?$AAs?$AAt?$AA?$DM?$AAu?$AAi?$AAn?$AAt?$AAp?$AAt?$AAr?$AA_?$AAt?$AA?5?$AA?$CK?$AA?$DO?$AA?$CI?$AA_@
CONST	SEGMENT
??_C@_1JO@EKLKIEHP@?$AA?$CC?$AAr?$AAe?$AAi?$AAn?$AAt?$AAe?$AAr?$AAp?$AAr?$AAe?$AAt?$AA_?$AAc?$AAa?$AAs?$AAt?$AA?$DM?$AAu?$AAi?$AAn?$AAt?$AAp?$AAt?$AAr?$AA_?$AAt?$AA?5?$AA?$CK?$AA?$DO?$AA?$CI?$AA_@ DB '"'
	DB	00H, 'r', 00H, 'e', 00H, 'i', 00H, 'n', 00H, 't', 00H, 'e', 00H
	DB	'r', 00H, 'p', 00H, 'r', 00H, 'e', 00H, 't', 00H, '_', 00H, 'c'
	DB	00H, 'a', 00H, 's', 00H, 't', 00H, '<', 00H, 'u', 00H, 'i', 00H
	DB	'n', 00H, 't', 00H, 'p', 00H, 't', 00H, 'r', 00H, '_', 00H, 't'
	DB	00H, ' ', 00H, '*', 00H, '>', 00H, '(', 00H, '_', 00H, 'P', 00H
	DB	't', 00H, 'r', 00H, '_', 00H, 'p', 00H, 't', 00H, 'r', 00H, ')'
	DB	00H, '[', 00H, '-', 00H, '1', 00H, ']', 00H, ' ', 00H, '=', 00H
	DB	'=', 00H, ' ', 00H, '_', 00H, 'B', 00H, 'I', 00H, 'G', 00H, '_'
	DB	00H, 'A', 00H, 'L', 00H, 'L', 00H, 'O', 00H, 'C', 00H, 'A', 00H
	DB	'T', 00H, 'I', 00H, 'O', 00H, 'N', 00H, '_', 00H, 'S', 00H, 'E'
	DB	00H, 'N', 00H, 'T', 00H, 'I', 00H, 'N', 00H, 'E', 00H, 'L', 00H
	DB	'"', 00H, ' ', 00H, '&', 00H, '&', 00H, ' ', 00H, '0', 00H, 00H
	DB	00H						; `string'
CONST	ENDS
;	COMDAT ??_C@_0EI@NOJHEJCJ@reinterpret_cast?$DMuintptr_t?5?$CK?$DO?$CI_P@
CONST	SEGMENT
??_C@_0EI@NOJHEJCJ@reinterpret_cast?$DMuintptr_t?5?$CK?$DO?$CI_P@ DB 'rei'
	DB	'nterpret_cast<uintptr_t *>(_Ptr_ptr)[-1] == _BIG_ALLOCATION_S'
	DB	'ENTINEL', 00H				; `string'
CONST	ENDS
;	COMDAT ??_C@_1HE@CDMBFOKC@?$AA?$CC?$AA?$CI?$AA_?$AAP?$AAt?$AAr?$AA_?$AAu?$AAs?$AAe?$AAr?$AA?5?$AA?$CG?$AA?5?$AA?$CI?$AA_?$AAB?$AAI?$AAG?$AA_?$AAA?$AAL?$AAL?$AAO?$AAC?$AAA?$AAT?$AAI?$AAO?$AAN?$AA_?$AAA@
CONST	SEGMENT
??_C@_1HE@CDMBFOKC@?$AA?$CC?$AA?$CI?$AA_?$AAP?$AAt?$AAr?$AA_?$AAu?$AAs?$AAe?$AAr?$AA?5?$AA?$CG?$AA?5?$AA?$CI?$AA_?$AAB?$AAI?$AAG?$AA_?$AAA?$AAL?$AAL?$AAO?$AAC?$AAA?$AAT?$AAI?$AAO?$AAN?$AA_?$AAA@ DB '"'
	DB	00H, '(', 00H, '_', 00H, 'P', 00H, 't', 00H, 'r', 00H, '_', 00H
	DB	'u', 00H, 's', 00H, 'e', 00H, 'r', 00H, ' ', 00H, '&', 00H, ' '
	DB	00H, '(', 00H, '_', 00H, 'B', 00H, 'I', 00H, 'G', 00H, '_', 00H
	DB	'A', 00H, 'L', 00H, 'L', 00H, 'O', 00H, 'C', 00H, 'A', 00H, 'T'
	DB	00H, 'I', 00H, 'O', 00H, 'N', 00H, '_', 00H, 'A', 00H, 'L', 00H
	DB	'I', 00H, 'G', 00H, 'N', 00H, 'M', 00H, 'E', 00H, 'N', 00H, 'T'
	DB	00H, ' ', 00H, '-', 00H, ' ', 00H, '1', 00H, ')', 00H, ')', 00H
	DB	' ', 00H, '=', 00H, '=', 00H, ' ', 00H, '0', 00H, '"', 00H, ' '
	DB	00H, '&', 00H, '&', 00H, ' ', 00H, '0', 00H, 00H, 00H ; `string'
CONST	ENDS
;	COMDAT ??_C@_0DD@GBGGGKGG@?$CI_Ptr_user?5?$CG?5?$CI_BIG_ALLOCATION_AL@
CONST	SEGMENT
??_C@_0DD@GBGGGKGG@?$CI_Ptr_user?5?$CG?5?$CI_BIG_ALLOCATION_AL@ DB '(_Ptr'
	DB	'_user & (_BIG_ALLOCATION_ALIGNMENT - 1)) == 0', 00H ; `string'
CONST	ENDS
;	COMDAT ??_C@_1CG@JNLFBNGN@?$AA?$CC?$AAi?$AAn?$AAv?$AAa?$AAl?$AAi?$AAd?$AA?5?$AAa?$AAr?$AAg?$AAu?$AAm?$AAe?$AAn?$AAt?$AA?$CC?$AA?$AA@
CONST	SEGMENT
??_C@_1CG@JNLFBNGN@?$AA?$CC?$AAi?$AAn?$AAv?$AAa?$AAl?$AAi?$AAd?$AA?5?$AAa?$AAr?$AAg?$AAu?$AAm?$AAe?$AAn?$AAt?$AA?$CC?$AA?$AA@ DB '"'
	DB	00H, 'i', 00H, 'n', 00H, 'v', 00H, 'a', 00H, 'l', 00H, 'i', 00H
	DB	'd', 00H, ' ', 00H, 'a', 00H, 'r', 00H, 'g', 00H, 'u', 00H, 'm'
	DB	00H, 'e', 00H, 'n', 00H, 't', 00H, '"', 00H, 00H, 00H ; `string'
CONST	ENDS
;	COMDAT ??_C@_1CC@LOFJFFDB@?$AAs?$AAt?$AAd?$AA?3?$AA?3?$AA_?$AAD?$AAe?$AAa?$AAl?$AAl?$AAo?$AAc?$AAa?$AAt?$AAe?$AA?$AA@
CONST	SEGMENT
??_C@_1CC@LOFJFFDB@?$AAs?$AAt?$AAd?$AA?3?$AA?3?$AA_?$AAD?$AAe?$AAa?$AAl?$AAl?$AAo?$AAc?$AAa?$AAt?$AAe?$AA?$AA@ DB 's'
	DB	00H, 't', 00H, 'd', 00H, ':', 00H, ':', 00H, '_', 00H, 'D', 00H
	DB	'e', 00H, 'a', 00H, 'l', 00H, 'l', 00H, 'o', 00H, 'c', 00H, 'a'
	DB	00H, 't', 00H, 'e', 00H, 00H, 00H		; `string'
CONST	ENDS
;	COMDAT ??_C@_1JA@HEEMAOGC@?$AAC?$AA?3?$AA?2?$AAP?$AAr?$AAo?$AAg?$AAr?$AAa?$AAm?$AA?5?$AAF?$AAi?$AAl?$AAe?$AAs?$AA?5?$AA?$CI?$AAx?$AA8?$AA6?$AA?$CJ?$AA?2?$AAM?$AAi?$AAc?$AAr?$AAo?$AAs?$AAo?$AAf?$AAt@
CONST	SEGMENT
??_C@_1JA@HEEMAOGC@?$AAC?$AA?3?$AA?2?$AAP?$AAr?$AAo?$AAg?$AAr?$AAa?$AAm?$AA?5?$AAF?$AAi?$AAl?$AAe?$AAs?$AA?5?$AA?$CI?$AAx?$AA8?$AA6?$AA?$CJ?$AA?2?$AAM?$AAi?$AAc?$AAr?$AAo?$AAs?$AAo?$AAf?$AAt@ DB 'C'
	DB	00H, ':', 00H, '\', 00H, 'P', 00H, 'r', 00H, 'o', 00H, 'g', 00H
	DB	'r', 00H, 'a', 00H, 'm', 00H, ' ', 00H, 'F', 00H, 'i', 00H, 'l'
	DB	00H, 'e', 00H, 's', 00H, ' ', 00H, '(', 00H, 'x', 00H, '8', 00H
	DB	'6', 00H, ')', 00H, '\', 00H, 'M', 00H, 'i', 00H, 'c', 00H, 'r'
	DB	00H, 'o', 00H, 's', 00H, 'o', 00H, 'f', 00H, 't', 00H, ' ', 00H
	DB	'V', 00H, 'i', 00H, 's', 00H, 'u', 00H, 'a', 00H, 'l', 00H, ' '
	DB	00H, 'S', 00H, 't', 00H, 'u', 00H, 'd', 00H, 'i', 00H, 'o', 00H
	DB	' ', 00H, '1', 00H, '4', 00H, '.', 00H, '0', 00H, '\', 00H, 'V'
	DB	00H, 'C', 00H, '\', 00H, 'i', 00H, 'n', 00H, 'c', 00H, 'l', 00H
	DB	'u', 00H, 'd', 00H, 'e', 00H, '\', 00H, 'x', 00H, 'm', 00H, 'e'
	DB	00H, 'm', 00H, 'o', 00H, 'r', 00H, 'y', 00H, '0', 00H, 00H, 00H ; `string'
CONST	ENDS
;	COMDAT ??_C@_1FK@EJGLHMGC@?$AA?$CC?$AA_?$AAC?$AAo?$AAu?$AAn?$AAt?$AA?5?$AA?$DM?$AA?$DN?$AA?5?$AA?$CI?$AAs?$AAi?$AAz?$AAe?$AA_?$AAt?$AA?$CJ?$AA?$CI?$AA?9?$AA1?$AA?$CJ?$AA?5?$AA?1?$AA?5?$AAs?$AAi?$AAz?$AAe?$AAo?$AAf@
CONST	SEGMENT
??_C@_1FK@EJGLHMGC@?$AA?$CC?$AA_?$AAC?$AAo?$AAu?$AAn?$AAt?$AA?5?$AA?$DM?$AA?$DN?$AA?5?$AA?$CI?$AAs?$AAi?$AAz?$AAe?$AA_?$AAt?$AA?$CJ?$AA?$CI?$AA?9?$AA1?$AA?$CJ?$AA?5?$AA?1?$AA?5?$AAs?$AAi?$AAz?$AAe?$AAo?$AAf@ DB '"'
	DB	00H, '_', 00H, 'C', 00H, 'o', 00H, 'u', 00H, 'n', 00H, 't', 00H
	DB	' ', 00H, '<', 00H, '=', 00H, ' ', 00H, '(', 00H, 's', 00H, 'i'
	DB	00H, 'z', 00H, 'e', 00H, '_', 00H, 't', 00H, ')', 00H, '(', 00H
	DB	'-', 00H, '1', 00H, ')', 00H, ' ', 00H, '/', 00H, ' ', 00H, 's'
	DB	00H, 'i', 00H, 'z', 00H, 'e', 00H, 'o', 00H, 'f', 00H, ' ', 00H
	DB	'(', 00H, '_', 00H, 'T', 00H, 'y', 00H, ')', 00H, '"', 00H, ' '
	DB	00H, '&', 00H, '&', 00H, ' ', 00H, '0', 00H, 00H, 00H ; `string'
CONST	ENDS
;	COMDAT ??_C@_0CG@FHBDFCGK@_Count?5?$DM?$DN?5?$CIsize_t?$CJ?$CI?91?$CJ?5?1?5sizeof?5@
CONST	SEGMENT
??_C@_0CG@FHBDFCGK@_Count?5?$DM?$DN?5?$CIsize_t?$CJ?$CI?91?$CJ?5?1?5sizeof?5@ DB '_'
	DB	'Count <= (size_t)(-1) / sizeof (_Ty)', 00H	; `string'
CONST	ENDS
;	COMDAT ??_C@_1CK@EOPGIILJ@?$AAi?$AAn?$AAv?$AAa?$AAl?$AAi?$AAd?$AA?5?$AAn?$AAu?$AAl?$AAl?$AA?5?$AAp?$AAo?$AAi?$AAn?$AAt?$AAe?$AAr?$AA?$AA@
CONST	SEGMENT
??_C@_1CK@EOPGIILJ@?$AAi?$AAn?$AAv?$AAa?$AAl?$AAi?$AAd?$AA?5?$AAn?$AAu?$AAl?$AAl?$AA?5?$AAp?$AAo?$AAi?$AAn?$AAt?$AAe?$AAr?$AA?$AA@ DB 'i'
	DB	00H, 'n', 00H, 'v', 00H, 'a', 00H, 'l', 00H, 'i', 00H, 'd', 00H
	DB	' ', 00H, 'n', 00H, 'u', 00H, 'l', 00H, 'l', 00H, ' ', 00H, 'p'
	DB	00H, 'o', 00H, 'i', 00H, 'n', 00H, 't', 00H, 'e', 00H, 'r', 00H
	DB	00H, 00H					; `string'
CONST	ENDS
;	COMDAT ??_C@_0BD@OLBABOEK@vector?$DMT?$DO?5too?5long?$AA@
CONST	SEGMENT
??_C@_0BD@OLBABOEK@vector?$DMT?$DO?5too?5long?$AA@ DB 'vector<T> too long'
	DB	00H						; `string'
CONST	ENDS
;	COMDAT ??_C@_1HG@EBINAPHK@?$AAs?$AAt?$AAd?$AA?3?$AA?3?$AAv?$AAe?$AAc?$AAt?$AAo?$AAr?$AA?$DM?$AAc?$AAh?$AAa?$AAr?$AA?0?$AAc?$AAl?$AAa?$AAs?$AAs?$AA?5?$AAs?$AAt?$AAd?$AA?3?$AA?3?$AAa?$AAl?$AAl?$AAo@
CONST	SEGMENT
??_C@_1HG@EBINAPHK@?$AAs?$AAt?$AAd?$AA?3?$AA?3?$AAv?$AAe?$AAc?$AAt?$AAo?$AAr?$AA?$DM?$AAc?$AAh?$AAa?$AAr?$AA?0?$AAc?$AAl?$AAa?$AAs?$AAs?$AA?5?$AAs?$AAt?$AAd?$AA?3?$AA?3?$AAa?$AAl?$AAl?$AAo@ DB 's'
	DB	00H, 't', 00H, 'd', 00H, ':', 00H, ':', 00H, 'v', 00H, 'e', 00H
	DB	'c', 00H, 't', 00H, 'o', 00H, 'r', 00H, '<', 00H, 'c', 00H, 'h'
	DB	00H, 'a', 00H, 'r', 00H, ',', 00H, 'c', 00H, 'l', 00H, 'a', 00H
	DB	's', 00H, 's', 00H, ' ', 00H, 's', 00H, 't', 00H, 'd', 00H, ':'
	DB	00H, ':', 00H, 'a', 00H, 'l', 00H, 'l', 00H, 'o', 00H, 'c', 00H
	DB	'a', 00H, 't', 00H, 'o', 00H, 'r', 00H, '<', 00H, 'c', 00H, 'h'
	DB	00H, 'a', 00H, 'r', 00H, '>', 00H, ' ', 00H, '>', 00H, ':', 00H
	DB	':', 00H, 'o', 00H, 'p', 00H, 'e', 00H, 'r', 00H, 'a', 00H, 't'
	DB	00H, 'o', 00H, 'r', 00H, ' ', 00H, '[', 00H, ']', 00H, 00H, 00H ; `string'
CONST	ENDS
;	COMDAT ??_C@_1BO@MEPPHOO@?$AA?$CC?$AAo?$AAu?$AAt?$AA?5?$AAo?$AAf?$AA?5?$AAr?$AAa?$AAn?$AAg?$AAe?$AA?$CC?$AA?$AA@
CONST	SEGMENT
??_C@_1BO@MEPPHOO@?$AA?$CC?$AAo?$AAu?$AAt?$AA?5?$AAo?$AAf?$AA?5?$AAr?$AAa?$AAn?$AAg?$AAe?$AA?$CC?$AA?$AA@ DB '"'
	DB	00H, 'o', 00H, 'u', 00H, 't', 00H, ' ', 00H, 'o', 00H, 'f', 00H
	DB	' ', 00H, 'r', 00H, 'a', 00H, 'n', 00H, 'g', 00H, 'e', 00H, '"'
	DB	00H, 00H, 00H				; `string'
CONST	ENDS
;	COMDAT ??_C@_1HC@HBCEAHKD@?$AAs?$AAt?$AAd?$AA?3?$AA?3?$AAv?$AAe?$AAc?$AAt?$AAo?$AAr?$AA?$DM?$AAi?$AAn?$AAt?$AA?0?$AAc?$AAl?$AAa?$AAs?$AAs?$AA?5?$AAs?$AAt?$AAd?$AA?3?$AA?3?$AAa?$AAl?$AAl?$AAo?$AAc@
CONST	SEGMENT
??_C@_1HC@HBCEAHKD@?$AAs?$AAt?$AAd?$AA?3?$AA?3?$AAv?$AAe?$AAc?$AAt?$AAo?$AAr?$AA?$DM?$AAi?$AAn?$AAt?$AA?0?$AAc?$AAl?$AAa?$AAs?$AAs?$AA?5?$AAs?$AAt?$AAd?$AA?3?$AA?3?$AAa?$AAl?$AAl?$AAo?$AAc@ DB 's'
	DB	00H, 't', 00H, 'd', 00H, ':', 00H, ':', 00H, 'v', 00H, 'e', 00H
	DB	'c', 00H, 't', 00H, 'o', 00H, 'r', 00H, '<', 00H, 'i', 00H, 'n'
	DB	00H, 't', 00H, ',', 00H, 'c', 00H, 'l', 00H, 'a', 00H, 's', 00H
	DB	's', 00H, ' ', 00H, 's', 00H, 't', 00H, 'd', 00H, ':', 00H, ':'
	DB	00H, 'a', 00H, 'l', 00H, 'l', 00H, 'o', 00H, 'c', 00H, 'a', 00H
	DB	't', 00H, 'o', 00H, 'r', 00H, '<', 00H, 'i', 00H, 'n', 00H, 't'
	DB	00H, '>', 00H, ' ', 00H, '>', 00H, ':', 00H, ':', 00H, 'o', 00H
	DB	'p', 00H, 'e', 00H, 'r', 00H, 'a', 00H, 't', 00H, 'o', 00H, 'r'
	DB	00H, ' ', 00H, '[', 00H, ']', 00H, 00H, 00H	; `string'
CONST	ENDS
;	COMDAT ??_C@_17CNPHIMPH@?$AA?$CF?$AAl?$AAs?$AA?$AA@
CONST	SEGMENT
??_C@_17CNPHIMPH@?$AA?$CF?$AAl?$AAs?$AA?$AA@ DB '%', 00H, 'l', 00H, 's', 00H
	DB	00H, 00H					; `string'
CONST	ENDS
;	COMDAT ??_C@_1FG@IBPIFFN@?$AA?$CC?$AAS?$AAt?$AAa?$AAn?$AAd?$AAa?$AAr?$AAd?$AA?5?$AAC?$AA?$CL?$AA?$CL?$AA?5?$AAL?$AAi?$AAb?$AAr?$AAa?$AAr?$AAi?$AAe?$AAs?$AA?5?$AAO?$AAu?$AAt?$AA?5?$AAo?$AAf?$AA?5?$AAR@
CONST	SEGMENT
??_C@_1FG@IBPIFFN@?$AA?$CC?$AAS?$AAt?$AAa?$AAn?$AAd?$AAa?$AAr?$AAd?$AA?5?$AAC?$AA?$CL?$AA?$CL?$AA?5?$AAL?$AAi?$AAb?$AAr?$AAa?$AAr?$AAi?$AAe?$AAs?$AA?5?$AAO?$AAu?$AAt?$AA?5?$AAo?$AAf?$AA?5?$AAR@ DB '"'
	DB	00H, 'S', 00H, 't', 00H, 'a', 00H, 'n', 00H, 'd', 00H, 'a', 00H
	DB	'r', 00H, 'd', 00H, ' ', 00H, 'C', 00H, '+', 00H, '+', 00H, ' '
	DB	00H, 'L', 00H, 'i', 00H, 'b', 00H, 'r', 00H, 'a', 00H, 'r', 00H
	DB	'i', 00H, 'e', 00H, 's', 00H, ' ', 00H, 'O', 00H, 'u', 00H, 't'
	DB	00H, ' ', 00H, 'o', 00H, 'f', 00H, ' ', 00H, 'R', 00H, 'a', 00H
	DB	'n', 00H, 'g', 00H, 'e', 00H, '"', 00H, ' ', 00H, '&', 00H, '&'
	DB	00H, ' ', 00H, '0', 00H, 00H, 00H		; `string'
CONST	ENDS
;	COMDAT ??_C@_0CE@OFMIGAMM@Standard?5C?$CL?$CL?5Libraries?5Out?5of?5Ra@
CONST	SEGMENT
??_C@_0CE@OFMIGAMM@Standard?5C?$CL?$CL?5Libraries?5Out?5of?5Ra@ DB 'Stand'
	DB	'ard C++ Libraries Out of Range', 00H	; `string'
CONST	ENDS
;	COMDAT ??_C@_1DM@LHGCHCBA@?$AAv?$AAe?$AAc?$AAt?$AAo?$AAr?$AA?5?$AAs?$AAu?$AAb?$AAs?$AAc?$AAr?$AAi?$AAp?$AAt?$AA?5?$AAo?$AAu?$AAt?$AA?5?$AAo?$AAf?$AA?5?$AAr?$AAa?$AAn?$AAg?$AAe?$AA?$AA@
CONST	SEGMENT
??_C@_1DM@LHGCHCBA@?$AAv?$AAe?$AAc?$AAt?$AAo?$AAr?$AA?5?$AAs?$AAu?$AAb?$AAs?$AAc?$AAr?$AAi?$AAp?$AAt?$AA?5?$AAo?$AAu?$AAt?$AA?5?$AAo?$AAf?$AA?5?$AAr?$AAa?$AAn?$AAg?$AAe?$AA?$AA@ DB 'v'
	DB	00H, 'e', 00H, 'c', 00H, 't', 00H, 'o', 00H, 'r', 00H, ' ', 00H
	DB	's', 00H, 'u', 00H, 'b', 00H, 's', 00H, 'c', 00H, 'r', 00H, 'i'
	DB	00H, 'p', 00H, 't', 00H, ' ', 00H, 'o', 00H, 'u', 00H, 't', 00H
	DB	' ', 00H, 'o', 00H, 'f', 00H, ' ', 00H, 'r', 00H, 'a', 00H, 'n'
	DB	00H, 'g', 00H, 'e', 00H, 00H, 00H		; `string'
CONST	ENDS
;	COMDAT ??_C@_1IM@LECEOODI@?$AAC?$AA?3?$AA?2?$AAP?$AAr?$AAo?$AAg?$AAr?$AAa?$AAm?$AA?5?$AAF?$AAi?$AAl?$AAe?$AAs?$AA?5?$AA?$CI?$AAx?$AA8?$AA6?$AA?$CJ?$AA?2?$AAM?$AAi?$AAc?$AAr?$AAo?$AAs?$AAo?$AAf?$AAt@
CONST	SEGMENT
??_C@_1IM@LECEOODI@?$AAC?$AA?3?$AA?2?$AAP?$AAr?$AAo?$AAg?$AAr?$AAa?$AAm?$AA?5?$AAF?$AAi?$AAl?$AAe?$AAs?$AA?5?$AA?$CI?$AAx?$AA8?$AA6?$AA?$CJ?$AA?2?$AAM?$AAi?$AAc?$AAr?$AAo?$AAs?$AAo?$AAf?$AAt@ DB 'C'
	DB	00H, ':', 00H, '\', 00H, 'P', 00H, 'r', 00H, 'o', 00H, 'g', 00H
	DB	'r', 00H, 'a', 00H, 'm', 00H, ' ', 00H, 'F', 00H, 'i', 00H, 'l'
	DB	00H, 'e', 00H, 's', 00H, ' ', 00H, '(', 00H, 'x', 00H, '8', 00H
	DB	'6', 00H, ')', 00H, '\', 00H, 'M', 00H, 'i', 00H, 'c', 00H, 'r'
	DB	00H, 'o', 00H, 's', 00H, 'o', 00H, 'f', 00H, 't', 00H, ' ', 00H
	DB	'V', 00H, 'i', 00H, 's', 00H, 'u', 00H, 'a', 00H, 'l', 00H, ' '
	DB	00H, 'S', 00H, 't', 00H, 'u', 00H, 'd', 00H, 'i', 00H, 'o', 00H
	DB	' ', 00H, '1', 00H, '4', 00H, '.', 00H, '0', 00H, '\', 00H, 'V'
	DB	00H, 'C', 00H, '\', 00H, 'i', 00H, 'n', 00H, 'c', 00H, 'l', 00H
	DB	'u', 00H, 'd', 00H, 'e', 00H, '\', 00H, 'v', 00H, 'e', 00H, 'c'
	DB	00H, 't', 00H, 'o', 00H, 'r', 00H, 00H, 00H	; `string'
CONST	ENDS
;	COMDAT ??_C@_1DC@POOIKBAO@?$AAI?$AAT?$AAE?$AAR?$AAA?$AAT?$AAO?$AAR?$AA?5?$AAL?$AAI?$AAS?$AAT?$AA?5?$AAC?$AAO?$AAR?$AAR?$AAU?$AAP?$AAT?$AAE?$AAD?$AA?$CB?$AA?$AA@
CONST	SEGMENT
??_C@_1DC@POOIKBAO@?$AAI?$AAT?$AAE?$AAR?$AAA?$AAT?$AAO?$AAR?$AA?5?$AAL?$AAI?$AAS?$AAT?$AA?5?$AAC?$AAO?$AAR?$AAR?$AAU?$AAP?$AAT?$AAE?$AAD?$AA?$CB?$AA?$AA@ DB 'I'
	DB	00H, 'T', 00H, 'E', 00H, 'R', 00H, 'A', 00H, 'T', 00H, 'O', 00H
	DB	'R', 00H, ' ', 00H, 'L', 00H, 'I', 00H, 'S', 00H, 'T', 00H, ' '
	DB	00H, 'C', 00H, 'O', 00H, 'R', 00H, 'R', 00H, 'U', 00H, 'P', 00H
	DB	'T', 00H, 'E', 00H, 'D', 00H, '!', 00H, 00H, 00H ; `string'
CONST	ENDS
;	COMDAT ??_C@_1JA@IJKHNLMB@?$AAC?$AA?3?$AA?2?$AAP?$AAr?$AAo?$AAg?$AAr?$AAa?$AAm?$AA?5?$AAF?$AAi?$AAl?$AAe?$AAs?$AA?5?$AA?$CI?$AAx?$AA8?$AA6?$AA?$CJ?$AA?2?$AAM?$AAi?$AAc?$AAr?$AAo?$AAs?$AAo?$AAf?$AAt@
CONST	SEGMENT
??_C@_1JA@IJKHNLMB@?$AAC?$AA?3?$AA?2?$AAP?$AAr?$AAo?$AAg?$AAr?$AAa?$AAm?$AA?5?$AAF?$AAi?$AAl?$AAe?$AAs?$AA?5?$AA?$CI?$AAx?$AA8?$AA6?$AA?$CJ?$AA?2?$AAM?$AAi?$AAc?$AAr?$AAo?$AAs?$AAo?$AAf?$AAt@ DB 'C'
	DB	00H, ':', 00H, '\', 00H, 'P', 00H, 'r', 00H, 'o', 00H, 'g', 00H
	DB	'r', 00H, 'a', 00H, 'm', 00H, ' ', 00H, 'F', 00H, 'i', 00H, 'l'
	DB	00H, 'e', 00H, 's', 00H, ' ', 00H, '(', 00H, 'x', 00H, '8', 00H
	DB	'6', 00H, ')', 00H, '\', 00H, 'M', 00H, 'i', 00H, 'c', 00H, 'r'
	DB	00H, 'o', 00H, 's', 00H, 'o', 00H, 'f', 00H, 't', 00H, ' ', 00H
	DB	'V', 00H, 'i', 00H, 's', 00H, 'u', 00H, 'a', 00H, 'l', 00H, ' '
	DB	00H, 'S', 00H, 't', 00H, 'u', 00H, 'd', 00H, 'i', 00H, 'o', 00H
	DB	' ', 00H, '1', 00H, '4', 00H, '.', 00H, '0', 00H, '\', 00H, 'V'
	DB	00H, 'C', 00H, '\', 00H, 'i', 00H, 'n', 00H, 'c', 00H, 'l', 00H
	DB	'u', 00H, 'd', 00H, 'e', 00H, '\', 00H, 'x', 00H, 'u', 00H, 't'
	DB	00H, 'i', 00H, 'l', 00H, 'i', 00H, 't', 00H, 'y', 00H, 00H, 00H ; `string'
CONST	ENDS
;	COMDAT xdata$x
xdata$x	SEGMENT
__unwindtable$??$_Debug_range_ptr2@V?$_Array_iterator@N$09@std@@U?$plus@X@2@@std@@YAXV?$_Array_iterator@N$09@0@0AAU?$plus@X@0@PB_WIUrandom_access_iterator_tag@0@@Z DD 0ffffffffH
	DD	FLAT:__unwindfunclet$??$_Debug_range_ptr2@V?$_Array_iterator@N$09@std@@U?$plus@X@2@@std@@YAXV?$_Array_iterator@N$09@0@0AAU?$plus@X@0@PB_WIUrandom_access_iterator_tag@0@@Z$0
	DD	00H
	DD	FLAT:__unwindfunclet$??$_Debug_range_ptr2@V?$_Array_iterator@N$09@std@@U?$plus@X@2@@std@@YAXV?$_Array_iterator@N$09@0@0AAU?$plus@X@0@PB_WIUrandom_access_iterator_tag@0@@Z$1
__ehfuncinfo$??$_Debug_range_ptr2@V?$_Array_iterator@N$09@std@@U?$plus@X@2@@std@@YAXV?$_Array_iterator@N$09@0@0AAU?$plus@X@0@PB_WIUrandom_access_iterator_tag@0@@Z DD 019930522H
	DD	02H
	DD	FLAT:__unwindtable$??$_Debug_range_ptr2@V?$_Array_iterator@N$09@std@@U?$plus@X@2@@std@@YAXV?$_Array_iterator@N$09@0@0AAU?$plus@X@0@PB_WIUrandom_access_iterator_tag@0@@Z
	DD	2 DUP(00H)
	DD	2 DUP(00H)
	DD	00H
	DD	01H
xdata$x	ENDS
;	COMDAT xdata$x
xdata$x	SEGMENT
__unwindtable$??$_Debug_range2@V?$_Array_iterator@N$09@std@@@std@@YAXV?$_Array_iterator@N$09@0@0PB_WIUrandom_access_iterator_tag@0@@Z DD 0ffffffffH
	DD	FLAT:__unwindfunclet$??$_Debug_range2@V?$_Array_iterator@N$09@std@@@std@@YAXV?$_Array_iterator@N$09@0@0PB_WIUrandom_access_iterator_tag@0@@Z$0
	DD	00H
	DD	FLAT:__unwindfunclet$??$_Debug_range2@V?$_Array_iterator@N$09@std@@@std@@YAXV?$_Array_iterator@N$09@0@0PB_WIUrandom_access_iterator_tag@0@@Z$1
__ehfuncinfo$??$_Debug_range2@V?$_Array_iterator@N$09@std@@@std@@YAXV?$_Array_iterator@N$09@0@0PB_WIUrandom_access_iterator_tag@0@@Z DD 019930522H
	DD	02H
	DD	FLAT:__unwindtable$??$_Debug_range2@V?$_Array_iterator@N$09@std@@@std@@YAXV?$_Array_iterator@N$09@0@0PB_WIUrandom_access_iterator_tag@0@@Z
	DD	2 DUP(00H)
	DD	2 DUP(00H)
	DD	00H
	DD	01H
xdata$x	ENDS
;	COMDAT xdata$x
xdata$x	SEGMENT
__unwindtable$??$_Debug_range_ptr@V?$_Array_iterator@N$09@std@@U?$plus@X@2@@std@@YAXV?$_Array_iterator@N$09@0@0AAU?$plus@X@0@PB_WI@Z DD 0ffffffffH
	DD	FLAT:__unwindfunclet$??$_Debug_range_ptr@V?$_Array_iterator@N$09@std@@U?$plus@X@2@@std@@YAXV?$_Array_iterator@N$09@0@0AAU?$plus@X@0@PB_WI@Z$0
	DD	00H
	DD	FLAT:__unwindfunclet$??$_Debug_range_ptr@V?$_Array_iterator@N$09@std@@U?$plus@X@2@@std@@YAXV?$_Array_iterator@N$09@0@0AAU?$plus@X@0@PB_WI@Z$1
	DD	01H
	DD	FLAT:__unwindfunclet$??$_Debug_range_ptr@V?$_Array_iterator@N$09@std@@U?$plus@X@2@@std@@YAXV?$_Array_iterator@N$09@0@0AAU?$plus@X@0@PB_WI@Z$2
__ehfuncinfo$??$_Debug_range_ptr@V?$_Array_iterator@N$09@std@@U?$plus@X@2@@std@@YAXV?$_Array_iterator@N$09@0@0AAU?$plus@X@0@PB_WI@Z DD 019930522H
	DD	03H
	DD	FLAT:__unwindtable$??$_Debug_range_ptr@V?$_Array_iterator@N$09@std@@U?$plus@X@2@@std@@YAXV?$_Array_iterator@N$09@0@0AAU?$plus@X@0@PB_WI@Z
	DD	2 DUP(00H)
	DD	2 DUP(00H)
	DD	00H
	DD	01H
xdata$x	ENDS
;	COMDAT xdata$x
xdata$x	SEGMENT
__unwindtable$??$_Unchecked@N$09@std@@YAPANV?$_Array_iterator@N$09@0@@Z DD 0ffffffffH
	DD	FLAT:__unwindfunclet$??$_Unchecked@N$09@std@@YAPANV?$_Array_iterator@N$09@0@@Z$0
__ehfuncinfo$??$_Unchecked@N$09@std@@YAPANV?$_Array_iterator@N$09@0@@Z DD 019930522H
	DD	01H
	DD	FLAT:__unwindtable$??$_Unchecked@N$09@std@@YAPANV?$_Array_iterator@N$09@0@@Z
	DD	2 DUP(00H)
	DD	2 DUP(00H)
	DD	00H
	DD	01H
xdata$x	ENDS
;	COMDAT xdata$x
xdata$x	SEGMENT
__unwindtable$??$_Debug_range@V?$_Array_iterator@N$09@std@@@std@@YAXV?$_Array_iterator@N$09@0@0PB_WI@Z DD 0ffffffffH
	DD	FLAT:__unwindfunclet$??$_Debug_range@V?$_Array_iterator@N$09@std@@@std@@YAXV?$_Array_iterator@N$09@0@0PB_WI@Z$0
	DD	00H
	DD	FLAT:__unwindfunclet$??$_Debug_range@V?$_Array_iterator@N$09@std@@@std@@YAXV?$_Array_iterator@N$09@0@0PB_WI@Z$1
	DD	01H
	DD	FLAT:__unwindfunclet$??$_Debug_range@V?$_Array_iterator@N$09@std@@@std@@YAXV?$_Array_iterator@N$09@0@0PB_WI@Z$2
__ehfuncinfo$??$_Debug_range@V?$_Array_iterator@N$09@std@@@std@@YAXV?$_Array_iterator@N$09@0@0PB_WI@Z DD 019930522H
	DD	03H
	DD	FLAT:__unwindtable$??$_Debug_range@V?$_Array_iterator@N$09@std@@@std@@YAXV?$_Array_iterator@N$09@0@0PB_WI@Z
	DD	2 DUP(00H)
	DD	2 DUP(00H)
	DD	00H
	DD	01H
xdata$x	ENDS
;	COMDAT xdata$x
xdata$x	SEGMENT
__catchsym$??$_Uninit_move@PAVplain_particle@@PAV1@V?$allocator@Vplain_particle@@@std@@V1@@std@@YAPAVplain_particle@@PAV1@00AAU?$_Wrap_alloc@V?$allocator@Vplain_particle@@@std@@@0@0U_Nonscalar_ptr_iterator_tag@0@@Z$2 DD 040H
	DD	00H
	DD	00H
	DD	FLAT:__catch$??$_Uninit_move@PAVplain_particle@@PAV1@V?$allocator@Vplain_particle@@@std@@V1@@std@@YAPAVplain_particle@@PAV1@00AAU?$_Wrap_alloc@V?$allocator@Vplain_particle@@@std@@@0@0U_Nonscalar_ptr_iterator_tag@0@@Z$0
__unwindtable$??$_Uninit_move@PAVplain_particle@@PAV1@V?$allocator@Vplain_particle@@@std@@V1@@std@@YAPAVplain_particle@@PAV1@00AAU?$_Wrap_alloc@V?$allocator@Vplain_particle@@@std@@@0@0U_Nonscalar_ptr_iterator_tag@0@@Z DD 0ffffffffH
	DD	00H
	DD	0ffffffffH
	DD	00H
__tryblocktable$??$_Uninit_move@PAVplain_particle@@PAV1@V?$allocator@Vplain_particle@@@std@@V1@@std@@YAPAVplain_particle@@PAV1@00AAU?$_Wrap_alloc@V?$allocator@Vplain_particle@@@std@@@0@0U_Nonscalar_ptr_iterator_tag@0@@Z DD 00H
	DD	00H
	DD	01H
	DD	01H
	DD	FLAT:__catchsym$??$_Uninit_move@PAVplain_particle@@PAV1@V?$allocator@Vplain_particle@@@std@@V1@@std@@YAPAVplain_particle@@PAV1@00AAU?$_Wrap_alloc@V?$allocator@Vplain_particle@@@std@@@0@0U_Nonscalar_ptr_iterator_tag@0@@Z$2
__ehfuncinfo$??$_Uninit_move@PAVplain_particle@@PAV1@V?$allocator@Vplain_particle@@@std@@V1@@std@@YAPAVplain_particle@@PAV1@00AAU?$_Wrap_alloc@V?$allocator@Vplain_particle@@@std@@@0@0U_Nonscalar_ptr_iterator_tag@0@@Z DD 019930522H
	DD	02H
	DD	FLAT:__unwindtable$??$_Uninit_move@PAVplain_particle@@PAV1@V?$allocator@Vplain_particle@@@std@@V1@@std@@YAPAVplain_particle@@PAV1@00AAU?$_Wrap_alloc@V?$allocator@Vplain_particle@@@std@@@0@0U_Nonscalar_ptr_iterator_tag@0@@Z
	DD	01H
	DD	FLAT:__tryblocktable$??$_Uninit_move@PAVplain_particle@@PAV1@V?$allocator@Vplain_particle@@@std@@V1@@std@@YAPAVplain_particle@@PAV1@00AAU?$_Wrap_alloc@V?$allocator@Vplain_particle@@@std@@@0@0U_Nonscalar_ptr_iterator_tag@0@@Z
	DD	2 DUP(00H)
	DD	00H
	DD	01H
xdata$x	ENDS
;	COMDAT xdata$x
xdata$x	SEGMENT
__unwindtable$??$accumulate@V?$_Array_iterator@N$09@std@@NU?$plus@X@2@@std@@YANV?$_Array_iterator@N$09@0@0NU?$plus@X@0@@Z DD 0ffffffffH
	DD	FLAT:__unwindfunclet$??$accumulate@V?$_Array_iterator@N$09@std@@NU?$plus@X@2@@std@@YANV?$_Array_iterator@N$09@0@0NU?$plus@X@0@@Z$0
	DD	00H
	DD	FLAT:__unwindfunclet$??$accumulate@V?$_Array_iterator@N$09@std@@NU?$plus@X@2@@std@@YANV?$_Array_iterator@N$09@0@0NU?$plus@X@0@@Z$1
	DD	01H
	DD	FLAT:__unwindfunclet$??$accumulate@V?$_Array_iterator@N$09@std@@NU?$plus@X@2@@std@@YANV?$_Array_iterator@N$09@0@0NU?$plus@X@0@@Z$2
__ehfuncinfo$??$accumulate@V?$_Array_iterator@N$09@std@@NU?$plus@X@2@@std@@YANV?$_Array_iterator@N$09@0@0NU?$plus@X@0@@Z DD 019930522H
	DD	03H
	DD	FLAT:__unwindtable$??$accumulate@V?$_Array_iterator@N$09@std@@NU?$plus@X@2@@std@@YANV?$_Array_iterator@N$09@0@0NU?$plus@X@0@@Z
	DD	2 DUP(00H)
	DD	2 DUP(00H)
	DD	00H
	DD	01H
xdata$x	ENDS
;	COMDAT xdata$x
xdata$x	SEGMENT
__unwindtable$??$sort@V?$_Array_iterator@N$09@std@@U?$less@X@2@@std@@YAXV?$_Array_iterator@N$09@0@0U?$less@X@0@@Z DD 0ffffffffH
	DD	FLAT:__unwindfunclet$??$sort@V?$_Array_iterator@N$09@std@@U?$less@X@2@@std@@YAXV?$_Array_iterator@N$09@0@0U?$less@X@0@@Z$0
	DD	00H
	DD	FLAT:__unwindfunclet$??$sort@V?$_Array_iterator@N$09@std@@U?$less@X@2@@std@@YAXV?$_Array_iterator@N$09@0@0U?$less@X@0@@Z$1
	DD	01H
	DD	FLAT:__unwindfunclet$??$sort@V?$_Array_iterator@N$09@std@@U?$less@X@2@@std@@YAXV?$_Array_iterator@N$09@0@0U?$less@X@0@@Z$2
__ehfuncinfo$??$sort@V?$_Array_iterator@N$09@std@@U?$less@X@2@@std@@YAXV?$_Array_iterator@N$09@0@0U?$less@X@0@@Z DD 019930522H
	DD	03H
	DD	FLAT:__unwindtable$??$sort@V?$_Array_iterator@N$09@std@@U?$less@X@2@@std@@YAXV?$_Array_iterator@N$09@0@0U?$less@X@0@@Z
	DD	2 DUP(00H)
	DD	2 DUP(00H)
	DD	00H
	DD	01H
xdata$x	ENDS
;	COMDAT xdata$x
xdata$x	SEGMENT
__unwindtable$??$accumulate@V?$_Array_iterator@N$09@std@@N@std@@YANV?$_Array_iterator@N$09@0@0N@Z DD 0ffffffffH
	DD	FLAT:__unwindfunclet$??$accumulate@V?$_Array_iterator@N$09@std@@N@std@@YANV?$_Array_iterator@N$09@0@0N@Z$0
	DD	00H
	DD	FLAT:__unwindfunclet$??$accumulate@V?$_Array_iterator@N$09@std@@N@std@@YANV?$_Array_iterator@N$09@0@0N@Z$1
	DD	01H
	DD	FLAT:__unwindfunclet$??$accumulate@V?$_Array_iterator@N$09@std@@N@std@@YANV?$_Array_iterator@N$09@0@0N@Z$2
__ehfuncinfo$??$accumulate@V?$_Array_iterator@N$09@std@@N@std@@YANV?$_Array_iterator@N$09@0@0N@Z DD 019930522H
	DD	03H
	DD	FLAT:__unwindtable$??$accumulate@V?$_Array_iterator@N$09@std@@N@std@@YANV?$_Array_iterator@N$09@0@0N@Z
	DD	2 DUP(00H)
	DD	2 DUP(00H)
	DD	00H
	DD	01H
xdata$x	ENDS
;	COMDAT xdata$x
xdata$x	SEGMENT
__unwindtable$??$sort@V?$_Array_iterator@N$09@std@@@std@@YAXV?$_Array_iterator@N$09@0@0@Z DD 0ffffffffH
	DD	FLAT:__unwindfunclet$??$sort@V?$_Array_iterator@N$09@std@@@std@@YAXV?$_Array_iterator@N$09@0@0@Z$0
	DD	00H
	DD	FLAT:__unwindfunclet$??$sort@V?$_Array_iterator@N$09@std@@@std@@YAXV?$_Array_iterator@N$09@0@0@Z$1
	DD	01H
	DD	FLAT:__unwindfunclet$??$sort@V?$_Array_iterator@N$09@std@@@std@@YAXV?$_Array_iterator@N$09@0@0@Z$2
__ehfuncinfo$??$sort@V?$_Array_iterator@N$09@std@@@std@@YAXV?$_Array_iterator@N$09@0@0@Z DD 019930522H
	DD	03H
	DD	FLAT:__unwindtable$??$sort@V?$_Array_iterator@N$09@std@@@std@@YAXV?$_Array_iterator@N$09@0@0@Z
	DD	2 DUP(00H)
	DD	2 DUP(00H)
	DD	00H
	DD	01H
xdata$x	ENDS
;	COMDAT xdata$x
xdata$x	SEGMENT
__unwindtable$??G?$_Array_iterator@N$09@std@@QBE?AV01@H@Z DD 0ffffffffH
	DD	FLAT:__unwindfunclet$??G?$_Array_iterator@N$09@std@@QBE?AV01@H@Z$0
__ehfuncinfo$??G?$_Array_iterator@N$09@std@@QBE?AV01@H@Z DD 019930522H
	DD	01H
	DD	FLAT:__unwindtable$??G?$_Array_iterator@N$09@std@@QBE?AV01@H@Z
	DD	2 DUP(00H)
	DD	2 DUP(00H)
	DD	00H
	DD	01H
xdata$x	ENDS
;	COMDAT xdata$x
xdata$x	SEGMENT
__unwindtable$??H?$_Array_iterator@N$09@std@@QBE?AV01@H@Z DD 0ffffffffH
	DD	FLAT:__unwindfunclet$??H?$_Array_iterator@N$09@std@@QBE?AV01@H@Z$0
__ehfuncinfo$??H?$_Array_iterator@N$09@std@@QBE?AV01@H@Z DD 019930522H
	DD	01H
	DD	FLAT:__unwindtable$??H?$_Array_iterator@N$09@std@@QBE?AV01@H@Z
	DD	2 DUP(00H)
	DD	2 DUP(00H)
	DD	00H
	DD	01H
xdata$x	ENDS
;	COMDAT xdata$x
xdata$x	SEGMENT
__ehfuncinfo$?end@?$array@N$09@std@@QAE?AV?$_Array_iterator@N$09@2@XZ DD 019930522H
	DD	00H
	DD	00H
	DD	2 DUP(00H)
	DD	2 DUP(00H)
	DD	00H
	DD	05H
xdata$x	ENDS
;	COMDAT xdata$x
xdata$x	SEGMENT
__ehfuncinfo$?begin@?$array@N$09@std@@QAE?AV?$_Array_iterator@N$09@2@XZ DD 019930522H
	DD	00H
	DD	00H
	DD	2 DUP(00H)
	DD	2 DUP(00H)
	DD	00H
	DD	05H
xdata$x	ENDS
;	COMDAT xdata$x
xdata$x	SEGMENT
__unwindtable$??$measure@V<lambda_4c02ba5ef62215ee51f4e58ccd3418c3>@@@@YANV<lambda_4c02ba5ef62215ee51f4e58ccd3418c3>@@@Z DD 0ffffffffH
	DD	FLAT:__unwindfunclet$??$measure@V<lambda_4c02ba5ef62215ee51f4e58ccd3418c3>@@@@YANV<lambda_4c02ba5ef62215ee51f4e58ccd3418c3>@@@Z$2
	DD	00H
	DD	FLAT:__unwindfunclet$??$measure@V<lambda_4c02ba5ef62215ee51f4e58ccd3418c3>@@@@YANV<lambda_4c02ba5ef62215ee51f4e58ccd3418c3>@@@Z$3
	DD	01H
	DD	FLAT:__unwindfunclet$??$measure@V<lambda_4c02ba5ef62215ee51f4e58ccd3418c3>@@@@YANV<lambda_4c02ba5ef62215ee51f4e58ccd3418c3>@@@Z$4
	DD	00H
	DD	FLAT:__unwindfunclet$??$measure@V<lambda_4c02ba5ef62215ee51f4e58ccd3418c3>@@@@YANV<lambda_4c02ba5ef62215ee51f4e58ccd3418c3>@@@Z$4
__ehfuncinfo$??$measure@V<lambda_4c02ba5ef62215ee51f4e58ccd3418c3>@@@@YANV<lambda_4c02ba5ef62215ee51f4e58ccd3418c3>@@@Z DD 019930522H
	DD	04H
	DD	FLAT:__unwindtable$??$measure@V<lambda_4c02ba5ef62215ee51f4e58ccd3418c3>@@@@YANV<lambda_4c02ba5ef62215ee51f4e58ccd3418c3>@@@Z
	DD	2 DUP(00H)
	DD	2 DUP(00H)
	DD	00H
	DD	01H
xdata$x	ENDS
;	COMDAT xdata$x
xdata$x	SEGMENT
__unwindtable$??$measure@V<lambda_668201fb256ca3039b30842ebf04ef83>@@@@YANV<lambda_668201fb256ca3039b30842ebf04ef83>@@@Z DD 0ffffffffH
	DD	FLAT:__unwindfunclet$??$measure@V<lambda_668201fb256ca3039b30842ebf04ef83>@@@@YANV<lambda_668201fb256ca3039b30842ebf04ef83>@@@Z$2
	DD	00H
	DD	FLAT:__unwindfunclet$??$measure@V<lambda_668201fb256ca3039b30842ebf04ef83>@@@@YANV<lambda_668201fb256ca3039b30842ebf04ef83>@@@Z$3
	DD	01H
	DD	FLAT:__unwindfunclet$??$measure@V<lambda_668201fb256ca3039b30842ebf04ef83>@@@@YANV<lambda_668201fb256ca3039b30842ebf04ef83>@@@Z$4
	DD	00H
	DD	FLAT:__unwindfunclet$??$measure@V<lambda_668201fb256ca3039b30842ebf04ef83>@@@@YANV<lambda_668201fb256ca3039b30842ebf04ef83>@@@Z$4
__ehfuncinfo$??$measure@V<lambda_668201fb256ca3039b30842ebf04ef83>@@@@YANV<lambda_668201fb256ca3039b30842ebf04ef83>@@@Z DD 019930522H
	DD	04H
	DD	FLAT:__unwindtable$??$measure@V<lambda_668201fb256ca3039b30842ebf04ef83>@@@@YANV<lambda_668201fb256ca3039b30842ebf04ef83>@@@Z
	DD	2 DUP(00H)
	DD	2 DUP(00H)
	DD	00H
	DD	01H
xdata$x	ENDS
;	COMDAT xdata$x
xdata$x	SEGMENT
__unwindtable$??$measure@V<lambda_a29049cf6153b725a6a331d7121b9876>@@@@YANV<lambda_a29049cf6153b725a6a331d7121b9876>@@@Z DD 0ffffffffH
	DD	FLAT:__unwindfunclet$??$measure@V<lambda_a29049cf6153b725a6a331d7121b9876>@@@@YANV<lambda_a29049cf6153b725a6a331d7121b9876>@@@Z$2
	DD	00H
	DD	FLAT:__unwindfunclet$??$measure@V<lambda_a29049cf6153b725a6a331d7121b9876>@@@@YANV<lambda_a29049cf6153b725a6a331d7121b9876>@@@Z$3
	DD	01H
	DD	FLAT:__unwindfunclet$??$measure@V<lambda_a29049cf6153b725a6a331d7121b9876>@@@@YANV<lambda_a29049cf6153b725a6a331d7121b9876>@@@Z$4
	DD	00H
	DD	FLAT:__unwindfunclet$??$measure@V<lambda_a29049cf6153b725a6a331d7121b9876>@@@@YANV<lambda_a29049cf6153b725a6a331d7121b9876>@@@Z$4
__ehfuncinfo$??$measure@V<lambda_a29049cf6153b725a6a331d7121b9876>@@@@YANV<lambda_a29049cf6153b725a6a331d7121b9876>@@@Z DD 019930522H
	DD	04H
	DD	FLAT:__unwindtable$??$measure@V<lambda_a29049cf6153b725a6a331d7121b9876>@@@@YANV<lambda_a29049cf6153b725a6a331d7121b9876>@@@Z
	DD	2 DUP(00H)
	DD	2 DUP(00H)
	DD	00H
	DD	01H
xdata$x	ENDS
;	COMDAT xdata$x
xdata$x	SEGMENT
__ehfuncinfo$??$measure@V<lambda_ce14b79be95f650ececed4b3079e7cf8>@@@@YANV<lambda_ce14b79be95f650ececed4b3079e7cf8>@@@Z DD 019930522H
	DD	05H
	DD	FLAT:__unwindtable$??$measure@V<lambda_ce14b79be95f650ececed4b3079e7cf8>@@@@YANV<lambda_ce14b79be95f650ececed4b3079e7cf8>@@@Z
	DD	2 DUP(00H)
	DD	2 DUP(00H)
	DD	00H
	DD	01H
__unwindtable$??$measure@V<lambda_ce14b79be95f650ececed4b3079e7cf8>@@@@YANV<lambda_ce14b79be95f650ececed4b3079e7cf8>@@@Z DD 0ffffffffH
	DD	FLAT:__unwindfunclet$??$measure@V<lambda_ce14b79be95f650ececed4b3079e7cf8>@@@@YANV<lambda_ce14b79be95f650ececed4b3079e7cf8>@@@Z$0
	DD	00H
	DD	FLAT:__unwindfunclet$??$measure@V<lambda_ce14b79be95f650ececed4b3079e7cf8>@@@@YANV<lambda_ce14b79be95f650ececed4b3079e7cf8>@@@Z$3
	DD	01H
	DD	FLAT:__unwindfunclet$??$measure@V<lambda_ce14b79be95f650ececed4b3079e7cf8>@@@@YANV<lambda_ce14b79be95f650ececed4b3079e7cf8>@@@Z$4
	DD	02H
	DD	FLAT:__unwindfunclet$??$measure@V<lambda_ce14b79be95f650ececed4b3079e7cf8>@@@@YANV<lambda_ce14b79be95f650ececed4b3079e7cf8>@@@Z$5
	DD	01H
	DD	FLAT:__unwindfunclet$??$measure@V<lambda_ce14b79be95f650ececed4b3079e7cf8>@@@@YANV<lambda_ce14b79be95f650ececed4b3079e7cf8>@@@Z$5
xdata$x	ENDS
;	COMDAT xdata$x
xdata$x	SEGMENT
__unwindtable$??$measure@V<lambda_fe4b9e6fc2b2fbcfeea78297fbfefccb>@@@@YANV<lambda_fe4b9e6fc2b2fbcfeea78297fbfefccb>@@@Z DD 0ffffffffH
	DD	FLAT:__unwindfunclet$??$measure@V<lambda_fe4b9e6fc2b2fbcfeea78297fbfefccb>@@@@YANV<lambda_fe4b9e6fc2b2fbcfeea78297fbfefccb>@@@Z$2
	DD	00H
	DD	FLAT:__unwindfunclet$??$measure@V<lambda_fe4b9e6fc2b2fbcfeea78297fbfefccb>@@@@YANV<lambda_fe4b9e6fc2b2fbcfeea78297fbfefccb>@@@Z$3
	DD	01H
	DD	FLAT:__unwindfunclet$??$measure@V<lambda_fe4b9e6fc2b2fbcfeea78297fbfefccb>@@@@YANV<lambda_fe4b9e6fc2b2fbcfeea78297fbfefccb>@@@Z$4
	DD	00H
	DD	FLAT:__unwindfunclet$??$measure@V<lambda_fe4b9e6fc2b2fbcfeea78297fbfefccb>@@@@YANV<lambda_fe4b9e6fc2b2fbcfeea78297fbfefccb>@@@Z$4
__ehfuncinfo$??$measure@V<lambda_fe4b9e6fc2b2fbcfeea78297fbfefccb>@@@@YANV<lambda_fe4b9e6fc2b2fbcfeea78297fbfefccb>@@@Z DD 019930522H
	DD	04H
	DD	FLAT:__unwindtable$??$measure@V<lambda_fe4b9e6fc2b2fbcfeea78297fbfefccb>@@@@YANV<lambda_fe4b9e6fc2b2fbcfeea78297fbfefccb>@@@Z
	DD	2 DUP(00H)
	DD	2 DUP(00H)
	DD	00H
	DD	01H
xdata$x	ENDS
;	COMDAT xdata$x
xdata$x	SEGMENT
__unwindtable$??$measure@V<lambda_4bb02fb8e2d5361150321278473362ff>@@@@YANV<lambda_4bb02fb8e2d5361150321278473362ff>@@@Z DD 0ffffffffH
	DD	FLAT:__unwindfunclet$??$measure@V<lambda_4bb02fb8e2d5361150321278473362ff>@@@@YANV<lambda_4bb02fb8e2d5361150321278473362ff>@@@Z$2
	DD	00H
	DD	FLAT:__unwindfunclet$??$measure@V<lambda_4bb02fb8e2d5361150321278473362ff>@@@@YANV<lambda_4bb02fb8e2d5361150321278473362ff>@@@Z$3
	DD	01H
	DD	FLAT:__unwindfunclet$??$measure@V<lambda_4bb02fb8e2d5361150321278473362ff>@@@@YANV<lambda_4bb02fb8e2d5361150321278473362ff>@@@Z$4
	DD	00H
	DD	FLAT:__unwindfunclet$??$measure@V<lambda_4bb02fb8e2d5361150321278473362ff>@@@@YANV<lambda_4bb02fb8e2d5361150321278473362ff>@@@Z$4
__ehfuncinfo$??$measure@V<lambda_4bb02fb8e2d5361150321278473362ff>@@@@YANV<lambda_4bb02fb8e2d5361150321278473362ff>@@@Z DD 019930522H
	DD	04H
	DD	FLAT:__unwindtable$??$measure@V<lambda_4bb02fb8e2d5361150321278473362ff>@@@@YANV<lambda_4bb02fb8e2d5361150321278473362ff>@@@Z
	DD	2 DUP(00H)
	DD	2 DUP(00H)
	DD	00H
	DD	01H
xdata$x	ENDS
;	COMDAT xdata$x
xdata$x	SEGMENT
__unwindtable$??$measure@V<lambda_0e8cd367240c9f8b6afbbc7d85139419>@@@@YANV<lambda_0e8cd367240c9f8b6afbbc7d85139419>@@@Z DD 0ffffffffH
	DD	FLAT:__unwindfunclet$??$measure@V<lambda_0e8cd367240c9f8b6afbbc7d85139419>@@@@YANV<lambda_0e8cd367240c9f8b6afbbc7d85139419>@@@Z$2
	DD	00H
	DD	FLAT:__unwindfunclet$??$measure@V<lambda_0e8cd367240c9f8b6afbbc7d85139419>@@@@YANV<lambda_0e8cd367240c9f8b6afbbc7d85139419>@@@Z$3
	DD	01H
	DD	FLAT:__unwindfunclet$??$measure@V<lambda_0e8cd367240c9f8b6afbbc7d85139419>@@@@YANV<lambda_0e8cd367240c9f8b6afbbc7d85139419>@@@Z$4
	DD	00H
	DD	FLAT:__unwindfunclet$??$measure@V<lambda_0e8cd367240c9f8b6afbbc7d85139419>@@@@YANV<lambda_0e8cd367240c9f8b6afbbc7d85139419>@@@Z$4
__ehfuncinfo$??$measure@V<lambda_0e8cd367240c9f8b6afbbc7d85139419>@@@@YANV<lambda_0e8cd367240c9f8b6afbbc7d85139419>@@@Z DD 019930522H
	DD	04H
	DD	FLAT:__unwindtable$??$measure@V<lambda_0e8cd367240c9f8b6afbbc7d85139419>@@@@YANV<lambda_0e8cd367240c9f8b6afbbc7d85139419>@@@Z
	DD	2 DUP(00H)
	DD	2 DUP(00H)
	DD	00H
	DD	01H
xdata$x	ENDS
;	COMDAT xdata$x
xdata$x	SEGMENT
__ehfuncinfo$??$measure@V<lambda_3c38aff788b9781cf78ca5a917f16ae4>@@@@YANV<lambda_3c38aff788b9781cf78ca5a917f16ae4>@@@Z DD 019930522H
	DD	05H
	DD	FLAT:__unwindtable$??$measure@V<lambda_3c38aff788b9781cf78ca5a917f16ae4>@@@@YANV<lambda_3c38aff788b9781cf78ca5a917f16ae4>@@@Z
	DD	2 DUP(00H)
	DD	2 DUP(00H)
	DD	00H
	DD	01H
__unwindtable$??$measure@V<lambda_3c38aff788b9781cf78ca5a917f16ae4>@@@@YANV<lambda_3c38aff788b9781cf78ca5a917f16ae4>@@@Z DD 0ffffffffH
	DD	FLAT:__unwindfunclet$??$measure@V<lambda_3c38aff788b9781cf78ca5a917f16ae4>@@@@YANV<lambda_3c38aff788b9781cf78ca5a917f16ae4>@@@Z$0
	DD	00H
	DD	FLAT:__unwindfunclet$??$measure@V<lambda_3c38aff788b9781cf78ca5a917f16ae4>@@@@YANV<lambda_3c38aff788b9781cf78ca5a917f16ae4>@@@Z$3
	DD	01H
	DD	FLAT:__unwindfunclet$??$measure@V<lambda_3c38aff788b9781cf78ca5a917f16ae4>@@@@YANV<lambda_3c38aff788b9781cf78ca5a917f16ae4>@@@Z$4
	DD	02H
	DD	FLAT:__unwindfunclet$??$measure@V<lambda_3c38aff788b9781cf78ca5a917f16ae4>@@@@YANV<lambda_3c38aff788b9781cf78ca5a917f16ae4>@@@Z$5
	DD	01H
	DD	FLAT:__unwindfunclet$??$measure@V<lambda_3c38aff788b9781cf78ca5a917f16ae4>@@@@YANV<lambda_3c38aff788b9781cf78ca5a917f16ae4>@@@Z$5
xdata$x	ENDS
;	COMDAT xdata$x
xdata$x	SEGMENT
__ehfuncinfo$??1sentry@?$basic_ostream@DU?$char_traits@D@std@@@std@@QAE@XZ DD 019930522H
	DD	00H
	DD	00H
	DD	2 DUP(00H)
	DD	2 DUP(00H)
	DD	00H
	DD	05H
xdata$x	ENDS
;	COMDAT xdata$x
xdata$x	SEGMENT
__unwindtable$??0sentry@?$basic_ostream@DU?$char_traits@D@std@@@std@@QAE@AAV12@@Z DD 0ffffffffH
	DD	FLAT:__unwindfunclet$??0sentry@?$basic_ostream@DU?$char_traits@D@std@@@std@@QAE@AAV12@@Z$0
__ehfuncinfo$??0sentry@?$basic_ostream@DU?$char_traits@D@std@@@std@@QAE@AAV12@@Z DD 019930522H
	DD	01H
	DD	FLAT:__unwindtable$??0sentry@?$basic_ostream@DU?$char_traits@D@std@@@std@@QAE@AAV12@@Z
	DD	2 DUP(00H)
	DD	2 DUP(00H)
	DD	00H
	DD	01H
xdata$x	ENDS
;	COMDAT xdata$x
xdata$x	SEGMENT
__ehfuncinfo$??1_Sentry_base@?$basic_ostream@DU?$char_traits@D@std@@@std@@QAE@XZ DD 019930522H
	DD	00H
	DD	00H
	DD	2 DUP(00H)
	DD	2 DUP(00H)
	DD	00H
	DD	05H
xdata$x	ENDS
;	COMDAT xdata$x
xdata$x	SEGMENT
__unwindtable$??$measure@V<lambda_ce14b79be95f650ececed4b3079e7cf8>@@@@YANV<lambda_ce14b79be95f650ececed4b3079e7cf8>@@I@Z DD 0ffffffffH
	DD	FLAT:__unwindfunclet$??$measure@V<lambda_ce14b79be95f650ececed4b3079e7cf8>@@@@YANV<lambda_ce14b79be95f650ececed4b3079e7cf8>@@I@Z$0
__ehfuncinfo$??$measure@V<lambda_ce14b79be95f650ececed4b3079e7cf8>@@@@YANV<lambda_ce14b79be95f650ececed4b3079e7cf8>@@I@Z DD 019930522H
	DD	01H
	DD	FLAT:__unwindtable$??$measure@V<lambda_ce14b79be95f650ececed4b3079e7cf8>@@@@YANV<lambda_ce14b79be95f650ececed4b3079e7cf8>@@I@Z
	DD	2 DUP(00H)
	DD	2 DUP(00H)
	DD	00H
	DD	01H
xdata$x	ENDS
;	COMDAT xdata$x
xdata$x	SEGMENT
__unwindtable$??$render@V?$_Vector_iterator@V?$_Vector_val@U?$_Simple_types@Vplain_particle@@@std@@@std@@@std@@I@@YAHV?$_Vector_iterator@V?$_Vector_val@U?$_Simple_types@Vplain_particle@@@std@@@std@@@std@@I@Z DD 0ffffffffH
	DD	FLAT:__unwindfunclet$??$render@V?$_Vector_iterator@V?$_Vector_val@U?$_Simple_types@Vplain_particle@@@std@@@std@@@std@@I@@YAHV?$_Vector_iterator@V?$_Vector_val@U?$_Simple_types@Vplain_particle@@@std@@@std@@@std@@I@Z$0
__ehfuncinfo$??$render@V?$_Vector_iterator@V?$_Vector_val@U?$_Simple_types@Vplain_particle@@@std@@@std@@@std@@I@@YAHV?$_Vector_iterator@V?$_Vector_val@U?$_Simple_types@Vplain_particle@@@std@@@std@@@std@@I@Z DD 019930522H
	DD	01H
	DD	FLAT:__unwindtable$??$render@V?$_Vector_iterator@V?$_Vector_val@U?$_Simple_types@Vplain_particle@@@std@@@std@@@std@@I@@YAHV?$_Vector_iterator@V?$_Vector_val@U?$_Simple_types@Vplain_particle@@@std@@@std@@@std@@I@Z
	DD	2 DUP(00H)
	DD	2 DUP(00H)
	DD	00H
	DD	01H
xdata$x	ENDS
;	COMDAT xdata$x
xdata$x	SEGMENT
__unwindtable$??$measure@V<lambda_3c38aff788b9781cf78ca5a917f16ae4>@@@@YANV<lambda_3c38aff788b9781cf78ca5a917f16ae4>@@I@Z DD 0ffffffffH
	DD	FLAT:__unwindfunclet$??$measure@V<lambda_3c38aff788b9781cf78ca5a917f16ae4>@@@@YANV<lambda_3c38aff788b9781cf78ca5a917f16ae4>@@I@Z$0
__ehfuncinfo$??$measure@V<lambda_3c38aff788b9781cf78ca5a917f16ae4>@@@@YANV<lambda_3c38aff788b9781cf78ca5a917f16ae4>@@I@Z DD 019930522H
	DD	01H
	DD	FLAT:__unwindtable$??$measure@V<lambda_3c38aff788b9781cf78ca5a917f16ae4>@@@@YANV<lambda_3c38aff788b9781cf78ca5a917f16ae4>@@I@Z
	DD	2 DUP(00H)
	DD	2 DUP(00H)
	DD	00H
	DD	01H
xdata$x	ENDS
;	COMDAT xdata$x
xdata$x	SEGMENT
__unwindtable$??$render@V?$_Vector_iterator@V?$_Vector_val@U?$_Simple_types@Vplain_particle@@@std@@@std@@@std@@@@YAHV?$_Vector_iterator@V?$_Vector_val@U?$_Simple_types@Vplain_particle@@@std@@@std@@@std@@0@Z DD 0ffffffffH
	DD	FLAT:__unwindfunclet$??$render@V?$_Vector_iterator@V?$_Vector_val@U?$_Simple_types@Vplain_particle@@@std@@@std@@@std@@@@YAHV?$_Vector_iterator@V?$_Vector_val@U?$_Simple_types@Vplain_particle@@@std@@@std@@@std@@0@Z$0
	DD	00H
	DD	FLAT:__unwindfunclet$??$render@V?$_Vector_iterator@V?$_Vector_val@U?$_Simple_types@Vplain_particle@@@std@@@std@@@std@@@@YAHV?$_Vector_iterator@V?$_Vector_val@U?$_Simple_types@Vplain_particle@@@std@@@std@@@std@@0@Z$1
	DD	01H
	DD	FLAT:__unwindfunclet$??$render@V?$_Vector_iterator@V?$_Vector_val@U?$_Simple_types@Vplain_particle@@@std@@@std@@@std@@@@YAHV?$_Vector_iterator@V?$_Vector_val@U?$_Simple_types@Vplain_particle@@@std@@@std@@@std@@0@Z$2
__ehfuncinfo$??$render@V?$_Vector_iterator@V?$_Vector_val@U?$_Simple_types@Vplain_particle@@@std@@@std@@@std@@@@YAHV?$_Vector_iterator@V?$_Vector_val@U?$_Simple_types@Vplain_particle@@@std@@@std@@@std@@0@Z DD 019930522H
	DD	03H
	DD	FLAT:__unwindtable$??$render@V?$_Vector_iterator@V?$_Vector_val@U?$_Simple_types@Vplain_particle@@@std@@@std@@@std@@@@YAHV?$_Vector_iterator@V?$_Vector_val@U?$_Simple_types@Vplain_particle@@@std@@@std@@@std@@0@Z
	DD	2 DUP(00H)
	DD	2 DUP(00H)
	DD	00H
	DD	01H
xdata$x	ENDS
;	COMDAT xdata$x
xdata$x	SEGMENT
__unwindtable$??0<lambda_3c38aff788b9781cf78ca5a917f16ae4>@@QAE@ABV0@@Z DD 0ffffffffH
	DD	FLAT:__unwindfunclet$??0<lambda_3c38aff788b9781cf78ca5a917f16ae4>@@QAE@ABV0@@Z$0
__ehfuncinfo$??0<lambda_3c38aff788b9781cf78ca5a917f16ae4>@@QAE@ABV0@@Z DD 019930522H
	DD	01H
	DD	FLAT:__unwindtable$??0<lambda_3c38aff788b9781cf78ca5a917f16ae4>@@QAE@ABV0@@Z
	DD	2 DUP(00H)
	DD	2 DUP(00H)
	DD	00H
	DD	01H
xdata$x	ENDS
;	COMDAT xdata$x
xdata$x	SEGMENT
__unwindtable$??0<lambda_3c38aff788b9781cf78ca5a917f16ae4>@@QAE@ABV?$_Vector_iterator@V?$_Vector_val@U?$_Simple_types@Vplain_particle@@@std@@@std@@@std@@0@Z DD 0ffffffffH
	DD	FLAT:__unwindfunclet$??0<lambda_3c38aff788b9781cf78ca5a917f16ae4>@@QAE@ABV?$_Vector_iterator@V?$_Vector_val@U?$_Simple_types@Vplain_particle@@@std@@@std@@@std@@0@Z$0
__ehfuncinfo$??0<lambda_3c38aff788b9781cf78ca5a917f16ae4>@@QAE@ABV?$_Vector_iterator@V?$_Vector_val@U?$_Simple_types@Vplain_particle@@@std@@@std@@@std@@0@Z DD 019930522H
	DD	01H
	DD	FLAT:__unwindtable$??0<lambda_3c38aff788b9781cf78ca5a917f16ae4>@@QAE@ABV?$_Vector_iterator@V?$_Vector_val@U?$_Simple_types@Vplain_particle@@@std@@@std@@@std@@0@Z
	DD	2 DUP(00H)
	DD	2 DUP(00H)
	DD	00H
	DD	01H
xdata$x	ENDS
;	COMDAT xdata$x
xdata$x	SEGMENT
__unwindtable$??R<lambda_3c38aff788b9781cf78ca5a917f16ae4>@@QBEHXZ DD 0ffffffffH
	DD	FLAT:__unwindfunclet$??R<lambda_3c38aff788b9781cf78ca5a917f16ae4>@@QBEHXZ$0
__ehfuncinfo$??R<lambda_3c38aff788b9781cf78ca5a917f16ae4>@@QBEHXZ DD 019930522H
	DD	01H
	DD	FLAT:__unwindtable$??R<lambda_3c38aff788b9781cf78ca5a917f16ae4>@@QBEHXZ
	DD	2 DUP(00H)
	DD	2 DUP(00H)
	DD	00H
	DD	01H
xdata$x	ENDS
;	COMDAT xdata$x
xdata$x	SEGMENT
__unwindtable$??A?$_Vector_iterator@V?$_Vector_val@U?$_Simple_types@Vplain_particle@@@std@@@std@@@std@@QBEAAVplain_particle@@H@Z DD 0ffffffffH
	DD	FLAT:__unwindfunclet$??A?$_Vector_iterator@V?$_Vector_val@U?$_Simple_types@Vplain_particle@@@std@@@std@@@std@@QBEAAVplain_particle@@H@Z$0
__ehfuncinfo$??A?$_Vector_iterator@V?$_Vector_val@U?$_Simple_types@Vplain_particle@@@std@@@std@@@std@@QBEAAVplain_particle@@H@Z DD 019930522H
	DD	01H
	DD	FLAT:__unwindtable$??A?$_Vector_iterator@V?$_Vector_val@U?$_Simple_types@Vplain_particle@@@std@@@std@@@std@@QBEAAVplain_particle@@H@Z
	DD	2 DUP(00H)
	DD	2 DUP(00H)
	DD	00H
	DD	01H
xdata$x	ENDS
;	COMDAT xdata$x
xdata$x	SEGMENT
__unwindtable$??H?$_Vector_iterator@V?$_Vector_val@U?$_Simple_types@Vplain_particle@@@std@@@std@@@std@@QBE?AV01@H@Z DD 0ffffffffH
	DD	FLAT:__unwindfunclet$??H?$_Vector_iterator@V?$_Vector_val@U?$_Simple_types@Vplain_particle@@@std@@@std@@@std@@QBE?AV01@H@Z$0
__ehfuncinfo$??H?$_Vector_iterator@V?$_Vector_val@U?$_Simple_types@Vplain_particle@@@std@@@std@@@std@@QBE?AV01@H@Z DD 019930522H
	DD	01H
	DD	FLAT:__unwindtable$??H?$_Vector_iterator@V?$_Vector_val@U?$_Simple_types@Vplain_particle@@@std@@@std@@@std@@QBE?AV01@H@Z
	DD	2 DUP(00H)
	DD	2 DUP(00H)
	DD	00H
	DD	01H
xdata$x	ENDS
;	COMDAT xdata$x
xdata$x	SEGMENT
__unwindtable$??E?$_Vector_iterator@V?$_Vector_val@U?$_Simple_types@Vplain_particle@@@std@@@std@@@std@@QAE?AV01@H@Z DD 0ffffffffH
	DD	FLAT:__unwindfunclet$??E?$_Vector_iterator@V?$_Vector_val@U?$_Simple_types@Vplain_particle@@@std@@@std@@@std@@QAE?AV01@H@Z$0
__ehfuncinfo$??E?$_Vector_iterator@V?$_Vector_val@U?$_Simple_types@Vplain_particle@@@std@@@std@@@std@@QAE?AV01@H@Z DD 019930522H
	DD	01H
	DD	FLAT:__unwindtable$??E?$_Vector_iterator@V?$_Vector_val@U?$_Simple_types@Vplain_particle@@@std@@@std@@@std@@QAE?AV01@H@Z
	DD	2 DUP(00H)
	DD	2 DUP(00H)
	DD	00H
	DD	01H
xdata$x	ENDS
;	COMDAT xdata$x
xdata$x	SEGMENT
__unwindtable$??0?$_Vector_const_iterator@V?$_Vector_val@U?$_Simple_types@Vplain_particle@@@std@@@std@@@std@@QAE@PAVplain_particle@@PBU_Container_base12@1@@Z DD 0ffffffffH
	DD	FLAT:__unwindfunclet$??0?$_Vector_const_iterator@V?$_Vector_val@U?$_Simple_types@Vplain_particle@@@std@@@std@@@std@@QAE@PAVplain_particle@@PBU_Container_base12@1@@Z$0
__ehfuncinfo$??0?$_Vector_const_iterator@V?$_Vector_val@U?$_Simple_types@Vplain_particle@@@std@@@std@@@std@@QAE@PAVplain_particle@@PBU_Container_base12@1@@Z DD 019930522H
	DD	01H
	DD	FLAT:__unwindtable$??0?$_Vector_const_iterator@V?$_Vector_val@U?$_Simple_types@Vplain_particle@@@std@@@std@@@std@@QAE@PAVplain_particle@@PBU_Container_base12@1@@Z
	DD	2 DUP(00H)
	DD	2 DUP(00H)
	DD	00H
	DD	01H
xdata$x	ENDS
;	COMDAT xdata$x
xdata$x	SEGMENT
__unwindtable$?_Orphan_range@?$vector@Vplain_particle@@V?$allocator@Vplain_particle@@@std@@@std@@IBEXPAVplain_particle@@0@Z DD 0ffffffffH
	DD	FLAT:__unwindfunclet$?_Orphan_range@?$vector@Vplain_particle@@V?$allocator@Vplain_particle@@@std@@@std@@IBEXPAVplain_particle@@0@Z$0
__ehfuncinfo$?_Orphan_range@?$vector@Vplain_particle@@V?$allocator@Vplain_particle@@@std@@@std@@IBEXPAVplain_particle@@0@Z DD 019930522H
	DD	01H
	DD	FLAT:__unwindtable$?_Orphan_range@?$vector@Vplain_particle@@V?$allocator@Vplain_particle@@@std@@@std@@IBEXPAVplain_particle@@0@Z
	DD	2 DUP(00H)
	DD	2 DUP(00H)
	DD	00H
	DD	01H
xdata$x	ENDS
;	COMDAT xdata$x
xdata$x	SEGMENT
__catchsym$?_Reallocate@?$vector@Vplain_particle@@V?$allocator@Vplain_particle@@@std@@@std@@IAEXI@Z$2 DD 040H
	DD	00H
	DD	00H
	DD	FLAT:__catch$?_Reallocate@?$vector@Vplain_particle@@V?$allocator@Vplain_particle@@@std@@@std@@IAEXI@Z$0
__unwindtable$?_Reallocate@?$vector@Vplain_particle@@V?$allocator@Vplain_particle@@@std@@@std@@IAEXI@Z DD 0ffffffffH
	DD	00H
	DD	0ffffffffH
	DD	00H
__tryblocktable$?_Reallocate@?$vector@Vplain_particle@@V?$allocator@Vplain_particle@@@std@@@std@@IAEXI@Z DD 00H
	DD	00H
	DD	01H
	DD	01H
	DD	FLAT:__catchsym$?_Reallocate@?$vector@Vplain_particle@@V?$allocator@Vplain_particle@@@std@@@std@@IAEXI@Z$2
__ehfuncinfo$?_Reallocate@?$vector@Vplain_particle@@V?$allocator@Vplain_particle@@@std@@@std@@IAEXI@Z DD 019930522H
	DD	02H
	DD	FLAT:__unwindtable$?_Reallocate@?$vector@Vplain_particle@@V?$allocator@Vplain_particle@@@std@@@std@@IAEXI@Z
	DD	01H
	DD	FLAT:__tryblocktable$?_Reallocate@?$vector@Vplain_particle@@V?$allocator@Vplain_particle@@@std@@@std@@IAEXI@Z
	DD	2 DUP(00H)
	DD	00H
	DD	01H
xdata$x	ENDS
;	COMDAT xdata$x
xdata$x	SEGMENT
__ehfuncinfo$?end@?$vector@Vplain_particle@@V?$allocator@Vplain_particle@@@std@@@std@@QAE?AV?$_Vector_iterator@V?$_Vector_val@U?$_Simple_types@Vplain_particle@@@std@@@std@@@2@XZ DD 019930522H
	DD	00H
	DD	00H
	DD	2 DUP(00H)
	DD	2 DUP(00H)
	DD	00H
	DD	05H
xdata$x	ENDS
;	COMDAT xdata$x
xdata$x	SEGMENT
__ehfuncinfo$?begin@?$vector@Vplain_particle@@V?$allocator@Vplain_particle@@@std@@@std@@QAE?AV?$_Vector_iterator@V?$_Vector_val@U?$_Simple_types@Vplain_particle@@@std@@@std@@@2@XZ DD 019930522H
	DD	00H
	DD	00H
	DD	2 DUP(00H)
	DD	2 DUP(00H)
	DD	00H
	DD	05H
xdata$x	ENDS
;	COMDAT xdata$x
xdata$x	SEGMENT
__ehfuncinfo$??1?$vector@Vplain_particle@@V?$allocator@Vplain_particle@@@std@@@std@@QAE@XZ DD 019930522H
	DD	00H
	DD	00H
	DD	2 DUP(00H)
	DD	2 DUP(00H)
	DD	00H
	DD	05H
xdata$x	ENDS
;	COMDAT xdata$x
xdata$x	SEGMENT
__ehfuncinfo$??0?$vector@Vplain_particle@@V?$allocator@Vplain_particle@@@std@@@std@@QAE@XZ DD 019930522H
	DD	00H
	DD	00H
	DD	2 DUP(00H)
	DD	2 DUP(00H)
	DD	00H
	DD	05H
xdata$x	ENDS
;	COMDAT xdata$x
xdata$x	SEGMENT
__ehfuncinfo$??1?$_Vector_alloc@U?$_Vec_base_types@Vplain_particle@@V?$allocator@Vplain_particle@@@std@@@std@@@std@@QAE@XZ DD 019930522H
	DD	00H
	DD	00H
	DD	2 DUP(00H)
	DD	2 DUP(00H)
	DD	00H
	DD	05H
xdata$x	ENDS
;	COMDAT xdata$x
xdata$x	SEGMENT
__unwindtable$??0?$_Vector_alloc@U?$_Vec_base_types@Vplain_particle@@V?$allocator@Vplain_particle@@@std@@@std@@@std@@QAE@ABV?$allocator@Vplain_particle@@@1@@Z DD 0ffffffffH
	DD	FLAT:__unwindfunclet$??0?$_Vector_alloc@U?$_Vec_base_types@Vplain_particle@@V?$allocator@Vplain_particle@@@std@@@std@@@std@@QAE@ABV?$allocator@Vplain_particle@@@1@@Z$0
__ehfuncinfo$??0?$_Vector_alloc@U?$_Vec_base_types@Vplain_particle@@V?$allocator@Vplain_particle@@@std@@@std@@@std@@QAE@ABV?$allocator@Vplain_particle@@@1@@Z DD 019930522H
	DD	01H
	DD	FLAT:__unwindtable$??0?$_Vector_alloc@U?$_Vec_base_types@Vplain_particle@@V?$allocator@Vplain_particle@@@std@@@std@@@std@@QAE@ABV?$allocator@Vplain_particle@@@1@@Z
	DD	2 DUP(00H)
	DD	2 DUP(00H)
	DD	00H
	DD	01H
xdata$x	ENDS
;	COMDAT xdata$x
xdata$x	SEGMENT
__unwindtable$?_Orphan_range@?$vector@HV?$allocator@H@std@@@std@@IBEXPAH0@Z DD 0ffffffffH
	DD	FLAT:__unwindfunclet$?_Orphan_range@?$vector@HV?$allocator@H@std@@@std@@IBEXPAH0@Z$0
__ehfuncinfo$?_Orphan_range@?$vector@HV?$allocator@H@std@@@std@@IBEXPAH0@Z DD 019930522H
	DD	01H
	DD	FLAT:__unwindtable$?_Orphan_range@?$vector@HV?$allocator@H@std@@@std@@IBEXPAH0@Z
	DD	2 DUP(00H)
	DD	2 DUP(00H)
	DD	00H
	DD	01H
xdata$x	ENDS
;	COMDAT xdata$x
xdata$x	SEGMENT
__catchsym$?_Reallocate@?$vector@HV?$allocator@H@std@@@std@@IAEXI@Z$2 DD 040H
	DD	00H
	DD	00H
	DD	FLAT:__catch$?_Reallocate@?$vector@HV?$allocator@H@std@@@std@@IAEXI@Z$0
__unwindtable$?_Reallocate@?$vector@HV?$allocator@H@std@@@std@@IAEXI@Z DD 0ffffffffH
	DD	00H
	DD	0ffffffffH
	DD	00H
__tryblocktable$?_Reallocate@?$vector@HV?$allocator@H@std@@@std@@IAEXI@Z DD 00H
	DD	00H
	DD	01H
	DD	01H
	DD	FLAT:__catchsym$?_Reallocate@?$vector@HV?$allocator@H@std@@@std@@IAEXI@Z$2
__ehfuncinfo$?_Reallocate@?$vector@HV?$allocator@H@std@@@std@@IAEXI@Z DD 019930522H
	DD	02H
	DD	FLAT:__unwindtable$?_Reallocate@?$vector@HV?$allocator@H@std@@@std@@IAEXI@Z
	DD	01H
	DD	FLAT:__tryblocktable$?_Reallocate@?$vector@HV?$allocator@H@std@@@std@@IAEXI@Z
	DD	2 DUP(00H)
	DD	00H
	DD	01H
xdata$x	ENDS
;	COMDAT xdata$x
xdata$x	SEGMENT
__ehfuncinfo$??1?$vector@HV?$allocator@H@std@@@std@@QAE@XZ DD 019930522H
	DD	00H
	DD	00H
	DD	2 DUP(00H)
	DD	2 DUP(00H)
	DD	00H
	DD	05H
xdata$x	ENDS
;	COMDAT xdata$x
xdata$x	SEGMENT
__ehfuncinfo$??0?$vector@HV?$allocator@H@std@@@std@@QAE@XZ DD 019930522H
	DD	00H
	DD	00H
	DD	2 DUP(00H)
	DD	2 DUP(00H)
	DD	00H
	DD	05H
xdata$x	ENDS
;	COMDAT xdata$x
xdata$x	SEGMENT
__ehfuncinfo$??1?$_Vector_alloc@U?$_Vec_base_types@HV?$allocator@H@std@@@std@@@std@@QAE@XZ DD 019930522H
	DD	00H
	DD	00H
	DD	2 DUP(00H)
	DD	2 DUP(00H)
	DD	00H
	DD	05H
xdata$x	ENDS
;	COMDAT xdata$x
xdata$x	SEGMENT
__unwindtable$??0?$_Vector_alloc@U?$_Vec_base_types@HV?$allocator@H@std@@@std@@@std@@QAE@ABV?$allocator@H@1@@Z DD 0ffffffffH
	DD	FLAT:__unwindfunclet$??0?$_Vector_alloc@U?$_Vec_base_types@HV?$allocator@H@std@@@std@@@std@@QAE@ABV?$allocator@H@1@@Z$0
__ehfuncinfo$??0?$_Vector_alloc@U?$_Vec_base_types@HV?$allocator@H@std@@@std@@@std@@QAE@ABV?$allocator@H@1@@Z DD 019930522H
	DD	01H
	DD	FLAT:__unwindtable$??0?$_Vector_alloc@U?$_Vec_base_types@HV?$allocator@H@std@@@std@@@std@@QAE@ABV?$allocator@H@1@@Z
	DD	2 DUP(00H)
	DD	2 DUP(00H)
	DD	00H
	DD	01H
xdata$x	ENDS
;	COMDAT xdata$x
xdata$x	SEGMENT
__unwindtable$?_Orphan_range@?$vector@DV?$allocator@D@std@@@std@@IBEXPAD0@Z DD 0ffffffffH
	DD	FLAT:__unwindfunclet$?_Orphan_range@?$vector@DV?$allocator@D@std@@@std@@IBEXPAD0@Z$0
__ehfuncinfo$?_Orphan_range@?$vector@DV?$allocator@D@std@@@std@@IBEXPAD0@Z DD 019930522H
	DD	01H
	DD	FLAT:__unwindtable$?_Orphan_range@?$vector@DV?$allocator@D@std@@@std@@IBEXPAD0@Z
	DD	2 DUP(00H)
	DD	2 DUP(00H)
	DD	00H
	DD	01H
xdata$x	ENDS
;	COMDAT xdata$x
xdata$x	SEGMENT
__catchsym$?_Reallocate@?$vector@DV?$allocator@D@std@@@std@@IAEXI@Z$2 DD 040H
	DD	00H
	DD	00H
	DD	FLAT:__catch$?_Reallocate@?$vector@DV?$allocator@D@std@@@std@@IAEXI@Z$0
__unwindtable$?_Reallocate@?$vector@DV?$allocator@D@std@@@std@@IAEXI@Z DD 0ffffffffH
	DD	00H
	DD	0ffffffffH
	DD	00H
__tryblocktable$?_Reallocate@?$vector@DV?$allocator@D@std@@@std@@IAEXI@Z DD 00H
	DD	00H
	DD	01H
	DD	01H
	DD	FLAT:__catchsym$?_Reallocate@?$vector@DV?$allocator@D@std@@@std@@IAEXI@Z$2
__ehfuncinfo$?_Reallocate@?$vector@DV?$allocator@D@std@@@std@@IAEXI@Z DD 019930522H
	DD	02H
	DD	FLAT:__unwindtable$?_Reallocate@?$vector@DV?$allocator@D@std@@@std@@IAEXI@Z
	DD	01H
	DD	FLAT:__tryblocktable$?_Reallocate@?$vector@DV?$allocator@D@std@@@std@@IAEXI@Z
	DD	2 DUP(00H)
	DD	00H
	DD	01H
xdata$x	ENDS
;	COMDAT xdata$x
xdata$x	SEGMENT
__ehfuncinfo$??1?$vector@DV?$allocator@D@std@@@std@@QAE@XZ DD 019930522H
	DD	00H
	DD	00H
	DD	2 DUP(00H)
	DD	2 DUP(00H)
	DD	00H
	DD	05H
xdata$x	ENDS
;	COMDAT xdata$x
xdata$x	SEGMENT
__ehfuncinfo$??0?$vector@DV?$allocator@D@std@@@std@@QAE@XZ DD 019930522H
	DD	00H
	DD	00H
	DD	2 DUP(00H)
	DD	2 DUP(00H)
	DD	00H
	DD	05H
xdata$x	ENDS
;	COMDAT xdata$x
xdata$x	SEGMENT
__ehfuncinfo$??1?$_Vector_alloc@U?$_Vec_base_types@DV?$allocator@D@std@@@std@@@std@@QAE@XZ DD 019930522H
	DD	00H
	DD	00H
	DD	2 DUP(00H)
	DD	2 DUP(00H)
	DD	00H
	DD	05H
xdata$x	ENDS
;	COMDAT xdata$x
xdata$x	SEGMENT
__unwindtable$??0?$_Vector_alloc@U?$_Vec_base_types@DV?$allocator@D@std@@@std@@@std@@QAE@ABV?$allocator@D@1@@Z DD 0ffffffffH
	DD	FLAT:__unwindfunclet$??0?$_Vector_alloc@U?$_Vec_base_types@DV?$allocator@D@std@@@std@@@std@@QAE@ABV?$allocator@D@1@@Z$0
__ehfuncinfo$??0?$_Vector_alloc@U?$_Vec_base_types@DV?$allocator@D@std@@@std@@@std@@QAE@ABV?$allocator@D@1@@Z DD 019930522H
	DD	01H
	DD	FLAT:__unwindtable$??0?$_Vector_alloc@U?$_Vec_base_types@DV?$allocator@D@std@@@std@@@std@@QAE@ABV?$allocator@D@1@@Z
	DD	2 DUP(00H)
	DD	2 DUP(00H)
	DD	00H
	DD	01H
xdata$x	ENDS
;	COMDAT xdata$x
xdata$x	SEGMENT
__catchsym$??$?6U?$char_traits@D@std@@@std@@YAAAV?$basic_ostream@DU?$char_traits@D@std@@@0@AAV10@PBD@Z$3 DD 040H
	DD	00H
	DD	00H
	DD	FLAT:__catch$??$?6U?$char_traits@D@std@@@std@@YAAAV?$basic_ostream@DU?$char_traits@D@std@@@0@AAV10@PBD@Z$0
__tryblocktable$??$?6U?$char_traits@D@std@@@std@@YAAAV?$basic_ostream@DU?$char_traits@D@std@@@0@AAV10@PBD@Z DD 01H
	DD	01H
	DD	02H
	DD	01H
	DD	FLAT:__catchsym$??$?6U?$char_traits@D@std@@@std@@YAAAV?$basic_ostream@DU?$char_traits@D@std@@@0@AAV10@PBD@Z$3
__unwindtable$??$?6U?$char_traits@D@std@@@std@@YAAAV?$basic_ostream@DU?$char_traits@D@std@@@0@AAV10@PBD@Z DD 0ffffffffH
	DD	FLAT:__unwindfunclet$??$?6U?$char_traits@D@std@@@std@@YAAAV?$basic_ostream@DU?$char_traits@D@std@@@0@AAV10@PBD@Z$2
	DD	00H
	DD	00H
	DD	00H
	DD	00H
__ehfuncinfo$??$?6U?$char_traits@D@std@@@std@@YAAAV?$basic_ostream@DU?$char_traits@D@std@@@0@AAV10@PBD@Z DD 019930522H
	DD	03H
	DD	FLAT:__unwindtable$??$?6U?$char_traits@D@std@@@std@@YAAAV?$basic_ostream@DU?$char_traits@D@std@@@0@AAV10@PBD@Z
	DD	01H
	DD	FLAT:__tryblocktable$??$?6U?$char_traits@D@std@@@std@@YAAAV?$basic_ostream@DU?$char_traits@D@std@@@0@AAV10@PBD@Z
	DD	2 DUP(00H)
	DD	00H
	DD	01H
xdata$x	ENDS
xdata$x	SEGMENT
__ehfuncinfo$_main DD 019930522H
	DD	08H
	DD	FLAT:__unwindtable$_main
	DD	2 DUP(00H)
	DD	2 DUP(00H)
	DD	00H
	DD	01H
__unwindtable$_main DD 0ffffffffH
	DD	FLAT:__unwindfunclet$_main$0
	DD	00H
	DD	FLAT:__unwindfunclet$_main$1
	DD	01H
	DD	FLAT:__unwindfunclet$_main$2
	DD	02H
	DD	FLAT:__unwindfunclet$_main$3
	DD	03H
	DD	FLAT:__unwindfunclet$_main$4
	DD	04H
	DD	FLAT:__unwindfunclet$_main$5
	DD	05H
	DD	FLAT:__unwindfunclet$_main$6
	DD	06H
	DD	FLAT:__unwindfunclet$_main$7
xdata$x	ENDS
;	COMDAT xdata$x
xdata$x	SEGMENT
__ehfuncinfo$?now@steady_clock@chrono@std@@SA?AV?$time_point@Usteady_clock@chrono@std@@V?$duration@_JU?$ratio@$00$0DLJKMKAA@@std@@@23@@23@XZ DD 019930522H
	DD	00H
	DD	00H
	DD	2 DUP(00H)
	DD	2 DUP(00H)
	DD	00H
	DD	05H
xdata$x	ENDS
;	COMDAT xdata$x
xdata$x	SEGMENT
__unwindtable$?_Adopt@_Iterator_base12@std@@QAEXPBU_Container_base12@2@@Z DD 0ffffffffH
	DD	FLAT:__unwindfunclet$?_Adopt@_Iterator_base12@std@@QAEXPBU_Container_base12@2@@Z$0
	DD	0ffffffffH
	DD	FLAT:__unwindfunclet$?_Adopt@_Iterator_base12@std@@QAEXPBU_Container_base12@2@@Z$1
__ehfuncinfo$?_Adopt@_Iterator_base12@std@@QAEXPBU_Container_base12@2@@Z DD 019930522H
	DD	02H
	DD	FLAT:__unwindtable$?_Adopt@_Iterator_base12@std@@QAEXPBU_Container_base12@2@@Z
	DD	2 DUP(00H)
	DD	2 DUP(00H)
	DD	00H
	DD	01H
xdata$x	ENDS
;	COMDAT xdata$x
xdata$x	SEGMENT
__ehfuncinfo$??1_Iterator_base12@std@@QAE@XZ DD 019930522H
	DD	00H
	DD	00H
	DD	2 DUP(00H)
	DD	2 DUP(00H)
	DD	00H
	DD	05H
xdata$x	ENDS
;	COMDAT xdata$x
xdata$x	SEGMENT
__unwindtable$??4_Iterator_base12@std@@QAEAAU01@ABU01@@Z DD 0ffffffffH
	DD	FLAT:__unwindfunclet$??4_Iterator_base12@std@@QAEAAU01@ABU01@@Z$0
__ehfuncinfo$??4_Iterator_base12@std@@QAEAAU01@ABU01@@Z DD 019930522H
	DD	01H
	DD	FLAT:__unwindtable$??4_Iterator_base12@std@@QAEAAU01@ABU01@@Z
	DD	2 DUP(00H)
	DD	2 DUP(00H)
	DD	00H
	DD	01H
xdata$x	ENDS
;	COMDAT xdata$x
xdata$x	SEGMENT
__ehfuncinfo$??1_Container_base12@std@@QAE@XZ DD 019930522H
	DD	00H
	DD	00H
	DD	2 DUP(00H)
	DD	2 DUP(00H)
	DD	00H
	DD	05H
xdata$x	ENDS
CRT$XCU	SEGMENT
?measure_pause$initializer$@@3P6AXXZA DD FLAT:??__Emeasure_pause@@YAXXZ ; measure_pause$initializer$
CRT$XCU	ENDS
; Function compile flags: /Odtp /RTCsu
;	COMDAT ??$_Pop_heap@PANHNU?$less@X@std@@@std@@YAXPAN00$$QANU?$less@X@0@PAH@Z
_TEXT	SEGMENT
__First$ = 8						; size = 4
__Last$ = 12						; size = 4
__Dest$ = 16						; size = 4
__Val$ = 20						; size = 4
__Pred$ = 24						; size = 1
___formal$ = 28						; size = 4
??$_Pop_heap@PANHNU?$less@X@std@@@std@@YAXPAN00$$QANU?$less@X@0@PAH@Z PROC ; std::_Pop_heap<double *,int,double,std::less<void> >, COMDAT
; File c:\program files (x86)\microsoft visual studio 14.0\vc\include\algorithm
; Line 2441
	push	ebp
	mov	ebp, esp
; Line 2442
	mov	eax, DWORD PTR __First$[ebp]
	push	eax
	call	??$_Move@AAN@std@@YA$$QANAAN@Z		; std::_Move<double &>
	add	esp, 4
	mov	ecx, DWORD PTR __Dest$[ebp]
	movsd	xmm0, QWORD PTR [eax]
	movsd	QWORD PTR [ecx], xmm0
; Line 2443
	movzx	edx, BYTE PTR __Pred$[ebp]
	push	edx
	mov	eax, DWORD PTR __Val$[ebp]
	push	eax
	call	??$_Move@AAN@std@@YA$$QANAAN@Z		; std::_Move<double &>
	add	esp, 4
	push	eax
	mov	ecx, DWORD PTR __Last$[ebp]
	sub	ecx, DWORD PTR __First$[ebp]
	sar	ecx, 3
	push	ecx
	push	0
	mov	edx, DWORD PTR __First$[ebp]
	push	edx
	call	??$_Adjust_heap@PANHNU?$less@X@std@@@std@@YAXPANHH$$QANU?$less@X@0@@Z ; std::_Adjust_heap<double *,int,double,std::less<void> >
	add	esp, 20					; 00000014H
; Line 2445
	cmp	ebp, esp
	call	__RTC_CheckEsp
	pop	ebp
	ret	0
??$_Pop_heap@PANHNU?$less@X@std@@@std@@YAXPAN00$$QANU?$less@X@0@PAH@Z ENDP ; std::_Pop_heap<double *,int,double,std::less<void> >
_TEXT	ENDS
; Function compile flags: /Odtp /RTCsu
;	COMDAT ??$_Move_backward@PANPAN@std@@YAPANPAN00U_Scalar_ptr_iterator_tag@0@@Z
_TEXT	SEGMENT
__Count$ = -4						; size = 4
__First$ = 8						; size = 4
__Last$ = 12						; size = 4
__Dest$ = 16						; size = 4
___formal$ = 20						; size = 1
??$_Move_backward@PANPAN@std@@YAPANPAN00U_Scalar_ptr_iterator_tag@0@@Z PROC ; std::_Move_backward<double *,double *>, COMDAT
; File c:\program files (x86)\microsoft visual studio 14.0\vc\include\xutility
; Line 2632
	push	ebp
	mov	ebp, esp
	push	ecx
	push	esi
	mov	DWORD PTR [ebp-4], -858993460		; ccccccccH
; Line 2633
	mov	eax, DWORD PTR __Last$[ebp]
	sub	eax, DWORD PTR __First$[ebp]
	sar	eax, 3
	mov	DWORD PTR __Count$[ebp], eax
; Line 2634
	mov	ecx, DWORD PTR __Count$[ebp]
	shl	ecx, 3
	mov	esi, esp
	push	ecx
	mov	edx, DWORD PTR __First$[ebp]
	push	edx
	mov	eax, DWORD PTR __Count$[ebp]
	shl	eax, 3
	mov	ecx, DWORD PTR __Dest$[ebp]
	sub	ecx, eax
	push	ecx
	call	DWORD PTR __imp__memmove
	add	esp, 12					; 0000000cH
	cmp	esi, esp
	call	__RTC_CheckEsp
; Line 2636
	mov	edx, DWORD PTR __Count$[ebp]
	shl	edx, 3
	mov	eax, DWORD PTR __Dest$[ebp]
	sub	eax, edx
; Line 2637
	pop	esi
	add	esp, 4
	cmp	ebp, esp
	call	__RTC_CheckEsp
	mov	esp, ebp
	pop	ebp
	ret	0
??$_Move_backward@PANPAN@std@@YAPANPAN00U_Scalar_ptr_iterator_tag@0@@Z ENDP ; std::_Move_backward<double *,double *>
_TEXT	ENDS
; Function compile flags: /Odtp /RTCsu
;	COMDAT ??$_Ptr_cat@NN@std@@YA?AU_Scalar_ptr_iterator_tag@0@PAN0@Z
_TEXT	SEGMENT
__Cat$ = -5						; size = 1
___formal$ = 8						; size = 4
___formal$ = 12						; size = 4
??$_Ptr_cat@NN@std@@YA?AU_Scalar_ptr_iterator_tag@0@PAN0@Z PROC ; std::_Ptr_cat<double,double>, COMDAT
; File c:\program files (x86)\microsoft visual studio 14.0\vc\include\xutility
; Line 640
	push	ebp
	mov	ebp, esp
	sub	esp, 12					; 0000000cH
	mov	DWORD PTR [ebp-12], -858993460		; ccccccccH
	mov	DWORD PTR [ebp-8], -858993460		; ccccccccH
	mov	DWORD PTR [ebp-4], -858993460		; ccccccccH
; Line 642
	mov	al, BYTE PTR __Cat$[ebp]
; Line 643
	push	edx
	mov	ecx, ebp
	push	eax
	lea	edx, DWORD PTR $LN5@Ptr_cat
	call	@_RTC_CheckStackVars@8
	pop	eax
	pop	edx
	mov	esp, ebp
	pop	ebp
	ret	0
	npad	1
$LN5@Ptr_cat:
	DD	1
	DD	$LN4@Ptr_cat
$LN4@Ptr_cat:
	DD	-5					; fffffffbH
	DD	1
	DD	$LN3@Ptr_cat
$LN3@Ptr_cat:
	DB	95					; 0000005fH
	DB	67					; 00000043H
	DB	97					; 00000061H
	DB	116					; 00000074H
	DB	0
??$_Ptr_cat@NN@std@@YA?AU_Scalar_ptr_iterator_tag@0@PAN0@Z ENDP ; std::_Ptr_cat<double,double>
_TEXT	ENDS
; Function compile flags: /Odtp /RTCsu
;	COMDAT ??$_Pop_heap_0@PANNU?$less@X@std@@@std@@YAXPAN0U?$less@X@0@0@Z
_TEXT	SEGMENT
__Val$ = -12						; size = 8
__First$ = 8						; size = 4
__Last$ = 12						; size = 4
__Pred$ = 16						; size = 1
___formal$ = 20						; size = 4
??$_Pop_heap_0@PANNU?$less@X@std@@@std@@YAXPAN0U?$less@X@0@0@Z PROC ; std::_Pop_heap_0<double *,double,std::less<void> >, COMDAT
; File c:\program files (x86)\microsoft visual studio 14.0\vc\include\algorithm
; Line 2451
	push	ebp
	mov	ebp, esp
	sub	esp, 16					; 00000010H
	mov	eax, -858993460				; ccccccccH
	mov	DWORD PTR [ebp-16], eax
	mov	DWORD PTR [ebp-12], eax
	mov	DWORD PTR [ebp-8], eax
	mov	DWORD PTR [ebp-4], eax
; Line 2452
	mov	eax, DWORD PTR __Last$[ebp]
	sub	eax, 8
	push	eax
	call	??$_Move@AAN@std@@YA$$QANAAN@Z		; std::_Move<double &>
	add	esp, 4
	movsd	xmm0, QWORD PTR [eax]
	movsd	QWORD PTR __Val$[ebp], xmm0
; Line 2453
	mov	ecx, DWORD PTR __First$[ebp]
	push	ecx
	call	??$_Dist_type@PAN@std@@YAPAHPAN@Z	; std::_Dist_type<double *>
	add	esp, 4
	push	eax
	movzx	edx, BYTE PTR __Pred$[ebp]
	push	edx
	lea	eax, DWORD PTR __Val$[ebp]
	push	eax
	call	??$_Move@AAN@std@@YA$$QANAAN@Z		; std::_Move<double &>
	add	esp, 4
	push	eax
	mov	ecx, DWORD PTR __Last$[ebp]
	sub	ecx, 8
	push	ecx
	mov	edx, DWORD PTR __Last$[ebp]
	sub	edx, 8
	push	edx
	mov	eax, DWORD PTR __First$[ebp]
	push	eax
	call	??$_Pop_heap@PANHNU?$less@X@std@@@std@@YAXPAN00$$QANU?$less@X@0@PAH@Z ; std::_Pop_heap<double *,int,double,std::less<void> >
	add	esp, 24					; 00000018H
; Line 2455
	push	edx
	mov	ecx, ebp
	push	eax
	lea	edx, DWORD PTR $LN5@Pop_heap_0
	call	@_RTC_CheckStackVars@8
	pop	eax
	pop	edx
	add	esp, 16					; 00000010H
	cmp	ebp, esp
	call	__RTC_CheckEsp
	mov	esp, ebp
	pop	ebp
	ret	0
	npad	1
$LN5@Pop_heap_0:
	DD	1
	DD	$LN4@Pop_heap_0
$LN4@Pop_heap_0:
	DD	-12					; fffffff4H
	DD	8
	DD	$LN3@Pop_heap_0
$LN3@Pop_heap_0:
	DB	95					; 0000005fH
	DB	86					; 00000056H
	DB	97					; 00000061H
	DB	108					; 0000006cH
	DB	0
??$_Pop_heap_0@PANNU?$less@X@std@@@std@@YAXPAN0U?$less@X@0@0@Z ENDP ; std::_Pop_heap_0<double *,double,std::less<void> >
_TEXT	ENDS
; Function compile flags: /Odtp /RTCsu
;	COMDAT ??$_Push_heap@PANHNU?$less@X@std@@@std@@YAXPANHH$$QANU?$less@X@0@@Z
_TEXT	SEGMENT
__Idx$1 = -4						; size = 4
__First$ = 8						; size = 4
__Hole$ = 12						; size = 4
__Top$ = 16						; size = 4
__Val$ = 20						; size = 4
__Pred$ = 24						; size = 1
??$_Push_heap@PANHNU?$less@X@std@@@std@@YAXPANHH$$QANU?$less@X@0@@Z PROC ; std::_Push_heap<double *,int,double,std::less<void> >, COMDAT
; File c:\program files (x86)\microsoft visual studio 14.0\vc\include\algorithm
; Line 2361
	push	ebp
	mov	ebp, esp
	push	ecx
	mov	DWORD PTR [ebp-4], -858993460		; ccccccccH
; Line 2362
	mov	eax, DWORD PTR __Hole$[ebp]
	sub	eax, 1
	cdq
	sub	eax, edx
	sar	eax, 1
	mov	DWORD PTR __Idx$1[ebp], eax
	jmp	SHORT $LN4@Push_heap
$LN2@Push_heap:
; Line 2364
	mov	eax, DWORD PTR __Hole$[ebp]
	sub	eax, 1
	cdq
	sub	eax, edx
	sar	eax, 1
	mov	DWORD PTR __Idx$1[ebp], eax
$LN4@Push_heap:
; Line 2363
	mov	eax, DWORD PTR __Top$[ebp]
	cmp	eax, DWORD PTR __Hole$[ebp]
	jge	SHORT $LN3@Push_heap
	push	2363					; 0000093bH
	push	OFFSET ??_C@_1JC@NOPIGHAI@?$AAC?$AA?3?$AA?2?$AAP?$AAr?$AAo?$AAg?$AAr?$AAa?$AAm?$AA?5?$AAF?$AAi?$AAl?$AAe?$AAs?$AA?5?$AA?$CI?$AAx?$AA8?$AA6?$AA?$CJ?$AA?2?$AAM?$AAi?$AAc?$AAr?$AAo?$AAs?$AAo?$AAf?$AAt@
	mov	ecx, DWORD PTR __Val$[ebp]
	push	ecx
	mov	edx, DWORD PTR __Idx$1[ebp]
	mov	eax, DWORD PTR __First$[ebp]
	lea	ecx, DWORD PTR [eax+edx*8]
	push	ecx
	movzx	edx, BYTE PTR __Pred$[ebp]
	push	edx
	call	??$_Debug_lt_pred@U?$less@X@std@@AANAAN@std@@YA_NU?$less@X@0@AAN1PB_WI@Z ; std::_Debug_lt_pred<std::less<void>,double &,double &>
	add	esp, 20					; 00000014H
	movzx	eax, al
	test	eax, eax
	je	SHORT $LN3@Push_heap
; Line 2366
	mov	ecx, DWORD PTR __Idx$1[ebp]
	mov	edx, DWORD PTR __First$[ebp]
	lea	eax, DWORD PTR [edx+ecx*8]
	push	eax
	call	??$_Move@AAN@std@@YA$$QANAAN@Z		; std::_Move<double &>
	add	esp, 4
	mov	ecx, DWORD PTR __Hole$[ebp]
	mov	edx, DWORD PTR __First$[ebp]
	movsd	xmm0, QWORD PTR [eax]
	movsd	QWORD PTR [edx+ecx*8], xmm0
; Line 2367
	mov	eax, DWORD PTR __Idx$1[ebp]
	mov	DWORD PTR __Hole$[ebp], eax
; Line 2368
	jmp	SHORT $LN2@Push_heap
$LN3@Push_heap:
; Line 2370
	mov	ecx, DWORD PTR __Val$[ebp]
	push	ecx
	call	??$_Move@AAN@std@@YA$$QANAAN@Z		; std::_Move<double &>
	add	esp, 4
	mov	edx, DWORD PTR __Hole$[ebp]
	mov	ecx, DWORD PTR __First$[ebp]
	movsd	xmm0, QWORD PTR [eax]
	movsd	QWORD PTR [ecx+edx*8], xmm0
; Line 2371
	add	esp, 4
	cmp	ebp, esp
	call	__RTC_CheckEsp
	mov	esp, ebp
	pop	ebp
	ret	0
??$_Push_heap@PANHNU?$less@X@std@@@std@@YAXPANHH$$QANU?$less@X@0@@Z ENDP ; std::_Push_heap<double *,int,double,std::less<void> >
_TEXT	ENDS
; Function compile flags: /Odtp /RTCsu
;	COMDAT ??$_Debug_pointer@N@std@@YAXPANPB_WI@Z
_TEXT	SEGMENT
__Ptr$ = 8						; size = 4
__File$ = 12						; size = 4
__Line$ = 16						; size = 4
??$_Debug_pointer@N@std@@YAXPANPB_WI@Z PROC		; std::_Debug_pointer<double>, COMDAT
; File c:\program files (x86)\microsoft visual studio 14.0\vc\include\xutility
; Line 760
	push	ebp
	mov	ebp, esp
	push	esi
; Line 761
	cmp	DWORD PTR __Ptr$[ebp], 0
	jne	SHORT $LN1@Debug_poin
; Line 762
	mov	esi, esp
	mov	eax, DWORD PTR __Line$[ebp]
	push	eax
	mov	ecx, DWORD PTR __File$[ebp]
	push	ecx
	push	OFFSET ??_C@_1CK@EOPGIILJ@?$AAi?$AAn?$AAv?$AAa?$AAl?$AAi?$AAd?$AA?5?$AAn?$AAu?$AAl?$AAl?$AA?5?$AAp?$AAo?$AAi?$AAn?$AAt?$AAe?$AAr?$AA?$AA@
	call	DWORD PTR __imp_?_Debug_message@std@@YAXPB_W0I@Z
	add	esp, 12					; 0000000cH
	cmp	esi, esp
	call	__RTC_CheckEsp
$LN1@Debug_poin:
; Line 763
	pop	esi
	cmp	ebp, esp
	call	__RTC_CheckEsp
	pop	ebp
	ret	0
??$_Debug_pointer@N@std@@YAXPANPB_WI@Z ENDP		; std::_Debug_pointer<double>
_TEXT	ENDS
; Function compile flags: /Odtp /RTCsu
;	COMDAT ??$_Move_backward@PANPAN@std@@YAPANPAN00@Z
_TEXT	SEGMENT
$T1 = -1						; size = 1
__First$ = 8						; size = 4
__Last$ = 12						; size = 4
__Dest$ = 16						; size = 4
??$_Move_backward@PANPAN@std@@YAPANPAN00@Z PROC		; std::_Move_backward<double *,double *>, COMDAT
; File c:\program files (x86)\microsoft visual studio 14.0\vc\include\xutility
; Line 2643
	push	ebp
	mov	ebp, esp
	push	ecx
	mov	DWORD PTR [ebp-4], -858993460		; ccccccccH
; Line 2644
	mov	eax, DWORD PTR __Dest$[ebp]
	push	eax
	mov	ecx, DWORD PTR __First$[ebp]
	push	ecx
	call	??$_Ptr_cat@NN@std@@YA?AU_Scalar_ptr_iterator_tag@0@PAN0@Z ; std::_Ptr_cat<double,double>
	add	esp, 8
	mov	BYTE PTR $T1[ebp], al
	movzx	edx, BYTE PTR $T1[ebp]
	push	edx
	mov	eax, DWORD PTR __Dest$[ebp]
	push	eax
	mov	ecx, DWORD PTR __Last$[ebp]
	push	ecx
	mov	edx, DWORD PTR __First$[ebp]
	push	edx
	call	??$_Move_backward@PANPAN@std@@YAPANPAN00U_Scalar_ptr_iterator_tag@0@@Z ; std::_Move_backward<double *,double *>
	add	esp, 16					; 00000010H
; Line 2646
	add	esp, 4
	cmp	ebp, esp
	call	__RTC_CheckEsp
	mov	esp, ebp
	pop	ebp
	ret	0
??$_Move_backward@PANPAN@std@@YAPANPAN00@Z ENDP		; std::_Move_backward<double *,double *>
_TEXT	ENDS
; Function compile flags: /Odtp /RTCsu
;	COMDAT ??$_Pop_heap@PANU?$less@X@std@@@std@@YAXPAN0U?$less@X@0@@Z
_TEXT	SEGMENT
__First$ = 8						; size = 4
__Last$ = 12						; size = 4
__Pred$ = 16						; size = 1
??$_Pop_heap@PANU?$less@X@std@@@std@@YAXPAN0U?$less@X@0@@Z PROC ; std::_Pop_heap<double *,std::less<void> >, COMDAT
; File c:\program files (x86)\microsoft visual studio 14.0\vc\include\algorithm
; Line 2460
	push	ebp
	mov	ebp, esp
; Line 2461
	mov	eax, DWORD PTR __First$[ebp]
	push	eax
	call	??$_Val_type@PAN@std@@YAPANPAN@Z	; std::_Val_type<double *>
	add	esp, 4
	push	eax
	movzx	ecx, BYTE PTR __Pred$[ebp]
	push	ecx
	mov	edx, DWORD PTR __Last$[ebp]
	push	edx
	call	??$_Unchecked@PAN@std@@YAPANPAN@Z	; std::_Unchecked<double *>
	add	esp, 4
	push	eax
	mov	eax, DWORD PTR __First$[ebp]
	push	eax
	call	??$_Unchecked@PAN@std@@YAPANPAN@Z	; std::_Unchecked<double *>
	add	esp, 4
	push	eax
	call	??$_Pop_heap_0@PANNU?$less@X@std@@@std@@YAXPAN0U?$less@X@0@0@Z ; std::_Pop_heap_0<double *,double,std::less<void> >
	add	esp, 16					; 00000010H
; Line 2463
	cmp	ebp, esp
	call	__RTC_CheckEsp
	pop	ebp
	ret	0
??$_Pop_heap@PANU?$less@X@std@@@std@@YAXPAN0U?$less@X@0@@Z ENDP ; std::_Pop_heap<double *,std::less<void> >
_TEXT	ENDS
; Function compile flags: /Odtp /RTCsu
;	COMDAT ??$_Adjust_heap@PANHNU?$less@X@std@@@std@@YAXPANHH$$QANU?$less@X@0@@Z
_TEXT	SEGMENT
__Idx$ = -8						; size = 4
__Top$ = -4						; size = 4
__First$ = 8						; size = 4
__Hole$ = 12						; size = 4
__Bottom$ = 16						; size = 4
__Val$ = 20						; size = 4
__Pred$ = 24						; size = 1
??$_Adjust_heap@PANHNU?$less@X@std@@@std@@YAXPANHH$$QANU?$less@X@0@@Z PROC ; std::_Adjust_heap<double *,int,double,std::less<void> >, COMDAT
; File c:\program files (x86)\microsoft visual studio 14.0\vc\include\algorithm
; Line 2415
	push	ebp
	mov	ebp, esp
	sub	esp, 8
	mov	DWORD PTR [ebp-8], -858993460		; ccccccccH
	mov	DWORD PTR [ebp-4], -858993460		; ccccccccH
; Line 2416
	mov	eax, DWORD PTR __Hole$[ebp]
	mov	DWORD PTR __Top$[ebp], eax
; Line 2417
	mov	ecx, DWORD PTR __Hole$[ebp]
	lea	edx, DWORD PTR [ecx+ecx+2]
	mov	DWORD PTR __Idx$[ebp], edx
; Line 2419
	jmp	SHORT $LN4@Adjust_hea
$LN2@Adjust_hea:
	mov	eax, DWORD PTR __Idx$[ebp]
	lea	ecx, DWORD PTR [eax+eax+2]
	mov	DWORD PTR __Idx$[ebp], ecx
$LN4@Adjust_hea:
	mov	edx, DWORD PTR __Idx$[ebp]
	cmp	edx, DWORD PTR __Bottom$[ebp]
	jge	SHORT $LN3@Adjust_hea
; Line 2421
	push	2421					; 00000975H
	push	OFFSET ??_C@_1JC@NOPIGHAI@?$AAC?$AA?3?$AA?2?$AAP?$AAr?$AAo?$AAg?$AAr?$AAa?$AAm?$AA?5?$AAF?$AAi?$AAl?$AAe?$AAs?$AA?5?$AA?$CI?$AAx?$AA8?$AA6?$AA?$CJ?$AA?2?$AAM?$AAi?$AAc?$AAr?$AAo?$AAs?$AAo?$AAf?$AAt@
	mov	eax, DWORD PTR __Idx$[ebp]
	mov	ecx, DWORD PTR __First$[ebp]
	lea	edx, DWORD PTR [ecx+eax*8-8]
	push	edx
	mov	eax, DWORD PTR __Idx$[ebp]
	mov	ecx, DWORD PTR __First$[ebp]
	lea	edx, DWORD PTR [ecx+eax*8]
	push	edx
	movzx	eax, BYTE PTR __Pred$[ebp]
	push	eax
	call	??$_Debug_lt_pred@U?$less@X@std@@AANAAN@std@@YA_NU?$less@X@0@AAN1PB_WI@Z ; std::_Debug_lt_pred<std::less<void>,double &,double &>
	add	esp, 20					; 00000014H
	movzx	ecx, al
	test	ecx, ecx
	je	SHORT $LN5@Adjust_hea
; Line 2422
	mov	edx, DWORD PTR __Idx$[ebp]
	sub	edx, 1
	mov	DWORD PTR __Idx$[ebp], edx
$LN5@Adjust_hea:
; Line 2423
	mov	eax, DWORD PTR __Idx$[ebp]
	mov	ecx, DWORD PTR __First$[ebp]
	lea	edx, DWORD PTR [ecx+eax*8]
	push	edx
	call	??$_Move@AAN@std@@YA$$QANAAN@Z		; std::_Move<double &>
	add	esp, 4
	mov	ecx, DWORD PTR __Hole$[ebp]
	mov	edx, DWORD PTR __First$[ebp]
	movsd	xmm0, QWORD PTR [eax]
	movsd	QWORD PTR [edx+ecx*8], xmm0
; Line 2424
	mov	eax, DWORD PTR __Idx$[ebp]
	mov	DWORD PTR __Hole$[ebp], eax
; Line 2425
	jmp	SHORT $LN2@Adjust_hea
$LN3@Adjust_hea:
; Line 2427
	mov	ecx, DWORD PTR __Idx$[ebp]
	cmp	ecx, DWORD PTR __Bottom$[ebp]
	jne	SHORT $LN6@Adjust_hea
; Line 2429
	mov	edx, DWORD PTR __Bottom$[ebp]
	mov	eax, DWORD PTR __First$[ebp]
	lea	ecx, DWORD PTR [eax+edx*8-8]
	push	ecx
	call	??$_Move@AAN@std@@YA$$QANAAN@Z		; std::_Move<double &>
	add	esp, 4
	mov	edx, DWORD PTR __Hole$[ebp]
	mov	ecx, DWORD PTR __First$[ebp]
	movsd	xmm0, QWORD PTR [eax]
	movsd	QWORD PTR [ecx+edx*8], xmm0
; Line 2430
	mov	edx, DWORD PTR __Bottom$[ebp]
	sub	edx, 1
	mov	DWORD PTR __Hole$[ebp], edx
$LN6@Adjust_hea:
; Line 2432
	movzx	eax, BYTE PTR __Pred$[ebp]
	push	eax
	mov	ecx, DWORD PTR __Val$[ebp]
	push	ecx
	call	??$_Move@AAN@std@@YA$$QANAAN@Z		; std::_Move<double &>
	add	esp, 4
	push	eax
	mov	edx, DWORD PTR __Top$[ebp]
	push	edx
	mov	eax, DWORD PTR __Hole$[ebp]
	push	eax
	mov	ecx, DWORD PTR __First$[ebp]
	push	ecx
	call	??$_Push_heap@PANHNU?$less@X@std@@@std@@YAXPANHH$$QANU?$less@X@0@@Z ; std::_Push_heap<double *,int,double,std::less<void> >
	add	esp, 20					; 00000014H
; Line 2433
	add	esp, 8
	cmp	ebp, esp
	call	__RTC_CheckEsp
	mov	esp, ebp
	pop	ebp
	ret	0
??$_Adjust_heap@PANHNU?$less@X@std@@@std@@YAXPANHH$$QANU?$less@X@0@@Z ENDP ; std::_Adjust_heap<double *,int,double,std::less<void> >
_TEXT	ENDS
; Function compile flags: /Odtp /RTCsu
;	COMDAT ??$_Move@AAN@std@@YA$$QANAAN@Z
_TEXT	SEGMENT
__Arg$ = 8						; size = 4
??$_Move@AAN@std@@YA$$QANAAN@Z PROC			; std::_Move<double &>, COMDAT
; File c:\program files (x86)\microsoft visual studio 14.0\vc\include\type_traits
; Line 1317
	push	ebp
	mov	ebp, esp
; Line 1318
	mov	eax, DWORD PTR __Arg$[ebp]
; Line 1319
	pop	ebp
	ret	0
??$_Move@AAN@std@@YA$$QANAAN@Z ENDP			; std::_Move<double &>
_TEXT	ENDS
; Function compile flags: /Odtp /RTCsu
;	COMDAT ??$_Debug_range2@PAN@std@@YAXPAN0PB_WIUrandom_access_iterator_tag@0@@Z
_TEXT	SEGMENT
__First$ = 8						; size = 4
__Last$ = 12						; size = 4
__File$ = 16						; size = 4
__Line$ = 20						; size = 4
___formal$ = 24						; size = 1
??$_Debug_range2@PAN@std@@YAXPAN0PB_WIUrandom_access_iterator_tag@0@@Z PROC ; std::_Debug_range2<double *>, COMDAT
; File c:\program files (x86)\microsoft visual studio 14.0\vc\include\xutility
; Line 791
	push	ebp
	mov	ebp, esp
	push	esi
; Line 792
	mov	eax, DWORD PTR __First$[ebp]
	cmp	eax, DWORD PTR __Last$[ebp]
	je	SHORT $LN1@Debug_rang
; Line 794
	mov	ecx, DWORD PTR __Line$[ebp]
	push	ecx
	mov	edx, DWORD PTR __File$[ebp]
	push	edx
	mov	eax, DWORD PTR __First$[ebp]
	push	eax
	call	??$_Debug_pointer@N@std@@YAXPANPB_WI@Z	; std::_Debug_pointer<double>
	add	esp, 12					; 0000000cH
; Line 795
	mov	ecx, DWORD PTR __Line$[ebp]
	push	ecx
	mov	edx, DWORD PTR __File$[ebp]
	push	edx
	mov	eax, DWORD PTR __Last$[ebp]
	push	eax
	call	??$_Debug_pointer@N@std@@YAXPANPB_WI@Z	; std::_Debug_pointer<double>
	add	esp, 12					; 0000000cH
; Line 796
	mov	ecx, DWORD PTR __Last$[ebp]
	cmp	ecx, DWORD PTR __First$[ebp]
	jae	SHORT $LN1@Debug_rang
; Line 797
	mov	esi, esp
	mov	edx, DWORD PTR __Line$[ebp]
	push	edx
	mov	eax, DWORD PTR __File$[ebp]
	push	eax
	push	OFFSET ??_C@_1CO@DGLIKNHI@?$AAi?$AAn?$AAv?$AAa?$AAl?$AAi?$AAd?$AA?5?$AAi?$AAt?$AAe?$AAr?$AAa?$AAt?$AAo?$AAr?$AA?5?$AAr?$AAa?$AAn?$AAg?$AAe?$AA?$AA@
	call	DWORD PTR __imp_?_Debug_message@std@@YAXPB_W0I@Z
	add	esp, 12					; 0000000cH
	cmp	esi, esp
	call	__RTC_CheckEsp
$LN1@Debug_rang:
; Line 799
	pop	esi
	cmp	ebp, esp
	call	__RTC_CheckEsp
	pop	ebp
	ret	0
??$_Debug_range2@PAN@std@@YAXPAN0PB_WIUrandom_access_iterator_tag@0@@Z ENDP ; std::_Debug_range2<double *>
_TEXT	ENDS
; Function compile flags: /Odtp /RTCsu
;	COMDAT ??$_Iter_cat@PAN@std@@YA?AUrandom_access_iterator_tag@0@ABQAN@Z
_TEXT	SEGMENT
__Cat$ = -5						; size = 1
___$ReturnUdt$ = 8					; size = 4
___formal$ = 12						; size = 4
??$_Iter_cat@PAN@std@@YA?AUrandom_access_iterator_tag@0@ABQAN@Z PROC ; std::_Iter_cat<double *>, COMDAT
; File c:\program files (x86)\microsoft visual studio 14.0\vc\include\xutility
; Line 601
	push	ebp
	mov	ebp, esp
	sub	esp, 12					; 0000000cH
	mov	DWORD PTR [ebp-12], -858993460		; ccccccccH
	mov	DWORD PTR [ebp-8], -858993460		; ccccccccH
	mov	DWORD PTR [ebp-4], -858993460		; ccccccccH
; Line 603
	mov	eax, DWORD PTR ___$ReturnUdt$[ebp]
	mov	cl, BYTE PTR __Cat$[ebp]
	mov	BYTE PTR [eax], cl
	mov	eax, DWORD PTR ___$ReturnUdt$[ebp]
; Line 604
	push	edx
	mov	ecx, ebp
	push	eax
	lea	edx, DWORD PTR $LN5@Iter_cat
	call	@_RTC_CheckStackVars@8
	pop	eax
	pop	edx
	mov	esp, ebp
	pop	ebp
	ret	0
	npad	1
$LN5@Iter_cat:
	DD	1
	DD	$LN4@Iter_cat
$LN4@Iter_cat:
	DD	-5					; fffffffbH
	DD	1
	DD	$LN3@Iter_cat
$LN3@Iter_cat:
	DB	95					; 0000005fH
	DB	67					; 00000043H
	DB	97					; 00000061H
	DB	116					; 00000074H
	DB	0
??$_Iter_cat@PAN@std@@YA?AUrandom_access_iterator_tag@0@ABQAN@Z ENDP ; std::_Iter_cat<double *>
_TEXT	ENDS
; Function compile flags: /Odtp /RTCsu
;	COMDAT ??$forward@AAPAN@std@@YAAAPANAAPAN@Z
_TEXT	SEGMENT
__Arg$ = 8						; size = 4
??$forward@AAPAN@std@@YAAAPANAAPAN@Z PROC		; std::forward<double * &>, COMDAT
; File c:\program files (x86)\microsoft visual studio 14.0\vc\include\type_traits
; Line 1293
	push	ebp
	mov	ebp, esp
; Line 1294
	mov	eax, DWORD PTR __Arg$[ebp]
; Line 1295
	pop	ebp
	ret	0
??$forward@AAPAN@std@@YAAAPANAAPAN@Z ENDP		; std::forward<double * &>
_TEXT	ENDS
; Function compile flags: /Odtp /RTCsu
;	COMDAT ??$swap@N@std@@YAXAAN0@Z
_TEXT	SEGMENT
__Tmp$ = -12						; size = 8
__Left$ = 8						; size = 4
__Right$ = 12						; size = 4
??$swap@N@std@@YAXAAN0@Z PROC				; std::swap<double>, COMDAT
; File c:\program files (x86)\microsoft visual studio 14.0\vc\include\utility
; Line 51
	push	ebp
	mov	ebp, esp
	sub	esp, 16					; 00000010H
	mov	eax, -858993460				; ccccccccH
	mov	DWORD PTR [ebp-16], eax
	mov	DWORD PTR [ebp-12], eax
	mov	DWORD PTR [ebp-8], eax
	mov	DWORD PTR [ebp-4], eax
; Line 52
	mov	eax, DWORD PTR __Left$[ebp]
	push	eax
	call	??$_Move@AAN@std@@YA$$QANAAN@Z		; std::_Move<double &>
	add	esp, 4
	movsd	xmm0, QWORD PTR [eax]
	movsd	QWORD PTR __Tmp$[ebp], xmm0
; Line 53
	mov	ecx, DWORD PTR __Right$[ebp]
	push	ecx
	call	??$_Move@AAN@std@@YA$$QANAAN@Z		; std::_Move<double &>
	add	esp, 4
	mov	edx, DWORD PTR __Left$[ebp]
	movsd	xmm0, QWORD PTR [eax]
	movsd	QWORD PTR [edx], xmm0
; Line 54
	lea	eax, DWORD PTR __Tmp$[ebp]
	push	eax
	call	??$_Move@AAN@std@@YA$$QANAAN@Z		; std::_Move<double &>
	add	esp, 4
	mov	ecx, DWORD PTR __Right$[ebp]
	movsd	xmm0, QWORD PTR [eax]
	movsd	QWORD PTR [ecx], xmm0
; Line 55
	push	edx
	mov	ecx, ebp
	push	eax
	lea	edx, DWORD PTR $LN5@swap
	call	@_RTC_CheckStackVars@8
	pop	eax
	pop	edx
	add	esp, 16					; 00000010H
	cmp	ebp, esp
	call	__RTC_CheckEsp
