	.file	"dod_perfv1.cpp"
	.text
.Ltext0:
	.cfi_sections	.debug_frame
	.section .rdata,"dr"
_ZStL19piecewise_construct:
	.space 1
	.section	.text$_ZN9__gnu_cxx5__ops16__iter_less_iterEv,"x"
	.linkonce discard
	.globl	_ZN9__gnu_cxx5__ops16__iter_less_iterEv
	.def	_ZN9__gnu_cxx5__ops16__iter_less_iterEv;	.scl	2;	.type	32;	.endef
	.seh_proc	_ZN9__gnu_cxx5__ops16__iter_less_iterEv
_ZN9__gnu_cxx5__ops16__iter_less_iterEv:
.LFB183:
	.file 1 "c:/mingw/include/c++/5.1.0/bits/predefined_ops.h"
	.loc 1 48 0
	.cfi_startproc
	pushq	%rbp
	.seh_pushreg	%rbp
	.cfi_def_cfa_offset 16
	.cfi_offset 6, -16
	movq	%rsp, %rbp
	.seh_setframe	%rbp, 0
	.cfi_def_cfa_register 6
	.seh_endprologue
	.loc 1 48 0
	popq	%rbp
	.cfi_restore 6
	.cfi_def_cfa 7, 8
	ret
	.cfi_endproc
.LFE183:
	.seh_endproc
	.section	.text$_ZN9__gnu_cxx5__ops15__iter_comp_valENS0_15_Iter_less_iterE,"x"
	.linkonce discard
	.globl	_ZN9__gnu_cxx5__ops15__iter_comp_valENS0_15_Iter_less_iterE
	.def	_ZN9__gnu_cxx5__ops15__iter_comp_valENS0_15_Iter_less_iterE;	.scl	2;	.type	32;	.endef
	.seh_proc	_ZN9__gnu_cxx5__ops15__iter_comp_valENS0_15_Iter_less_iterE
_ZN9__gnu_cxx5__ops15__iter_comp_valENS0_15_Iter_less_iterE:
.LFB186:
	.loc 1 64 0
	.cfi_startproc
	pushq	%rbp
	.seh_pushreg	%rbp
	.cfi_def_cfa_offset 16
	.cfi_offset 6, -16
	movq	%rsp, %rbp
	.seh_setframe	%rbp, 0
	.cfi_def_cfa_register 6
	.seh_endprologue
	movb	%cl, 16(%rbp)
	.loc 1 64 0
	popq	%rbp
	.cfi_restore 6
	.cfi_def_cfa 7, 8
	ret
	.cfi_endproc
.LFE186:
	.seh_endproc
	.section	.text$_ZN9__gnu_cxx5__ops15__val_comp_iterENS0_15_Iter_less_iterE,"x"
	.linkonce discard
	.globl	_ZN9__gnu_cxx5__ops15__val_comp_iterENS0_15_Iter_less_iterE
	.def	_ZN9__gnu_cxx5__ops15__val_comp_iterENS0_15_Iter_less_iterE;	.scl	2;	.type	32;	.endef
	.seh_proc	_ZN9__gnu_cxx5__ops15__val_comp_iterENS0_15_Iter_less_iterE
_ZN9__gnu_cxx5__ops15__val_comp_iterENS0_15_Iter_less_iterE:
.LFB189:
	.loc 1 80 0
	.cfi_startproc
	pushq	%rbp
	.seh_pushreg	%rbp
	.cfi_def_cfa_offset 16
	.cfi_offset 6, -16
	movq	%rsp, %rbp
	.seh_setframe	%rbp, 0
	.cfi_def_cfa_register 6
	.seh_endprologue
	movb	%cl, 16(%rbp)
	.loc 1 80 0
	popq	%rbp
	.cfi_restore 6
	.cfi_def_cfa 7, 8
	ret
	.cfi_endproc
.LFE189:
	.seh_endproc
	.section	.text$_ZSt4__lgx,"x"
	.linkonce discard
	.globl	_ZSt4__lgx
	.def	_ZSt4__lgx;	.scl	2;	.type	32;	.endef
	.seh_proc	_ZSt4__lgx
_ZSt4__lgx:
.LFB275:
	.file 2 "c:/mingw/include/c++/5.1.0/bits/stl_algobase.h"
	.loc 2 1027 0
	.cfi_startproc
	pushq	%rbp
	.seh_pushreg	%rbp
	.cfi_def_cfa_offset 16
	.cfi_offset 6, -16
	movq	%rsp, %rbp
	.seh_setframe	%rbp, 0
	.cfi_def_cfa_register 6
	.seh_endprologue
	movq	%rcx, 16(%rbp)
	.loc 2 1027 0
	movl	$64, %edx
	movq	16(%rbp), %rax
	bsrq	%rax, %rax
	xorq	$63, %rax
	cltq
	subq	%rax, %rdx
	movq	%rdx, %rax
	subq	$1, %rax
	popq	%rbp
	.cfi_restore 6
	.cfi_def_cfa 7, 8
	ret
	.cfi_endproc
.LFE275:
	.seh_endproc
	.section	.text$_ZnwyPv,"x"
	.linkonce discard
	.globl	_ZnwyPv
	.def	_ZnwyPv;	.scl	2;	.type	32;	.endef
	.seh_proc	_ZnwyPv
_ZnwyPv:
.LFB354:
	.file 3 "c:/mingw/include/c++/5.1.0/new"
	.loc 3 130 0
	.cfi_startproc
	pushq	%rbp
	.seh_pushreg	%rbp
	.cfi_def_cfa_offset 16
	.cfi_offset 6, -16
	movq	%rsp, %rbp
	.seh_setframe	%rbp, 0
	.cfi_def_cfa_register 6
	.seh_endprologue
	movq	%rcx, 16(%rbp)
	movq	%rdx, 24(%rbp)
	.loc 3 130 0
	movq	24(%rbp), %rax
	popq	%rbp
	.cfi_restore 6
	.cfi_def_cfa 7, 8
	ret
	.cfi_endproc
.LFE354:
	.seh_endproc
	.section	.text$_ZNSt6chrono8durationIxSt5ratioILx1ELx1000000000EEEC1IxvEERKT_,"x"
	.linkonce discard
	.align 2
	.globl	_ZNSt6chrono8durationIxSt5ratioILx1ELx1000000000EEEC1IxvEERKT_
	.def	_ZNSt6chrono8durationIxSt5ratioILx1ELx1000000000EEEC1IxvEERKT_;	.scl	2;	.type	32;	.endef
	.seh_proc	_ZNSt6chrono8durationIxSt5ratioILx1ELx1000000000EEEC1IxvEERKT_
_ZNSt6chrono8durationIxSt5ratioILx1ELx1000000000EEEC1IxvEERKT_:
.LFB6231:
	.file 4 "c:/mingw/include/c++/5.1.0/chrono"
	.loc 4 263 0
	.cfi_startproc
	pushq	%rbp
	.seh_pushreg	%rbp
	.cfi_def_cfa_offset 16
	.cfi_offset 6, -16
	movq	%rsp, %rbp
	.seh_setframe	%rbp, 0
	.cfi_def_cfa_register 6
	.seh_endprologue
	movq	%rcx, 16(%rbp)
	movq	%rdx, 24(%rbp)
.LBB34:
	.loc 4 264 0
	movq	24(%rbp), %rax
	movq	(%rax), %rdx
	movq	16(%rbp), %rax
	movq	%rdx, (%rax)
.LBE34:
	nop
	popq	%rbp
	.cfi_restore 6
	.cfi_def_cfa 7, 8
	ret
	.cfi_endproc
.LFE6231:
	.seh_endproc
	.section	.text$_ZNKSt6chrono8durationIxSt5ratioILx1ELx1000000000EEE5countEv,"x"
	.linkonce discard
	.align 2
	.globl	_ZNKSt6chrono8durationIxSt5ratioILx1ELx1000000000EEE5countEv
	.def	_ZNKSt6chrono8durationIxSt5ratioILx1ELx1000000000EEE5countEv;	.scl	2;	.type	32;	.endef
	.seh_proc	_ZNKSt6chrono8durationIxSt5ratioILx1ELx1000000000EEE5countEv
_ZNKSt6chrono8durationIxSt5ratioILx1ELx1000000000EEE5countEv:
.LFB6235:
	.loc 4 278 0
	.cfi_startproc
	pushq	%rbp
	.seh_pushreg	%rbp
	.cfi_def_cfa_offset 16
	.cfi_offset 6, -16
	movq	%rsp, %rbp
	.seh_setframe	%rbp, 0
	.cfi_def_cfa_register 6
	.seh_endprologue
	movq	%rcx, 16(%rbp)
	.loc 4 279 0
	movq	16(%rbp), %rax
	movq	(%rax), %rax
	popq	%rbp
	.cfi_restore 6
	.cfi_def_cfa 7, 8
	ret
	.cfi_endproc
.LFE6235:
	.seh_endproc
	.section	.text$_ZNKSt6chrono10time_pointINS_3_V212system_clockENS_8durationIxSt5ratioILx1ELx1000000000EEEEE16time_since_epochEv,"x"
	.linkonce discard
	.align 2
	.globl	_ZNKSt6chrono10time_pointINS_3_V212system_clockENS_8durationIxSt5ratioILx1ELx1000000000EEEEE16time_since_epochEv
	.def	_ZNKSt6chrono10time_pointINS_3_V212system_clockENS_8durationIxSt5ratioILx1ELx1000000000EEEEE16time_since_epochEv;	.scl	2;	.type	32;	.endef
	.seh_proc	_ZNKSt6chrono10time_pointINS_3_V212system_clockENS_8durationIxSt5ratioILx1ELx1000000000EEEEE16time_since_epochEv
_ZNKSt6chrono10time_pointINS_3_V212system_clockENS_8durationIxSt5ratioILx1ELx1000000000EEEEE16time_since_epochEv:
.LFB6237:
	.loc 4 568 0
	.cfi_startproc
	pushq	%rbp
	.seh_pushreg	%rbp
	.cfi_def_cfa_offset 16
	.cfi_offset 6, -16
	movq	%rsp, %rbp
	.seh_setframe	%rbp, 0
	.cfi_def_cfa_register 6
	.seh_endprologue
	movq	%rcx, 16(%rbp)
	.loc 4 569 0
	movq	16(%rbp), %rax
	movq	(%rax), %rax
	popq	%rbp
	.cfi_restore 6
	.cfi_def_cfa 7, 8
	ret
	.cfi_endproc
.LFE6237:
	.seh_endproc
	.globl	measure_start
	.bss
	.align 8
measure_start:
	.space 8
	.globl	measure_pause
	.align 8
measure_pause:
	.space 8
	.text
	.globl	_Z12pause_timingv
	.def	_Z12pause_timingv;	.scl	2;	.type	32;	.endef
	.seh_proc	_Z12pause_timingv
_Z12pause_timingv:
.LFB6259:
	.file 5 "C:/Users/Manu343726/Documents/joaquin-dod/dod_perfv1.cpp"
	.loc 5 46 0
	.cfi_startproc
	pushq	%rbp
	.seh_pushreg	%rbp
	.cfi_def_cfa_offset 16
	.cfi_offset 6, -16
	movq	%rsp, %rbp
	.seh_setframe	%rbp, 0
	.cfi_def_cfa_register 6
	subq	$32, %rsp
	.seh_stackalloc	32
	.seh_endprologue
	.loc 5 47 0
	call	_ZNSt6chrono3_V212system_clock3nowEv
	movq	%rax, measure_pause(%rip)
	.loc 5 48 0
	nop
	addq	$32, %rsp
	popq	%rbp
	.cfi_restore 6
	.cfi_def_cfa 7, 8
	ret
	.cfi_endproc
.LFE6259:
	.seh_endproc
	.section	.text$_ZNSt6chronomiIxSt5ratioILx1ELx1000000000EExS2_EENSt11common_typeIJNS_8durationIT_T0_EENS4_IT1_T2_EEEE4typeERKS7_RKSA_,"x"
	.linkonce discard
	.globl	_ZNSt6chronomiIxSt5ratioILx1ELx1000000000EExS2_EENSt11common_typeIJNS_8durationIT_T0_EENS4_IT1_T2_EEEE4typeERKS7_RKSA_
	.def	_ZNSt6chronomiIxSt5ratioILx1ELx1000000000EExS2_EENSt11common_typeIJNS_8durationIT_T0_EENS4_IT1_T2_EEEE4typeERKS7_RKSA_;	.scl	2;	.type	32;	.endef
	.seh_proc	_ZNSt6chronomiIxSt5ratioILx1ELx1000000000EExS2_EENSt11common_typeIJNS_8durationIT_T0_EENS4_IT1_T2_EEEE4typeERKS7_RKSA_
_ZNSt6chronomiIxSt5ratioILx1ELx1000000000EExS2_EENSt11common_typeIJNS_8durationIT_T0_EENS4_IT1_T2_EEEE4typeERKS7_RKSA_:
.LFB6262:
	.loc 4 393 0
	.cfi_startproc
	pushq	%rbp
	.seh_pushreg	%rbp
	.cfi_def_cfa_offset 16
	.cfi_offset 6, -16
	pushq	%rbx
	.seh_pushreg	%rbx
	.cfi_def_cfa_offset 24
	.cfi_offset 3, -24
	subq	$88, %rsp
	.seh_stackalloc	88
	.cfi_def_cfa_offset 112
	leaq	128(%rsp), %rbp
	.seh_setframe	%rbp, 128
	.cfi_def_cfa 6, -16
	.seh_endprologue
	movq	%rcx, -16(%rbp)
	movq	%rdx, -8(%rbp)
	.loc 4 399 0
	movq	-16(%rbp), %rax
	movq	(%rax), %rax
	movq	%rax, -80(%rbp)
	leaq	-80(%rbp), %rax
	movq	%rax, %rcx
	call	_ZNKSt6chrono8durationIxSt5ratioILx1ELx1000000000EEE5countEv
	movq	%rax, %rbx
	movq	-8(%rbp), %rax
	movq	(%rax), %rax
	movq	%rax, -64(%rbp)
	leaq	-64(%rbp), %rax
	movq	%rax, %rcx
	call	_ZNKSt6chrono8durationIxSt5ratioILx1ELx1000000000EEE5countEv
	subq	%rax, %rbx
	movq	%rbx, %rax
	movq	%rax, -88(%rbp)
	leaq	-88(%rbp), %rdx
	leaq	-96(%rbp), %rax
	movq	%rax, %rcx
	call	_ZNSt6chrono8durationIxSt5ratioILx1ELx1000000000EEEC1IxvEERKT_
	movq	-96(%rbp), %rax
	.loc 4 400 0
	addq	$88, %rsp
	popq	%rbx
	.cfi_restore 3
	popq	%rbp
	.cfi_restore 6
	.cfi_def_cfa 7, -72
	ret
	.cfi_endproc
.LFE6262:
	.seh_endproc
	.weak	_ZNSt6chronomiIxSt5ratioILx1ELx1000000000EExS2_EENSt11common_typeIINS_8durationIT_T0_EENS4_IT1_T2_EEEE4typeERKS7_RKSA_
	.def	_ZNSt6chronomiIxSt5ratioILx1ELx1000000000EExS2_EENSt11common_typeIINS_8durationIT_T0_EENS4_IT1_T2_EEEE4typeERKS7_RKSA_;	.scl	2;	.type	32;	.endef
	.set	_ZNSt6chronomiIxSt5ratioILx1ELx1000000000EExS2_EENSt11common_typeIINS_8durationIT_T0_EENS4_IT1_T2_EEEE4typeERKS7_RKSA_,_ZNSt6chronomiIxSt5ratioILx1ELx1000000000EExS2_EENSt11common_typeIJNS_8durationIT_T0_EENS4_IT1_T2_EEEE4typeERKS7_RKSA_
	.section	.text$_ZNSt6chronomiINS_3_V212system_clockENS_8durationIxSt5ratioILx1ELx1000000000EEEES6_EENSt11common_typeIJT0_T1_EE4typeERKNS_10time_pointIT_S8_EERKNSC_ISD_S9_EE,"x"
	.linkonce discard
	.globl	_ZNSt6chronomiINS_3_V212system_clockENS_8durationIxSt5ratioILx1ELx1000000000EEEES6_EENSt11common_typeIJT0_T1_EE4typeERKNS_10time_pointIT_S8_EERKNSC_ISD_S9_EE
	.def	_ZNSt6chronomiINS_3_V212system_clockENS_8durationIxSt5ratioILx1ELx1000000000EEEES6_EENSt11common_typeIJT0_T1_EE4typeERKNS_10time_pointIT_S8_EERKNSC_ISD_S9_EE;	.scl	2;	.type	32;	.endef
	.seh_proc	_ZNSt6chronomiINS_3_V212system_clockENS_8durationIxSt5ratioILx1ELx1000000000EEEES6_EENSt11common_typeIJT0_T1_EE4typeERKNS_10time_pointIT_S8_EERKNSC_ISD_S9_EE
_ZNSt6chronomiINS_3_V212system_clockENS_8durationIxSt5ratioILx1ELx1000000000EEEES6_EENSt11common_typeIJT0_T1_EE4typeERKNS_10time_pointIT_S8_EERKNSC_ISD_S9_EE:
.LFB6261:
	.loc 4 650 0
	.cfi_startproc
	pushq	%rbp
	.seh_pushreg	%rbp
	.cfi_def_cfa_offset 16
	.cfi_offset 6, -16
	movq	%rsp, %rbp
	.seh_setframe	%rbp, 0
	.cfi_def_cfa_register 6
	subq	$64, %rsp
	.seh_stackalloc	64
	.seh_endprologue
	movq	%rcx, 16(%rbp)
	movq	%rdx, 24(%rbp)
	.loc 4 652 0
	movq	24(%rbp), %rax
	movq	%rax, %rcx
	call	_ZNKSt6chrono10time_pointINS_3_V212system_clockENS_8durationIxSt5ratioILx1ELx1000000000EEEEE16time_since_epochEv
	movq	%rax, -32(%rbp)
	movq	16(%rbp), %rcx
	call	_ZNKSt6chrono10time_pointINS_3_V212system_clockENS_8durationIxSt5ratioILx1ELx1000000000EEEEE16time_since_epochEv
	movq	%rax, -16(%rbp)
	leaq	-32(%rbp), %rdx
	leaq	-16(%rbp), %rax
	movq	%rax, %rcx
	call	_ZNSt6chronomiIxSt5ratioILx1ELx1000000000EExS2_EENSt11common_typeIJNS_8durationIT_T0_EENS4_IT1_T2_EEEE4typeERKS7_RKSA_
	addq	$64, %rsp
	popq	%rbp
	.cfi_restore 6
	.cfi_def_cfa 7, 8
	ret
	.cfi_endproc
.LFE6261:
	.seh_endproc
	.weak	_ZNSt6chronomiINS_3_V212system_clockENS_8durationIxSt5ratioILx1ELx1000000000EEEES6_EENSt11common_typeIIT0_T1_EE4typeERKNS_10time_pointIT_S8_EERKNSC_ISD_S9_EE
	.def	_ZNSt6chronomiINS_3_V212system_clockENS_8durationIxSt5ratioILx1ELx1000000000EEEES6_EENSt11common_typeIIT0_T1_EE4typeERKNS_10time_pointIT_S8_EERKNSC_ISD_S9_EE;	.scl	2;	.type	32;	.endef
	.set	_ZNSt6chronomiINS_3_V212system_clockENS_8durationIxSt5ratioILx1ELx1000000000EEEES6_EENSt11common_typeIIT0_T1_EE4typeERKNS_10time_pointIT_S8_EERKNSC_ISD_S9_EE,_ZNSt6chronomiINS_3_V212system_clockENS_8durationIxSt5ratioILx1ELx1000000000EEEES6_EENSt11common_typeIJT0_T1_EE4typeERKNS_10time_pointIT_S8_EERKNSC_ISD_S9_EE
	.text
	.globl	_Z13resume_timingv
	.def	_Z13resume_timingv;	.scl	2;	.type	32;	.endef
	.seh_proc	_Z13resume_timingv
_Z13resume_timingv:
.LFB6260:
	.loc 5 51 0
	.cfi_startproc
	pushq	%rbp
	.seh_pushreg	%rbp
	.cfi_def_cfa_offset 16
	.cfi_offset 6, -16
	movq	%rsp, %rbp
	.seh_setframe	%rbp, 0
	.cfi_def_cfa_register 6
	subq	$64, %rsp
	.seh_stackalloc	64
	.seh_endprologue
	.loc 5 52 0
	call	_ZNSt6chrono3_V212system_clock3nowEv
	movq	%rax, -16(%rbp)
	leaq	-16(%rbp), %rax
	leaq	measure_pause(%rip), %rdx
	movq	%rax, %rcx
	call	_ZNSt6chronomiINS_3_V212system_clockENS_8durationIxSt5ratioILx1ELx1000000000EEEES6_EENSt11common_typeIJT0_T1_EE4typeERKNS_10time_pointIT_S8_EERKNSC_ISD_S9_EE
	movq	%rax, -32(%rbp)
	leaq	-32(%rbp), %rax
	movq	%rax, %rdx
	leaq	measure_start(%rip), %rcx
	call	_ZNSt6chrono10time_pointINS_3_V212system_clockENS_8durationIxSt5ratioILx1ELx1000000000EEEEEpLERKS6_
	.loc 5 53 0
	nop
	addq	$64, %rsp
	popq	%rbp
	.cfi_restore 6
	.cfi_def_cfa 7, 8
	ret
	.cfi_endproc
.LFE6260:
	.seh_endproc
	.section .rdata,"dr"
_ZStL13allocator_arg:
	.space 1
_ZStL6ignore:
	.space 1
.lcomm _ZStL8__ioinit,1,1
.lcomm _ZL13render_output,4,4
	.text
	.globl	_Z9do_renderiic
	.def	_Z9do_renderiic;	.scl	2;	.type	32;	.endef
	.seh_proc	_Z9do_renderiic
_Z9do_renderiic:
.LFB7008:
	.loc 5 158 0
	.cfi_startproc
	pushq	%rbp
	.seh_pushreg	%rbp
	.cfi_def_cfa_offset 16
	.cfi_offset 6, -16
	movq	%rsp, %rbp
	.seh_setframe	%rbp, 0
	.cfi_def_cfa_register 6
	.seh_endprologue
	movl	%ecx, 16(%rbp)
	movl	%edx, 24(%rbp)
	movl	%r8d, %eax
	movb	%al, 32(%rbp)
	.loc 5 159 0
	movl	16(%rbp), %edx
	movl	24(%rbp), %eax
	addl	%eax, %edx
	movsbl	32(%rbp), %eax
	addl	%eax, %edx
	movl	_ZL13render_output(%rip), %eax
	addl	%edx, %eax
	movl	%eax, _ZL13render_output(%rip)
	.loc 5 160 0
	nop
	popq	%rbp
	.cfi_restore 6
	.cfi_def_cfa 7, 8
	ret
	.cfi_endproc
.LFE7008:
	.seh_endproc
	.section	.text$_ZN14plain_particleC1Eciiii,"x"
	.linkonce discard
	.align 2
	.globl	_ZN14plain_particleC1Eciiii
	.def	_ZN14plain_particleC1Eciiii;	.scl	2;	.type	32;	.endef
	.seh_proc	_ZN14plain_particleC1Eciiii
_ZN14plain_particleC1Eciiii:
.LFB7011:
	.loc 5 174 0
	.cfi_startproc
	pushq	%rbp
	.seh_pushreg	%rbp
	.cfi_def_cfa_offset 16
	.cfi_offset 6, -16
	movq	%rsp, %rbp
	.seh_setframe	%rbp, 0
	.cfi_def_cfa_register 6
	.seh_endprologue
	movq	%rcx, 16(%rbp)
	movl	%edx, %eax
	movl	%r8d, 32(%rbp)
	movl	%r9d, 40(%rbp)
	movb	%al, 24(%rbp)
.LBB35:
	.loc 5 175 0
	movq	16(%rbp), %rax
	movzbl	24(%rbp), %edx
	movb	%dl, (%rax)
	movq	16(%rbp), %rax
	movl	32(%rbp), %edx
	movl	%edx, 4(%rax)
	movq	16(%rbp), %rax
	movl	40(%rbp), %edx
	movl	%edx, 8(%rax)
	movq	16(%rbp), %rax
	movl	48(%rbp), %edx
	movl	%edx, 12(%rax)
	movq	16(%rbp), %rax
	movl	56(%rbp), %edx
	movl	%edx, 16(%rax)
.LBE35:
	.loc 5 176 0
	nop
	popq	%rbp
	.cfi_restore 6
	.cfi_def_cfa 7, 8
	ret
	.cfi_endproc
.LFE7011:
	.seh_endproc
	.section	.text$_ZNK14plain_particle6renderEv,"x"
	.linkonce discard
	.align 2
	.globl	_ZNK14plain_particle6renderEv
	.def	_ZNK14plain_particle6renderEv;	.scl	2;	.type	32;	.endef
	.seh_proc	_ZNK14plain_particle6renderEv
_ZNK14plain_particle6renderEv:
.LFB7012:
	.loc 5 178 0
	.cfi_startproc
	pushq	%rbp
	.seh_pushreg	%rbp
	.cfi_def_cfa_offset 16
	.cfi_offset 6, -16
	movq	%rsp, %rbp
	.seh_setframe	%rbp, 0
	.cfi_def_cfa_register 6
	subq	$32, %rsp
	.seh_stackalloc	32
	.seh_endprologue
	movq	%rcx, 16(%rbp)
	.loc 5 180 0
	movq	16(%rbp), %rax
	movzbl	(%rax), %eax
	movsbl	%al, %ecx
	movq	16(%rbp), %rax
	movl	8(%rax), %edx
	movq	16(%rbp), %rax
	movl	4(%rax), %eax
	movl	%ecx, %r8d
	movl	%eax, %ecx
	call	_Z9do_renderiic
	.loc 5 181 0
	nop
	addq	$32, %rsp
	popq	%rbp
	.cfi_restore 6
	.cfi_def_cfa 7, 8
	ret
	.cfi_endproc
.LFE7012:
	.seh_endproc
	.text
	.globl	_Z6renderPcS_PiS0_
	.def	_Z6renderPcS_PiS0_;	.scl	2;	.type	32;	.endef
	.seh_proc	_Z6renderPcS_PiS0_
_Z6renderPcS_PiS0_:
.LFB7018:
	.loc 5 261 0
	.cfi_startproc
	pushq	%rbp
	.seh_pushreg	%rbp
	.cfi_def_cfa_offset 16
	.cfi_offset 6, -16
	movq	%rsp, %rbp
	.seh_setframe	%rbp, 0
	.cfi_def_cfa_register 6
	subq	$32, %rsp
	.seh_stackalloc	32
	.seh_endprologue
	movq	%rcx, 16(%rbp)
	movq	%rdx, 24(%rbp)
	movq	%r8, 32(%rbp)
	movq	%r9, 40(%rbp)
	.loc 5 262 0
	movl	$0, _ZL13render_output(%rip)
.L27:
	.loc 5 263 0 discriminator 2
	movq	16(%rbp), %rax
	cmpq	24(%rbp), %rax
	je	.L26
	.loc 5 263 0 is_stmt 0 discriminator 1
	movq	16(%rbp), %rax
	leaq	1(%rax), %rdx
	movq	%rdx, 16(%rbp)
	movzbl	(%rax), %eax
	movsbl	%al, %r8d
	movq	40(%rbp), %rax
	leaq	4(%rax), %rdx
	movq	%rdx, 40(%rbp)
	movl	(%rax), %edx
	movq	32(%rbp), %rax
	leaq	4(%rax), %rcx
	movq	%rcx, 32(%rbp)
	movl	(%rax), %eax
	movl	%eax, %ecx
	call	_Z9do_renderiic
	jmp	.L27
.L26:
	.loc 5 264 0 is_stmt 1
	movl	_ZL13render_output(%rip), %eax
	.loc 5 265 0
	addq	$32, %rsp
	popq	%rbp
	.cfi_restore 6
	.cfi_def_cfa 7, 8
	ret
	.cfi_endproc
.LFE7018:
	.seh_endproc
	.globl	_Z6renderPcPiS0_y
	.def	_Z6renderPcPiS0_y;	.scl	2;	.type	32;	.endef
	.seh_proc	_Z6renderPcPiS0_y
_Z6renderPcPiS0_y:
.LFB7019:
	.loc 5 268 0
	.cfi_startproc
	pushq	%rbp
	.seh_pushreg	%rbp
	.cfi_def_cfa_offset 16
	.cfi_offset 6, -16
	movq	%rsp, %rbp
	.seh_setframe	%rbp, 0
	.cfi_def_cfa_register 6
	subq	$48, %rsp
	.seh_stackalloc	48
	.seh_endprologue
	movq	%rcx, 16(%rbp)
	movq	%rdx, 24(%rbp)
	movq	%r8, 32(%rbp)
	movq	%r9, 40(%rbp)
	.loc 5 269 0
	movl	$0, _ZL13render_output(%rip)
.LBB36:
	.loc 5 270 0
	movq	$0, -8(%rbp)
.L31:
	.loc 5 270 0 is_stmt 0 discriminator 3
	movq	-8(%rbp), %rax
	cmpq	40(%rbp), %rax
	jnb	.L30
	.loc 5 270 0 discriminator 2
	movq	16(%rbp), %rdx
	movq	-8(%rbp), %rax
	addq	%rdx, %rax
	movzbl	(%rax), %eax
	movsbl	%al, %ecx
	movq	-8(%rbp), %rax
	leaq	0(,%rax,4), %rdx
	movq	32(%rbp), %rax
	addq	%rdx, %rax
	movl	(%rax), %edx
	movq	-8(%rbp), %rax
	leaq	0(,%rax,4), %r8
	movq	24(%rbp), %rax
	addq	%r8, %rax
	movl	(%rax), %eax
	movl	%ecx, %r8d
	movl	%eax, %ecx
	call	_Z9do_renderiic
	addq	$1, -8(%rbp)
	jmp	.L31
.L30:
.LBE36:
	.loc 5 271 0 is_stmt 1
	movl	_ZL13render_output(%rip), %eax
	.loc 5 272 0
	addq	$48, %rsp
	popq	%rbp
	.cfi_restore 6
	.cfi_def_cfa 7, 8
	ret
	.cfi_endproc
.LFE7019:
	.seh_endproc
	.align 2
	.def	_ZZ4mainENKUlvE_clEv;	.scl	3;	.type	32;	.endef
	.seh_proc	_ZZ4mainENKUlvE_clEv
_ZZ4mainENKUlvE_clEv:
.LFB7024:
	.loc 5 337 0
	.cfi_startproc
	pushq	%rbp
	.seh_pushreg	%rbp
	.cfi_def_cfa_offset 16
	.cfi_offset 6, -16
	movq	%rsp, %rbp
	.seh_setframe	%rbp, 0
	.cfi_def_cfa_register 6
	subq	$32, %rsp
	.seh_stackalloc	32
	.seh_endprologue
	movq	%rcx, 16(%rbp)
	.loc 5 337 0
	movq	16(%rbp), %rax
	movq	8(%rax), %rdx
	movq	16(%rbp), %rax
	movq	(%rax), %rcx
	call	_Z6renderIN9__gnu_cxx17__normal_iteratorIP14plain_particleSt6vectorIS2_SaIS2_EEEEEiT_S8_
	addq	$32, %rsp
	popq	%rbp
	.cfi_restore 6
	.cfi_def_cfa 7, 8
	ret
	.cfi_endproc
.LFE7024:
	.seh_endproc
	.align 2
	.def	_ZZ4mainENKUlvE0_clEv;	.scl	3;	.type	32;	.endef
	.seh_proc	_ZZ4mainENKUlvE0_clEv
_ZZ4mainENKUlvE0_clEv:
.LFB7025:
	.loc 5 338 0
	.cfi_startproc
	pushq	%rbp
	.seh_pushreg	%rbp
	.cfi_def_cfa_offset 16
	.cfi_offset 6, -16
	movq	%rsp, %rbp
	.seh_setframe	%rbp, 0
	.cfi_def_cfa_register 6
	subq	$32, %rsp
	.seh_stackalloc	32
	.seh_endprologue
	movq	%rcx, 16(%rbp)
	.loc 5 338 0
	movq	16(%rbp), %rax
	movq	24(%rax), %r8
	movq	16(%rbp), %rax
	movq	16(%rax), %rcx
	movq	16(%rbp), %rax
	movq	8(%rax), %rdx
	movq	16(%rbp), %rax
	movq	(%rax), %rax
	movq	%r8, %r9
	movq	%rcx, %r8
	movq	%rax, %rcx
	call	_Z6renderPcS_PiS0_
	addq	$32, %rsp
	popq	%rbp
	.cfi_restore 6
	.cfi_def_cfa 7, 8
	ret
	.cfi_endproc
.LFE7025:
	.seh_endproc
	.align 2
	.def	_ZZ4mainENKUlvE1_clEv;	.scl	3;	.type	32;	.endef
	.seh_proc	_ZZ4mainENKUlvE1_clEv
_ZZ4mainENKUlvE1_clEv:
.LFB7026:
	.loc 5 339 0
	.cfi_startproc
	pushq	%rbp
	.seh_pushreg	%rbp
	.cfi_def_cfa_offset 16
	.cfi_offset 6, -16
	movq	%rsp, %rbp
	.seh_setframe	%rbp, 0
	.cfi_def_cfa_register 6
	addq	$-128, %rsp
	.seh_stackalloc	128
	.seh_endprologue
	movq	%rcx, 16(%rbp)
	.loc 5 339 0
	movq	16(%rbp), %rax
	movq	(%rax), %rdx
	movq	%rdx, -48(%rbp)
	movq	8(%rax), %rdx
	movq	%rdx, -40(%rbp)
	movq	16(%rax), %rdx
	movq	%rdx, -32(%rbp)
	movq	24(%rax), %rdx
	movq	%rdx, -24(%rbp)
	movq	32(%rax), %rax
	movq	%rax, -16(%rbp)
	movq	16(%rbp), %rax
	movq	40(%rax), %rdx
	movq	%rdx, -96(%rbp)
	movq	48(%rax), %rdx
	movq	%rdx, -88(%rbp)
	movq	56(%rax), %rdx
	movq	%rdx, -80(%rbp)
	movq	64(%rax), %rdx
	movq	%rdx, -72(%rbp)
	movq	72(%rax), %rax
	movq	%rax, -64(%rbp)
	leaq	-96(%rbp), %rdx
	leaq	-48(%rbp), %rax
	movq	%rax, %rcx
	call	_Z6renderIN3dod7pointerI8particleINS0_6accessIJNS0_6memberIcLi0EEENS4_IiLi0EEENS4_IiLi1EEENS4_IiLi2EEENS4_IiLi3EEEEEEEEEEiT_SD_
	subq	$-128, %rsp
	popq	%rbp
	.cfi_restore 6
	.cfi_def_cfa 7, 8
	ret
	.cfi_endproc
.LFE7026:
	.seh_endproc
	.align 2
	.def	_ZZ4mainENKUlvE2_clEv;	.scl	3;	.type	32;	.endef
	.seh_proc	_ZZ4mainENKUlvE2_clEv
_ZZ4mainENKUlvE2_clEv:
.LFB7027:
	.loc 5 340 0
	.cfi_startproc
	pushq	%rbp
	.seh_pushreg	%rbp
	.cfi_def_cfa_offset 16
	.cfi_offset 6, -16
	movq	%rsp, %rbp
	.seh_setframe	%rbp, 0
	.cfi_def_cfa_register 6
	subq	$96, %rsp
	.seh_stackalloc	96
	.seh_endprologue
	movq	%rcx, 16(%rbp)
	.loc 5 340 0
	movq	16(%rbp), %rax
	movq	(%rax), %rdx
	movq	%rdx, -32(%rbp)
	movq	8(%rax), %rdx
	movq	%rdx, -24(%rbp)
	movq	16(%rax), %rax
	movq	%rax, -16(%rbp)
	movq	16(%rbp), %rax
	movq	24(%rax), %rdx
	movq	%rdx, -64(%rbp)
	movq	32(%rax), %rdx
	movq	%rdx, -56(%rbp)
	movq	40(%rax), %rax
	movq	%rax, -48(%rbp)
	leaq	-64(%rbp), %rdx
	leaq	-32(%rbp), %rax
	movq	%rax, %rcx
	call	_Z6renderIN3dod7pointerI8particleINS0_6accessIJNS0_6memberIcLi0EEENS4_IiLi0EEENS4_IiLi1EEEEEEEEEEiT_SB_
	addq	$96, %rsp
	popq	%rbp
	.cfi_restore 6
	.cfi_def_cfa 7, 8
	ret
	.cfi_endproc
.LFE7027:
	.seh_endproc
	.align 2
	.def	_ZZ4mainENKUlvE3_clEv;	.scl	3;	.type	32;	.endef
	.seh_proc	_ZZ4mainENKUlvE3_clEv
_ZZ4mainENKUlvE3_clEv:
.LFB7028:
	.loc 5 341 0
	.cfi_startproc
	pushq	%rbp
	.seh_pushreg	%rbp
	.cfi_def_cfa_offset 16
	.cfi_offset 6, -16
	movq	%rsp, %rbp
	.seh_setframe	%rbp, 0
	.cfi_def_cfa_register 6
	subq	$32, %rsp
	.seh_stackalloc	32
	.seh_endprologue
	movq	%rcx, 16(%rbp)
	.loc 5 341 0
	movq	16(%rbp), %rax
	movq	8(%rax), %rdx
	movq	16(%rbp), %rax
	movq	(%rax), %rcx
	call	_Z6renderIN9__gnu_cxx17__normal_iteratorIP14plain_particleSt6vectorIS2_SaIS2_EEEEyEiT_T0_
	addq	$32, %rsp
	popq	%rbp
	.cfi_restore 6
	.cfi_def_cfa 7, 8
	ret
	.cfi_endproc
.LFE7028:
	.seh_endproc
	.align 2
	.def	_ZZ4mainENKUlvE4_clEv;	.scl	3;	.type	32;	.endef
	.seh_proc	_ZZ4mainENKUlvE4_clEv
_ZZ4mainENKUlvE4_clEv:
.LFB7029:
	.loc 5 342 0
	.cfi_startproc
	pushq	%rbp
	.seh_pushreg	%rbp
	.cfi_def_cfa_offset 16
	.cfi_offset 6, -16
	movq	%rsp, %rbp
	.seh_setframe	%rbp, 0
	.cfi_def_cfa_register 6
	subq	$32, %rsp
	.seh_stackalloc	32
	.seh_endprologue
	movq	%rcx, 16(%rbp)
	.loc 5 342 0
	movq	16(%rbp), %rax
	movq	24(%rax), %r8
	movq	16(%rbp), %rax
	movq	16(%rax), %rcx
	movq	16(%rbp), %rax
	movq	8(%rax), %rdx
	movq	16(%rbp), %rax
	movq	(%rax), %rax
	movq	%r8, %r9
	movq	%rcx, %r8
	movq	%rax, %rcx
	call	_Z6renderPcPiS0_y
	addq	$32, %rsp
	popq	%rbp
	.cfi_restore 6
	.cfi_def_cfa 7, 8
	ret
	.cfi_endproc
.LFE7029:
	.seh_endproc
	.align 2
	.def	_ZZ4mainENKUlvE5_clEv;	.scl	3;	.type	32;	.endef
	.seh_proc	_ZZ4mainENKUlvE5_clEv
_ZZ4mainENKUlvE5_clEv:
.LFB7030:
	.loc 5 343 0
	.cfi_startproc
	pushq	%rbp
	.seh_pushreg	%rbp
	.cfi_def_cfa_offset 16
	.cfi_offset 6, -16
	movq	%rsp, %rbp
	.seh_setframe	%rbp, 0
	.cfi_def_cfa_register 6
	subq	$80, %rsp
	.seh_stackalloc	80
	.seh_endprologue
	movq	%rcx, 16(%rbp)
	.loc 5 343 0
	movq	16(%rbp), %rax
	movq	40(%rax), %rdx
	movq	16(%rbp), %rax
	movq	(%rax), %rcx
	movq	%rcx, -48(%rbp)
	movq	8(%rax), %rcx
	movq	%rcx, -40(%rbp)
	movq	16(%rax), %rcx
	movq	%rcx, -32(%rbp)
	movq	24(%rax), %rcx
	movq	%rcx, -24(%rbp)
	movq	32(%rax), %rax
	movq	%rax, -16(%rbp)
	leaq	-48(%rbp), %rax
	movq	%rax, %rcx
	call	_Z6renderIN3dod7pointerI8particleINS0_6accessIJNS0_6memberIcLi0EEENS4_IiLi0EEENS4_IiLi1EEENS4_IiLi2EEENS4_IiLi3EEEEEEEEEyEiT_T0_
	addq	$80, %rsp
	popq	%rbp
	.cfi_restore 6
	.cfi_def_cfa 7, 8
	ret
	.cfi_endproc
.LFE7030:
	.seh_endproc
	.align 2
	.def	_ZZ4mainENKUlvE6_clEv;	.scl	3;	.type	32;	.endef
	.seh_proc	_ZZ4mainENKUlvE6_clEv
_ZZ4mainENKUlvE6_clEv:
.LFB7031:
	.loc 5 344 0
	.cfi_startproc
	pushq	%rbp
	.seh_pushreg	%rbp
	.cfi_def_cfa_offset 16
	.cfi_offset 6, -16
	movq	%rsp, %rbp
	.seh_setframe	%rbp, 0
	.cfi_def_cfa_register 6
	subq	$64, %rsp
	.seh_stackalloc	64
	.seh_endprologue
	movq	%rcx, 16(%rbp)
	.loc 5 344 0
	movq	16(%rbp), %rax
	movq	24(%rax), %rdx
	movq	16(%rbp), %rax
	movq	(%rax), %rcx
	movq	%rcx, -32(%rbp)
	movq	8(%rax), %rcx
	movq	%rcx, -24(%rbp)
	movq	16(%rax), %rax
	movq	%rax, -16(%rbp)
	leaq	-32(%rbp), %rax
	movq	%rax, %rcx
	call	_Z6renderIN3dod7pointerI8particleINS0_6accessIJNS0_6memberIcLi0EEENS4_IiLi0EEENS4_IiLi1EEEEEEEEEyEiT_T0_
	addq	$64, %rsp
	popq	%rbp
	.cfi_restore 6
	.cfi_def_cfa 7, 8
	ret
	.cfi_endproc
.LFE7031:
	.seh_endproc
	.def	__main;	.scl	2;	.type	32;	.endef
	.section .rdata,"dr"
.LC0:
	.ascii "render:\0"
	.align 8
.LC1:
	.ascii "n;oop;raw;dod;render_dod;oop[i];raw[i];dod[i];render_dod[i]\0"
.LC2:
	.ascii ";\0"
	.text
	.globl	main
	.def	main;	.scl	2;	.type	32;	.endef
	.seh_proc	main
main:
.LFB7023:
	.loc 5 294 0
	.cfi_startproc
	.cfi_personality 0x9b,.LDFCM0
	.cfi_lsda 0x1c,.LLSDA7023
	pushq	%rbp
	.seh_pushreg	%rbp
	.cfi_def_cfa_offset 16
	.cfi_offset 6, -16
	pushq	%r13
	.seh_pushreg	%r13
	.cfi_def_cfa_offset 24
	.cfi_offset 13, -24
	pushq	%r12
	.seh_pushreg	%r12
	.cfi_def_cfa_offset 32
	.cfi_offset 12, -32
	pushq	%rsi
	.seh_pushreg	%rsi
	.cfi_def_cfa_offset 40
	.cfi_offset 4, -40
	pushq	%rbx
	.seh_pushreg	%rbx
	.cfi_def_cfa_offset 48
	.cfi_offset 3, -48
	subq	$1088, %rsp
	.seh_stackalloc	1088
	.cfi_def_cfa_offset 1136
	leaq	128(%rsp), %rbp
	.seh_setframe	%rbp, 128
	.cfi_def_cfa 6, 1008
	.seh_endprologue
	.loc 5 294 0
	call	__main
	.loc 5 301 0
	movq	$10000, 936(%rbp)
	movq	$10000000, 928(%rbp)
	movq	$10, 920(%rbp)
	.loc 5 303 0
	leaq	.LC0(%rip), %rdx
	movq	.refptr._ZSt4cout(%rip), %rcx
.LEHB0:
	call	_ZStlsISt11char_traitsIcEERSt13basic_ostreamIcT_ES5_PKc
	movq	.refptr._ZSt4endlIcSt11char_traitsIcEERSt13basic_ostreamIT_T0_ES6_(%rip), %rdx
	movq	%rax, %rcx
	call	_ZNSolsEPFRSoS_E
	.loc 5 304 0
	leaq	.LC1(%rip), %rdx
	movq	.refptr._ZSt4cout(%rip), %rcx
	call	_ZStlsISt11char_traitsIcEERSt13basic_ostreamIcT_ES5_PKc
	movq	.refptr._ZSt4endlIcSt11char_traitsIcEERSt13basic_ostreamIT_T0_ES6_(%rip), %rdx
	movq	%rax, %rcx
	call	_ZNSolsEPFRSoS_E
.LEHE0:
.LBB37:
	.loc 5 306 0
	movq	936(%rbp), %rax
	movq	%rax, 952(%rbp)
.L53:
	.loc 5 306 0 is_stmt 0 discriminator 1
	movq	952(%rbp), %rax
	cmpq	928(%rbp), %rax
	ja	.L50
.LBB38:
	.loc 5 307 0 is_stmt 1
	leaq	416(%rbp), %rax
	movq	%rax, %rcx
	call	_ZNSt6vectorIcSaIcEEC1Ev
	.loc 5 308 0
	leaq	384(%rbp), %rax
	movq	%rax, %rcx
	call	_ZNSt6vectorIiSaIiEEC1Ev
	leaq	352(%rbp), %rax
	movq	%rax, %rcx
	call	_ZNSt6vectorIiSaIiEEC1Ev
	leaq	320(%rbp), %rax
	movq	%rax, %rcx
	call	_ZNSt6vectorIiSaIiEEC1Ev
	leaq	288(%rbp), %rax
	movq	%rax, %rcx
	call	_ZNSt6vectorIiSaIiEEC1Ev
	.loc 5 309 0
	leaq	256(%rbp), %rax
	movq	%rax, %rcx
	call	_ZNSt6vectorI14plain_particleSaIS0_EEC1Ev
.LBB39:
	.loc 5 311 0
	movq	$0, 944(%rbp)
.L52:
	.loc 5 311 0 is_stmt 0 discriminator 1
	movq	944(%rbp), %rax
	cmpq	952(%rbp), %rax
	jnb	.L51
.LBB40:
	.loc 5 312 0 is_stmt 1
	movq	944(%rbp), %rcx
	movabsq	$-3689348814741910323, %rdx
	movq	%rcx, %rax
	mulq	%rdx
	shrq	$2, %rdx
	movq	%rdx, %rax
	salq	$2, %rax
	addq	%rdx, %rax
	subq	%rax, %rcx
	movq	%rcx, %rdx
	movl	%edx, %eax
	movb	%al, 159(%rbp)
	.loc 5 313 0
	movq	944(%rbp), %rax
	movl	%eax, 152(%rbp)
	movq	944(%rbp), %rax
	addl	%eax, %eax
	movl	%eax, 148(%rbp)
	movq	944(%rbp), %rcx
	movabsq	$-3689348814741910323, %rdx
	movq	%rcx, %rax
	mulq	%rdx
	shrq	$4, %rdx
	movq	%rdx, %rax
	salq	$2, %rax
	addq	%rdx, %rax
	salq	$2, %rax
	subq	%rax, %rcx
	movq	%rcx, %rdx
	movl	%edx, %eax
	movl	%eax, 144(%rbp)
	movq	944(%rbp), %rcx
	movabsq	$-3689348814741910323, %rdx
	movq	%rcx, %rax
	mulq	%rdx
	shrq	$3, %rdx
	movq	%rdx, %rax
	salq	$2, %rax
	addq	%rdx, %rax
	addq	%rax, %rax
	subq	%rax, %rcx
	movq	%rcx, %rdx
	movl	%edx, %eax
	movl	%eax, 140(%rbp)
	.loc 5 314 0
	movl	140(%rbp), %r8d
	movl	144(%rbp), %ecx
	movl	148(%rbp), %r9d
	movl	152(%rbp), %r10d
	movzbl	159(%rbp), %eax
	movsbl	%al, %edx
	leaq	448(%rbp), %rax
	movl	%r8d, 40(%rsp)
	movl	%ecx, 32(%rsp)
	movl	%r10d, %r8d
	movq	%rax, %rcx
	call	_ZN14plain_particleC1Eciiii
	leaq	448(%rbp), %rdx
	leaq	256(%rbp), %rax
	movq	%rax, %rcx
.LEHB1:
	call	_ZNSt6vectorI14plain_particleSaIS0_EE9push_backEOS0_
	.loc 5 315 0 discriminator 2
	leaq	159(%rbp), %rdx
	leaq	416(%rbp), %rax
	movq	%rax, %rcx
	call	_ZNSt6vectorIcSaIcEE9push_backERKc
	.loc 5 316 0
	leaq	152(%rbp), %rdx
	leaq	384(%rbp), %rax
	movq	%rax, %rcx
	call	_ZNSt6vectorIiSaIiEE9push_backERKi
	.loc 5 317 0
	leaq	148(%rbp), %rdx
	leaq	352(%rbp), %rax
	movq	%rax, %rcx
	call	_ZNSt6vectorIiSaIiEE9push_backERKi
	.loc 5 318 0
	leaq	144(%rbp), %rdx
	leaq	320(%rbp), %rax
	movq	%rax, %rcx
	call	_ZNSt6vectorIiSaIiEE9push_backERKi
	.loc 5 319 0
	leaq	140(%rbp), %rdx
	leaq	288(%rbp), %rax
	movq	%rax, %rcx
	call	_ZNSt6vectorIiSaIiEE9push_backERKi
.LEHE1:
.LBE40:
	.loc 5 311 0 discriminator 2
	addq	$1, 944(%rbp)
	jmp	.L52
.L51:
.LBE39:
	.loc 5 325 0
	leaq	256(%rbp), %rax
	movq	%rax, %rcx
	call	_ZNSt6vectorI14plain_particleSaIS0_EE5beginEv
	movq	%rax, 240(%rbp)
	.loc 5 326 0
	leaq	256(%rbp), %rax
	movq	%rax, %rcx
	call	_ZNSt6vectorI14plain_particleSaIS0_EE3endEv
	movq	%rax, 224(%rbp)
	.loc 5 327 0
	leaq	416(%rbp), %rax
	movl	$0, %edx
	movq	%rax, %rcx
	call	_ZNSt6vectorIcSaIcEEixEy
	movq	%rax, 912(%rbp)
	.loc 5 328 0
	movq	952(%rbp), %rax
	leaq	-1(%rax), %rdx
	leaq	416(%rbp), %rax
	movq	%rax, %rcx
	call	_ZNSt6vectorIcSaIcEEixEy
	movq	%rax, 904(%rbp)
	.loc 5 329 0
	leaq	384(%rbp), %rax
	movl	$0, %edx
	movq	%rax, %rcx
	call	_ZNSt6vectorIiSaIiEEixEy
	movq	%rax, 896(%rbp)
	.loc 5 330 0
	leaq	352(%rbp), %rax
	movl	$0, %edx
	movq	%rax, %rcx
	call	_ZNSt6vectorIiSaIiEEixEy
	movq	%rax, 888(%rbp)
	.loc 5 331 0
	leaq	288(%rbp), %rax
	movl	$0, %edx
	movq	%rax, %rcx
	call	_ZNSt6vectorIiSaIiEEixEy
	movq	%rax, 520(%rbp)
	leaq	320(%rbp), %rax
	movl	$0, %edx
	movq	%rax, %rcx
	call	_ZNSt6vectorIiSaIiEEixEy
	movq	%rax, 528(%rbp)
	leaq	352(%rbp), %rax
	movl	$0, %edx
	movq	%rax, %rcx
	call	_ZNSt6vectorIiSaIiEEixEy
	movq	%rax, 536(%rbp)
	leaq	384(%rbp), %rax
	movl	$0, %edx
	movq	%rax, %rcx
	call	_ZNSt6vectorIiSaIiEEixEy
	movq	%rax, 544(%rbp)
	leaq	416(%rbp), %rax
	movl	$0, %edx
	movq	%rax, %rcx
	call	_ZNSt6vectorIcSaIcEEixEy
	movq	%rax, 552(%rbp)
	leaq	536(%rbp), %r9
	leaq	544(%rbp), %r8
	leaq	552(%rbp), %rdx
	leaq	480(%rbp), %rax
	leaq	520(%rbp), %rcx
	movq	%rcx, 40(%rsp)
	leaq	528(%rbp), %rcx
	movq	%rcx, 32(%rsp)
	movq	%rax, %rcx
.LEHB2:
	call	_ZN3dod6accessIJNS_6memberIcLi0EEENS1_IiLi0EEENS1_IiLi1EEENS1_IiLi2EEENS1_IiLi3EEEEEC1IPcJPiSA_SA_SA_EEEOT_DpOT0_
	.loc 5 331 0 is_stmt 0 discriminator 2
	leaq	48(%rbp), %rax
	leaq	480(%rbp), %rdx
	movq	%rax, %rcx
	call	_ZN3dod12make_pointerI8particleNS_6accessIJNS_6memberIcLi0EEENS3_IiLi0EEENS3_IiLi1EEENS3_IiLi2EEENS3_IiLi3EEEEEEEENS_7pointerIT_IT0_EEERKSC_
.LEHE2:
	.loc 5 332 0 is_stmt 1 discriminator 4
	movq	952(%rbp), %rcx
	leaq	96(%rbp), %rax
	leaq	48(%rbp), %rdx
	movq	%rcx, %r8
	movq	%rax, %rcx
.LEHB3:
	call	_ZN5boost9iteratorsplIN3dod7pointerI8particleINS2_6accessIJNS2_6memberIcLi0EEENS6_IiLi0EEENS6_IiLi1EEENS6_IiLi2EEENS6_IiLi3EEEEEEEEESD_NS0_27random_access_traversal_tagESD_xEENS0_9enable_ifINS0_6detail21is_traversal_at_leastIT1_SF_EET_E4typeERKNS0_15iterator_facadeISL_T0_SJ_T2_T3_EENSL_15difference_typeE
.LEHE3:
	.loc 5 333 0
	leaq	352(%rbp), %rax
	movl	$0, %edx
	movq	%rax, %rcx
	call	_ZNSt6vectorIiSaIiEEixEy
	movq	%rax, 584(%rbp)
	leaq	384(%rbp), %rax
	movl	$0, %edx
	movq	%rax, %rcx
	call	_ZNSt6vectorIiSaIiEEixEy
	movq	%rax, 592(%rbp)
	leaq	416(%rbp), %rax
	movl	$0, %edx
	movq	%rax, %rcx
	call	_ZNSt6vectorIcSaIcEEixEy
	movq	%rax, 600(%rbp)
	leaq	584(%rbp), %r8
	leaq	592(%rbp), %rcx
	leaq	600(%rbp), %rdx
	leaq	560(%rbp), %rax
	movq	%r8, %r9
	movq	%rcx, %r8
	movq	%rax, %rcx
.LEHB4:
	call	_ZN3dod6accessIJNS_6memberIcLi0EEENS1_IiLi0EEENS1_IiLi1EEEEEC1IPcJPiS8_EEEOT_DpOT0_
	.loc 5 333 0 is_stmt 0 discriminator 2
	leaq	192(%rbp), %rax
	leaq	560(%rbp), %rdx
	movq	%rax, %rcx
	call	_ZN3dod12make_pointerI8particleNS_6accessIJNS_6memberIcLi0EEENS3_IiLi0EEENS3_IiLi1EEEEEEEENS_7pointerIT_IT0_EEERKSA_
.LEHE4:
	.loc 5 334 0 is_stmt 1 discriminator 4
	movq	952(%rbp), %rcx
	leaq	160(%rbp), %rax
	leaq	192(%rbp), %rdx
	movq	%rcx, %r8
	movq	%rax, %rcx
.LEHB5:
	call	_ZN5boost9iteratorsplIN3dod7pointerI8particleINS2_6accessIJNS2_6memberIcLi0EEENS6_IiLi0EEENS6_IiLi1EEEEEEEEESB_NS0_27random_access_traversal_tagESB_xEENS0_9enable_ifINS0_6detail21is_traversal_at_leastIT1_SD_EET_E4typeERKNS0_15iterator_facadeISJ_T0_SH_T2_T3_EENSJ_15difference_typeE
	.loc 5 336 0
	movq	952(%rbp), %rax
	movq	%rax, %rdx
	movq	.refptr._ZSt4cout(%rip), %rcx
	call	_ZNSolsEy
	leaq	.LC2(%rip), %rdx
	movq	%rax, %rcx
	call	_ZStlsISt11char_traitsIcEERSt13basic_ostreamIcT_ES5_PKc
	.loc 5 337 0
	movq	240(%rbp), %r12
	movq	224(%rbp), %r13
	movq	%r12, 32(%rbp)
	movq	%r13, 40(%rbp)
	movq	952(%rbp), %rdx
	leaq	32(%rbp), %rax
	movq	%rax, %rcx
	call	_Z7measureIZ4mainEUlvE_EdT_y
	movq	%xmm0, %rax
	movq	%rax, %xmm1
	movq	.refptr._ZSt4cout(%rip), %rcx
	call	_ZNSolsEd
	.loc 5 337 0 is_stmt 0 discriminator 1
	leaq	.LC2(%rip), %rdx
	movq	%rax, %rcx
	call	_ZStlsISt11char_traitsIcEERSt13basic_ostreamIcT_ES5_PKc
	.loc 5 338 0 is_stmt 1
	movq	912(%rbp), %rax
	movq	%rax, 608(%rbp)
	movq	904(%rbp), %rax
	movq	%rax, 616(%rbp)
	movq	896(%rbp), %rax
	movq	%rax, 624(%rbp)
	movq	888(%rbp), %rax
	movq	%rax, 632(%rbp)
	movq	608(%rbp), %rax
	movq	%rax, 0(%rbp)
	movq	616(%rbp), %rax
	movq	%rax, 8(%rbp)
	movq	624(%rbp), %rax
	movq	%rax, 16(%rbp)
	movq	632(%rbp), %rax
	movq	%rax, 24(%rbp)
	movq	952(%rbp), %rdx
	movq	%rbp, %rax
	movq	%rax, %rcx
	call	_Z7measureIZ4mainEUlvE0_EdT_y
	movq	%xmm0, %rax
	movq	%rax, %xmm1
	movq	.refptr._ZSt4cout(%rip), %rcx
	call	_ZNSolsEd
	.loc 5 338 0 is_stmt 0 discriminator 1
	leaq	.LC2(%rip), %rdx
	movq	%rax, %rcx
	call	_ZStlsISt11char_traitsIcEERSt13basic_ostreamIcT_ES5_PKc
	.loc 5 339 0 is_stmt 1
	movq	48(%rbp), %rax
	movq	%rax, 640(%rbp)
	movq	56(%rbp), %rax
	movq	%rax, 648(%rbp)
	movq	64(%rbp), %rax
	movq	%rax, 656(%rbp)
	movq	72(%rbp), %rax
	movq	%rax, 664(%rbp)
	movq	80(%rbp), %rax
	movq	%rax, 672(%rbp)
	movq	96(%rbp), %rax
	movq	%rax, 680(%rbp)
	movq	104(%rbp), %rax
	movq	%rax, 688(%rbp)
	movq	112(%rbp), %rax
	movq	%rax, 696(%rbp)
	movq	120(%rbp), %rax
	movq	%rax, 704(%rbp)
	movq	128(%rbp), %rax
	movq	%rax, 712(%rbp)
	movq	640(%rbp), %rax
	movq	%rax, -80(%rbp)
	movq	648(%rbp), %rax
	movq	%rax, -72(%rbp)
	movq	656(%rbp), %rax
	movq	%rax, -64(%rbp)
	movq	664(%rbp), %rax
	movq	%rax, -56(%rbp)
	movq	672(%rbp), %rax
	movq	%rax, -48(%rbp)
	movq	680(%rbp), %rax
	movq	%rax, -40(%rbp)
	movq	688(%rbp), %rax
	movq	%rax, -32(%rbp)
	movq	696(%rbp), %rax
	movq	%rax, -24(%rbp)
	movq	704(%rbp), %rax
	movq	%rax, -16(%rbp)
	movq	712(%rbp), %rax
	movq	%rax, -8(%rbp)
	movq	952(%rbp), %rdx
	leaq	-80(%rbp), %rax
	movq	%rax, %rcx
	call	_Z7measureIZ4mainEUlvE1_EdT_y
	movq	%xmm0, %rax
	movq	%rax, %xmm1
	movq	.refptr._ZSt4cout(%rip), %rcx
	call	_ZNSolsEd
	.loc 5 339 0 is_stmt 0 discriminator 1
	leaq	.LC2(%rip), %rdx
	movq	%rax, %rcx
	call	_ZStlsISt11char_traitsIcEERSt13basic_ostreamIcT_ES5_PKc
	.loc 5 340 0 is_stmt 1
	movq	192(%rbp), %rax
	movq	%rax, 720(%rbp)
	movq	200(%rbp), %rax
	movq	%rax, 728(%rbp)
	movq	208(%rbp), %rax
	movq	%rax, 736(%rbp)
	movq	160(%rbp), %rax
	movq	%rax, 744(%rbp)
	movq	168(%rbp), %rax
	movq	%rax, 752(%rbp)
	movq	176(%rbp), %rax
	movq	%rax, 760(%rbp)
	movq	720(%rbp), %rax
	movq	%rax, -80(%rbp)
	movq	728(%rbp), %rax
	movq	%rax, -72(%rbp)
	movq	736(%rbp), %rax
	movq	%rax, -64(%rbp)
	movq	744(%rbp), %rax
	movq	%rax, -56(%rbp)
	movq	752(%rbp), %rax
	movq	%rax, -48(%rbp)
	movq	760(%rbp), %rax
	movq	%rax, -40(%rbp)
	movq	952(%rbp), %rdx
	leaq	-80(%rbp), %rax
	movq	%rax, %rcx
	call	_Z7measureIZ4mainEUlvE2_EdT_y
	movq	%xmm0, %rax
	movq	%rax, %xmm1
	movq	.refptr._ZSt4cout(%rip), %rcx
	call	_ZNSolsEd
	.loc 5 340 0 is_stmt 0 discriminator 1
	leaq	.LC2(%rip), %rdx
	movq	%rax, %rcx
	call	_ZStlsISt11char_traitsIcEERSt13basic_ostreamIcT_ES5_PKc
	.loc 5 341 0 is_stmt 1
	movq	240(%rbp), %rbx
	movq	952(%rbp), %rsi
	movq	%rbx, 32(%rbp)
	movq	%rsi, 40(%rbp)
	movq	952(%rbp), %rdx
	leaq	32(%rbp), %rax
	movq	%rax, %rcx
	call	_Z7measureIZ4mainEUlvE3_EdT_y
	movq	%xmm0, %rax
	movq	%rax, %xmm1
	movq	.refptr._ZSt4cout(%rip), %rcx
	call	_ZNSolsEd
	.loc 5 341 0 is_stmt 0 discriminator 1
	leaq	.LC2(%rip), %rdx
	movq	%rax, %rcx
	call	_ZStlsISt11char_traitsIcEERSt13basic_ostreamIcT_ES5_PKc
	.loc 5 342 0 is_stmt 1
	movq	912(%rbp), %rax
	movq	%rax, 768(%rbp)
	movq	896(%rbp), %rax
	movq	%rax, 776(%rbp)
	movq	888(%rbp), %rax
	movq	%rax, 784(%rbp)
	movq	952(%rbp), %rax
	movq	%rax, 792(%rbp)
	movq	768(%rbp), %rax
	movq	%rax, -80(%rbp)
	movq	776(%rbp), %rax
	movq	%rax, -72(%rbp)
	movq	784(%rbp), %rax
	movq	%rax, -64(%rbp)
	movq	792(%rbp), %rax
	movq	%rax, -56(%rbp)
	movq	952(%rbp), %rdx
	leaq	-80(%rbp), %rax
	movq	%rax, %rcx
	call	_Z7measureIZ4mainEUlvE4_EdT_y
	movq	%xmm0, %rax
	movq	%rax, %xmm1
	movq	.refptr._ZSt4cout(%rip), %rcx
	call	_ZNSolsEd
	.loc 5 342 0 is_stmt 0 discriminator 1
	leaq	.LC2(%rip), %rdx
	movq	%rax, %rcx
	call	_ZStlsISt11char_traitsIcEERSt13basic_ostreamIcT_ES5_PKc
	.loc 5 343 0 is_stmt 1
	movq	48(%rbp), %rax
	movq	%rax, 800(%rbp)
	movq	56(%rbp), %rax
	movq	%rax, 808(%rbp)
	movq	64(%rbp), %rax
	movq	%rax, 816(%rbp)
	movq	72(%rbp), %rax
	movq	%rax, 824(%rbp)
	movq	80(%rbp), %rax
	movq	%rax, 832(%rbp)
	movq	952(%rbp), %rax
	movq	%rax, 840(%rbp)
	movq	800(%rbp), %rax
	movq	%rax, -80(%rbp)
	movq	808(%rbp), %rax
	movq	%rax, -72(%rbp)
	movq	816(%rbp), %rax
	movq	%rax, -64(%rbp)
	movq	824(%rbp), %rax
	movq	%rax, -56(%rbp)
	movq	832(%rbp), %rax
	movq	%rax, -48(%rbp)
	movq	840(%rbp), %rax
	movq	%rax, -40(%rbp)
	movq	952(%rbp), %rdx
	leaq	-80(%rbp), %rax
	movq	%rax, %rcx
	call	_Z7measureIZ4mainEUlvE5_EdT_y
	movq	%xmm0, %rax
	movq	%rax, %xmm1
	movq	.refptr._ZSt4cout(%rip), %rcx
	call	_ZNSolsEd
	.loc 5 343 0 is_stmt 0 discriminator 1
	leaq	.LC2(%rip), %rdx
	movq	%rax, %rcx
	call	_ZStlsISt11char_traitsIcEERSt13basic_ostreamIcT_ES5_PKc
	.loc 5 344 0 is_stmt 1
	movq	192(%rbp), %rax
	movq	%rax, 848(%rbp)
	movq	200(%rbp), %rax
	movq	%rax, 856(%rbp)
	movq	208(%rbp), %rax
	movq	%rax, 864(%rbp)
	movq	952(%rbp), %rax
	movq	%rax, 872(%rbp)
	movq	848(%rbp), %rax
	movq	%rax, -80(%rbp)
	movq	856(%rbp), %rax
	movq	%rax, -72(%rbp)
	movq	864(%rbp), %rax
	movq	%rax, -64(%rbp)
	movq	872(%rbp), %rax
	movq	%rax, -56(%rbp)
	movq	952(%rbp), %rdx
	leaq	-80(%rbp), %rax
	movq	%rax, %rcx
	call	_Z7measureIZ4mainEUlvE6_EdT_y
	movq	%xmm0, %rax
	movq	%rax, %xmm1
	movq	.refptr._ZSt4cout(%rip), %rcx
	call	_ZNSolsEd
	.loc 5 344 0 is_stmt 0 discriminator 1
	movq	.refptr._ZSt4endlIcSt11char_traitsIcEERSt13basic_ostreamIT_T0_ES6_(%rip), %rdx
	movq	%rax, %rcx
	call	_ZNSolsEPFRSoS_E
.LEHE5:
	.loc 5 309 0 is_stmt 1 discriminator 2
	leaq	256(%rbp), %rax
	movq	%rax, %rcx
	call	_ZNSt6vectorI14plain_particleSaIS0_EED1Ev
	.loc 5 308 0 discriminator 2
	leaq	288(%rbp), %rax
	movq	%rax, %rcx
	call	_ZNSt6vectorIiSaIiEED1Ev
	leaq	320(%rbp), %rax
	movq	%rax, %rcx
	call	_ZNSt6vectorIiSaIiEED1Ev
	leaq	352(%rbp), %rax
	movq	%rax, %rcx
	call	_ZNSt6vectorIiSaIiEED1Ev
	leaq	384(%rbp), %rax
	movq	%rax, %rcx
	call	_ZNSt6vectorIiSaIiEED1Ev
	.loc 5 307 0 discriminator 2
	leaq	416(%rbp), %rax
	movq	%rax, %rcx
	call	_ZNSt6vectorIcSaIcEED1Ev
.LBE38:
	.loc 5 306 0 discriminator 2
	movq	952(%rbp), %rax
	imulq	920(%rbp), %rax
	movq	%rax, 952(%rbp)
	jmp	.L53
.L50:
.LBE37:
	.loc 5 346 0
	movl	$0, %eax
	jmp	.L61
.L59:
	movq	%rax, %rbx
	jmp	.L56
.L60:
	movq	%rax, %rbx
	jmp	.L56
.L58:
	movq	%rax, %rbx
.L56:
.LBB42:
.LBB41:
	.loc 5 309 0
	leaq	256(%rbp), %rax
	movq	%rax, %rcx
	call	_ZNSt6vectorI14plain_particleSaIS0_EED1Ev
	.loc 5 308 0
	leaq	288(%rbp), %rax
	movq	%rax, %rcx
	call	_ZNSt6vectorIiSaIiEED1Ev
	leaq	320(%rbp), %rax
	movq	%rax, %rcx
	call	_ZNSt6vectorIiSaIiEED1Ev
	leaq	352(%rbp), %rax
	movq	%rax, %rcx
	call	_ZNSt6vectorIiSaIiEED1Ev
	leaq	384(%rbp), %rax
	movq	%rax, %rcx
	call	_ZNSt6vectorIiSaIiEED1Ev
	.loc 5 307 0
	leaq	416(%rbp), %rax
	movq	%rax, %rcx
	call	_ZNSt6vectorIcSaIcEED1Ev
	movq	%rbx, %rax
	movq	%rax, %rcx
.LEHB6:
	call	_Unwind_Resume
.LEHE6:
.L61:
.LBE41:
.LBE42:
	.loc 5 346 0
	addq	$1088, %rsp
	popq	%rbx
	.cfi_restore 3
	popq	%rsi
	.cfi_restore 4
	popq	%r12
	.cfi_restore 12
	popq	%r13
	.cfi_restore 13
	popq	%rbp
	.cfi_restore 6
	.cfi_def_cfa 7, -1048
	ret
	.cfi_endproc
.LFE7023:
	.def	__gxx_personality_seh0;	.scl	2;	.type	32;	.endef
	.seh_handler	__gxx_personality_seh0, @unwind, @except
	.seh_handlerdata
.LLSDA7023:
	.byte	0xff
	.byte	0xff
	.byte	0x1
	.uleb128 .LLSDACSE7023-.LLSDACSB7023
.LLSDACSB7023:
	.uleb128 .LEHB0-.LFB7023
	.uleb128 .LEHE0-.LEHB0
	.uleb128 0
	.uleb128 0
	.uleb128 .LEHB1-.LFB7023
	.uleb128 .LEHE1-.LEHB1
	.uleb128 .L58-.LFB7023
	.uleb128 0
	.uleb128 .LEHB2-.LFB7023
	.uleb128 .LEHE2-.LEHB2
	.uleb128 .L59-.LFB7023
	.uleb128 0
	.uleb128 .LEHB3-.LFB7023
	.uleb128 .LEHE3-.LEHB3
	.uleb128 .L58-.LFB7023
	.uleb128 0
	.uleb128 .LEHB4-.LFB7023
	.uleb128 .LEHE4-.LEHB4
	.uleb128 .L60-.LFB7023
	.uleb128 0
	.uleb128 .LEHB5-.LFB7023
	.uleb128 .LEHE5-.LEHB5
	.uleb128 .L58-.LFB7023
	.uleb128 0
	.uleb128 .LEHB6-.LFB7023
	.uleb128 .LEHE6-.LEHB6
	.uleb128 0
	.uleb128 0
.LLSDACSE7023:
	.text
	.seh_endproc
	.section	.text$_ZNSt6chrono10time_pointINS_3_V212system_clockENS_8durationIxSt5ratioILx1ELx1000000000EEEEEpLERKS6_,"x"
	.linkonce discard
	.align 2
	.globl	_ZNSt6chrono10time_pointINS_3_V212system_clockENS_8durationIxSt5ratioILx1ELx1000000000EEEEEpLERKS6_
	.def	_ZNSt6chrono10time_pointINS_3_V212system_clockENS_8durationIxSt5ratioILx1ELx1000000000EEEEEpLERKS6_;	.scl	2;	.type	32;	.endef
	.seh_proc	_ZNSt6chrono10time_pointINS_3_V212system_clockENS_8durationIxSt5ratioILx1ELx1000000000EEEEEpLERKS6_
_ZNSt6chrono10time_pointINS_3_V212system_clockENS_8durationIxSt5ratioILx1ELx1000000000EEEEEpLERKS6_:
.LFB7090:
	.loc 4 573 0
	.cfi_startproc
	pushq	%rbp
	.seh_pushreg	%rbp
	.cfi_def_cfa_offset 16
	.cfi_offset 6, -16
	movq	%rsp, %rbp
	.seh_setframe	%rbp, 0
	.cfi_def_cfa_register 6
	subq	$32, %rsp
	.seh_stackalloc	32
	.seh_endprologue
	movq	%rcx, 16(%rbp)
	movq	%rdx, 24(%rbp)
	.loc 4 575 0
	movq	16(%rbp), %rax
	movq	24(%rbp), %rdx
	movq	%rax, %rcx
	call	_ZNSt6chrono8durationIxSt5ratioILx1ELx1000000000EEEpLERKS3_
	.loc 4 576 0
	movq	16(%rbp), %rax
	.loc 4 577 0
	addq	$32, %rsp
	popq	%rbp
	.cfi_restore 6
	.cfi_def_cfa 7, 8
	ret
	.cfi_endproc
.LFE7090:
	.seh_endproc
	.section	.text$_ZNSt6vectorIcSaIcEEC1Ev,"x"
	.linkonce discard
	.align 2
	.globl	_ZNSt6vectorIcSaIcEEC1Ev
	.def	_ZNSt6vectorIcSaIcEEC1Ev;	.scl	2;	.type	32;	.endef
	.seh_proc	_ZNSt6vectorIcSaIcEEC1Ev
_ZNSt6vectorIcSaIcEEC1Ev:
.LFB7103:
	.file 6 "c:/mingw/include/c++/5.1.0/bits/stl_vector.h"
	.loc 6 253 0
	.cfi_startproc
	.cfi_personality 0x9b,.LDFCM0
	.cfi_lsda 0x1c,.LLSDA7103
	pushq	%rbp
	.seh_pushreg	%rbp
	.cfi_def_cfa_offset 16
	.cfi_offset 6, -16
	movq	%rsp, %rbp
	.seh_setframe	%rbp, 0
	.cfi_def_cfa_register 6
	subq	$32, %rsp
	.seh_stackalloc	32
	.seh_endprologue
	movq	%rcx, 16(%rbp)
.LBB43:
	.loc 6 257 0
	movq	16(%rbp), %rax
	movq	%rax, %rcx
	call	_ZNSt12_Vector_baseIcSaIcEEC2Ev
.LBE43:
	nop
	addq	$32, %rsp
	popq	%rbp
	.cfi_restore 6
	.cfi_def_cfa 7, 8
	ret
	.cfi_endproc
.LFE7103:
	.seh_handler	__gxx_personality_seh0, @unwind, @except
	.seh_handlerdata
.LLSDA7103:
	.byte	0xff
	.byte	0xff
	.byte	0x1
	.uleb128 .LLSDACSE7103-.LLSDACSB7103
.LLSDACSB7103:
.LLSDACSE7103:
	.section	.text$_ZNSt6vectorIcSaIcEEC1Ev,"x"
	.linkonce discard
	.seh_endproc
	.section	.text$_ZNSt6vectorIcSaIcEED1Ev,"x"
	.linkonce discard
	.align 2
	.globl	_ZNSt6vectorIcSaIcEED1Ev
	.def	_ZNSt6vectorIcSaIcEED1Ev;	.scl	2;	.type	32;	.endef
	.seh_proc	_ZNSt6vectorIcSaIcEED1Ev
_ZNSt6vectorIcSaIcEED1Ev:
.LFB7106:
	.loc 6 423 0
	.cfi_startproc
	.cfi_personality 0x9b,.LDFCM0
	.cfi_lsda 0x1c,.LLSDA7106
	pushq	%rbp
	.seh_pushreg	%rbp
	.cfi_def_cfa_offset 16
	.cfi_offset 6, -16
	movq	%rsp, %rbp
	.seh_setframe	%rbp, 0
	.cfi_def_cfa_register 6
	subq	$32, %rsp
	.seh_stackalloc	32
	.seh_endprologue
	movq	%rcx, 16(%rbp)
.LBB44:
	.loc 6 425 0
	movq	16(%rbp), %rax
	movq	%rax, %rcx
	call	_ZNSt12_Vector_baseIcSaIcEE19_M_get_Tp_allocatorEv
	movq	%rax, %rcx
	.loc 6 424 0
	movq	16(%rbp), %rax
	movq	8(%rax), %rdx
	movq	16(%rbp), %rax
	movq	(%rax), %rax
	movq	%rcx, %r8
	movq	%rax, %rcx
	call	_ZSt8_DestroyIPccEvT_S1_RSaIT0_E
	.loc 6 425 0
	movq	16(%rbp), %rax
	movq	%rax, %rcx
	call	_ZNSt12_Vector_baseIcSaIcEED2Ev
.LBE44:
	nop
	addq	$32, %rsp
	popq	%rbp
	.cfi_restore 6
	.cfi_def_cfa 7, 8
	ret
	.cfi_endproc
.LFE7106:
	.seh_handler	__gxx_personality_seh0, @unwind, @except
	.seh_handlerdata
.LLSDA7106:
	.byte	0xff
	.byte	0xff
	.byte	0x1
	.uleb128 .LLSDACSE7106-.LLSDACSB7106
.LLSDACSB7106:
.LLSDACSE7106:
	.section	.text$_ZNSt6vectorIcSaIcEED1Ev,"x"
	.linkonce discard
	.seh_endproc
	.section	.text$_ZNSt6vectorIiSaIiEEC1Ev,"x"
	.linkonce discard
	.align 2
	.globl	_ZNSt6vectorIiSaIiEEC1Ev
	.def	_ZNSt6vectorIiSaIiEEC1Ev;	.scl	2;	.type	32;	.endef
	.seh_proc	_ZNSt6vectorIiSaIiEEC1Ev
_ZNSt6vectorIiSaIiEEC1Ev:
.LFB7109:
	.loc 6 253 0
	.cfi_startproc
	.cfi_personality 0x9b,.LDFCM0
	.cfi_lsda 0x1c,.LLSDA7109
	pushq	%rbp
	.seh_pushreg	%rbp
	.cfi_def_cfa_offset 16
	.cfi_offset 6, -16
	movq	%rsp, %rbp
	.seh_setframe	%rbp, 0
	.cfi_def_cfa_register 6
	subq	$32, %rsp
	.seh_stackalloc	32
	.seh_endprologue
	movq	%rcx, 16(%rbp)
.LBB45:
	.loc 6 257 0
	movq	16(%rbp), %rax
	movq	%rax, %rcx
	call	_ZNSt12_Vector_baseIiSaIiEEC2Ev
.LBE45:
	nop
	addq	$32, %rsp
	popq	%rbp
	.cfi_restore 6
	.cfi_def_cfa 7, 8
	ret
	.cfi_endproc
.LFE7109:
	.seh_handler	__gxx_personality_seh0, @unwind, @except
	.seh_handlerdata
.LLSDA7109:
	.byte	0xff
	.byte	0xff
	.byte	0x1
	.uleb128 .LLSDACSE7109-.LLSDACSB7109
.LLSDACSB7109:
.LLSDACSE7109:
	.section	.text$_ZNSt6vectorIiSaIiEEC1Ev,"x"
	.linkonce discard
	.seh_endproc
	.section	.text$_ZNSt6vectorIiSaIiEED1Ev,"x"
	.linkonce discard
	.align 2
	.globl	_ZNSt6vectorIiSaIiEED1Ev
	.def	_ZNSt6vectorIiSaIiEED1Ev;	.scl	2;	.type	32;	.endef
	.seh_proc	_ZNSt6vectorIiSaIiEED1Ev
_ZNSt6vectorIiSaIiEED1Ev:
.LFB7112:
	.loc 6 423 0
	.cfi_startproc
	.cfi_personality 0x9b,.LDFCM0
	.cfi_lsda 0x1c,.LLSDA7112
	pushq	%rbp
	.seh_pushreg	%rbp
	.cfi_def_cfa_offset 16
	.cfi_offset 6, -16
	movq	%rsp, %rbp
	.seh_setframe	%rbp, 0
	.cfi_def_cfa_register 6
	subq	$32, %rsp
	.seh_stackalloc	32
	.seh_endprologue
	movq	%rcx, 16(%rbp)
.LBB46:
	.loc 6 425 0
	movq	16(%rbp), %rax
	movq	%rax, %rcx
	call	_ZNSt12_Vector_baseIiSaIiEE19_M_get_Tp_allocatorEv
	movq	%rax, %rcx
	.loc 6 424 0
	movq	16(%rbp), %rax
	movq	8(%rax), %rdx
	movq	16(%rbp), %rax
	movq	(%rax), %rax
	movq	%rcx, %r8
	movq	%rax, %rcx
	call	_ZSt8_DestroyIPiiEvT_S1_RSaIT0_E
	.loc 6 425 0
	movq	16(%rbp), %rax
	movq	%rax, %rcx
	call	_ZNSt12_Vector_baseIiSaIiEED2Ev
.LBE46:
	nop
	addq	$32, %rsp
	popq	%rbp
	.cfi_restore 6
	.cfi_def_cfa 7, 8
	ret
	.cfi_endproc
.LFE7112:
	.seh_handler	__gxx_personality_seh0, @unwind, @except
	.seh_handlerdata
.LLSDA7112:
	.byte	0xff
	.byte	0xff
	.byte	0x1
	.uleb128 .LLSDACSE7112-.LLSDACSB7112
.LLSDACSB7112:
.LLSDACSE7112:
	.section	.text$_ZNSt6vectorIiSaIiEED1Ev,"x"
	.linkonce discard
	.seh_endproc
	.section	.text$_ZNSt6vectorI14plain_particleSaIS0_EEC1Ev,"x"
	.linkonce discard
	.align 2
	.globl	_ZNSt6vectorI14plain_particleSaIS0_EEC1Ev
	.def	_ZNSt6vectorI14plain_particleSaIS0_EEC1Ev;	.scl	2;	.type	32;	.endef
	.seh_proc	_ZNSt6vectorI14plain_particleSaIS0_EEC1Ev
_ZNSt6vectorI14plain_particleSaIS0_EEC1Ev:
.LFB7115:
	.loc 6 253 0
	.cfi_startproc
	.cfi_personality 0x9b,.LDFCM0
	.cfi_lsda 0x1c,.LLSDA7115
	pushq	%rbp
	.seh_pushreg	%rbp
	.cfi_def_cfa_offset 16
	.cfi_offset 6, -16
	movq	%rsp, %rbp
	.seh_setframe	%rbp, 0
	.cfi_def_cfa_register 6
	subq	$32, %rsp
	.seh_stackalloc	32
	.seh_endprologue
	movq	%rcx, 16(%rbp)
.LBB47:
	.loc 6 257 0
	movq	16(%rbp), %rax
	movq	%rax, %rcx
	call	_ZNSt12_Vector_baseI14plain_particleSaIS0_EEC2Ev
.LBE47:
	nop
	addq	$32, %rsp
	popq	%rbp
	.cfi_restore 6
	.cfi_def_cfa 7, 8
	ret
	.cfi_endproc
.LFE7115:
	.seh_handler	__gxx_personality_seh0, @unwind, @except
	.seh_handlerdata
.LLSDA7115:
	.byte	0xff
	.byte	0xff
	.byte	0x1
	.uleb128 .LLSDACSE7115-.LLSDACSB7115
.LLSDACSB7115:
.LLSDACSE7115:
	.section	.text$_ZNSt6vectorI14plain_particleSaIS0_EEC1Ev,"x"
	.linkonce discard
	.seh_endproc
	.section	.text$_ZNSt6vectorI14plain_particleSaIS0_EED1Ev,"x"
	.linkonce discard
	.align 2
	.globl	_ZNSt6vectorI14plain_particleSaIS0_EED1Ev
	.def	_ZNSt6vectorI14plain_particleSaIS0_EED1Ev;	.scl	2;	.type	32;	.endef
	.seh_proc	_ZNSt6vectorI14plain_particleSaIS0_EED1Ev
_ZNSt6vectorI14plain_particleSaIS0_EED1Ev:
.LFB7118:
	.loc 6 423 0
	.cfi_startproc
	.cfi_personality 0x9b,.LDFCM0
	.cfi_lsda 0x1c,.LLSDA7118
	pushq	%rbp
	.seh_pushreg	%rbp
	.cfi_def_cfa_offset 16
	.cfi_offset 6, -16
	movq	%rsp, %rbp
	.seh_setframe	%rbp, 0
	.cfi_def_cfa_register 6
	subq	$32, %rsp
	.seh_stackalloc	32
	.seh_endprologue
	movq	%rcx, 16(%rbp)
.LBB48:
	.loc 6 425 0
	movq	16(%rbp), %rax
	movq	%rax, %rcx
	call	_ZNSt12_Vector_baseI14plain_particleSaIS0_EE19_M_get_Tp_allocatorEv
	movq	%rax, %rcx
	.loc 6 424 0
	movq	16(%rbp), %rax
	movq	8(%rax), %rdx
	movq	16(%rbp), %rax
	movq	(%rax), %rax
	movq	%rcx, %r8
	movq	%rax, %rcx
	call	_ZSt8_DestroyIP14plain_particleS0_EvT_S2_RSaIT0_E
	.loc 6 425 0
	movq	16(%rbp), %rax
	movq	%rax, %rcx
	call	_ZNSt12_Vector_baseI14plain_particleSaIS0_EED2Ev
.LBE48:
	nop
	addq	$32, %rsp
	popq	%rbp
	.cfi_restore 6
	.cfi_def_cfa 7, 8
	ret
	.cfi_endproc
.LFE7118:
	.seh_handler	__gxx_personality_seh0, @unwind, @except
	.seh_handlerdata
.LLSDA7118:
	.byte	0xff
	.byte	0xff
	.byte	0x1
	.uleb128 .LLSDACSE7118-.LLSDACSB7118
.LLSDACSB7118:
.LLSDACSE7118:
	.section	.text$_ZNSt6vectorI14plain_particleSaIS0_EED1Ev,"x"
	.linkonce discard
	.seh_endproc
	.section	.text$_ZSt4moveIR14plain_particleEONSt16remove_referenceIT_E4typeEOS3_,"x"
	.linkonce discard
	.globl	_ZSt4moveIR14plain_particleEONSt16remove_referenceIT_E4typeEOS3_
	.def	_ZSt4moveIR14plain_particleEONSt16remove_referenceIT_E4typeEOS3_;	.scl	2;	.type	32;	.endef
	.seh_proc	_ZSt4moveIR14plain_particleEONSt16remove_referenceIT_E4typeEOS3_
_ZSt4moveIR14plain_particleEONSt16remove_referenceIT_E4typeEOS3_:
.LFB7120:
	.file 7 "c:/mingw/include/c++/5.1.0/bits/move.h"
	.loc 7 101 0
	.cfi_startproc
	pushq	%rbp
	.seh_pushreg	%rbp
	.cfi_def_cfa_offset 16
	.cfi_offset 6, -16
	movq	%rsp, %rbp
	.seh_setframe	%rbp, 0
	.cfi_def_cfa_register 6
	.seh_endprologue
	movq	%rcx, 16(%rbp)
	.loc 7 102 0
	movq	16(%rbp), %rax
	popq	%rbp
	.cfi_restore 6
	.cfi_def_cfa 7, 8
	ret
	.cfi_endproc
.LFE7120:
	.seh_endproc
	.section	.text$_ZNSt6vectorI14plain_particleSaIS0_EE9push_backEOS0_,"x"
	.linkonce discard
	.align 2
	.globl	_ZNSt6vectorI14plain_particleSaIS0_EE9push_backEOS0_
	.def	_ZNSt6vectorI14plain_particleSaIS0_EE9push_backEOS0_;	.scl	2;	.type	32;	.endef
	.seh_proc	_ZNSt6vectorI14plain_particleSaIS0_EE9push_backEOS0_
_ZNSt6vectorI14plain_particleSaIS0_EE9push_backEOS0_:
.LFB7119:
	.loc 6 931 0
	.cfi_startproc
	pushq	%rbp
	.seh_pushreg	%rbp
	.cfi_def_cfa_offset 16
	.cfi_offset 6, -16
	movq	%rsp, %rbp
	.seh_setframe	%rbp, 0
	.cfi_def_cfa_register 6
	subq	$32, %rsp
	.seh_stackalloc	32
	.seh_endprologue
	movq	%rcx, 16(%rbp)
	movq	%rdx, 24(%rbp)
	.loc 6 932 0
	movq	24(%rbp), %rax
	movq	%rax, %rcx
	call	_ZSt4moveIR14plain_particleEONSt16remove_referenceIT_E4typeEOS3_
	movq	%rax, %rdx
	movq	16(%rbp), %rcx
	call	_ZNSt6vectorI14plain_particleSaIS0_EE12emplace_backIJS0_EEEvDpOT_
	nop
	addq	$32, %rsp
	popq	%rbp
	.cfi_restore 6
	.cfi_def_cfa 7, 8
	ret
	.cfi_endproc
.LFE7119:
	.seh_endproc
	.section	.text$_ZSt7forwardIRKcEOT_RNSt16remove_referenceIS2_E4typeE,"x"
	.linkonce discard
	.globl	_ZSt7forwardIRKcEOT_RNSt16remove_referenceIS2_E4typeE
	.def	_ZSt7forwardIRKcEOT_RNSt16remove_referenceIS2_E4typeE;	.scl	2;	.type	32;	.endef
	.seh_proc	_ZSt7forwardIRKcEOT_RNSt16remove_referenceIS2_E4typeE
_ZSt7forwardIRKcEOT_RNSt16remove_referenceIS2_E4typeE:
.LFB7122:
	.loc 7 76 0
	.cfi_startproc
	pushq	%rbp
	.seh_pushreg	%rbp
	.cfi_def_cfa_offset 16
	.cfi_offset 6, -16
	movq	%rsp, %rbp
	.seh_setframe	%rbp, 0
	.cfi_def_cfa_register 6
	.seh_endprologue
	movq	%rcx, 16(%rbp)
	.loc 7 77 0
	movq	16(%rbp), %rax
	popq	%rbp
	.cfi_restore 6
	.cfi_def_cfa 7, 8
	ret
	.cfi_endproc
.LFE7122:
	.seh_endproc
	.section	.text$_ZNSt6vectorIcSaIcEE9push_backERKc,"x"
	.linkonce discard
	.align 2
	.globl	_ZNSt6vectorIcSaIcEE9push_backERKc
	.def	_ZNSt6vectorIcSaIcEE9push_backERKc;	.scl	2;	.type	32;	.endef
	.seh_proc	_ZNSt6vectorIcSaIcEE9push_backERKc
_ZNSt6vectorIcSaIcEE9push_backERKc:
.LFB7121:
	.loc 6 913 0
	.cfi_startproc
	pushq	%rbp
	.seh_pushreg	%rbp
	.cfi_def_cfa_offset 16
	.cfi_offset 6, -16
	movq	%rsp, %rbp
	.seh_setframe	%rbp, 0
	.cfi_def_cfa_register 6
	subq	$32, %rsp
	.seh_stackalloc	32
	.seh_endprologue
	movq	%rcx, 16(%rbp)
	movq	%rdx, 24(%rbp)
	.loc 6 915 0
	movq	16(%rbp), %rax
	movq	8(%rax), %rdx
	movq	16(%rbp), %rax
	movq	16(%rax), %rax
	cmpq	%rax, %rdx
	je	.L76
	.loc 6 917 0
	movq	16(%rbp), %rax
	movq	8(%rax), %rdx
	movq	16(%rbp), %rax
	movq	24(%rbp), %rcx
	movq	%rcx, %r8
	movq	%rax, %rcx
	call	_ZNSt16allocator_traitsISaIcEE9constructIcJRKcEEEDTcl12_S_constructfp_fp0_spcl7forwardIT0_Efp1_EEERS0_PT_DpOS5_
	.loc 6 919 0
	movq	16(%rbp), %rax
	movq	8(%rax), %rax
	leaq	1(%rax), %rdx
	movq	16(%rbp), %rax
	movq	%rdx, 8(%rax)
	.loc 6 927 0
	jmp	.L78
.L76:
	.loc 6 923 0
	movq	24(%rbp), %rax
	movq	%rax, %rdx
	movq	16(%rbp), %rcx
	call	_ZNSt6vectorIcSaIcEE19_M_emplace_back_auxIJRKcEEEvDpOT_
.L78:
	.loc 6 927 0
	nop
	addq	$32, %rsp
	popq	%rbp
	.cfi_restore 6
	.cfi_def_cfa 7, 8
	ret
	.cfi_endproc
.LFE7121:
	.seh_endproc
	.section	.text$_ZSt7forwardIRKiEOT_RNSt16remove_referenceIS2_E4typeE,"x"
	.linkonce discard
	.globl	_ZSt7forwardIRKiEOT_RNSt16remove_referenceIS2_E4typeE
	.def	_ZSt7forwardIRKiEOT_RNSt16remove_referenceIS2_E4typeE;	.scl	2;	.type	32;	.endef
	.seh_proc	_ZSt7forwardIRKiEOT_RNSt16remove_referenceIS2_E4typeE
_ZSt7forwardIRKiEOT_RNSt16remove_referenceIS2_E4typeE:
.LFB7124:
	.loc 7 76 0
	.cfi_startproc
	pushq	%rbp
	.seh_pushreg	%rbp
	.cfi_def_cfa_offset 16
	.cfi_offset 6, -16
	movq	%rsp, %rbp
	.seh_setframe	%rbp, 0
	.cfi_def_cfa_register 6
	.seh_endprologue
	movq	%rcx, 16(%rbp)
	.loc 7 77 0
	movq	16(%rbp), %rax
	popq	%rbp
	.cfi_restore 6
	.cfi_def_cfa 7, 8
	ret
	.cfi_endproc
.LFE7124:
	.seh_endproc
	.section	.text$_ZNSt6vectorIiSaIiEE9push_backERKi,"x"
	.linkonce discard
	.align 2
	.globl	_ZNSt6vectorIiSaIiEE9push_backERKi
	.def	_ZNSt6vectorIiSaIiEE9push_backERKi;	.scl	2;	.type	32;	.endef
	.seh_proc	_ZNSt6vectorIiSaIiEE9push_backERKi
_ZNSt6vectorIiSaIiEE9push_backERKi:
.LFB7123:
	.loc 6 913 0
	.cfi_startproc
	pushq	%rbp
	.seh_pushreg	%rbp
	.cfi_def_cfa_offset 16
	.cfi_offset 6, -16
	movq	%rsp, %rbp
	.seh_setframe	%rbp, 0
	.cfi_def_cfa_register 6
	subq	$32, %rsp
	.seh_stackalloc	32
	.seh_endprologue
	movq	%rcx, 16(%rbp)
	movq	%rdx, 24(%rbp)
	.loc 6 915 0
	movq	16(%rbp), %rax
	movq	8(%rax), %rdx
	movq	16(%rbp), %rax
	movq	16(%rax), %rax
	cmpq	%rax, %rdx
	je	.L82
	.loc 6 917 0
	movq	16(%rbp), %rax
	movq	8(%rax), %rdx
	movq	16(%rbp), %rax
	movq	24(%rbp), %rcx
	movq	%rcx, %r8
	movq	%rax, %rcx
	call	_ZNSt16allocator_traitsISaIiEE9constructIiJRKiEEEDTcl12_S_constructfp_fp0_spcl7forwardIT0_Efp1_EEERS0_PT_DpOS5_
	.loc 6 919 0
	movq	16(%rbp), %rax
	movq	8(%rax), %rax
	leaq	4(%rax), %rdx
	movq	16(%rbp), %rax
	movq	%rdx, 8(%rax)
	.loc 6 927 0
	jmp	.L84
.L82:
	.loc 6 923 0
	movq	24(%rbp), %rax
	movq	%rax, %rdx
	movq	16(%rbp), %rcx
	call	_ZNSt6vectorIiSaIiEE19_M_emplace_back_auxIJRKiEEEvDpOT_
.L84:
	.loc 6 927 0
	nop
	addq	$32, %rsp
	popq	%rbp
	.cfi_restore 6
	.cfi_def_cfa 7, 8
	ret
	.cfi_endproc
.LFE7123:
	.seh_endproc
	.section	.text$_ZNSt6vectorI14plain_particleSaIS0_EE5beginEv,"x"
	.linkonce discard
	.align 2
	.globl	_ZNSt6vectorI14plain_particleSaIS0_EE5beginEv
	.def	_ZNSt6vectorI14plain_particleSaIS0_EE5beginEv;	.scl	2;	.type	32;	.endef
	.seh_proc	_ZNSt6vectorI14plain_particleSaIS0_EE5beginEv
_ZNSt6vectorI14plain_particleSaIS0_EE5beginEv:
.LFB7125:
	.loc 6 547 0
	.cfi_startproc
	pushq	%rbp
	.seh_pushreg	%rbp
	.cfi_def_cfa_offset 16
	.cfi_offset 6, -16
	movq	%rsp, %rbp
	.seh_setframe	%rbp, 0
	.cfi_def_cfa_register 6
	subq	$48, %rsp
	.seh_stackalloc	48
	.seh_endprologue
	movq	%rcx, 16(%rbp)
	.loc 6 548 0
	movq	16(%rbp), %rdx
	leaq	-16(%rbp), %rax
	movq	%rax, %rcx
	call	_ZN9__gnu_cxx17__normal_iteratorIP14plain_particleSt6vectorIS1_SaIS1_EEEC1ERKS2_
	movq	-16(%rbp), %rax
	addq	$48, %rsp
	popq	%rbp
	.cfi_restore 6
	.cfi_def_cfa 7, 8
	ret
	.cfi_endproc
.LFE7125:
	.seh_endproc
	.section	.text$_ZNSt6vectorI14plain_particleSaIS0_EE3endEv,"x"
	.linkonce discard
	.align 2
	.globl	_ZNSt6vectorI14plain_particleSaIS0_EE3endEv
	.def	_ZNSt6vectorI14plain_particleSaIS0_EE3endEv;	.scl	2;	.type	32;	.endef
	.seh_proc	_ZNSt6vectorI14plain_particleSaIS0_EE3endEv
_ZNSt6vectorI14plain_particleSaIS0_EE3endEv:
.LFB7126:
	.loc 6 565 0
	.cfi_startproc
	pushq	%rbp
	.seh_pushreg	%rbp
	.cfi_def_cfa_offset 16
	.cfi_offset 6, -16
	movq	%rsp, %rbp
	.seh_setframe	%rbp, 0
	.cfi_def_cfa_register 6
	subq	$48, %rsp
	.seh_stackalloc	48
	.seh_endprologue
	movq	%rcx, 16(%rbp)
	.loc 6 566 0
	movq	16(%rbp), %rax
	leaq	8(%rax), %rdx
	leaq	-16(%rbp), %rax
	movq	%rax, %rcx
	call	_ZN9__gnu_cxx17__normal_iteratorIP14plain_particleSt6vectorIS1_SaIS1_EEEC1ERKS2_
	movq	-16(%rbp), %rax
	addq	$48, %rsp
	popq	%rbp
	.cfi_restore 6
	.cfi_def_cfa 7, 8
	ret
	.cfi_endproc
.LFE7126:
	.seh_endproc
	.section	.text$_ZNSt6vectorIcSaIcEEixEy,"x"
	.linkonce discard
	.align 2
	.globl	_ZNSt6vectorIcSaIcEEixEy
	.def	_ZNSt6vectorIcSaIcEEixEy;	.scl	2;	.type	32;	.endef
	.seh_proc	_ZNSt6vectorIcSaIcEEixEy
_ZNSt6vectorIcSaIcEEixEy:
.LFB7127:
	.loc 6 779 0
	.cfi_startproc
	pushq	%rbp
	.seh_pushreg	%rbp
	.cfi_def_cfa_offset 16
	.cfi_offset 6, -16
	movq	%rsp, %rbp
	.seh_setframe	%rbp, 0
	.cfi_def_cfa_register 6
	.seh_endprologue
	movq	%rcx, 16(%rbp)
	movq	%rdx, 24(%rbp)
	.loc 6 780 0
	movq	16(%rbp), %rax
	movq	(%rax), %rdx
	movq	24(%rbp), %rax
	addq	%rdx, %rax
	popq	%rbp
	.cfi_restore 6
	.cfi_def_cfa 7, 8
	ret
	.cfi_endproc
.LFE7127:
	.seh_endproc
	.section	.text$_ZNSt6vectorIiSaIiEEixEy,"x"
	.linkonce discard
	.align 2
	.globl	_ZNSt6vectorIiSaIiEEixEy
	.def	_ZNSt6vectorIiSaIiEEixEy;	.scl	2;	.type	32;	.endef
	.seh_proc	_ZNSt6vectorIiSaIiEEixEy
_ZNSt6vectorIiSaIiEEixEy:
.LFB7128:
	.loc 6 779 0
	.cfi_startproc
	pushq	%rbp
	.seh_pushreg	%rbp
	.cfi_def_cfa_offset 16
	.cfi_offset 6, -16
	movq	%rsp, %rbp
	.seh_setframe	%rbp, 0
	.cfi_def_cfa_register 6
	.seh_endprologue
	movq	%rcx, 16(%rbp)
	movq	%rdx, 24(%rbp)
	.loc 6 780 0
	movq	16(%rbp), %rax
	movq	(%rax), %rax
	movq	24(%rbp), %rdx
	salq	$2, %rdx
	addq	%rdx, %rax
	popq	%rbp
	.cfi_restore 6
	.cfi_def_cfa 7, 8
	ret
	.cfi_endproc
.LFE7128:
	.seh_endproc
	.section	.text$_ZSt7forwardIPcEOT_RNSt16remove_referenceIS1_E4typeE,"x"
	.linkonce discard
	.globl	_ZSt7forwardIPcEOT_RNSt16remove_referenceIS1_E4typeE
	.def	_ZSt7forwardIPcEOT_RNSt16remove_referenceIS1_E4typeE;	.scl	2;	.type	32;	.endef
	.seh_proc	_ZSt7forwardIPcEOT_RNSt16remove_referenceIS1_E4typeE
_ZSt7forwardIPcEOT_RNSt16remove_referenceIS1_E4typeE:
.LFB7130:
	.loc 7 76 0
	.cfi_startproc
	pushq	%rbp
	.seh_pushreg	%rbp
	.cfi_def_cfa_offset 16
	.cfi_offset 6, -16
	movq	%rsp, %rbp
	.seh_setframe	%rbp, 0
	.cfi_def_cfa_register 6
	.seh_endprologue
	movq	%rcx, 16(%rbp)
	.loc 7 77 0
	movq	16(%rbp), %rax
	popq	%rbp
	.cfi_restore 6
	.cfi_def_cfa 7, 8
	ret
	.cfi_endproc
.LFE7130:
	.seh_endproc
	.section	.text$_ZSt7forwardIPiEOT_RNSt16remove_referenceIS1_E4typeE,"x"
	.linkonce discard
	.globl	_ZSt7forwardIPiEOT_RNSt16remove_referenceIS1_E4typeE
	.def	_ZSt7forwardIPiEOT_RNSt16remove_referenceIS1_E4typeE;	.scl	2;	.type	32;	.endef
	.seh_proc	_ZSt7forwardIPiEOT_RNSt16remove_referenceIS1_E4typeE
_ZSt7forwardIPiEOT_RNSt16remove_referenceIS1_E4typeE:
.LFB7131:
	.loc 7 76 0
	.cfi_startproc
	pushq	%rbp
	.seh_pushreg	%rbp
	.cfi_def_cfa_offset 16
	.cfi_offset 6, -16
	movq	%rsp, %rbp
	.seh_setframe	%rbp, 0
	.cfi_def_cfa_register 6
	.seh_endprologue
	movq	%rcx, 16(%rbp)
	.loc 7 77 0
	movq	16(%rbp), %rax
	popq	%rbp
	.cfi_restore 6
	.cfi_def_cfa 7, 8
	ret
	.cfi_endproc
.LFE7131:
	.seh_endproc
	.section	.text$_ZN3dod6accessIJNS_6memberIcLi0EEENS1_IiLi0EEENS1_IiLi1EEENS1_IiLi2EEENS1_IiLi3EEEEEC1IPcJPiSA_SA_SA_EEEOT_DpOT0_,"x"
	.linkonce discard
	.align 2
	.globl	_ZN3dod6accessIJNS_6memberIcLi0EEENS1_IiLi0EEENS1_IiLi1EEENS1_IiLi2EEENS1_IiLi3EEEEEC1IPcJPiSA_SA_SA_EEEOT_DpOT0_
	.def	_ZN3dod6accessIJNS_6memberIcLi0EEENS1_IiLi0EEENS1_IiLi1EEENS1_IiLi2EEENS1_IiLi3EEEEEC1IPcJPiSA_SA_SA_EEEOT_DpOT0_;	.scl	2;	.type	32;	.endef
	.seh_proc	_ZN3dod6accessIJNS_6memberIcLi0EEENS1_IiLi0EEENS1_IiLi1EEENS1_IiLi2EEENS1_IiLi3EEEEEC1IPcJPiSA_SA_SA_EEEOT_DpOT0_
_ZN3dod6accessIJNS_6memberIcLi0EEENS1_IiLi0EEENS1_IiLi1EEENS1_IiLi2EEENS1_IiLi3EEEEEC1IPcJPiSA_SA_SA_EEEOT_DpOT0_:
.LFB7133:
	.loc 5 98 0
	.cfi_startproc
	pushq	%rbp
	.seh_pushreg	%rbp
	.cfi_def_cfa_offset 16
	.cfi_offset 6, -16
	pushq	%rdi
	.seh_pushreg	%rdi
	.cfi_def_cfa_offset 24
	.cfi_offset 5, -24
	pushq	%rsi
	.seh_pushreg	%rsi
	.cfi_def_cfa_offset 32
	.cfi_offset 4, -32
	pushq	%rbx
	.seh_pushreg	%rbx
	.cfi_def_cfa_offset 40
	.cfi_offset 3, -40
	subq	$56, %rsp
	.seh_stackalloc	56
	.cfi_def_cfa_offset 96
	leaq	128(%rsp), %rbp
	.seh_setframe	%rbp, 128
	.cfi_def_cfa 6, -32
	.seh_endprologue
	movq	%rcx, -32(%rbp)
	movq	%rdx, -24(%rbp)
	movq	%r8, -16(%rbp)
	movq	%r9, -8(%rbp)
.LBB49:
	.loc 5 99 0
	movq	-24(%rbp), %rax
	movq	%rax, %rcx
	call	_ZSt7forwardIPcEOT_RNSt16remove_referenceIS1_E4typeE
	.loc 5 100 0
	movq	(%rax), %rdx
	movq	-32(%rbp), %rax
	movq	%rax, %rcx
	call	_ZN3dod6accessIJNS_6memberIcLi0EEEEEC2EPc
	movq	8(%rbp), %rax
	movq	%rax, %rcx
	call	_ZSt7forwardIPiEOT_RNSt16remove_referenceIS1_E4typeE
	movq	%rax, %rbx
	movq	0(%rbp), %rax
	movq	%rax, %rcx
	call	_ZSt7forwardIPiEOT_RNSt16remove_referenceIS1_E4typeE
	movq	%rax, %rdi
	movq	-8(%rbp), %rax
	movq	%rax, %rcx
	call	_ZSt7forwardIPiEOT_RNSt16remove_referenceIS1_E4typeE
	movq	%rax, %rsi
	movq	-16(%rbp), %rax
	movq	%rax, %rcx
	call	_ZSt7forwardIPiEOT_RNSt16remove_referenceIS1_E4typeE
	movq	%rax, %rdx
	movq	-32(%rbp), %rax
	addq	$8, %rax
	movq	%rbx, 32(%rsp)
	movq	%rdi, %r9
	movq	%rsi, %r8
	movq	%rax, %rcx
	call	_ZN3dod6accessIJNS_6memberIiLi0EEENS1_IiLi1EEENS1_IiLi2EEENS1_IiLi3EEEEEC2IPiJS8_S8_S8_EEEOT_DpOT0_
.LBE49:
	.loc 5 101 0
	nop
	addq	$56, %rsp
	popq	%rbx
	.cfi_restore 3
	popq	%rsi
	.cfi_restore 4
	popq	%rdi
	.cfi_restore 5
	popq	%rbp
	.cfi_restore 6
	.cfi_def_cfa 7, -24
	ret
	.cfi_endproc
.LFE7133:
	.seh_endproc
	.weak	_ZN3dod6accessIINS_6memberIcLi0EEENS1_IiLi0EEENS1_IiLi1EEENS1_IiLi2EEENS1_IiLi3EEEEEC1IPcIPiSA_SA_SA_EEEOT_DpOT0_
	.def	_ZN3dod6accessIINS_6memberIcLi0EEENS1_IiLi0EEENS1_IiLi1EEENS1_IiLi2EEENS1_IiLi3EEEEEC1IPcIPiSA_SA_SA_EEEOT_DpOT0_;	.scl	2;	.type	32;	.endef
	.set	_ZN3dod6accessIINS_6memberIcLi0EEENS1_IiLi0EEENS1_IiLi1EEENS1_IiLi2EEENS1_IiLi3EEEEEC1IPcIPiSA_SA_SA_EEEOT_DpOT0_,_ZN3dod6accessIJNS_6memberIcLi0EEENS1_IiLi0EEENS1_IiLi1EEENS1_IiLi2EEENS1_IiLi3EEEEEC1IPcJPiSA_SA_SA_EEEOT_DpOT0_
	.section	.text$_ZN3dod12make_pointerI8particleNS_6accessIJNS_6memberIcLi0EEENS3_IiLi0EEENS3_IiLi1EEENS3_IiLi2EEENS3_IiLi3EEEEEEEENS_7pointerIT_IT0_EEERKSC_,"x"
	.linkonce discard
	.globl	_ZN3dod12make_pointerI8particleNS_6accessIJNS_6memberIcLi0EEENS3_IiLi0EEENS3_IiLi1EEENS3_IiLi2EEENS3_IiLi3EEEEEEEENS_7pointerIT_IT0_EEERKSC_
	.def	_ZN3dod12make_pointerI8particleNS_6accessIJNS_6memberIcLi0EEENS3_IiLi0EEENS3_IiLi1EEENS3_IiLi2EEENS3_IiLi3EEEEEEEENS_7pointerIT_IT0_EEERKSC_;	.scl	2;	.type	32;	.endef
	.seh_proc	_ZN3dod12make_pointerI8particleNS_6accessIJNS_6memberIcLi0EEENS3_IiLi0EEENS3_IiLi1EEENS3_IiLi2EEENS3_IiLi3EEEEEEEENS_7pointerIT_IT0_EEERKSC_
_ZN3dod12make_pointerI8particleNS_6accessIJNS_6memberIcLi0EEENS3_IiLi0EEENS3_IiLi1EEENS3_IiLi2EEENS3_IiLi3EEEEEEEENS_7pointerIT_IT0_EEERKSC_:
.LFB7134:
	.loc 5 143 0
	.cfi_startproc
	pushq	%rbp
	.seh_pushreg	%rbp
	.cfi_def_cfa_offset 16
	.cfi_offset 6, -16
	movq	%rsp, %rbp
	.seh_setframe	%rbp, 0
	.cfi_def_cfa_register 6
	subq	$32, %rsp
	.seh_stackalloc	32
	.seh_endprologue
	movq	%rcx, 16(%rbp)
	movq	%rdx, 24(%rbp)
	.loc 5 145 0
	movq	24(%rbp), %rax
	movq	%rax, %rdx
	movq	16(%rbp), %rcx
	call	_ZN3dod7pointerI8particleINS_6accessIJNS_6memberIcLi0EEENS3_IiLi0EEENS3_IiLi1EEENS3_IiLi2EEENS3_IiLi3EEEEEEEEC1ERKS9_
	.loc 5 146 0
	movq	16(%rbp), %rax
	addq	$32, %rsp
	popq	%rbp
	.cfi_restore 6
	.cfi_def_cfa 7, 8
	ret
	.cfi_endproc
.LFE7134:
	.seh_endproc
	.weak	_ZN3dod12make_pointerI8particleNS_6accessIINS_6memberIcLi0EEENS3_IiLi0EEENS3_IiLi1EEENS3_IiLi2EEENS3_IiLi3EEEEEEEENS_7pointerIT_IT0_EEERKSC_
	.def	_ZN3dod12make_pointerI8particleNS_6accessIINS_6memberIcLi0EEENS3_IiLi0EEENS3_IiLi1EEENS3_IiLi2EEENS3_IiLi3EEEEEEEENS_7pointerIT_IT0_EEERKSC_;	.scl	2;	.type	32;	.endef
	.set	_ZN3dod12make_pointerI8particleNS_6accessIINS_6memberIcLi0EEENS3_IiLi0EEENS3_IiLi1EEENS3_IiLi2EEENS3_IiLi3EEEEEEEENS_7pointerIT_IT0_EEERKSC_,_ZN3dod12make_pointerI8particleNS_6accessIJNS_6memberIcLi0EEENS3_IiLi0EEENS3_IiLi1EEENS3_IiLi2EEENS3_IiLi3EEEEEEEENS_7pointerIT_IT0_EEERKSC_
	.section	.text$_ZN5boost9iteratorsplIN3dod7pointerI8particleINS2_6accessIJNS2_6memberIcLi0EEENS6_IiLi0EEENS6_IiLi1EEENS6_IiLi2EEENS6_IiLi3EEEEEEEEESD_NS0_27random_access_traversal_tagESD_xEENS0_9enable_ifINS0_6detail21is_traversal_at_leastIT1_SF_EET_E4typeERKNS0_15iterator_facadeISL_T0_SJ_T2_T3_EENSL_15difference_typeE,"x"
	.linkonce discard
	.globl	_ZN5boost9iteratorsplIN3dod7pointerI8particleINS2_6accessIJNS2_6memberIcLi0EEENS6_IiLi0EEENS6_IiLi1EEENS6_IiLi2EEENS6_IiLi3EEEEEEEEESD_NS0_27random_access_traversal_tagESD_xEENS0_9enable_ifINS0_6detail21is_traversal_at_leastIT1_SF_EET_E4typeERKNS0_15iterator_facadeISL_T0_SJ_T2_T3_EENSL_15difference_typeE
	.def	_ZN5boost9iteratorsplIN3dod7pointerI8particleINS2_6accessIJNS2_6memberIcLi0EEENS6_IiLi0EEENS6_IiLi1EEENS6_IiLi2EEENS6_IiLi3EEEEEEEEESD_NS0_27random_access_traversal_tagESD_xEENS0_9enable_ifINS0_6detail21is_traversal_at_leastIT1_SF_EET_E4typeERKNS0_15iterator_facadeISL_T0_SJ_T2_T3_EENSL_15difference_typeE;	.scl	2;	.type	32;	.endef
	.seh_proc	_ZN5boost9iteratorsplIN3dod7pointerI8particleINS2_6accessIJNS2_6memberIcLi0EEENS6_IiLi0EEENS6_IiLi1EEENS6_IiLi2EEENS6_IiLi3EEEEEEEEESD_NS0_27random_access_traversal_tagESD_xEENS0_9enable_ifINS0_6detail21is_traversal_at_leastIT1_SF_EET_E4typeERKNS0_15iterator_facadeISL_T0_SJ_T2_T3_EENSL_15difference_typeE
_ZN5boost9iteratorsplIN3dod7pointerI8particleINS2_6accessIJNS2_6memberIcLi0EEENS6_IiLi0EEENS6_IiLi1EEENS6_IiLi2EEENS6_IiLi3EEEEEEEEESD_NS0_27random_access_traversal_tagESD_xEENS0_9enable_ifINS0_6detail21is_traversal_at_leastIT1_SF_EET_E4typeERKNS0_15iterator_facadeISL_T0_SJ_T2_T3_EENSL_15difference_typeE:
.LFB7135:
	.file 8 "C:/MinGW/include/boost/iterator/iterator_facade.hpp"
	.loc 8 945 0
	.cfi_startproc
	pushq	%rbp
	.seh_pushreg	%rbp
	.cfi_def_cfa_offset 16
	.cfi_offset 6, -16
	movq	%rsp, %rbp
	.seh_setframe	%rbp, 0
	.cfi_def_cfa_register 6
	subq	$80, %rsp
	.seh_stackalloc	80
	.seh_endprologue
	movq	%rcx, 16(%rbp)
	movq	%rdx, 24(%rbp)
	movq	%r8, 32(%rbp)
	.loc 8 945 0
	movq	24(%rbp), %rax
	movq	(%rax), %rdx
	movq	%rdx, -48(%rbp)
	movq	8(%rax), %rdx
	movq	%rdx, -40(%rbp)
	movq	16(%rax), %rdx
	movq	%rdx, -32(%rbp)
	movq	24(%rax), %rdx
	movq	%rdx, -24(%rbp)
	movq	32(%rax), %rax
	movq	%rax, -16(%rbp)
	movq	32(%rbp), %rdx
	leaq	-48(%rbp), %rax
	movq	%rax, %rcx
	call	_ZN5boost9iterators6detail20iterator_facade_baseIN3dod7pointerI8particleINS3_6accessIJNS3_6memberIcLi0EEENS7_IiLi0EEENS7_IiLi1EEENS7_IiLi2EEENS7_IiLi3EEEEEEEEESE_NS0_27random_access_traversal_tagESE_xLb1ELb1EEpLEx
	movq	%rax, %rdx
	movq	16(%rbp), %rax
	movq	(%rdx), %rcx
	movq	%rcx, (%rax)
	movq	8(%rdx), %rcx
	movq	%rcx, 8(%rax)
	movq	16(%rdx), %rcx
	movq	%rcx, 16(%rax)
	movq	24(%rdx), %rcx
	movq	%rcx, 24(%rax)
	movq	32(%rdx), %rdx
	movq	%rdx, 32(%rax)
	movq	16(%rbp), %rax
	addq	$80, %rsp
	popq	%rbp
	.cfi_restore 6
	.cfi_def_cfa 7, 8
	ret
	.cfi_endproc
.LFE7135:
	.seh_endproc
	.weak	_ZN5boost9iteratorsplIN3dod7pointerI8particleINS2_6accessIINS2_6memberIcLi0EEENS6_IiLi0EEENS6_IiLi1EEENS6_IiLi2EEENS6_IiLi3EEEEEEEEESD_NS0_27random_access_traversal_tagESD_xEENS0_9enable_ifINS0_6detail21is_traversal_at_leastIT1_SF_EET_E4typeERKNS0_15iterator_facadeISL_T0_SJ_T2_T3_EENSL_15difference_typeE
	.def	_ZN5boost9iteratorsplIN3dod7pointerI8particleINS2_6accessIINS2_6memberIcLi0EEENS6_IiLi0EEENS6_IiLi1EEENS6_IiLi2EEENS6_IiLi3EEEEEEEEESD_NS0_27random_access_traversal_tagESD_xEENS0_9enable_ifINS0_6detail21is_traversal_at_leastIT1_SF_EET_E4typeERKNS0_15iterator_facadeISL_T0_SJ_T2_T3_EENSL_15difference_typeE;	.scl	2;	.type	32;	.endef
	.set	_ZN5boost9iteratorsplIN3dod7pointerI8particleINS2_6accessIINS2_6memberIcLi0EEENS6_IiLi0EEENS6_IiLi1EEENS6_IiLi2EEENS6_IiLi3EEEEEEEEESD_NS0_27random_access_traversal_tagESD_xEENS0_9enable_ifINS0_6detail21is_traversal_at_leastIT1_SF_EET_E4typeERKNS0_15iterator_facadeISL_T0_SJ_T2_T3_EENSL_15difference_typeE,_ZN5boost9iteratorsplIN3dod7pointerI8particleINS2_6accessIJNS2_6memberIcLi0EEENS6_IiLi0EEENS6_IiLi1EEENS6_IiLi2EEENS6_IiLi3EEEEEEEEESD_NS0_27random_access_traversal_tagESD_xEENS0_9enable_ifINS0_6detail21is_traversal_at_leastIT1_SF_EET_E4typeERKNS0_15iterator_facadeISL_T0_SJ_T2_T3_EENSL_15difference_typeE
	.section	.text$_ZN3dod6accessIJNS_6memberIcLi0EEENS1_IiLi0EEENS1_IiLi1EEEEEC1IPcJPiS8_EEEOT_DpOT0_,"x"
	.linkonce discard
	.align 2
	.globl	_ZN3dod6accessIJNS_6memberIcLi0EEENS1_IiLi0EEENS1_IiLi1EEEEEC1IPcJPiS8_EEEOT_DpOT0_
	.def	_ZN3dod6accessIJNS_6memberIcLi0EEENS1_IiLi0EEENS1_IiLi1EEEEEC1IPcJPiS8_EEEOT_DpOT0_;	.scl	2;	.type	32;	.endef
	.seh_proc	_ZN3dod6accessIJNS_6memberIcLi0EEENS1_IiLi0EEENS1_IiLi1EEEEEC1IPcJPiS8_EEEOT_DpOT0_
_ZN3dod6accessIJNS_6memberIcLi0EEENS1_IiLi0EEENS1_IiLi1EEEEEC1IPcJPiS8_EEEOT_DpOT0_:
.LFB7138:
	.loc 5 98 0
	.cfi_startproc
	pushq	%rbp
	.seh_pushreg	%rbp
	.cfi_def_cfa_offset 16
	.cfi_offset 6, -16
	pushq	%rbx
	.seh_pushreg	%rbx
	.cfi_def_cfa_offset 24
	.cfi_offset 3, -24
	subq	$40, %rsp
	.seh_stackalloc	40
	.cfi_def_cfa_offset 64
	leaq	128(%rsp), %rbp
	.seh_setframe	%rbp, 128
	.cfi_def_cfa 6, -64
	.seh_endprologue
	movq	%rcx, -64(%rbp)
	movq	%rdx, -56(%rbp)
	movq	%r8, -48(%rbp)
	movq	%r9, -40(%rbp)
.LBB50:
	.loc 5 99 0
	movq	-56(%rbp), %rax
	movq	%rax, %rcx
	call	_ZSt7forwardIPcEOT_RNSt16remove_referenceIS1_E4typeE
	.loc 5 100 0
	movq	(%rax), %rdx
	movq	-64(%rbp), %rax
	movq	%rax, %rcx
	call	_ZN3dod6accessIJNS_6memberIcLi0EEEEEC2EPc
	movq	-40(%rbp), %rax
	movq	%rax, %rcx
	call	_ZSt7forwardIPiEOT_RNSt16remove_referenceIS1_E4typeE
	movq	%rax, %rbx
	movq	-48(%rbp), %rax
	movq	%rax, %rcx
	call	_ZSt7forwardIPiEOT_RNSt16remove_referenceIS1_E4typeE
	movq	%rax, %rdx
	movq	-64(%rbp), %rax
	addq	$8, %rax
	movq	%rbx, %r8
	movq	%rax, %rcx
	call	_ZN3dod6accessIJNS_6memberIiLi0EEENS1_IiLi1EEEEEC2IPiJS6_EEEOT_DpOT0_
.LBE50:
	.loc 5 101 0
	nop
	addq	$40, %rsp
	popq	%rbx
	.cfi_restore 3
	popq	%rbp
	.cfi_restore 6
	.cfi_def_cfa 7, -24
	ret
	.cfi_endproc
.LFE7138:
	.seh_endproc
	.weak	_ZN3dod6accessIINS_6memberIcLi0EEENS1_IiLi0EEENS1_IiLi1EEEEEC1IPcIPiS8_EEEOT_DpOT0_
	.def	_ZN3dod6accessIINS_6memberIcLi0EEENS1_IiLi0EEENS1_IiLi1EEEEEC1IPcIPiS8_EEEOT_DpOT0_;	.scl	2;	.type	32;	.endef
	.set	_ZN3dod6accessIINS_6memberIcLi0EEENS1_IiLi0EEENS1_IiLi1EEEEEC1IPcIPiS8_EEEOT_DpOT0_,_ZN3dod6accessIJNS_6memberIcLi0EEENS1_IiLi0EEENS1_IiLi1EEEEEC1IPcJPiS8_EEEOT_DpOT0_
	.section	.text$_ZN3dod12make_pointerI8particleNS_6accessIJNS_6memberIcLi0EEENS3_IiLi0EEENS3_IiLi1EEEEEEEENS_7pointerIT_IT0_EEERKSA_,"x"
	.linkonce discard
	.globl	_ZN3dod12make_pointerI8particleNS_6accessIJNS_6memberIcLi0EEENS3_IiLi0EEENS3_IiLi1EEEEEEEENS_7pointerIT_IT0_EEERKSA_
	.def	_ZN3dod12make_pointerI8particleNS_6accessIJNS_6memberIcLi0EEENS3_IiLi0EEENS3_IiLi1EEEEEEEENS_7pointerIT_IT0_EEERKSA_;	.scl	2;	.type	32;	.endef
	.seh_proc	_ZN3dod12make_pointerI8particleNS_6accessIJNS_6memberIcLi0EEENS3_IiLi0EEENS3_IiLi1EEEEEEEENS_7pointerIT_IT0_EEERKSA_
_ZN3dod12make_pointerI8particleNS_6accessIJNS_6memberIcLi0EEENS3_IiLi0EEENS3_IiLi1EEEEEEEENS_7pointerIT_IT0_EEERKSA_:
.LFB7139:
	.loc 5 143 0
	.cfi_startproc
	pushq	%rbp
	.seh_pushreg	%rbp
	.cfi_def_cfa_offset 16
	.cfi_offset 6, -16
	movq	%rsp, %rbp
	.seh_setframe	%rbp, 0
	.cfi_def_cfa_register 6
	subq	$32, %rsp
	.seh_stackalloc	32
	.seh_endprologue
	movq	%rcx, 16(%rbp)
	movq	%rdx, 24(%rbp)
	.loc 5 145 0
	movq	24(%rbp), %rax
	movq	%rax, %rdx
	movq	16(%rbp), %rcx
	call	_ZN3dod7pointerI8particleINS_6accessIJNS_6memberIcLi0EEENS3_IiLi0EEENS3_IiLi1EEEEEEEEC1ERKS7_
	.loc 5 146 0
	movq	16(%rbp), %rax
	addq	$32, %rsp
	popq	%rbp
	.cfi_restore 6
	.cfi_def_cfa 7, 8
	ret
	.cfi_endproc
.LFE7139:
	.seh_endproc
	.weak	_ZN3dod12make_pointerI8particleNS_6accessIINS_6memberIcLi0EEENS3_IiLi0EEENS3_IiLi1EEEEEEEENS_7pointerIT_IT0_EEERKSA_
	.def	_ZN3dod12make_pointerI8particleNS_6accessIINS_6memberIcLi0EEENS3_IiLi0EEENS3_IiLi1EEEEEEEENS_7pointerIT_IT0_EEERKSA_;	.scl	2;	.type	32;	.endef
	.set	_ZN3dod12make_pointerI8particleNS_6accessIINS_6memberIcLi0EEENS3_IiLi0EEENS3_IiLi1EEEEEEEENS_7pointerIT_IT0_EEERKSA_,_ZN3dod12make_pointerI8particleNS_6accessIJNS_6memberIcLi0EEENS3_IiLi0EEENS3_IiLi1EEEEEEEENS_7pointerIT_IT0_EEERKSA_
	.section	.text$_ZN5boost9iteratorsplIN3dod7pointerI8particleINS2_6accessIJNS2_6memberIcLi0EEENS6_IiLi0EEENS6_IiLi1EEEEEEEEESB_NS0_27random_access_traversal_tagESB_xEENS0_9enable_ifINS0_6detail21is_traversal_at_leastIT1_SD_EET_E4typeERKNS0_15iterator_facadeISJ_T0_SH_T2_T3_EENSJ_15difference_typeE,"x"
	.linkonce discard
	.globl	_ZN5boost9iteratorsplIN3dod7pointerI8particleINS2_6accessIJNS2_6memberIcLi0EEENS6_IiLi0EEENS6_IiLi1EEEEEEEEESB_NS0_27random_access_traversal_tagESB_xEENS0_9enable_ifINS0_6detail21is_traversal_at_leastIT1_SD_EET_E4typeERKNS0_15iterator_facadeISJ_T0_SH_T2_T3_EENSJ_15difference_typeE
	.def	_ZN5boost9iteratorsplIN3dod7pointerI8particleINS2_6accessIJNS2_6memberIcLi0EEENS6_IiLi0EEENS6_IiLi1EEEEEEEEESB_NS0_27random_access_traversal_tagESB_xEENS0_9enable_ifINS0_6detail21is_traversal_at_leastIT1_SD_EET_E4typeERKNS0_15iterator_facadeISJ_T0_SH_T2_T3_EENSJ_15difference_typeE;	.scl	2;	.type	32;	.endef
	.seh_proc	_ZN5boost9iteratorsplIN3dod7pointerI8particleINS2_6accessIJNS2_6memberIcLi0EEENS6_IiLi0EEENS6_IiLi1EEEEEEEEESB_NS0_27random_access_traversal_tagESB_xEENS0_9enable_ifINS0_6detail21is_traversal_at_leastIT1_SD_EET_E4typeERKNS0_15iterator_facadeISJ_T0_SH_T2_T3_EENSJ_15difference_typeE
_ZN5boost9iteratorsplIN3dod7pointerI8particleINS2_6accessIJNS2_6memberIcLi0EEENS6_IiLi0EEENS6_IiLi1EEEEEEEEESB_NS0_27random_access_traversal_tagESB_xEENS0_9enable_ifINS0_6detail21is_traversal_at_leastIT1_SD_EET_E4typeERKNS0_15iterator_facadeISJ_T0_SH_T2_T3_EENSJ_15difference_typeE:
.LFB7140:
	.loc 8 945 0
	.cfi_startproc
	pushq	%rbp
	.seh_pushreg	%rbp
	.cfi_def_cfa_offset 16
	.cfi_offset 6, -16
	movq	%rsp, %rbp
	.seh_setframe	%rbp, 0
	.cfi_def_cfa_register 6
	subq	$64, %rsp
	.seh_stackalloc	64
	.seh_endprologue
	movq	%rcx, 16(%rbp)
	movq	%rdx, 24(%rbp)
	movq	%r8, 32(%rbp)
	.loc 8 945 0
	movq	24(%rbp), %rax
	movq	(%rax), %rdx
	movq	%rdx, -32(%rbp)
	movq	8(%rax), %rdx
	movq	%rdx, -24(%rbp)
	movq	16(%rax), %rax
	movq	%rax, -16(%rbp)
	movq	32(%rbp), %rdx
	leaq	-32(%rbp), %rax
	movq	%rax, %rcx
	call	_ZN5boost9iterators6detail20iterator_facade_baseIN3dod7pointerI8particleINS3_6accessIJNS3_6memberIcLi0EEENS7_IiLi0EEENS7_IiLi1EEEEEEEEESC_NS0_27random_access_traversal_tagESC_xLb1ELb1EEpLEx
	movq	%rax, %rdx
	movq	16(%rbp), %rax
	movq	(%rdx), %rcx
	movq	%rcx, (%rax)
	movq	8(%rdx), %rcx
	movq	%rcx, 8(%rax)
	movq	16(%rdx), %rdx
	movq	%rdx, 16(%rax)
	movq	16(%rbp), %rax
	addq	$64, %rsp
	popq	%rbp
	.cfi_restore 6
	.cfi_def_cfa 7, 8
	ret
	.cfi_endproc
.LFE7140:
	.seh_endproc
	.weak	_ZN5boost9iteratorsplIN3dod7pointerI8particleINS2_6accessIINS2_6memberIcLi0EEENS6_IiLi0EEENS6_IiLi1EEEEEEEEESB_NS0_27random_access_traversal_tagESB_xEENS0_9enable_ifINS0_6detail21is_traversal_at_leastIT1_SD_EET_E4typeERKNS0_15iterator_facadeISJ_T0_SH_T2_T3_EENSJ_15difference_typeE
	.def	_ZN5boost9iteratorsplIN3dod7pointerI8particleINS2_6accessIINS2_6memberIcLi0EEENS6_IiLi0EEENS6_IiLi1EEEEEEEEESB_NS0_27random_access_traversal_tagESB_xEENS0_9enable_ifINS0_6detail21is_traversal_at_leastIT1_SD_EET_E4typeERKNS0_15iterator_facadeISJ_T0_SH_T2_T3_EENSJ_15difference_typeE;	.scl	2;	.type	32;	.endef
	.set	_ZN5boost9iteratorsplIN3dod7pointerI8particleINS2_6accessIINS2_6memberIcLi0EEENS6_IiLi0EEENS6_IiLi1EEEEEEEEESB_NS0_27random_access_traversal_tagESB_xEENS0_9enable_ifINS0_6detail21is_traversal_at_leastIT1_SD_EET_E4typeERKNS0_15iterator_facadeISJ_T0_SH_T2_T3_EENSJ_15difference_typeE,_ZN5boost9iteratorsplIN3dod7pointerI8particleINS2_6accessIJNS2_6memberIcLi0EEENS6_IiLi0EEENS6_IiLi1EEEEEEEEESB_NS0_27random_access_traversal_tagESB_xEENS0_9enable_ifINS0_6detail21is_traversal_at_leastIT1_SD_EET_E4typeERKNS0_15iterator_facadeISJ_T0_SH_T2_T3_EENSJ_15difference_typeE
	.section	.text$_Z6renderIN9__gnu_cxx17__normal_iteratorIP14plain_particleSt6vectorIS2_SaIS2_EEEEEiT_S8_,"x"
	.linkonce discard
	.globl	_Z6renderIN9__gnu_cxx17__normal_iteratorIP14plain_particleSt6vectorIS2_SaIS2_EEEEEiT_S8_
	.def	_Z6renderIN9__gnu_cxx17__normal_iteratorIP14plain_particleSt6vectorIS2_SaIS2_EEEEEiT_S8_;	.scl	2;	.type	32;	.endef
	.seh_proc	_Z6renderIN9__gnu_cxx17__normal_iteratorIP14plain_particleSt6vectorIS2_SaIS2_EEEEEiT_S8_
_Z6renderIN9__gnu_cxx17__normal_iteratorIP14plain_particleSt6vectorIS2_SaIS2_EEEEEiT_S8_:
.LFB7142:
	.loc 5 275 0
	.cfi_startproc
	pushq	%rbp
	.seh_pushreg	%rbp
	.cfi_def_cfa_offset 16
	.cfi_offset 6, -16
	movq	%rsp, %rbp
	.seh_setframe	%rbp, 0
	.cfi_def_cfa_register 6
	subq	$48, %rsp
	.seh_stackalloc	48
	.seh_endprologue
	movq	%rcx, 16(%rbp)
	movq	%rdx, 24(%rbp)
	.loc 5 277 0
	movl	$0, _ZL13render_output(%rip)
.L109:
	.loc 5 278 0 discriminator 2
	leaq	24(%rbp), %rax
	movq	%rax, %rdx
	leaq	16(%rbp), %rcx
	call	_ZN9__gnu_cxxneIP14plain_particleSt6vectorIS1_SaIS1_EEEEbRKNS_17__normal_iteratorIT_T0_EESB_
	testb	%al, %al
	je	.L108
	.loc 5 278 0 is_stmt 0 discriminator 1
	movl	$0, %edx
	leaq	16(%rbp), %rcx
	call	_ZN9__gnu_cxx17__normal_iteratorIP14plain_particleSt6vectorIS1_SaIS1_EEEppEi
	movq	%rax, -16(%rbp)
	leaq	-16(%rbp), %rax
	movq	%rax, %rcx
	call	_ZNK9__gnu_cxx17__normal_iteratorIP14plain_particleSt6vectorIS1_SaIS1_EEEptEv
	movq	%rax, %rcx
	call	_ZNK14plain_particle6renderEv
	jmp	.L109
.L108:
	.loc 5 279 0 is_stmt 1
	movl	_ZL13render_output(%rip), %eax
	.loc 5 280 0
	addq	$48, %rsp
	popq	%rbp
	.cfi_restore 6
	.cfi_def_cfa 7, 8
	ret
	.cfi_endproc
.LFE7142:
	.seh_endproc
	.text
	.def	_Z7measureIZ4mainEUlvE_EdT_y;	.scl	3;	.type	32;	.endef
	.seh_proc	_Z7measureIZ4mainEUlvE_EdT_y
_Z7measureIZ4mainEUlvE_EdT_y:
.LFB7143:
	.loc 5 291 0
	.cfi_startproc
	pushq	%rbp
	.seh_pushreg	%rbp
	.cfi_def_cfa_offset 16
	.cfi_offset 6, -16
	pushq	%rbx
	.seh_pushreg	%rbx
	.cfi_def_cfa_offset 24
	.cfi_offset 3, -24
	subq	$72, %rsp
	.seh_stackalloc	72
	.cfi_def_cfa_offset 96
	leaq	128(%rsp), %rbp
	.seh_setframe	%rbp, 128
	.cfi_def_cfa 6, -32
	.seh_endprologue
	movq	%rcx, %rbx
	movq	(%rbx), %rcx
	movq	8(%rbx), %rbx
	movq	%rcx, -80(%rbp)
	movq	%rbx, -72(%rbp)
	movq	%rdx, -24(%rbp)
	.loc 5 291 0
	movq	-80(%rbp), %rax
	movq	-72(%rbp), %rdx
	movq	%rax, -96(%rbp)
	movq	%rdx, -88(%rbp)
	leaq	-96(%rbp), %rax
	movq	%rax, %rcx
	call	_Z7measureIZ4mainEUlvE_EdT_
	movq	%xmm0, %rcx
	movq	-24(%rbp), %rax
	testq	%rax, %rax
	js	.L112
	pxor	%xmm0, %xmm0
	cvtsi2sdq	%rax, %xmm0
	jmp	.L113
.L112:
	movq	%rax, %rdx
	shrq	%rdx
	andl	$1, %eax
	orq	%rax, %rdx
	pxor	%xmm0, %xmm0
	cvtsi2sdq	%rdx, %xmm0
	addsd	%xmm0, %xmm0
.L113:
	movq	%rcx, %xmm2
	divsd	%xmm0, %xmm2
	movapd	%xmm2, %xmm0
	movsd	.LC3(%rip), %xmm1
	mulsd	%xmm1, %xmm0
	movq	%xmm0, %rax
	movq	%rax, %xmm0
	addq	$72, %rsp
	popq	%rbx
	.cfi_restore 3
	popq	%rbp
	.cfi_restore 6
	.cfi_def_cfa 7, -56
	ret
	.cfi_endproc
.LFE7143:
	.seh_endproc
	.def	_Z7measureIZ4mainEUlvE0_EdT_y;	.scl	3;	.type	32;	.endef
	.seh_proc	_Z7measureIZ4mainEUlvE0_EdT_y
_Z7measureIZ4mainEUlvE0_EdT_y:
.LFB7145:
	.loc 5 291 0
	.cfi_startproc
	pushq	%rbp
	.seh_pushreg	%rbp
	.cfi_def_cfa_offset 16
	.cfi_offset 6, -16
	pushq	%rbx
	.seh_pushreg	%rbx
	.cfi_def_cfa_offset 24
	.cfi_offset 3, -24
	subq	$72, %rsp
	.seh_stackalloc	72
	.cfi_def_cfa_offset 96
	leaq	128(%rsp), %rbp
	.seh_setframe	%rbp, 128
	.cfi_def_cfa 6, -32
	.seh_endprologue
	movq	%rcx, %rbx
	movq	%rdx, -24(%rbp)
	.loc 5 291 0
	movq	(%rbx), %rax
	movq	%rax, -96(%rbp)
	movq	8(%rbx), %rax
	movq	%rax, -88(%rbp)
	movq	16(%rbx), %rax
	movq	%rax, -80(%rbp)
	movq	24(%rbx), %rax
	movq	%rax, -72(%rbp)
	leaq	-96(%rbp), %rax
	movq	%rax, %rcx
	call	_Z7measureIZ4mainEUlvE0_EdT_
	movq	%xmm0, %rcx
	movq	-24(%rbp), %rax
	testq	%rax, %rax
	js	.L116
	pxor	%xmm0, %xmm0
	cvtsi2sdq	%rax, %xmm0
	jmp	.L117
.L116:
	movq	%rax, %rdx
	shrq	%rdx
	andl	$1, %eax
	orq	%rax, %rdx
	pxor	%xmm0, %xmm0
	cvtsi2sdq	%rdx, %xmm0
	addsd	%xmm0, %xmm0
.L117:
	movq	%rcx, %xmm2
	divsd	%xmm0, %xmm2
	movapd	%xmm2, %xmm0
	movsd	.LC3(%rip), %xmm1
	mulsd	%xmm1, %xmm0
	movq	%xmm0, %rax
	movq	%rax, %xmm0
	addq	$72, %rsp
	popq	%rbx
	.cfi_restore 3
	popq	%rbp
	.cfi_restore 6
	.cfi_def_cfa 7, -56
	ret
	.cfi_endproc
.LFE7145:
	.seh_endproc
	.section	.text$_Z6renderIN3dod7pointerI8particleINS0_6accessIJNS0_6memberIcLi0EEENS4_IiLi0EEENS4_IiLi1EEENS4_IiLi2EEENS4_IiLi3EEEEEEEEEEiT_SD_,"x"
	.linkonce discard
	.globl	_Z6renderIN3dod7pointerI8particleINS0_6accessIJNS0_6memberIcLi0EEENS4_IiLi0EEENS4_IiLi1EEENS4_IiLi2EEENS4_IiLi3EEEEEEEEEEiT_SD_
	.def	_Z6renderIN3dod7pointerI8particleINS0_6accessIJNS0_6memberIcLi0EEENS4_IiLi0EEENS4_IiLi1EEENS4_IiLi2EEENS4_IiLi3EEEEEEEEEEiT_SD_;	.scl	2;	.type	32;	.endef
	.seh_proc	_Z6renderIN3dod7pointerI8particleINS0_6accessIJNS0_6memberIcLi0EEENS4_IiLi0EEENS4_IiLi1EEENS4_IiLi2EEENS4_IiLi3EEEEEEEEEEiT_SD_
_Z6renderIN3dod7pointerI8particleINS0_6accessIJNS0_6memberIcLi0EEENS4_IiLi0EEENS4_IiLi1EEENS4_IiLi2EEENS4_IiLi3EEEEEEEEEEiT_SD_:
.LFB7146:
	.loc 5 275 0
	.cfi_startproc
	pushq	%rbp
	.seh_pushreg	%rbp
	.cfi_def_cfa_offset 16
	.cfi_offset 6, -16
	pushq	%rsi
	.seh_pushreg	%rsi
	.cfi_def_cfa_offset 24
	.cfi_offset 4, -24
	pushq	%rbx
	.seh_pushreg	%rbx
	.cfi_def_cfa_offset 32
	.cfi_offset 3, -32
	movq	%rsp, %rbp
	.seh_setframe	%rbp, 0
	.cfi_def_cfa_register 6
	addq	$-128, %rsp
	.seh_stackalloc	128
	.seh_endprologue
	movq	%rcx, %rbx
	movq	%rdx, %rsi
	.loc 5 277 0
	movl	$0, _ZL13render_output(%rip)
.L121:
	.loc 5 278 0 discriminator 8
	movq	%rsi, %rdx
	movq	%rbx, %rcx
	call	_ZN5boost9iteratorsneIN3dod7pointerI8particleINS2_6accessIJNS2_6memberIcLi0EEENS6_IiLi0EEENS6_IiLi1EEENS6_IiLi2EEENS6_IiLi3EEEEEEEEESD_NS0_27random_access_traversal_tagESD_xSE_SD_SF_SD_xEENS0_6detail23enable_if_interoperableIT_T4_NS_3mpl6apply2INSG_12always_bool2ESI_SJ_E4typeEE4typeERKNS0_15iterator_facadeISI_T0_T1_T2_T3_EERKNSR_ISJ_T5_T6_T7_T8_EE
	testb	%al, %al
	je	.L120
	.loc 5 278 0 is_stmt 0 discriminator 1
	leaq	-48(%rbp), %rax
	movl	$0, %r8d
	movq	%rbx, %rdx
	movq	%rax, %rcx
	call	_ZN5boost9iteratorsppIN3dod7pointerI8particleINS2_6accessIJNS2_6memberIcLi0EEENS6_IiLi0EEENS6_IiLi1EEENS6_IiLi2EEENS6_IiLi3EEEEEEEEESD_NS0_27random_access_traversal_tagESD_xEENS0_6detail24postfix_increment_resultIT_T0_T2_T1_E4typeERNS0_15iterator_facadeISI_SJ_SL_SK_T3_EEi
	leaq	-96(%rbp), %rax
	leaq	-48(%rbp), %rdx
	movq	%rax, %rcx
	call	_ZNK5boost9iterators6detail20iterator_facade_baseIN3dod7pointerI8particleINS3_6accessIJNS3_6memberIcLi0EEENS7_IiLi0EEENS7_IiLi1EEENS7_IiLi2EEENS7_IiLi3EEEEEEEEESE_NS0_27random_access_traversal_tagESE_xLb0ELb0EEptEv
	leaq	-96(%rbp), %rax
	movq	%rax, %rcx
	call	_ZN5boost9iterators6detail23operator_arrow_dispatchI8particleIN3dod6accessIJNS4_6memberIcLi0EEENS6_IiLi0EEENS6_IiLi1EEENS6_IiLi2EEENS6_IiLi3EEEEEEEPSD_E5proxyptEv
	movq	%rax, %rcx
	call	_ZNK8particleIN3dod6accessIJNS0_6memberIcLi0EEENS2_IiLi0EEENS2_IiLi1EEENS2_IiLi2EEENS2_IiLi3EEEEEEE6renderEv
	jmp	.L121
.L120:
	.loc 5 279 0 is_stmt 1
	movl	_ZL13render_output(%rip), %eax
	.loc 5 280 0
	subq	$-128, %rsp
	popq	%rbx
	.cfi_restore 3
	popq	%rsi
	.cfi_restore 4
	popq	%rbp
	.cfi_restore 6
	.cfi_def_cfa 7, 24
	ret
	.cfi_endproc
.LFE7146:
	.seh_endproc
	.weak	_Z6renderIN3dod7pointerI8particleINS0_6accessIINS0_6memberIcLi0EEENS4_IiLi0EEENS4_IiLi1EEENS4_IiLi2EEENS4_IiLi3EEEEEEEEEEiT_SD_
	.def	_Z6renderIN3dod7pointerI8particleINS0_6accessIINS0_6memberIcLi0EEENS4_IiLi0EEENS4_IiLi1EEENS4_IiLi2EEENS4_IiLi3EEEEEEEEEEiT_SD_;	.scl	2;	.type	32;	.endef
	.set	_Z6renderIN3dod7pointerI8particleINS0_6accessIINS0_6memberIcLi0EEENS4_IiLi0EEENS4_IiLi1EEENS4_IiLi2EEENS4_IiLi3EEEEEEEEEEiT_SD_,_Z6renderIN3dod7pointerI8particleINS0_6accessIJNS0_6memberIcLi0EEENS4_IiLi0EEENS4_IiLi1EEENS4_IiLi2EEENS4_IiLi3EEEEEEEEEEiT_SD_
	.text
	.def	_Z7measureIZ4mainEUlvE1_EdT_y;	.scl	3;	.type	32;	.endef
	.seh_proc	_Z7measureIZ4mainEUlvE1_EdT_y
_Z7measureIZ4mainEUlvE1_EdT_y:
.LFB7147:
	.loc 5 291 0
	.cfi_startproc
	pushq	%rbp
	.seh_pushreg	%rbp
	.cfi_def_cfa_offset 16
	.cfi_offset 6, -16
	pushq	%rbx
	.seh_pushreg	%rbx
	.cfi_def_cfa_offset 24
	.cfi_offset 3, -24
	subq	$120, %rsp
	.seh_stackalloc	120
	.cfi_def_cfa_offset 144
	leaq	128(%rsp), %rbp
	.seh_setframe	%rbp, 128
	.cfi_def_cfa 6, 16
	.seh_endprologue
	movq	%rcx, %rbx
	movq	%rdx, 24(%rbp)
	.loc 5 291 0
	movq	(%rbx), %rax
	movq	%rax, -96(%rbp)
	movq	8(%rbx), %rax
	movq	%rax, -88(%rbp)
	movq	16(%rbx), %rax
	movq	%rax, -80(%rbp)
	movq	24(%rbx), %rax
	movq	%rax, -72(%rbp)
	movq	32(%rbx), %rax
	movq	%rax, -64(%rbp)
	movq	40(%rbx), %rax
	movq	%rax, -56(%rbp)
	movq	48(%rbx), %rax
	movq	%rax, -48(%rbp)
	movq	56(%rbx), %rax
	movq	%rax, -40(%rbp)
	movq	64(%rbx), %rax
	movq	%rax, -32(%rbp)
	movq	72(%rbx), %rax
	movq	%rax, -24(%rbp)
	leaq	-96(%rbp), %rax
	movq	%rax, %rcx
	call	_Z7measureIZ4mainEUlvE1_EdT_
	movq	%xmm0, %rcx
	movq	24(%rbp), %rax
	testq	%rax, %rax
	js	.L124
	pxor	%xmm0, %xmm0
	cvtsi2sdq	%rax, %xmm0
	jmp	.L125
.L124:
	movq	%rax, %rdx
	shrq	%rdx
	andl	$1, %eax
	orq	%rax, %rdx
	pxor	%xmm0, %xmm0
	cvtsi2sdq	%rdx, %xmm0
	addsd	%xmm0, %xmm0
.L125:
	movq	%rcx, %xmm2
	divsd	%xmm0, %xmm2
	movapd	%xmm2, %xmm0
	movsd	.LC3(%rip), %xmm1
	mulsd	%xmm1, %xmm0
	movq	%xmm0, %rax
	movq	%rax, %xmm0
	addq	$120, %rsp
	popq	%rbx
	.cfi_restore 3
	popq	%rbp
	.cfi_restore 6
	.cfi_def_cfa 7, -104
	ret
	.cfi_endproc
.LFE7147:
	.seh_endproc
	.section	.text$_Z6renderIN3dod7pointerI8particleINS0_6accessIJNS0_6memberIcLi0EEENS4_IiLi0EEENS4_IiLi1EEEEEEEEEEiT_SB_,"x"
	.linkonce discard
	.globl	_Z6renderIN3dod7pointerI8particleINS0_6accessIJNS0_6memberIcLi0EEENS4_IiLi0EEENS4_IiLi1EEEEEEEEEEiT_SB_
	.def	_Z6renderIN3dod7pointerI8particleINS0_6accessIJNS0_6memberIcLi0EEENS4_IiLi0EEENS4_IiLi1EEEEEEEEEEiT_SB_;	.scl	2;	.type	32;	.endef
	.seh_proc	_Z6renderIN3dod7pointerI8particleINS0_6accessIJNS0_6memberIcLi0EEENS4_IiLi0EEENS4_IiLi1EEEEEEEEEEiT_SB_
_Z6renderIN3dod7pointerI8particleINS0_6accessIJNS0_6memberIcLi0EEENS4_IiLi0EEENS4_IiLi1EEEEEEEEEEiT_SB_:
.LFB7148:
	.loc 5 275 0
	.cfi_startproc
	pushq	%rbp
	.seh_pushreg	%rbp
	.cfi_def_cfa_offset 16
	.cfi_offset 6, -16
	pushq	%rsi
	.seh_pushreg	%rsi
	.cfi_def_cfa_offset 24
	.cfi_offset 4, -24
	pushq	%rbx
	.seh_pushreg	%rbx
	.cfi_def_cfa_offset 32
	.cfi_offset 3, -32
	movq	%rsp, %rbp
	.seh_setframe	%rbp, 0
	.cfi_def_cfa_register 6
	subq	$96, %rsp
	.seh_stackalloc	96
	.seh_endprologue
	movq	%rcx, %rbx
	movq	%rdx, %rsi
	.loc 5 277 0
	movl	$0, _ZL13render_output(%rip)
.L129:
	.loc 5 278 0 discriminator 8
	movq	%rsi, %rdx
	movq	%rbx, %rcx
	call	_ZN5boost9iteratorsneIN3dod7pointerI8particleINS2_6accessIJNS2_6memberIcLi0EEENS6_IiLi0EEENS6_IiLi1EEEEEEEEESB_NS0_27random_access_traversal_tagESB_xSC_SB_SD_SB_xEENS0_6detail23enable_if_interoperableIT_T4_NS_3mpl6apply2INSE_12always_bool2ESG_SH_E4typeEE4typeERKNS0_15iterator_facadeISG_T0_T1_T2_T3_EERKNSP_ISH_T5_T6_T7_T8_EE
	testb	%al, %al
	je	.L128
	.loc 5 278 0 is_stmt 0 discriminator 1
	leaq	-32(%rbp), %rax
	movl	$0, %r8d
	movq	%rbx, %rdx
	movq	%rax, %rcx
	call	_ZN5boost9iteratorsppIN3dod7pointerI8particleINS2_6accessIJNS2_6memberIcLi0EEENS6_IiLi0EEENS6_IiLi1EEEEEEEEESB_NS0_27random_access_traversal_tagESB_xEENS0_6detail24postfix_increment_resultIT_T0_T2_T1_E4typeERNS0_15iterator_facadeISG_SH_SJ_SI_T3_EEi
	leaq	-64(%rbp), %rax
	leaq	-32(%rbp), %rdx
	movq	%rax, %rcx
	call	_ZNK5boost9iterators6detail20iterator_facade_baseIN3dod7pointerI8particleINS3_6accessIJNS3_6memberIcLi0EEENS7_IiLi0EEENS7_IiLi1EEEEEEEEESC_NS0_27random_access_traversal_tagESC_xLb0ELb0EEptEv
	leaq	-64(%rbp), %rax
	movq	%rax, %rcx
	call	_ZN5boost9iterators6detail23operator_arrow_dispatchI8particleIN3dod6accessIJNS4_6memberIcLi0EEENS6_IiLi0EEENS6_IiLi1EEEEEEEPSB_E5proxyptEv
	movq	%rax, %rcx
	call	_ZNK8particleIN3dod6accessIJNS0_6memberIcLi0EEENS2_IiLi0EEENS2_IiLi1EEEEEEE6renderEv
	jmp	.L129
.L128:
	.loc 5 279 0 is_stmt 1
	movl	_ZL13render_output(%rip), %eax
	.loc 5 280 0
	addq	$96, %rsp
	popq	%rbx
	.cfi_restore 3
	popq	%rsi
	.cfi_restore 4
	popq	%rbp
	.cfi_restore 6
	.cfi_def_cfa 7, 24
	ret
	.cfi_endproc
.LFE7148:
	.seh_endproc
	.weak	_Z6renderIN3dod7pointerI8particleINS0_6accessIINS0_6memberIcLi0EEENS4_IiLi0EEENS4_IiLi1EEEEEEEEEEiT_SB_
	.def	_Z6renderIN3dod7pointerI8particleINS0_6accessIINS0_6memberIcLi0EEENS4_IiLi0EEENS4_IiLi1EEEEEEEEEEiT_SB_;	.scl	2;	.type	32;	.endef
	.set	_Z6renderIN3dod7pointerI8particleINS0_6accessIINS0_6memberIcLi0EEENS4_IiLi0EEENS4_IiLi1EEEEEEEEEEiT_SB_,_Z6renderIN3dod7pointerI8particleINS0_6accessIJNS0_6memberIcLi0EEENS4_IiLi0EEENS4_IiLi1EEEEEEEEEEiT_SB_
	.text
	.def	_Z7measureIZ4mainEUlvE2_EdT_y;	.scl	3;	.type	32;	.endef
	.seh_proc	_Z7measureIZ4mainEUlvE2_EdT_y
_Z7measureIZ4mainEUlvE2_EdT_y:
.LFB7149:
	.loc 5 291 0
	.cfi_startproc
	pushq	%rbp
	.seh_pushreg	%rbp
	.cfi_def_cfa_offset 16
	.cfi_offset 6, -16
	pushq	%rbx
	.seh_pushreg	%rbx
	.cfi_def_cfa_offset 24
	.cfi_offset 3, -24
	subq	$88, %rsp
	.seh_stackalloc	88
	.cfi_def_cfa_offset 112
	leaq	128(%rsp), %rbp
	.seh_setframe	%rbp, 128
	.cfi_def_cfa 6, -16
	.seh_endprologue
	movq	%rcx, %rbx
	movq	%rdx, -8(%rbp)
	.loc 5 291 0
	movq	(%rbx), %rax
	movq	%rax, -96(%rbp)
	movq	8(%rbx), %rax
	movq	%rax, -88(%rbp)
	movq	16(%rbx), %rax
	movq	%rax, -80(%rbp)
	movq	24(%rbx), %rax
	movq	%rax, -72(%rbp)
	movq	32(%rbx), %rax
	movq	%rax, -64(%rbp)
	movq	40(%rbx), %rax
	movq	%rax, -56(%rbp)
	leaq	-96(%rbp), %rax
	movq	%rax, %rcx
	call	_Z7measureIZ4mainEUlvE2_EdT_
	movq	%xmm0, %rcx
	movq	-8(%rbp), %rax
	testq	%rax, %rax
	js	.L132
	pxor	%xmm0, %xmm0
	cvtsi2sdq	%rax, %xmm0
	jmp	.L133
.L132:
	movq	%rax, %rdx
	shrq	%rdx
	andl	$1, %eax
	orq	%rax, %rdx
	pxor	%xmm0, %xmm0
	cvtsi2sdq	%rdx, %xmm0
	addsd	%xmm0, %xmm0
.L133:
	movq	%rcx, %xmm2
	divsd	%xmm0, %xmm2
	movapd	%xmm2, %xmm0
	movsd	.LC3(%rip), %xmm1
	mulsd	%xmm1, %xmm0
	movq	%xmm0, %rax
	movq	%rax, %xmm0
	addq	$88, %rsp
	popq	%rbx
	.cfi_restore 3
	popq	%rbp
	.cfi_restore 6
	.cfi_def_cfa 7, -72
	ret
	.cfi_endproc
.LFE7149:
	.seh_endproc
	.section	.text$_Z6renderIN9__gnu_cxx17__normal_iteratorIP14plain_particleSt6vectorIS2_SaIS2_EEEEyEiT_T0_,"x"
	.linkonce discard
	.globl	_Z6renderIN9__gnu_cxx17__normal_iteratorIP14plain_particleSt6vectorIS2_SaIS2_EEEEyEiT_T0_
	.def	_Z6renderIN9__gnu_cxx17__normal_iteratorIP14plain_particleSt6vectorIS2_SaIS2_EEEEyEiT_T0_;	.scl	2;	.type	32;	.endef
	.seh_proc	_Z6renderIN9__gnu_cxx17__normal_iteratorIP14plain_particleSt6vectorIS2_SaIS2_EEEEyEiT_T0_
_Z6renderIN9__gnu_cxx17__normal_iteratorIP14plain_particleSt6vectorIS2_SaIS2_EEEEyEiT_T0_:
.LFB7150:
	.loc 5 283 0
	.cfi_startproc
	pushq	%rbp
	.seh_pushreg	%rbp
	.cfi_def_cfa_offset 16
	.cfi_offset 6, -16
	movq	%rsp, %rbp
	.seh_setframe	%rbp, 0
	.cfi_def_cfa_register 6
	subq	$48, %rsp
	.seh_stackalloc	48
	.seh_endprologue
	movq	%rcx, 16(%rbp)
	movq	%rdx, 24(%rbp)
	.loc 5 285 0
	movl	$0, _ZL13render_output(%rip)
.LBB51:
	.loc 5 286 0
	movq	$0, -8(%rbp)
.L137:
	.loc 5 286 0 is_stmt 0 discriminator 3
	movq	-8(%rbp), %rax
	cmpq	24(%rbp), %rax
	jnb	.L136
	.loc 5 286 0 discriminator 2
	movq	-8(%rbp), %rax
	movq	%rax, %rdx
	leaq	16(%rbp), %rcx
	call	_ZNK9__gnu_cxx17__normal_iteratorIP14plain_particleSt6vectorIS1_SaIS1_EEEixEx
	movq	%rax, %rcx
	call	_ZNK14plain_particle6renderEv
	addq	$1, -8(%rbp)
	jmp	.L137
.L136:
.LBE51:
	.loc 5 287 0 is_stmt 1
	movl	_ZL13render_output(%rip), %eax
	.loc 5 288 0
	addq	$48, %rsp
	popq	%rbp
	.cfi_restore 6
	.cfi_def_cfa 7, 8
	ret
	.cfi_endproc
.LFE7150:
	.seh_endproc
	.text
	.def	_Z7measureIZ4mainEUlvE3_EdT_y;	.scl	3;	.type	32;	.endef
	.seh_proc	_Z7measureIZ4mainEUlvE3_EdT_y
_Z7measureIZ4mainEUlvE3_EdT_y:
.LFB7151:
	.loc 5 291 0
	.cfi_startproc
	pushq	%rbp
	.seh_pushreg	%rbp
	.cfi_def_cfa_offset 16
	.cfi_offset 6, -16
	pushq	%rbx
	.seh_pushreg	%rbx
	.cfi_def_cfa_offset 24
	.cfi_offset 3, -24
	subq	$72, %rsp
	.seh_stackalloc	72
	.cfi_def_cfa_offset 96
	leaq	128(%rsp), %rbp
	.seh_setframe	%rbp, 128
	.cfi_def_cfa 6, -32
	.seh_endprologue
	movq	%rcx, %rbx
	movq	(%rbx), %rcx
	movq	8(%rbx), %rbx
	movq	%rcx, -80(%rbp)
	movq	%rbx, -72(%rbp)
	movq	%rdx, -24(%rbp)
	.loc 5 291 0
	movq	-80(%rbp), %rax
	movq	-72(%rbp), %rdx
	movq	%rax, -96(%rbp)
	movq	%rdx, -88(%rbp)
	leaq	-96(%rbp), %rax
	movq	%rax, %rcx
	call	_Z7measureIZ4mainEUlvE3_EdT_
	movq	%xmm0, %rcx
	movq	-24(%rbp), %rax
	testq	%rax, %rax
	js	.L140
	pxor	%xmm0, %xmm0
	cvtsi2sdq	%rax, %xmm0
	jmp	.L141
.L140:
	movq	%rax, %rdx
	shrq	%rdx
	andl	$1, %eax
	orq	%rax, %rdx
	pxor	%xmm0, %xmm0
	cvtsi2sdq	%rdx, %xmm0
	addsd	%xmm0, %xmm0
.L141:
	movq	%rcx, %xmm2
	divsd	%xmm0, %xmm2
	movapd	%xmm2, %xmm0
	movsd	.LC3(%rip), %xmm1
	mulsd	%xmm1, %xmm0
	movq	%xmm0, %rax
	movq	%rax, %xmm0
	addq	$72, %rsp
	popq	%rbx
	.cfi_restore 3
	popq	%rbp
	.cfi_restore 6
	.cfi_def_cfa 7, -56
	ret
	.cfi_endproc
.LFE7151:
	.seh_endproc
	.def	_Z7measureIZ4mainEUlvE4_EdT_y;	.scl	3;	.type	32;	.endef
	.seh_proc	_Z7measureIZ4mainEUlvE4_EdT_y
_Z7measureIZ4mainEUlvE4_EdT_y:
.LFB7152:
	.loc 5 291 0
	.cfi_startproc
	pushq	%rbp
	.seh_pushreg	%rbp
	.cfi_def_cfa_offset 16
	.cfi_offset 6, -16
	pushq	%rbx
	.seh_pushreg	%rbx
	.cfi_def_cfa_offset 24
	.cfi_offset 3, -24
	subq	$72, %rsp
	.seh_stackalloc	72
	.cfi_def_cfa_offset 96
	leaq	128(%rsp), %rbp
	.seh_setframe	%rbp, 128
	.cfi_def_cfa 6, -32
	.seh_endprologue
	movq	%rcx, %rbx
	movq	%rdx, -24(%rbp)
	.loc 5 291 0
	movq	(%rbx), %rax
	movq	%rax, -96(%rbp)
	movq	8(%rbx), %rax
	movq	%rax, -88(%rbp)
	movq	16(%rbx), %rax
	movq	%rax, -80(%rbp)
	movq	24(%rbx), %rax
	movq	%rax, -72(%rbp)
	leaq	-96(%rbp), %rax
	movq	%rax, %rcx
	call	_Z7measureIZ4mainEUlvE4_EdT_
	movq	%xmm0, %rcx
	movq	-24(%rbp), %rax
	testq	%rax, %rax
	js	.L144
	pxor	%xmm0, %xmm0
	cvtsi2sdq	%rax, %xmm0
	jmp	.L145
.L144:
	movq	%rax, %rdx
	shrq	%rdx
	andl	$1, %eax
	orq	%rax, %rdx
	pxor	%xmm0, %xmm0
	cvtsi2sdq	%rdx, %xmm0
	addsd	%xmm0, %xmm0
.L145:
	movq	%rcx, %xmm2
	divsd	%xmm0, %xmm2
	movapd	%xmm2, %xmm0
	movsd	.LC3(%rip), %xmm1
	mulsd	%xmm1, %xmm0
	movq	%xmm0, %rax
	movq	%rax, %xmm0
	addq	$72, %rsp
	popq	%rbx
	.cfi_restore 3
	popq	%rbp
	.cfi_restore 6
	.cfi_def_cfa 7, -56
	ret
	.cfi_endproc
.LFE7152:
	.seh_endproc
	.section	.text$_Z6renderIN3dod7pointerI8particleINS0_6accessIJNS0_6memberIcLi0EEENS4_IiLi0EEENS4_IiLi1EEENS4_IiLi2EEENS4_IiLi3EEEEEEEEEyEiT_T0_,"x"
	.linkonce discard
	.globl	_Z6renderIN3dod7pointerI8particleINS0_6accessIJNS0_6memberIcLi0EEENS4_IiLi0EEENS4_IiLi1EEENS4_IiLi2EEENS4_IiLi3EEEEEEEEEyEiT_T0_
	.def	_Z6renderIN3dod7pointerI8particleINS0_6accessIJNS0_6memberIcLi0EEENS4_IiLi0EEENS4_IiLi1EEENS4_IiLi2EEENS4_IiLi3EEEEEEEEEyEiT_T0_;	.scl	2;	.type	32;	.endef
	.seh_proc	_Z6renderIN3dod7pointerI8particleINS0_6accessIJNS0_6memberIcLi0EEENS4_IiLi0EEENS4_IiLi1EEENS4_IiLi2EEENS4_IiLi3EEEEEEEEEyEiT_T0_
_Z6renderIN3dod7pointerI8particleINS0_6accessIJNS0_6memberIcLi0EEENS4_IiLi0EEENS4_IiLi1EEENS4_IiLi2EEENS4_IiLi3EEEEEEEEEyEiT_T0_:
.LFB7153:
	.loc 5 283 0
	.cfi_startproc
	pushq	%rbp
	.seh_pushreg	%rbp
	.cfi_def_cfa_offset 16
	.cfi_offset 6, -16
	pushq	%rbx
	.seh_pushreg	%rbx
	.cfi_def_cfa_offset 24
	.cfi_offset 3, -24
	subq	$88, %rsp
	.seh_stackalloc	88
	.cfi_def_cfa_offset 112
	leaq	128(%rsp), %rbp
	.seh_setframe	%rbp, 128
	.cfi_def_cfa 6, -16
	.seh_endprologue
	movq	%rcx, %rbx
	movq	%rdx, -8(%rbp)
	.loc 5 285 0
	movl	$0, _ZL13render_output(%rip)
.LBB52:
	.loc 5 286 0
	movq	$0, -56(%rbp)
.L149:
	.loc 5 286 0 is_stmt 0 discriminator 5
	movq	-56(%rbp), %rax
	cmpq	-8(%rbp), %rax
	jnb	.L148
	.loc 5 286 0 discriminator 2
	leaq	-96(%rbp), %rax
	movq	-56(%rbp), %rdx
	movq	%rdx, %r8
	movq	%rbx, %rdx
	movq	%rax, %rcx
	call	_ZNK3dod7pointerI8particleINS_6accessIJNS_6memberIcLi0EEENS3_IiLi0EEENS3_IiLi1EEENS3_IiLi2EEENS3_IiLi3EEEEEEEEixEy
	leaq	-96(%rbp), %rax
	movq	%rax, %rcx
	call	_ZNK8particleIN3dod6accessIJNS0_6memberIcLi0EEENS2_IiLi0EEENS2_IiLi1EEENS2_IiLi2EEENS2_IiLi3EEEEEEE6renderEv
	addq	$1, -56(%rbp)
	jmp	.L149
.L148:
.LBE52:
	.loc 5 287 0 is_stmt 1
	movl	_ZL13render_output(%rip), %eax
	.loc 5 288 0
	addq	$88, %rsp
	popq	%rbx
	.cfi_restore 3
	popq	%rbp
	.cfi_restore 6
	.cfi_def_cfa 7, -72
	ret
	.cfi_endproc
.LFE7153:
	.seh_endproc
	.weak	_Z6renderIN3dod7pointerI8particleINS0_6accessIINS0_6memberIcLi0EEENS4_IiLi0EEENS4_IiLi1EEENS4_IiLi2EEENS4_IiLi3EEEEEEEEEyEiT_T0_
	.def	_Z6renderIN3dod7pointerI8particleINS0_6accessIINS0_6memberIcLi0EEENS4_IiLi0EEENS4_IiLi1EEENS4_IiLi2EEENS4_IiLi3EEEEEEEEEyEiT_T0_;	.scl	2;	.type	32;	.endef
	.set	_Z6renderIN3dod7pointerI8particleINS0_6accessIINS0_6memberIcLi0EEENS4_IiLi0EEENS4_IiLi1EEENS4_IiLi2EEENS4_IiLi3EEEEEEEEEyEiT_T0_,_Z6renderIN3dod7pointerI8particleINS0_6accessIJNS0_6memberIcLi0EEENS4_IiLi0EEENS4_IiLi1EEENS4_IiLi2EEENS4_IiLi3EEEEEEEEEyEiT_T0_
	.text
	.def	_Z7measureIZ4mainEUlvE5_EdT_y;	.scl	3;	.type	32;	.endef
	.seh_proc	_Z7measureIZ4mainEUlvE5_EdT_y
_Z7measureIZ4mainEUlvE5_EdT_y:
.LFB7154:
	.loc 5 291 0
	.cfi_startproc
	pushq	%rbp
	.seh_pushreg	%rbp
	.cfi_def_cfa_offset 16
	.cfi_offset 6, -16
	pushq	%rbx
	.seh_pushreg	%rbx
	.cfi_def_cfa_offset 24
	.cfi_offset 3, -24
	subq	$88, %rsp
	.seh_stackalloc	88
	.cfi_def_cfa_offset 112
	leaq	128(%rsp), %rbp
	.seh_setframe	%rbp, 128
	.cfi_def_cfa 6, -16
	.seh_endprologue
	movq	%rcx, %rbx
	movq	%rdx, -8(%rbp)
	.loc 5 291 0
	movq	(%rbx), %rax
	movq	%rax, -96(%rbp)
	movq	8(%rbx), %rax
	movq	%rax, -88(%rbp)
	movq	16(%rbx), %rax
	movq	%rax, -80(%rbp)
	movq	24(%rbx), %rax
	movq	%rax, -72(%rbp)
	movq	32(%rbx), %rax
	movq	%rax, -64(%rbp)
	movq	40(%rbx), %rax
	movq	%rax, -56(%rbp)
	leaq	-96(%rbp), %rax
	movq	%rax, %rcx
	call	_Z7measureIZ4mainEUlvE5_EdT_
	movq	%xmm0, %rcx
	movq	-8(%rbp), %rax
	testq	%rax, %rax
	js	.L152
	pxor	%xmm0, %xmm0
	cvtsi2sdq	%rax, %xmm0
	jmp	.L153
.L152:
	movq	%rax, %rdx
	shrq	%rdx
	andl	$1, %eax
	orq	%rax, %rdx
	pxor	%xmm0, %xmm0
	cvtsi2sdq	%rdx, %xmm0
	addsd	%xmm0, %xmm0
.L153:
	movq	%rcx, %xmm2
	divsd	%xmm0, %xmm2
	movapd	%xmm2, %xmm0
	movsd	.LC3(%rip), %xmm1
	mulsd	%xmm1, %xmm0
	movq	%xmm0, %rax
	movq	%rax, %xmm0
	addq	$88, %rsp
	popq	%rbx
	.cfi_restore 3
	popq	%rbp
	.cfi_restore 6
	.cfi_def_cfa 7, -72
	ret
	.cfi_endproc
.LFE7154:
	.seh_endproc
	.section	.text$_Z6renderIN3dod7pointerI8particleINS0_6accessIJNS0_6memberIcLi0EEENS4_IiLi0EEENS4_IiLi1EEEEEEEEEyEiT_T0_,"x"
	.linkonce discard
	.globl	_Z6renderIN3dod7pointerI8particleINS0_6accessIJNS0_6memberIcLi0EEENS4_IiLi0EEENS4_IiLi1EEEEEEEEEyEiT_T0_
	.def	_Z6renderIN3dod7pointerI8particleINS0_6accessIJNS0_6memberIcLi0EEENS4_IiLi0EEENS4_IiLi1EEEEEEEEEyEiT_T0_;	.scl	2;	.type	32;	.endef
	.seh_proc	_Z6renderIN3dod7pointerI8particleINS0_6accessIJNS0_6memberIcLi0EEENS4_IiLi0EEENS4_IiLi1EEEEEEEEEyEiT_T0_
_Z6renderIN3dod7pointerI8particleINS0_6accessIJNS0_6memberIcLi0EEENS4_IiLi0EEENS4_IiLi1EEEEEEEEEyEiT_T0_:
.LFB7155:
	.loc 5 283 0
	.cfi_startproc
	pushq	%rbp
	.seh_pushreg	%rbp
	.cfi_def_cfa_offset 16
	.cfi_offset 6, -16
	pushq	%rbx
	.seh_pushreg	%rbx
	.cfi_def_cfa_offset 24
	.cfi_offset 3, -24
	subq	$72, %rsp
	.seh_stackalloc	72
	.cfi_def_cfa_offset 96
	leaq	128(%rsp), %rbp
	.seh_setframe	%rbp, 128
	.cfi_def_cfa 6, -32
	.seh_endprologue
	movq	%rcx, %rbx
	movq	%rdx, -24(%rbp)
	.loc 5 285 0
	movl	$0, _ZL13render_output(%rip)
.LBB53:
	.loc 5 286 0
	movq	$0, -72(%rbp)
.L157:
	.loc 5 286 0 is_stmt 0 discriminator 5
	movq	-72(%rbp), %rax
	cmpq	-24(%rbp), %rax
	jnb	.L156
	.loc 5 286 0 discriminator 2
	leaq	-96(%rbp), %rax
	movq	-72(%rbp), %rdx
	movq	%rdx, %r8
	movq	%rbx, %rdx
	movq	%rax, %rcx
	call	_ZNK3dod7pointerI8particleINS_6accessIJNS_6memberIcLi0EEENS3_IiLi0EEENS3_IiLi1EEEEEEEEixEy
	leaq	-96(%rbp), %rax
	movq	%rax, %rcx
	call	_ZNK8particleIN3dod6accessIJNS0_6memberIcLi0EEENS2_IiLi0EEENS2_IiLi1EEEEEEE6renderEv
	addq	$1, -72(%rbp)
	jmp	.L157
.L156:
.LBE53:
	.loc 5 287 0 is_stmt 1
	movl	_ZL13render_output(%rip), %eax
	.loc 5 288 0
	addq	$72, %rsp
	popq	%rbx
	.cfi_restore 3
	popq	%rbp
	.cfi_restore 6
	.cfi_def_cfa 7, -56
	ret
	.cfi_endproc
.LFE7155:
	.seh_endproc
	.weak	_Z6renderIN3dod7pointerI8particleINS0_6accessIINS0_6memberIcLi0EEENS4_IiLi0EEENS4_IiLi1EEEEEEEEEyEiT_T0_
	.def	_Z6renderIN3dod7pointerI8particleINS0_6accessIINS0_6memberIcLi0EEENS4_IiLi0EEENS4_IiLi1EEEEEEEEEyEiT_T0_;	.scl	2;	.type	32;	.endef
	.set	_Z6renderIN3dod7pointerI8particleINS0_6accessIINS0_6memberIcLi0EEENS4_IiLi0EEENS4_IiLi1EEEEEEEEEyEiT_T0_,_Z6renderIN3dod7pointerI8particleINS0_6accessIJNS0_6memberIcLi0EEENS4_IiLi0EEENS4_IiLi1EEEEEEEEEyEiT_T0_
	.text
	.def	_Z7measureIZ4mainEUlvE6_EdT_y;	.scl	3;	.type	32;	.endef
	.seh_proc	_Z7measureIZ4mainEUlvE6_EdT_y
_Z7measureIZ4mainEUlvE6_EdT_y:
.LFB7156:
	.loc 5 291 0
	.cfi_startproc
	pushq	%rbp
	.seh_pushreg	%rbp
	.cfi_def_cfa_offset 16
	.cfi_offset 6, -16
	pushq	%rbx
	.seh_pushreg	%rbx
	.cfi_def_cfa_offset 24
	.cfi_offset 3, -24
	subq	$72, %rsp
	.seh_stackalloc	72
	.cfi_def_cfa_offset 96
	leaq	128(%rsp), %rbp
	.seh_setframe	%rbp, 128
	.cfi_def_cfa 6, -32
	.seh_endprologue
	movq	%rcx, %rbx
	movq	%rdx, -24(%rbp)
	.loc 5 291 0
	movq	(%rbx), %rax
	movq	%rax, -96(%rbp)
	movq	8(%rbx), %rax
	movq	%rax, -88(%rbp)
	movq	16(%rbx), %rax
	movq	%rax, -80(%rbp)
	movq	24(%rbx), %rax
	movq	%rax, -72(%rbp)
	leaq	-96(%rbp), %rax
	movq	%rax, %rcx
	call	_Z7measureIZ4mainEUlvE6_EdT_
	movq	%xmm0, %rcx
	movq	-24(%rbp), %rax
	testq	%rax, %rax
	js	.L160
	pxor	%xmm0, %xmm0
	cvtsi2sdq	%rax, %xmm0
	jmp	.L161
.L160:
	movq	%rax, %rdx
	shrq	%rdx
	andl	$1, %eax
	orq	%rax, %rdx
	pxor	%xmm0, %xmm0
	cvtsi2sdq	%rdx, %xmm0
	addsd	%xmm0, %xmm0
.L161:
	movq	%rcx, %xmm2
	divsd	%xmm0, %xmm2
	movapd	%xmm2, %xmm0
	movsd	.LC3(%rip), %xmm1
	mulsd	%xmm1, %xmm0
	movq	%xmm0, %rax
	movq	%rax, %xmm0
	addq	$72, %rsp
	popq	%rbx
	.cfi_restore 3
	popq	%rbp
	.cfi_restore 6
	.cfi_def_cfa 7, -56
	ret
	.cfi_endproc
.LFE7156:
	.seh_endproc
	.section	.text$_ZNSt6chrono8durationIxSt5ratioILx1ELx1000000000EEEpLERKS3_,"x"
	.linkonce discard
	.align 2
	.globl	_ZNSt6chrono8durationIxSt5ratioILx1ELx1000000000EEEpLERKS3_
	.def	_ZNSt6chrono8durationIxSt5ratioILx1ELx1000000000EEEpLERKS3_;	.scl	2;	.type	32;	.endef
	.seh_proc	_ZNSt6chrono8durationIxSt5ratioILx1ELx1000000000EEEpLERKS3_
_ZNSt6chrono8durationIxSt5ratioILx1ELx1000000000EEEpLERKS3_:
.LFB7214:
	.loc 4 313 0
	.cfi_startproc
	pushq	%rbp
	.seh_pushreg	%rbp
	.cfi_def_cfa_offset 16
	.cfi_offset 6, -16
	movq	%rsp, %rbp
	.seh_setframe	%rbp, 0
	.cfi_def_cfa_register 6
	subq	$32, %rsp
	.seh_stackalloc	32
	.seh_endprologue
	movq	%rcx, 16(%rbp)
	movq	%rdx, 24(%rbp)
	.loc 4 315 0
	movq	24(%rbp), %rax
	movq	%rax, %rcx
	call	_ZNKSt6chrono8durationIxSt5ratioILx1ELx1000000000EEE5countEv
	movq	%rax, %rdx
	movq	16(%rbp), %rax
	movq	(%rax), %rax
	addq	%rax, %rdx
	movq	16(%rbp), %rax
	movq	%rdx, (%rax)
	.loc 4 316 0
	movq	16(%rbp), %rax
	.loc 4 317 0
	addq	$32, %rsp
	popq	%rbp
	.cfi_restore 6
	.cfi_def_cfa 7, 8
	ret
	.cfi_endproc
.LFE7214:
	.seh_endproc
	.section	.text$_ZNSt12_Vector_baseIcSaIcEE12_Vector_implD1Ev,"x"
	.linkonce discard
	.align 2
	.globl	_ZNSt12_Vector_baseIcSaIcEE12_Vector_implD1Ev
	.def	_ZNSt12_Vector_baseIcSaIcEE12_Vector_implD1Ev;	.scl	2;	.type	32;	.endef
	.seh_proc	_ZNSt12_Vector_baseIcSaIcEE12_Vector_implD1Ev
_ZNSt12_Vector_baseIcSaIcEE12_Vector_implD1Ev:
.LFB7230:
	.loc 6 79 0
	.cfi_startproc
	pushq	%rbp
	.seh_pushreg	%rbp
	.cfi_def_cfa_offset 16
	.cfi_offset 6, -16
	movq	%rsp, %rbp
	.seh_setframe	%rbp, 0
	.cfi_def_cfa_register 6
	subq	$32, %rsp
	.seh_stackalloc	32
	.seh_endprologue
	movq	%rcx, 16(%rbp)
.LBB54:
	.loc 6 79 0
	movq	16(%rbp), %rcx
	call	_ZNSaIcED2Ev
.LBE54:
	nop
	addq	$32, %rsp
	popq	%rbp
	.cfi_restore 6
	.cfi_def_cfa 7, 8
	ret
	.cfi_endproc
.LFE7230:
	.seh_endproc
	.section	.text$_ZNSt12_Vector_baseIcSaIcEEC2Ev,"x"
	.linkonce discard
	.align 2
	.globl	_ZNSt12_Vector_baseIcSaIcEEC2Ev
	.def	_ZNSt12_Vector_baseIcSaIcEEC2Ev;	.scl	2;	.type	32;	.endef
	.seh_proc	_ZNSt12_Vector_baseIcSaIcEEC2Ev
_ZNSt12_Vector_baseIcSaIcEEC2Ev:
.LFB7231:
	.loc 6 124 0
	.cfi_startproc
	pushq	%rbp
	.seh_pushreg	%rbp
	.cfi_def_cfa_offset 16
	.cfi_offset 6, -16
	movq	%rsp, %rbp
	.seh_setframe	%rbp, 0
	.cfi_def_cfa_register 6
	subq	$32, %rsp
	.seh_stackalloc	32
	.seh_endprologue
	movq	%rcx, 16(%rbp)
.LBB55:
	.loc 6 125 0
	movq	16(%rbp), %rax
	movq	%rax, %rcx
	call	_ZNSt12_Vector_baseIcSaIcEE12_Vector_implC1Ev
.LBE55:
	nop
	addq	$32, %rsp
	popq	%rbp
	.cfi_restore 6
	.cfi_def_cfa 7, 8
	ret
	.cfi_endproc
.LFE7231:
	.seh_endproc
	.section	.text$_ZNSt12_Vector_baseIcSaIcEED2Ev,"x"
	.linkonce discard
	.align 2
	.globl	_ZNSt12_Vector_baseIcSaIcEED2Ev
	.def	_ZNSt12_Vector_baseIcSaIcEED2Ev;	.scl	2;	.type	32;	.endef
	.seh_proc	_ZNSt12_Vector_baseIcSaIcEED2Ev
_ZNSt12_Vector_baseIcSaIcEED2Ev:
.LFB7234:
	.loc 6 159 0
	.cfi_startproc
	.cfi_personality 0x9b,.LDFCM0
	.cfi_lsda 0x1c,.LLSDA7234
	pushq	%rbp
	.seh_pushreg	%rbp
	.cfi_def_cfa_offset 16
	.cfi_offset 6, -16
	movq	%rsp, %rbp
	.seh_setframe	%rbp, 0
	.cfi_def_cfa_register 6
	subq	$32, %rsp
	.seh_stackalloc	32
	.seh_endprologue
	movq	%rcx, 16(%rbp)
.LBB56:
	.loc 6 161 0
	movq	16(%rbp), %rax
	movq	16(%rax), %rax
	.loc 6 160 0
	movq	%rax, %rdx
	.loc 6 161 0
	movq	16(%rbp), %rax
	movq	(%rax), %rax
	.loc 6 160 0
	subq	%rax, %rdx
	movq	%rdx, %rax
	movq	%rax, %rdx
	movq	16(%rbp), %rax
	movq	(%rax), %rax
	movq	%rdx, %r8
	movq	%rax, %rdx
	movq	16(%rbp), %rcx
	call	_ZNSt12_Vector_baseIcSaIcEE13_M_deallocateEPcy
	.loc 6 161 0
	movq	16(%rbp), %rax
	movq	%rax, %rcx
	call	_ZNSt12_Vector_baseIcSaIcEE12_Vector_implD1Ev
.LBE56:
	nop
	addq	$32, %rsp
	popq	%rbp
	.cfi_restore 6
	.cfi_def_cfa 7, 8
	ret
	.cfi_endproc
.LFE7234:
	.seh_handler	__gxx_personality_seh0, @unwind, @except
	.seh_handlerdata
.LLSDA7234:
	.byte	0xff
	.byte	0xff
	.byte	0x1
	.uleb128 .LLSDACSE7234-.LLSDACSB7234
.LLSDACSB7234:
.LLSDACSE7234:
	.section	.text$_ZNSt12_Vector_baseIcSaIcEED2Ev,"x"
	.linkonce discard
	.seh_endproc
	.section	.text$_ZNSt12_Vector_baseIcSaIcEE19_M_get_Tp_allocatorEv,"x"
	.linkonce discard
	.align 2
	.globl	_ZNSt12_Vector_baseIcSaIcEE19_M_get_Tp_allocatorEv
	.def	_ZNSt12_Vector_baseIcSaIcEE19_M_get_Tp_allocatorEv;	.scl	2;	.type	32;	.endef
	.seh_proc	_ZNSt12_Vector_baseIcSaIcEE19_M_get_Tp_allocatorEv
_ZNSt12_Vector_baseIcSaIcEE19_M_get_Tp_allocatorEv:
.LFB7236:
	.loc 6 113 0
	.cfi_startproc
	pushq	%rbp
	.seh_pushreg	%rbp
	.cfi_def_cfa_offset 16
	.cfi_offset 6, -16
	movq	%rsp, %rbp
	.seh_setframe	%rbp, 0
	.cfi_def_cfa_register 6
	.seh_endprologue
	movq	%rcx, 16(%rbp)
	.loc 6 114 0
	movq	16(%rbp), %rax
	popq	%rbp
	.cfi_restore 6
	.cfi_def_cfa 7, 8
	ret
	.cfi_endproc
.LFE7236:
	.seh_endproc
	.section	.text$_ZSt8_DestroyIPccEvT_S1_RSaIT0_E,"x"
	.linkonce discard
	.globl	_ZSt8_DestroyIPccEvT_S1_RSaIT0_E
	.def	_ZSt8_DestroyIPccEvT_S1_RSaIT0_E;	.scl	2;	.type	32;	.endef
	.seh_proc	_ZSt8_DestroyIPccEvT_S1_RSaIT0_E
_ZSt8_DestroyIPccEvT_S1_RSaIT0_E:
.LFB7237:
	.file 9 "c:/mingw/include/c++/5.1.0/bits/stl_construct.h"
	.loc 9 148 0
	.cfi_startproc
	pushq	%rbp
	.seh_pushreg	%rbp
	.cfi_def_cfa_offset 16
	.cfi_offset 6, -16
	movq	%rsp, %rbp
	.seh_setframe	%rbp, 0
	.cfi_def_cfa_register 6
	subq	$32, %rsp
	.seh_stackalloc	32
	.seh_endprologue
	movq	%rcx, 16(%rbp)
	movq	%rdx, 24(%rbp)
	movq	%r8, 32(%rbp)
	.loc 9 151 0
	movq	24(%rbp), %rax
	movq	%rax, %rdx
	movq	16(%rbp), %rcx
	call	_ZSt8_DestroyIPcEvT_S1_
	.loc 9 152 0
	nop
	addq	$32, %rsp
	popq	%rbp
	.cfi_restore 6
	.cfi_def_cfa 7, 8
	ret
	.cfi_endproc
.LFE7237:
	.seh_endproc
	.section	.text$_ZNSt12_Vector_baseIiSaIiEE12_Vector_implD1Ev,"x"
	.linkonce discard
	.align 2
	.globl	_ZNSt12_Vector_baseIiSaIiEE12_Vector_implD1Ev
	.def	_ZNSt12_Vector_baseIiSaIiEE12_Vector_implD1Ev;	.scl	2;	.type	32;	.endef
	.seh_proc	_ZNSt12_Vector_baseIiSaIiEE12_Vector_implD1Ev
_ZNSt12_Vector_baseIiSaIiEE12_Vector_implD1Ev:
.LFB7241:
	.loc 6 79 0
	.cfi_startproc
	pushq	%rbp
	.seh_pushreg	%rbp
	.cfi_def_cfa_offset 16
	.cfi_offset 6, -16
	movq	%rsp, %rbp
	.seh_setframe	%rbp, 0
	.cfi_def_cfa_register 6
	subq	$32, %rsp
	.seh_stackalloc	32
	.seh_endprologue
	movq	%rcx, 16(%rbp)
.LBB57:
	.loc 6 79 0
	movq	16(%rbp), %rcx
	call	_ZNSaIiED2Ev
.LBE57:
	nop
	addq	$32, %rsp
	popq	%rbp
	.cfi_restore 6
	.cfi_def_cfa 7, 8
	ret
	.cfi_endproc
.LFE7241:
	.seh_endproc
	.section	.text$_ZNSt12_Vector_baseIiSaIiEEC2Ev,"x"
	.linkonce discard
	.align 2
	.globl	_ZNSt12_Vector_baseIiSaIiEEC2Ev
	.def	_ZNSt12_Vector_baseIiSaIiEEC2Ev;	.scl	2;	.type	32;	.endef
	.seh_proc	_ZNSt12_Vector_baseIiSaIiEEC2Ev
_ZNSt12_Vector_baseIiSaIiEEC2Ev:
.LFB7242:
	.loc 6 124 0
	.cfi_startproc
	pushq	%rbp
	.seh_pushreg	%rbp
	.cfi_def_cfa_offset 16
	.cfi_offset 6, -16
	movq	%rsp, %rbp
	.seh_setframe	%rbp, 0
	.cfi_def_cfa_register 6
	subq	$32, %rsp
	.seh_stackalloc	32
	.seh_endprologue
	movq	%rcx, 16(%rbp)
.LBB58:
	.loc 6 125 0
	movq	16(%rbp), %rax
	movq	%rax, %rcx
	call	_ZNSt12_Vector_baseIiSaIiEE12_Vector_implC1Ev
.LBE58:
	nop
	addq	$32, %rsp
	popq	%rbp
	.cfi_restore 6
	.cfi_def_cfa 7, 8
	ret
	.cfi_endproc
.LFE7242:
	.seh_endproc
	.section	.text$_ZNSt12_Vector_baseIiSaIiEED2Ev,"x"
	.linkonce discard
	.align 2
	.globl	_ZNSt12_Vector_baseIiSaIiEED2Ev
	.def	_ZNSt12_Vector_baseIiSaIiEED2Ev;	.scl	2;	.type	32;	.endef
	.seh_proc	_ZNSt12_Vector_baseIiSaIiEED2Ev
_ZNSt12_Vector_baseIiSaIiEED2Ev:
.LFB7245:
	.loc 6 159 0
	.cfi_startproc
	.cfi_personality 0x9b,.LDFCM0
	.cfi_lsda 0x1c,.LLSDA7245
	pushq	%rbp
	.seh_pushreg	%rbp
	.cfi_def_cfa_offset 16
	.cfi_offset 6, -16
	movq	%rsp, %rbp
	.seh_setframe	%rbp, 0
	.cfi_def_cfa_register 6
	subq	$32, %rsp
	.seh_stackalloc	32
	.seh_endprologue
	movq	%rcx, 16(%rbp)
.LBB59:
	.loc 6 161 0
	movq	16(%rbp), %rax
	movq	16(%rax), %rax
	.loc 6 160 0
	movq	%rax, %rdx
	.loc 6 161 0
	movq	16(%rbp), %rax
	movq	(%rax), %rax
	.loc 6 160 0
	subq	%rax, %rdx
	movq	%rdx, %rax
	sarq	$2, %rax
	movq	%rax, %rdx
	movq	16(%rbp), %rax
	movq	(%rax), %rax
	movq	%rdx, %r8
	movq	%rax, %rdx
	movq	16(%rbp), %rcx
	call	_ZNSt12_Vector_baseIiSaIiEE13_M_deallocateEPiy
	.loc 6 161 0
	movq	16(%rbp), %rax
	movq	%rax, %rcx
	call	_ZNSt12_Vector_baseIiSaIiEE12_Vector_implD1Ev
.LBE59:
	nop
	addq	$32, %rsp
	popq	%rbp
	.cfi_restore 6
	.cfi_def_cfa 7, 8
	ret
	.cfi_endproc
.LFE7245:
	.seh_handler	__gxx_personality_seh0, @unwind, @except
	.seh_handlerdata
.LLSDA7245:
	.byte	0xff
	.byte	0xff
	.byte	0x1
	.uleb128 .LLSDACSE7245-.LLSDACSB7245
.LLSDACSB7245:
.LLSDACSE7245:
	.section	.text$_ZNSt12_Vector_baseIiSaIiEED2Ev,"x"
	.linkonce discard
	.seh_endproc
	.section	.text$_ZNSt12_Vector_baseIiSaIiEE19_M_get_Tp_allocatorEv,"x"
	.linkonce discard
	.align 2
	.globl	_ZNSt12_Vector_baseIiSaIiEE19_M_get_Tp_allocatorEv
	.def	_ZNSt12_Vector_baseIiSaIiEE19_M_get_Tp_allocatorEv;	.scl	2;	.type	32;	.endef
	.seh_proc	_ZNSt12_Vector_baseIiSaIiEE19_M_get_Tp_allocatorEv
_ZNSt12_Vector_baseIiSaIiEE19_M_get_Tp_allocatorEv:
.LFB7247:
	.loc 6 113 0
	.cfi_startproc
	pushq	%rbp
	.seh_pushreg	%rbp
	.cfi_def_cfa_offset 16
	.cfi_offset 6, -16
	movq	%rsp, %rbp
	.seh_setframe	%rbp, 0
	.cfi_def_cfa_register 6
	.seh_endprologue
	movq	%rcx, 16(%rbp)
	.loc 6 114 0
	movq	16(%rbp), %rax
	popq	%rbp
	.cfi_restore 6
	.cfi_def_cfa 7, 8
	ret
	.cfi_endproc
.LFE7247:
	.seh_endproc
	.section	.text$_ZSt8_DestroyIPiiEvT_S1_RSaIT0_E,"x"
	.linkonce discard
	.globl	_ZSt8_DestroyIPiiEvT_S1_RSaIT0_E
	.def	_ZSt8_DestroyIPiiEvT_S1_RSaIT0_E;	.scl	2;	.type	32;	.endef
	.seh_proc	_ZSt8_DestroyIPiiEvT_S1_RSaIT0_E
_ZSt8_DestroyIPiiEvT_S1_RSaIT0_E:
.LFB7248:
	.loc 9 148 0
	.cfi_startproc
	pushq	%rbp
	.seh_pushreg	%rbp
	.cfi_def_cfa_offset 16
	.cfi_offset 6, -16
	movq	%rsp, %rbp
	.seh_setframe	%rbp, 0
	.cfi_def_cfa_register 6
	subq	$32, %rsp
	.seh_stackalloc	32
	.seh_endprologue
	movq	%rcx, 16(%rbp)
	movq	%rdx, 24(%rbp)
	movq	%r8, 32(%rbp)
	.loc 9 151 0
	movq	24(%rbp), %rax
	movq	%rax, %rdx
	movq	16(%rbp), %rcx
	call	_ZSt8_DestroyIPiEvT_S1_
	.loc 9 152 0
	nop
	addq	$32, %rsp
	popq	%rbp
	.cfi_restore 6
	.cfi_def_cfa 7, 8
	ret
	.cfi_endproc
.LFE7248:
	.seh_endproc
	.section	.text$_ZNSt12_Vector_baseI14plain_particleSaIS0_EE12_Vector_implD1Ev,"x"
	.linkonce discard
	.align 2
	.globl	_ZNSt12_Vector_baseI14plain_particleSaIS0_EE12_Vector_implD1Ev
	.def	_ZNSt12_Vector_baseI14plain_particleSaIS0_EE12_Vector_implD1Ev;	.scl	2;	.type	32;	.endef
	.seh_proc	_ZNSt12_Vector_baseI14plain_particleSaIS0_EE12_Vector_implD1Ev
_ZNSt12_Vector_baseI14plain_particleSaIS0_EE12_Vector_implD1Ev:
.LFB7252:
	.loc 6 79 0
	.cfi_startproc
	pushq	%rbp
	.seh_pushreg	%rbp
	.cfi_def_cfa_offset 16
	.cfi_offset 6, -16
	movq	%rsp, %rbp
	.seh_setframe	%rbp, 0
	.cfi_def_cfa_register 6
	subq	$32, %rsp
	.seh_stackalloc	32
	.seh_endprologue
	movq	%rcx, 16(%rbp)
.LBB60:
	.loc 6 79 0
	movq	16(%rbp), %rcx
	call	_ZNSaI14plain_particleED2Ev
.LBE60:
	nop
	addq	$32, %rsp
	popq	%rbp
	.cfi_restore 6
	.cfi_def_cfa 7, 8
	ret
	.cfi_endproc
.LFE7252:
	.seh_endproc
	.section	.text$_ZNSt12_Vector_baseI14plain_particleSaIS0_EEC2Ev,"x"
	.linkonce discard
	.align 2
	.globl	_ZNSt12_Vector_baseI14plain_particleSaIS0_EEC2Ev
	.def	_ZNSt12_Vector_baseI14plain_particleSaIS0_EEC2Ev;	.scl	2;	.type	32;	.endef
	.seh_proc	_ZNSt12_Vector_baseI14plain_particleSaIS0_EEC2Ev
_ZNSt12_Vector_baseI14plain_particleSaIS0_EEC2Ev:
.LFB7253:
	.loc 6 124 0
	.cfi_startproc
	pushq	%rbp
	.seh_pushreg	%rbp
	.cfi_def_cfa_offset 16
	.cfi_offset 6, -16
	movq	%rsp, %rbp
	.seh_setframe	%rbp, 0
	.cfi_def_cfa_register 6
	subq	$32, %rsp
	.seh_stackalloc	32
	.seh_endprologue
	movq	%rcx, 16(%rbp)
.LBB61:
	.loc 6 125 0
	movq	16(%rbp), %rax
	movq	%rax, %rcx
	call	_ZNSt12_Vector_baseI14plain_particleSaIS0_EE12_Vector_implC1Ev
.LBE61:
	nop
	addq	$32, %rsp
	popq	%rbp
	.cfi_restore 6
	.cfi_def_cfa 7, 8
	ret
	.cfi_endproc
.LFE7253:
	.seh_endproc
	.section	.text$_ZNSt12_Vector_baseI14plain_particleSaIS0_EED2Ev,"x"
	.linkonce discard
	.align 2
	.globl	_ZNSt12_Vector_baseI14plain_particleSaIS0_EED2Ev
	.def	_ZNSt12_Vector_baseI14plain_particleSaIS0_EED2Ev;	.scl	2;	.type	32;	.endef
	.seh_proc	_ZNSt12_Vector_baseI14plain_particleSaIS0_EED2Ev
_ZNSt12_Vector_baseI14plain_particleSaIS0_EED2Ev:
.LFB7256:
	.loc 6 159 0
	.cfi_startproc
	.cfi_personality 0x9b,.LDFCM0
	.cfi_lsda 0x1c,.LLSDA7256
	pushq	%rbp
	.seh_pushreg	%rbp
	.cfi_def_cfa_offset 16
	.cfi_offset 6, -16
	movq	%rsp, %rbp
	.seh_setframe	%rbp, 0
	.cfi_def_cfa_register 6
	subq	$32, %rsp
	.seh_stackalloc	32
	.seh_endprologue
	movq	%rcx, 16(%rbp)
.LBB62:
	.loc 6 161 0
	movq	16(%rbp), %rax
	movq	16(%rax), %rax
	.loc 6 160 0
	movq	%rax, %rdx
	.loc 6 161 0
	movq	16(%rbp), %rax
	movq	(%rax), %rax
	.loc 6 160 0
	subq	%rax, %rdx
	movq	%rdx, %rax
	sarq	$2, %rax
	movq	%rax, %rdx
	movabsq	$-3689348814741910323, %rax
	imulq	%rdx, %rax
	movq	%rax, %rdx
	movq	16(%rbp), %rax
	movq	(%rax), %rax
	movq	%rdx, %r8
	movq	%rax, %rdx
	movq	16(%rbp), %rcx
	call	_ZNSt12_Vector_baseI14plain_particleSaIS0_EE13_M_deallocateEPS0_y
	.loc 6 161 0
	movq	16(%rbp), %rax
	movq	%rax, %rcx
	call	_ZNSt12_Vector_baseI14plain_particleSaIS0_EE12_Vector_implD1Ev
.LBE62:
	nop
	addq	$32, %rsp
	popq	%rbp
	.cfi_restore 6
	.cfi_def_cfa 7, 8
	ret
	.cfi_endproc
.LFE7256:
	.seh_handler	__gxx_personality_seh0, @unwind, @except
	.seh_handlerdata
.LLSDA7256:
	.byte	0xff
	.byte	0xff
	.byte	0x1
	.uleb128 .LLSDACSE7256-.LLSDACSB7256
.LLSDACSB7256:
.LLSDACSE7256:
	.section	.text$_ZNSt12_Vector_baseI14plain_particleSaIS0_EED2Ev,"x"
	.linkonce discard
	.seh_endproc
	.section	.text$_ZNSt12_Vector_baseI14plain_particleSaIS0_EE19_M_get_Tp_allocatorEv,"x"
	.linkonce discard
	.align 2
	.globl	_ZNSt12_Vector_baseI14plain_particleSaIS0_EE19_M_get_Tp_allocatorEv
	.def	_ZNSt12_Vector_baseI14plain_particleSaIS0_EE19_M_get_Tp_allocatorEv;	.scl	2;	.type	32;	.endef
	.seh_proc	_ZNSt12_Vector_baseI14plain_particleSaIS0_EE19_M_get_Tp_allocatorEv
_ZNSt12_Vector_baseI14plain_particleSaIS0_EE19_M_get_Tp_allocatorEv:
.LFB7258:
	.loc 6 113 0
	.cfi_startproc
	pushq	%rbp
	.seh_pushreg	%rbp
	.cfi_def_cfa_offset 16
	.cfi_offset 6, -16
	movq	%rsp, %rbp
	.seh_setframe	%rbp, 0
	.cfi_def_cfa_register 6
	.seh_endprologue
	movq	%rcx, 16(%rbp)
	.loc 6 114 0
	movq	16(%rbp), %rax
	popq	%rbp
	.cfi_restore 6
	.cfi_def_cfa 7, 8
	ret
	.cfi_endproc
.LFE7258:
	.seh_endproc
	.section	.text$_ZSt8_DestroyIP14plain_particleS0_EvT_S2_RSaIT0_E,"x"
	.linkonce discard
	.globl	_ZSt8_DestroyIP14plain_particleS0_EvT_S2_RSaIT0_E
	.def	_ZSt8_DestroyIP14plain_particleS0_EvT_S2_RSaIT0_E;	.scl	2;	.type	32;	.endef
	.seh_proc	_ZSt8_DestroyIP14plain_particleS0_EvT_S2_RSaIT0_E
_ZSt8_DestroyIP14plain_particleS0_EvT_S2_RSaIT0_E:
.LFB7259:
	.loc 9 148 0
	.cfi_startproc
	pushq	%rbp
	.seh_pushreg	%rbp
	.cfi_def_cfa_offset 16
	.cfi_offset 6, -16
	movq	%rsp, %rbp
	.seh_setframe	%rbp, 0
	.cfi_def_cfa_register 6
	subq	$32, %rsp
	.seh_stackalloc	32
	.seh_endprologue
	movq	%rcx, 16(%rbp)
	movq	%rdx, 24(%rbp)
	movq	%r8, 32(%rbp)
	.loc 9 151 0
	movq	24(%rbp), %rax
	movq	%rax, %rdx
	movq	16(%rbp), %rcx
	call	_ZSt8_DestroyIP14plain_particleEvT_S2_
	.loc 9 152 0
	nop
	addq	$32, %rsp
	popq	%rbp
	.cfi_restore 6
	.cfi_def_cfa 7, 8
	ret
	.cfi_endproc
.LFE7259:
	.seh_endproc
	.section	.text$_ZSt7forwardI14plain_particleEOT_RNSt16remove_referenceIS1_E4typeE,"x"
	.linkonce discard
	.globl	_ZSt7forwardI14plain_particleEOT_RNSt16remove_referenceIS1_E4typeE
	.def	_ZSt7forwardI14plain_particleEOT_RNSt16remove_referenceIS1_E4typeE;	.scl	2;	.type	32;	.endef
	.seh_proc	_ZSt7forwardI14plain_particleEOT_RNSt16remove_referenceIS1_E4typeE
_ZSt7forwardI14plain_particleEOT_RNSt16remove_referenceIS1_E4typeE:
.LFB7261:
	.loc 7 76 0
	.cfi_startproc
	pushq	%rbp
	.seh_pushreg	%rbp
	.cfi_def_cfa_offset 16
	.cfi_offset 6, -16
	movq	%rsp, %rbp
	.seh_setframe	%rbp, 0
	.cfi_def_cfa_register 6
	.seh_endprologue
	movq	%rcx, 16(%rbp)
	.loc 7 77 0
	movq	16(%rbp), %rax
	popq	%rbp
	.cfi_restore 6
	.cfi_def_cfa 7, 8
	ret
	.cfi_endproc
.LFE7261:
	.seh_endproc
	.section	.text$_ZNSt6vectorI14plain_particleSaIS0_EE12emplace_backIJS0_EEEvDpOT_,"x"
	.linkonce discard
	.align 2
	.globl	_ZNSt6vectorI14plain_particleSaIS0_EE12emplace_backIJS0_EEEvDpOT_
	.def	_ZNSt6vectorI14plain_particleSaIS0_EE12emplace_backIJS0_EEEvDpOT_;	.scl	2;	.type	32;	.endef
	.seh_proc	_ZNSt6vectorI14plain_particleSaIS0_EE12emplace_backIJS0_EEEvDpOT_
_ZNSt6vectorI14plain_particleSaIS0_EE12emplace_backIJS0_EEEvDpOT_:
.LFB7260:
	.file 10 "c:/mingw/include/c++/5.1.0/bits/vector.tcc"
	.loc 10 91 0
	.cfi_startproc
	pushq	%rbp
	.seh_pushreg	%rbp
	.cfi_def_cfa_offset 16
	.cfi_offset 6, -16
	movq	%rsp, %rbp
	.seh_setframe	%rbp, 0
	.cfi_def_cfa_register 6
	subq	$32, %rsp
	.seh_stackalloc	32
	.seh_endprologue
	movq	%rcx, 16(%rbp)
	movq	%rdx, 24(%rbp)
	.loc 10 94 0
	movq	16(%rbp), %rax
	movq	8(%rax), %rdx
	movq	16(%rbp), %rax
	movq	16(%rax), %rax
	cmpq	%rax, %rdx
	je	.L186
	.loc 10 97 0
	movq	24(%rbp), %rax
	movq	%rax, %rcx
	call	_ZSt7forwardI14plain_particleEOT_RNSt16remove_referenceIS1_E4typeE
	movq	%rax, %rcx
	.loc 10 96 0
	movq	16(%rbp), %rax
	movq	8(%rax), %rdx
	movq	16(%rbp), %rax
	movq	%rcx, %r8
	movq	%rax, %rcx
	call	_ZNSt16allocator_traitsISaI14plain_particleEE9constructIS0_JS0_EEEDTcl12_S_constructfp_fp0_spcl7forwardIT0_Efp1_EEERS1_PT_DpOS4_
	.loc 10 98 0
	movq	16(%rbp), %rax
	movq	8(%rax), %rax
	leaq	20(%rax), %rdx
	movq	16(%rbp), %rax
	movq	%rdx, 8(%rax)
	.loc 10 102 0
	jmp	.L188
.L186:
	.loc 10 101 0
	movq	24(%rbp), %rax
	movq	%rax, %rcx
	call	_ZSt7forwardI14plain_particleEOT_RNSt16remove_referenceIS1_E4typeE
	movq	%rax, %rdx
	movq	16(%rbp), %rcx
	call	_ZNSt6vectorI14plain_particleSaIS0_EE19_M_emplace_back_auxIJS0_EEEvDpOT_
.L188:
	.loc 10 102 0
	nop
	addq	$32, %rsp
	popq	%rbp
	.cfi_restore 6
	.cfi_def_cfa 7, 8
	ret
	.cfi_endproc
.LFE7260:
	.seh_endproc
	.weak	_ZNSt6vectorI14plain_particleSaIS0_EE12emplace_backIIS0_EEEvDpOT_
	.def	_ZNSt6vectorI14plain_particleSaIS0_EE12emplace_backIIS0_EEEvDpOT_;	.scl	2;	.type	32;	.endef
	.set	_ZNSt6vectorI14plain_particleSaIS0_EE12emplace_backIIS0_EEEvDpOT_,_ZNSt6vectorI14plain_particleSaIS0_EE12emplace_backIJS0_EEEvDpOT_
	.section	.text$_ZNSt16allocator_traitsISaIcEE9constructIcJRKcEEEDTcl12_S_constructfp_fp0_spcl7forwardIT0_Efp1_EEERS0_PT_DpOS5_,"x"
	.linkonce discard
	.globl	_ZNSt16allocator_traitsISaIcEE9constructIcJRKcEEEDTcl12_S_constructfp_fp0_spcl7forwardIT0_Efp1_EEERS0_PT_DpOS5_
	.def	_ZNSt16allocator_traitsISaIcEE9constructIcJRKcEEEDTcl12_S_constructfp_fp0_spcl7forwardIT0_Efp1_EEERS0_PT_DpOS5_;	.scl	2;	.type	32;	.endef
	.seh_proc	_ZNSt16allocator_traitsISaIcEE9constructIcJRKcEEEDTcl12_S_constructfp_fp0_spcl7forwardIT0_Efp1_EEERS0_PT_DpOS5_
_ZNSt16allocator_traitsISaIcEE9constructIcJRKcEEEDTcl12_S_constructfp_fp0_spcl7forwardIT0_Efp1_EEERS0_PT_DpOS5_:
.LFB7262:
	.file 11 "c:/mingw/include/c++/5.1.0/bits/alloc_traits.h"
	.loc 11 400 0
	.cfi_startproc
	pushq	%rbp
	.seh_pushreg	%rbp
	.cfi_def_cfa_offset 16
	.cfi_offset 6, -16
	movq	%rsp, %rbp
	.seh_setframe	%rbp, 0
	.cfi_def_cfa_register 6
	subq	$32, %rsp
	.seh_stackalloc	32
	.seh_endprologue
	movq	%rcx, 16(%rbp)
	movq	%rdx, 24(%rbp)
	movq	%r8, 32(%rbp)
	.loc 11 402 0
	movq	32(%rbp), %rax
	movq	%rax, %rcx
	call	_ZSt7forwardIRKcEOT_RNSt16remove_referenceIS2_E4typeE
	movq	%rax, %rdx
	movq	24(%rbp), %rax
	movq	%rdx, %r8
	movq	%rax, %rdx
	movq	16(%rbp), %rcx
	call	_ZNSt16allocator_traitsISaIcEE12_S_constructIcJRKcEEENSt9enable_ifIXsrSt6__and_IJNS1_18__construct_helperIT_JDpT0_EE4typeEEE5valueEvE4typeERS0_PS8_DpOS9_
	nop
	addq	$32, %rsp
	popq	%rbp
	.cfi_restore 6
	.cfi_def_cfa 7, 8
	ret
	.cfi_endproc
.LFE7262:
	.seh_endproc
	.weak	_ZNSt16allocator_traitsISaIcEE9constructIcIRKcEEEDTcl12_S_constructfp_fp0_spcl7forwardIT0_Efp1_EEERS0_PT_DpOS5_
	.def	_ZNSt16allocator_traitsISaIcEE9constructIcIRKcEEEDTcl12_S_constructfp_fp0_spcl7forwardIT0_Efp1_EEERS0_PT_DpOS5_;	.scl	2;	.type	32;	.endef
	.set	_ZNSt16allocator_traitsISaIcEE9constructIcIRKcEEEDTcl12_S_constructfp_fp0_spcl7forwardIT0_Efp1_EEERS0_PT_DpOS5_,_ZNSt16allocator_traitsISaIcEE9constructIcJRKcEEEDTcl12_S_constructfp_fp0_spcl7forwardIT0_Efp1_EEERS0_PT_DpOS5_
	.section .rdata,"dr"
.LC4:
	.ascii "vector::_M_emplace_back_aux\0"
	.section	.text$_ZNSt6vectorIcSaIcEE19_M_emplace_back_auxIJRKcEEEvDpOT_,"x"
	.linkonce discard
	.align 2
	.globl	_ZNSt6vectorIcSaIcEE19_M_emplace_back_auxIJRKcEEEvDpOT_
	.def	_ZNSt6vectorIcSaIcEE19_M_emplace_back_auxIJRKcEEEvDpOT_;	.scl	2;	.type	32;	.endef
	.seh_proc	_ZNSt6vectorIcSaIcEE19_M_emplace_back_auxIJRKcEEEvDpOT_
_ZNSt6vectorIcSaIcEE19_M_emplace_back_auxIJRKcEEEvDpOT_:
.LFB7263:
	.loc 10 407 0
	.cfi_startproc
	.cfi_personality 0x9b,.LDFCM0
	.cfi_lsda 0x1c,.LLSDA7263
	pushq	%rbp
	.seh_pushreg	%rbp
	.cfi_def_cfa_offset 16
	.cfi_offset 6, -16
	pushq	%rbx
	.seh_pushreg	%rbx
	.cfi_def_cfa_offset 24
	.cfi_offset 3, -24
	subq	$72, %rsp
	.seh_stackalloc	72
	.cfi_def_cfa_offset 96
	leaq	128(%rsp), %rbp
	.seh_setframe	%rbp, 128
	.cfi_def_cfa 6, -32
	.seh_endprologue
	movq	%rcx, -32(%rbp)
	movq	%rdx, -24(%rbp)
	.loc 10 411 0
	leaq	.LC4(%rip), %r8
	movl	$1, %edx
	movq	-32(%rbp), %rcx
.LEHB7:
	call	_ZNKSt6vectorIcSaIcEE12_M_check_lenEyPKc
	movq	%rax, -80(%rbp)
	.loc 10 412 0
	movq	-32(%rbp), %rax
	movq	-80(%rbp), %rdx
	movq	%rax, %rcx
	call	_ZNSt12_Vector_baseIcSaIcEE11_M_allocateEy
.LEHE7:
	movq	%rax, -88(%rbp)
	.loc 10 413 0
	movq	-88(%rbp), %rax
	movq	%rax, -72(%rbp)
	.loc 10 417 0
	movq	-24(%rbp), %rax
	movq	%rax, %rcx
	call	_ZSt7forwardIRKcEOT_RNSt16remove_referenceIS2_E4typeE
	movq	%rax, %rbx
	.loc 10 416 0
	movq	-32(%rbp), %rcx
	call	_ZNKSt6vectorIcSaIcEE4sizeEv
	movq	%rax, %rdx
	movq	-88(%rbp), %rax
	addq	%rax, %rdx
	movq	-32(%rbp), %rax
	movq	%rbx, %r8
	movq	%rax, %rcx
.LEHB8:
	call	_ZNSt16allocator_traitsISaIcEE9constructIcJRKcEEEDTcl12_S_constructfp_fp0_spcl7forwardIT0_Efp1_EEERS0_PT_DpOS5_
	.loc 10 418 0
	movq	$0, -72(%rbp)
	.loc 10 423 0
	movq	-32(%rbp), %rax
	movq	%rax, %rcx
	call	_ZNSt12_Vector_baseIcSaIcEE19_M_get_Tp_allocatorEv
	movq	%rax, %r8
	.loc 10 422 0
	movq	-32(%rbp), %rax
	movq	8(%rax), %rdx
	movq	-32(%rbp), %rax
	movq	(%rax), %rax
	.loc 10 420 0
	movq	-88(%rbp), %rcx
	movq	%r8, %r9
	movq	%rcx, %r8
	movq	%rax, %rcx
	call	_ZSt34__uninitialized_move_if_noexcept_aIPcS0_SaIcEET0_T_S3_S2_RT1_
.LEHE8:
	movq	%rax, -72(%rbp)
	.loc 10 425 0
	addq	$1, -72(%rbp)
	.loc 10 437 0
	movq	-32(%rbp), %rax
	movq	%rax, %rcx
	call	_ZNSt12_Vector_baseIcSaIcEE19_M_get_Tp_allocatorEv
	movq	%rax, %rcx
	.loc 10 436 0
	movq	-32(%rbp), %rax
	movq	8(%rax), %rdx
	movq	-32(%rbp), %rax
	movq	(%rax), %rax
	movq	%rcx, %r8
	movq	%rax, %rcx
.LEHB9:
	call	_ZSt8_DestroyIPccEvT_S1_RSaIT0_E
	.loc 10 440 0
	movq	-32(%rbp), %rax
	movq	16(%rax), %rax
	.loc 10 438 0
	movq	%rax, %rdx
	.loc 10 440 0
	movq	-32(%rbp), %rax
	movq	(%rax), %rax
	.loc 10 438 0
	subq	%rax, %rdx
	movq	%rdx, %rax
	movq	%rax, %rcx
	movq	-32(%rbp), %rax
	movq	(%rax), %rdx
	movq	-32(%rbp), %rax
	movq	%rcx, %r8
	movq	%rax, %rcx
	call	_ZNSt12_Vector_baseIcSaIcEE13_M_deallocateEPcy
.LEHE9:
	.loc 10 441 0
	movq	-32(%rbp), %rax
	movq	-88(%rbp), %rdx
	movq	%rdx, (%rax)
	.loc 10 442 0
	movq	-32(%rbp), %rax
	movq	-72(%rbp), %rdx
	movq	%rdx, 8(%rax)
	.loc 10 443 0
	movq	-88(%rbp), %rdx
	movq	-80(%rbp), %rax
	addq	%rax, %rdx
	movq	-32(%rbp), %rax
	movq	%rdx, 16(%rax)
	.loc 10 444 0
	jmp	.L197
.L195:
	.loc 10 427 0
	movq	%rax, %rcx
	call	__cxa_begin_catch
	.loc 10 429 0
	cmpq	$0, -72(%rbp)
	jne	.L192
	.loc 10 430 0
	movq	-32(%rbp), %rcx
	call	_ZNKSt6vectorIcSaIcEE4sizeEv
	movq	%rax, %rdx
	movq	-88(%rbp), %rax
	addq	%rax, %rdx
	movq	-32(%rbp), %rax
	movq	%rax, %rcx
.LEHB10:
	call	_ZNSt16allocator_traitsISaIcEE7destroyIcEEvRS0_PT_
	jmp	.L193
.L192:
	.loc 10 432 0
	movq	-32(%rbp), %rax
	movq	%rax, %rcx
	call	_ZNSt12_Vector_baseIcSaIcEE19_M_get_Tp_allocatorEv
	movq	%rax, %rcx
	movq	-72(%rbp), %rdx
	movq	-88(%rbp), %rax
	movq	%rcx, %r8
	movq	%rax, %rcx
	call	_ZSt8_DestroyIPccEvT_S1_RSaIT0_E
.L193:
	.loc 10 433 0
	movq	-32(%rbp), %rax
	movq	-80(%rbp), %rcx
	movq	-88(%rbp), %rdx
	movq	%rcx, %r8
	movq	%rax, %rcx
	call	_ZNSt12_Vector_baseIcSaIcEE13_M_deallocateEPcy
	.loc 10 434 0
	call	__cxa_rethrow
.LEHE10:
.L196:
	movq	%rax, %rbx
	.loc 10 427 0
	call	__cxa_end_catch
	movq	%rbx, %rax
	movq	%rax, %rcx
.LEHB11:
	call	_Unwind_Resume
	nop
.LEHE11:
.L197:
	.loc 10 444 0
	addq	$72, %rsp
	popq	%rbx
	.cfi_restore 3
	popq	%rbp
	.cfi_restore 6
	.cfi_def_cfa 7, -56
	ret
	.cfi_endproc
.LFE7263:
	.seh_handler	__gxx_personality_seh0, @unwind, @except
	.seh_handlerdata
	.align 4
.LLSDA7263:
	.byte	0xff
	.byte	0x9b
	.uleb128 .LLSDATT7263-.LLSDATTD7263
.LLSDATTD7263:
	.byte	0x1
	.uleb128 .LLSDACSE7263-.LLSDACSB7263
.LLSDACSB7263:
	.uleb128 .LEHB7-.LFB7263
	.uleb128 .LEHE7-.LEHB7
	.uleb128 0
	.uleb128 0
	.uleb128 .LEHB8-.LFB7263
	.uleb128 .LEHE8-.LEHB8
	.uleb128 .L195-.LFB7263
	.uleb128 0x1
	.uleb128 .LEHB9-.LFB7263
	.uleb128 .LEHE9-.LEHB9
	.uleb128 0
	.uleb128 0
	.uleb128 .LEHB10-.LFB7263
	.uleb128 .LEHE10-.LEHB10
	.uleb128 .L196-.LFB7263
	.uleb128 0
	.uleb128 .LEHB11-.LFB7263
	.uleb128 .LEHE11-.LEHB11
	.uleb128 0
	.uleb128 0
.LLSDACSE7263:
	.byte	0x1
	.byte	0
	.align 4
	.long	0

.LLSDATT7263:
	.section	.text$_ZNSt6vectorIcSaIcEE19_M_emplace_back_auxIJRKcEEEvDpOT_,"x"
	.linkonce discard
	.seh_endproc
	.weak	_ZNSt6vectorIcSaIcEE19_M_emplace_back_auxIIRKcEEEvDpOT_
	.def	_ZNSt6vectorIcSaIcEE19_M_emplace_back_auxIIRKcEEEvDpOT_;	.scl	2;	.type	32;	.endef
	.set	_ZNSt6vectorIcSaIcEE19_M_emplace_back_auxIIRKcEEEvDpOT_,_ZNSt6vectorIcSaIcEE19_M_emplace_back_auxIJRKcEEEvDpOT_
	.section	.text$_ZNSt16allocator_traitsISaIiEE9constructIiJRKiEEEDTcl12_S_constructfp_fp0_spcl7forwardIT0_Efp1_EEERS0_PT_DpOS5_,"x"
	.linkonce discard
	.globl	_ZNSt16allocator_traitsISaIiEE9constructIiJRKiEEEDTcl12_S_constructfp_fp0_spcl7forwardIT0_Efp1_EEERS0_PT_DpOS5_
	.def	_ZNSt16allocator_traitsISaIiEE9constructIiJRKiEEEDTcl12_S_constructfp_fp0_spcl7forwardIT0_Efp1_EEERS0_PT_DpOS5_;	.scl	2;	.type	32;	.endef
	.seh_proc	_ZNSt16allocator_traitsISaIiEE9constructIiJRKiEEEDTcl12_S_constructfp_fp0_spcl7forwardIT0_Efp1_EEERS0_PT_DpOS5_
_ZNSt16allocator_traitsISaIiEE9constructIiJRKiEEEDTcl12_S_constructfp_fp0_spcl7forwardIT0_Efp1_EEERS0_PT_DpOS5_:
.LFB7264:
	.loc 11 400 0
	.cfi_startproc
	pushq	%rbp
	.seh_pushreg	%rbp
	.cfi_def_cfa_offset 16
	.cfi_offset 6, -16
	movq	%rsp, %rbp
	.seh_setframe	%rbp, 0
	.cfi_def_cfa_register 6
	subq	$32, %rsp
	.seh_stackalloc	32
	.seh_endprologue
	movq	%rcx, 16(%rbp)
	movq	%rdx, 24(%rbp)
	movq	%r8, 32(%rbp)
	.loc 11 402 0
	movq	32(%rbp), %rax
	movq	%rax, %rcx
	call	_ZSt7forwardIRKiEOT_RNSt16remove_referenceIS2_E4typeE
	movq	%rax, %rdx
	movq	24(%rbp), %rax
	movq	%rdx, %r8
	movq	%rax, %rdx
	movq	16(%rbp), %rcx
	call	_ZNSt16allocator_traitsISaIiEE12_S_constructIiJRKiEEENSt9enable_ifIXsrSt6__and_IJNS1_18__construct_helperIT_JDpT0_EE4typeEEE5valueEvE4typeERS0_PS8_DpOS9_
	nop
	addq	$32, %rsp
	popq	%rbp
	.cfi_restore 6
	.cfi_def_cfa 7, 8
	ret
	.cfi_endproc
.LFE7264:
	.seh_endproc
	.weak	_ZNSt16allocator_traitsISaIiEE9constructIiIRKiEEEDTcl12_S_constructfp_fp0_spcl7forwardIT0_Efp1_EEERS0_PT_DpOS5_
	.def	_ZNSt16allocator_traitsISaIiEE9constructIiIRKiEEEDTcl12_S_constructfp_fp0_spcl7forwardIT0_Efp1_EEERS0_PT_DpOS5_;	.scl	2;	.type	32;	.endef
	.set	_ZNSt16allocator_traitsISaIiEE9constructIiIRKiEEEDTcl12_S_constructfp_fp0_spcl7forwardIT0_Efp1_EEERS0_PT_DpOS5_,_ZNSt16allocator_traitsISaIiEE9constructIiJRKiEEEDTcl12_S_constructfp_fp0_spcl7forwardIT0_Efp1_EEERS0_PT_DpOS5_
	.section	.text$_ZNSt6vectorIiSaIiEE19_M_emplace_back_auxIJRKiEEEvDpOT_,"x"
	.linkonce discard
	.align 2
	.globl	_ZNSt6vectorIiSaIiEE19_M_emplace_back_auxIJRKiEEEvDpOT_
	.def	_ZNSt6vectorIiSaIiEE19_M_emplace_back_auxIJRKiEEEvDpOT_;	.scl	2;	.type	32;	.endef
	.seh_proc	_ZNSt6vectorIiSaIiEE19_M_emplace_back_auxIJRKiEEEvDpOT_
_ZNSt6vectorIiSaIiEE19_M_emplace_back_auxIJRKiEEEvDpOT_:
.LFB7265:
	.loc 10 407 0
	.cfi_startproc
	.cfi_personality 0x9b,.LDFCM0
	.cfi_lsda 0x1c,.LLSDA7265
	pushq	%rbp
	.seh_pushreg	%rbp
	.cfi_def_cfa_offset 16
	.cfi_offset 6, -16
	pushq	%rbx
	.seh_pushreg	%rbx
	.cfi_def_cfa_offset 24
	.cfi_offset 3, -24
	subq	$72, %rsp
	.seh_stackalloc	72
	.cfi_def_cfa_offset 96
	leaq	128(%rsp), %rbp
	.seh_setframe	%rbp, 128
	.cfi_def_cfa 6, -32
	.seh_endprologue
	movq	%rcx, -32(%rbp)
	movq	%rdx, -24(%rbp)
	.loc 10 411 0
	leaq	.LC4(%rip), %r8
	movl	$1, %edx
	movq	-32(%rbp), %rcx
.LEHB12:
	call	_ZNKSt6vectorIiSaIiEE12_M_check_lenEyPKc
	movq	%rax, -80(%rbp)
	.loc 10 412 0
	movq	-32(%rbp), %rax
	movq	-80(%rbp), %rdx
	movq	%rax, %rcx
	call	_ZNSt12_Vector_baseIiSaIiEE11_M_allocateEy
.LEHE12:
	movq	%rax, -88(%rbp)
	.loc 10 413 0
	movq	-88(%rbp), %rax
	movq	%rax, -72(%rbp)
	.loc 10 417 0
	movq	-24(%rbp), %rax
	movq	%rax, %rcx
	call	_ZSt7forwardIRKiEOT_RNSt16remove_referenceIS2_E4typeE
	movq	%rax, %rbx
	.loc 10 416 0
	movq	-32(%rbp), %rcx
	call	_ZNKSt6vectorIiSaIiEE4sizeEv
	leaq	0(,%rax,4), %rdx
	movq	-88(%rbp), %rax
	addq	%rax, %rdx
	movq	-32(%rbp), %rax
	movq	%rbx, %r8
	movq	%rax, %rcx
.LEHB13:
	call	_ZNSt16allocator_traitsISaIiEE9constructIiJRKiEEEDTcl12_S_constructfp_fp0_spcl7forwardIT0_Efp1_EEERS0_PT_DpOS5_
	.loc 10 418 0
	movq	$0, -72(%rbp)
	.loc 10 423 0
	movq	-32(%rbp), %rax
	movq	%rax, %rcx
	call	_ZNSt12_Vector_baseIiSaIiEE19_M_get_Tp_allocatorEv
	movq	%rax, %r8
	.loc 10 422 0
	movq	-32(%rbp), %rax
	movq	8(%rax), %rdx
	movq	-32(%rbp), %rax
	movq	(%rax), %rax
	.loc 10 420 0
	movq	-88(%rbp), %rcx
	movq	%r8, %r9
	movq	%rcx, %r8
	movq	%rax, %rcx
	call	_ZSt34__uninitialized_move_if_noexcept_aIPiS0_SaIiEET0_T_S3_S2_RT1_
.LEHE13:
	movq	%rax, -72(%rbp)
	.loc 10 425 0
	addq	$4, -72(%rbp)
	.loc 10 437 0
	movq	-32(%rbp), %rax
	movq	%rax, %rcx
	call	_ZNSt12_Vector_baseIiSaIiEE19_M_get_Tp_allocatorEv
	movq	%rax, %rcx
	.loc 10 436 0
	movq	-32(%rbp), %rax
	movq	8(%rax), %rdx
	movq	-32(%rbp), %rax
	movq	(%rax), %rax
	movq	%rcx, %r8
	movq	%rax, %rcx
.LEHB14:
	call	_ZSt8_DestroyIPiiEvT_S1_RSaIT0_E
	.loc 10 440 0
	movq	-32(%rbp), %rax
	movq	16(%rax), %rax
	.loc 10 438 0
	movq	%rax, %rdx
	.loc 10 440 0
	movq	-32(%rbp), %rax
	movq	(%rax), %rax
	.loc 10 438 0
	subq	%rax, %rdx
	movq	%rdx, %rax
	sarq	$2, %rax
	movq	%rax, %rcx
	movq	-32(%rbp), %rax
	movq	(%rax), %rdx
	movq	-32(%rbp), %rax
	movq	%rcx, %r8
	movq	%rax, %rcx
	call	_ZNSt12_Vector_baseIiSaIiEE13_M_deallocateEPiy
.LEHE14:
	.loc 10 441 0
	movq	-32(%rbp), %rax
	movq	-88(%rbp), %rdx
	movq	%rdx, (%rax)
	.loc 10 442 0
	movq	-32(%rbp), %rax
	movq	-72(%rbp), %rdx
	movq	%rdx, 8(%rax)
	.loc 10 443 0
	movq	-80(%rbp), %rax
	leaq	0(,%rax,4), %rdx
	movq	-88(%rbp), %rax
	addq	%rax, %rdx
	movq	-32(%rbp), %rax
	movq	%rdx, 16(%rax)
	.loc 10 444 0
	jmp	.L206
.L204:
	.loc 10 427 0
	movq	%rax, %rcx
	call	__cxa_begin_catch
	.loc 10 429 0
	cmpq	$0, -72(%rbp)
	jne	.L201
	.loc 10 430 0
	movq	-32(%rbp), %rcx
	call	_ZNKSt6vectorIiSaIiEE4sizeEv
	leaq	0(,%rax,4), %rdx
	movq	-88(%rbp), %rax
	addq	%rax, %rdx
	movq	-32(%rbp), %rax
	movq	%rax, %rcx
.LEHB15:
	call	_ZNSt16allocator_traitsISaIiEE7destroyIiEEvRS0_PT_
	jmp	.L202
.L201:
	.loc 10 432 0
	movq	-32(%rbp), %rax
	movq	%rax, %rcx
	call	_ZNSt12_Vector_baseIiSaIiEE19_M_get_Tp_allocatorEv
	movq	%rax, %rcx
	movq	-72(%rbp), %rdx
	movq	-88(%rbp), %rax
	movq	%rcx, %r8
	movq	%rax, %rcx
	call	_ZSt8_DestroyIPiiEvT_S1_RSaIT0_E
.L202:
	.loc 10 433 0
	movq	-32(%rbp), %rax
	movq	-80(%rbp), %rcx
	movq	-88(%rbp), %rdx
	movq	%rcx, %r8
	movq	%rax, %rcx
	call	_ZNSt12_Vector_baseIiSaIiEE13_M_deallocateEPiy
	.loc 10 434 0
	call	__cxa_rethrow
.LEHE15:
.L205:
	movq	%rax, %rbx
	.loc 10 427 0
	call	__cxa_end_catch
	movq	%rbx, %rax
	movq	%rax, %rcx
.LEHB16:
	call	_Unwind_Resume
	nop
.LEHE16:
.L206:
	.loc 10 444 0
	addq	$72, %rsp
	popq	%rbx
	.cfi_restore 3
	popq	%rbp
	.cfi_restore 6
	.cfi_def_cfa 7, -56
	ret
	.cfi_endproc
.LFE7265:
	.seh_handler	__gxx_personality_seh0, @unwind, @except
	.seh_handlerdata
	.align 4
.LLSDA7265:
	.byte	0xff
	.byte	0x9b
	.uleb128 .LLSDATT7265-.LLSDATTD7265
.LLSDATTD7265:
	.byte	0x1
	.uleb128 .LLSDACSE7265-.LLSDACSB7265
.LLSDACSB7265:
	.uleb128 .LEHB12-.LFB7265
	.uleb128 .LEHE12-.LEHB12
	.uleb128 0
	.uleb128 0
	.uleb128 .LEHB13-.LFB7265
	.uleb128 .LEHE13-.LEHB13
	.uleb128 .L204-.LFB7265
	.uleb128 0x1
	.uleb128 .LEHB14-.LFB7265
	.uleb128 .LEHE14-.LEHB14
	.uleb128 0
	.uleb128 0
	.uleb128 .LEHB15-.LFB7265
	.uleb128 .LEHE15-.LEHB15
	.uleb128 .L205-.LFB7265
	.uleb128 0
	.uleb128 .LEHB16-.LFB7265
	.uleb128 .LEHE16-.LEHB16
	.uleb128 0
	.uleb128 0
.LLSDACSE7265:
	.byte	0x1
	.byte	0
	.align 4
	.long	0

.LLSDATT7265:
	.section	.text$_ZNSt6vectorIiSaIiEE19_M_emplace_back_auxIJRKiEEEvDpOT_,"x"
	.linkonce discard
	.seh_endproc
	.weak	_ZNSt6vectorIiSaIiEE19_M_emplace_back_auxIIRKiEEEvDpOT_
	.def	_ZNSt6vectorIiSaIiEE19_M_emplace_back_auxIIRKiEEEvDpOT_;	.scl	2;	.type	32;	.endef
	.set	_ZNSt6vectorIiSaIiEE19_M_emplace_back_auxIIRKiEEEvDpOT_,_ZNSt6vectorIiSaIiEE19_M_emplace_back_auxIJRKiEEEvDpOT_
	.section	.text$_ZN9__gnu_cxx17__normal_iteratorIP14plain_particleSt6vectorIS1_SaIS1_EEEC1ERKS2_,"x"
	.linkonce discard
	.align 2
	.globl	_ZN9__gnu_cxx17__normal_iteratorIP14plain_particleSt6vectorIS1_SaIS1_EEEC1ERKS2_
	.def	_ZN9__gnu_cxx17__normal_iteratorIP14plain_particleSt6vectorIS1_SaIS1_EEEC1ERKS2_;	.scl	2;	.type	32;	.endef
	.seh_proc	_ZN9__gnu_cxx17__normal_iteratorIP14plain_particleSt6vectorIS1_SaIS1_EEEC1ERKS2_
_ZN9__gnu_cxx17__normal_iteratorIP14plain_particleSt6vectorIS1_SaIS1_EEEC1ERKS2_:
.LFB7268:
	.file 12 "c:/mingw/include/c++/5.1.0/bits/stl_iterator.h"
	.loc 12 740 0
	.cfi_startproc
	pushq	%rbp
	.seh_pushreg	%rbp
	.cfi_def_cfa_offset 16
	.cfi_offset 6, -16
	movq	%rsp, %rbp
	.seh_setframe	%rbp, 0
	.cfi_def_cfa_register 6
	.seh_endprologue
	movq	%rcx, 16(%rbp)
	movq	%rdx, 24(%rbp)
.LBB63:
	.loc 12 741 0
	movq	24(%rbp), %rax
	movq	(%rax), %rdx
	movq	16(%rbp), %rax
	movq	%rdx, (%rax)
.LBE63:
	nop
	popq	%rbp
	.cfi_restore 6
	.cfi_def_cfa 7, 8
	ret
	.cfi_endproc
.LFE7268:
	.seh_endproc
	.section	.text$_ZN3dod6accessIJNS_6memberIcLi0EEEEEC2EPc,"x"
	.linkonce discard
	.align 2
	.globl	_ZN3dod6accessIJNS_6memberIcLi0EEEEEC2EPc
	.def	_ZN3dod6accessIJNS_6memberIcLi0EEEEEC2EPc;	.scl	2;	.type	32;	.endef
	.seh_proc	_ZN3dod6accessIJNS_6memberIcLi0EEEEEC2EPc
_ZN3dod6accessIJNS_6memberIcLi0EEEEEC2EPc:
.LFB7270:
	.loc 5 78 0
	.cfi_startproc
	pushq	%rbp
	.seh_pushreg	%rbp
	.cfi_def_cfa_offset 16
	.cfi_offset 6, -16
	movq	%rsp, %rbp
	.seh_setframe	%rbp, 0
	.cfi_def_cfa_register 6
	.seh_endprologue
	movq	%rcx, 16(%rbp)
	movq	%rdx, 24(%rbp)
.LBB64:
	.loc 5 78 0
	movq	16(%rbp), %rax
	movq	24(%rbp), %rdx
	movq	%rdx, (%rax)
.LBE64:
	nop
	popq	%rbp
	.cfi_restore 6
	.cfi_def_cfa 7, 8
	ret
	.cfi_endproc
.LFE7270:
	.seh_endproc
	.weak	_ZN3dod6accessIINS_6memberIcLi0EEEEEC2EPc
	.def	_ZN3dod6accessIINS_6memberIcLi0EEEEEC2EPc;	.scl	2;	.type	32;	.endef
	.set	_ZN3dod6accessIINS_6memberIcLi0EEEEEC2EPc,_ZN3dod6accessIJNS_6memberIcLi0EEEEEC2EPc
	.section	.text$_ZN3dod6accessIJNS_6memberIiLi0EEENS1_IiLi1EEENS1_IiLi2EEENS1_IiLi3EEEEEC2IPiJS8_S8_S8_EEEOT_DpOT0_,"x"
	.linkonce discard
	.align 2
	.globl	_ZN3dod6accessIJNS_6memberIiLi0EEENS1_IiLi1EEENS1_IiLi2EEENS1_IiLi3EEEEEC2IPiJS8_S8_S8_EEEOT_DpOT0_
	.def	_ZN3dod6accessIJNS_6memberIiLi0EEENS1_IiLi1EEENS1_IiLi2EEENS1_IiLi3EEEEEC2IPiJS8_S8_S8_EEEOT_DpOT0_;	.scl	2;	.type	32;	.endef
	.seh_proc	_ZN3dod6accessIJNS_6memberIiLi0EEENS1_IiLi1EEENS1_IiLi2EEENS1_IiLi3EEEEEC2IPiJS8_S8_S8_EEEOT_DpOT0_
_ZN3dod6accessIJNS_6memberIiLi0EEENS1_IiLi1EEENS1_IiLi2EEENS1_IiLi3EEEEEC2IPiJS8_S8_S8_EEEOT_DpOT0_:
.LFB7273:
	.loc 5 98 0
	.cfi_startproc
	pushq	%rbp
	.seh_pushreg	%rbp
	.cfi_def_cfa_offset 16
	.cfi_offset 6, -16
	pushq	%rsi
	.seh_pushreg	%rsi
	.cfi_def_cfa_offset 24
	.cfi_offset 4, -24
	pushq	%rbx
	.seh_pushreg	%rbx
	.cfi_def_cfa_offset 32
	.cfi_offset 3, -32
	movq	%rsp, %rbp
	.seh_setframe	%rbp, 0
	.cfi_def_cfa_register 6
	subq	$32, %rsp
	.seh_stackalloc	32
	.seh_endprologue
	movq	%rcx, 32(%rbp)
	movq	%rdx, 40(%rbp)
	movq	%r8, 48(%rbp)
	movq	%r9, 56(%rbp)
.LBB65:
	.loc 5 99 0
	movq	40(%rbp), %rax
	movq	%rax, %rcx
	call	_ZSt7forwardIPiEOT_RNSt16remove_referenceIS1_E4typeE
	.loc 5 100 0
	movq	(%rax), %rdx
	movq	32(%rbp), %rax
	movq	%rax, %rcx
	call	_ZN3dod6accessIJNS_6memberIiLi0EEEEEC2EPi
	movq	64(%rbp), %rax
	movq	%rax, %rcx
	call	_ZSt7forwardIPiEOT_RNSt16remove_referenceIS1_E4typeE
	movq	%rax, %rsi
	movq	56(%rbp), %rax
	movq	%rax, %rcx
	call	_ZSt7forwardIPiEOT_RNSt16remove_referenceIS1_E4typeE
	movq	%rax, %rbx
	movq	48(%rbp), %rax
	movq	%rax, %rcx
	call	_ZSt7forwardIPiEOT_RNSt16remove_referenceIS1_E4typeE
	movq	%rax, %rdx
	movq	32(%rbp), %rax
	addq	$8, %rax
	movq	%rsi, %r9
	movq	%rbx, %r8
	movq	%rax, %rcx
	call	_ZN3dod6accessIJNS_6memberIiLi1EEENS1_IiLi2EEENS1_IiLi3EEEEEC2IPiJS7_S7_EEEOT_DpOT0_
.LBE65:
	.loc 5 101 0
	nop
	addq	$32, %rsp
	popq	%rbx
	.cfi_restore 3
	popq	%rsi
	.cfi_restore 4
	popq	%rbp
	.cfi_restore 6
	.cfi_def_cfa 7, 24
	ret
	.cfi_endproc
.LFE7273:
	.seh_endproc
	.weak	_ZN3dod6accessIINS_6memberIiLi0EEENS1_IiLi1EEENS1_IiLi2EEENS1_IiLi3EEEEEC2IPiIS8_S8_S8_EEEOT_DpOT0_
	.def	_ZN3dod6accessIINS_6memberIiLi0EEENS1_IiLi1EEENS1_IiLi2EEENS1_IiLi3EEEEEC2IPiIS8_S8_S8_EEEOT_DpOT0_;	.scl	2;	.type	32;	.endef
	.set	_ZN3dod6accessIINS_6memberIiLi0EEENS1_IiLi1EEENS1_IiLi2EEENS1_IiLi3EEEEEC2IPiIS8_S8_S8_EEEOT_DpOT0_,_ZN3dod6accessIJNS_6memberIiLi0EEENS1_IiLi1EEENS1_IiLi2EEENS1_IiLi3EEEEEC2IPiJS8_S8_S8_EEEOT_DpOT0_
	.section	.text$_ZN5boost9iterators6detail20iterator_facade_baseIN3dod7pointerI8particleINS3_6accessIJNS3_6memberIcLi0EEENS7_IiLi0EEENS7_IiLi1EEENS7_IiLi2EEENS7_IiLi3EEEEEEEEESE_NS0_27random_access_traversal_tagESE_xLb0ELb0EEC2Ev,"x"
	.linkonce discard
	.align 2
	.globl	_ZN5boost9iterators6detail20iterator_facade_baseIN3dod7pointerI8particleINS3_6accessIJNS3_6memberIcLi0EEENS7_IiLi0EEENS7_IiLi1EEENS7_IiLi2EEENS7_IiLi3EEEEEEEEESE_NS0_27random_access_traversal_tagESE_xLb0ELb0EEC2Ev
	.def	_ZN5boost9iterators6detail20iterator_facade_baseIN3dod7pointerI8particleINS3_6accessIJNS3_6memberIcLi0EEENS7_IiLi0EEENS7_IiLi1EEENS7_IiLi2EEENS7_IiLi3EEEEEEEEESE_NS0_27random_access_traversal_tagESE_xLb0ELb0EEC2Ev;	.scl	2;	.type	32;	.endef
	.seh_proc	_ZN5boost9iterators6detail20iterator_facade_baseIN3dod7pointerI8particleINS3_6accessIJNS3_6memberIcLi0EEENS7_IiLi0EEENS7_IiLi1EEENS7_IiLi2EEENS7_IiLi3EEEEEEEEESE_NS0_27random_access_traversal_tagESE_xLb0ELb0EEC2Ev
_ZN5boost9iterators6detail20iterator_facade_baseIN3dod7pointerI8particleINS3_6accessIJNS3_6memberIcLi0EEENS7_IiLi0EEENS7_IiLi1EEENS7_IiLi2EEENS7_IiLi3EEEEEEEEESE_NS0_27random_access_traversal_tagESE_xLb0ELb0EEC2Ev:
.LFB7280:
	.loc 8 616 0
	.cfi_startproc
	pushq	%rbp
	.seh_pushreg	%rbp
	.cfi_def_cfa_offset 16
	.cfi_offset 6, -16
	movq	%rsp, %rbp
	.seh_setframe	%rbp, 0
	.cfi_def_cfa_register 6
	.seh_endprologue
	movq	%rcx, 16(%rbp)
	.loc 8 616 0
	nop
	popq	%rbp
	.cfi_restore 6
	.cfi_def_cfa 7, 8
	ret
	.cfi_endproc
.LFE7280:
	.seh_endproc
	.weak	_ZN5boost9iterators6detail20iterator_facade_baseIN3dod7pointerI8particleINS3_6accessIINS3_6memberIcLi0EEENS7_IiLi0EEENS7_IiLi1EEENS7_IiLi2EEENS7_IiLi3EEEEEEEEESE_NS0_27random_access_traversal_tagESE_xLb0ELb0EEC2Ev
	.def	_ZN5boost9iterators6detail20iterator_facade_baseIN3dod7pointerI8particleINS3_6accessIINS3_6memberIcLi0EEENS7_IiLi0EEENS7_IiLi1EEENS7_IiLi2EEENS7_IiLi3EEEEEEEEESE_NS0_27random_access_traversal_tagESE_xLb0ELb0EEC2Ev;	.scl	2;	.type	32;	.endef
	.set	_ZN5boost9iterators6detail20iterator_facade_baseIN3dod7pointerI8particleINS3_6accessIINS3_6memberIcLi0EEENS7_IiLi0EEENS7_IiLi1EEENS7_IiLi2EEENS7_IiLi3EEEEEEEEESE_NS0_27random_access_traversal_tagESE_xLb0ELb0EEC2Ev,_ZN5boost9iterators6detail20iterator_facade_baseIN3dod7pointerI8particleINS3_6accessIJNS3_6memberIcLi0EEENS7_IiLi0EEENS7_IiLi1EEENS7_IiLi2EEENS7_IiLi3EEEEEEEEESE_NS0_27random_access_traversal_tagESE_xLb0ELb0EEC2Ev
	.section	.text$_ZN5boost9iterators6detail20iterator_facade_baseIN3dod7pointerI8particleINS3_6accessIJNS3_6memberIcLi0EEENS7_IiLi0EEENS7_IiLi1EEENS7_IiLi2EEENS7_IiLi3EEEEEEEEESE_NS0_27random_access_traversal_tagESE_xLb1ELb0EEC2Ev,"x"
	.linkonce discard
	.align 2
	.globl	_ZN5boost9iterators6detail20iterator_facade_baseIN3dod7pointerI8particleINS3_6accessIJNS3_6memberIcLi0EEENS7_IiLi0EEENS7_IiLi1EEENS7_IiLi2EEENS7_IiLi3EEEEEEEEESE_NS0_27random_access_traversal_tagESE_xLb1ELb0EEC2Ev
	.def	_ZN5boost9iterators6detail20iterator_facade_baseIN3dod7pointerI8particleINS3_6accessIJNS3_6memberIcLi0EEENS7_IiLi0EEENS7_IiLi1EEENS7_IiLi2EEENS7_IiLi3EEEEEEEEESE_NS0_27random_access_traversal_tagESE_xLb1ELb0EEC2Ev;	.scl	2;	.type	32;	.endef
	.seh_proc	_ZN5boost9iterators6detail20iterator_facade_baseIN3dod7pointerI8particleINS3_6accessIJNS3_6memberIcLi0EEENS7_IiLi0EEENS7_IiLi1EEENS7_IiLi2EEENS7_IiLi3EEEEEEEEESE_NS0_27random_access_traversal_tagESE_xLb1ELb0EEC2Ev
_ZN5boost9iterators6detail20iterator_facade_baseIN3dod7pointerI8particleINS3_6accessIJNS3_6memberIcLi0EEENS7_IiLi0EEENS7_IiLi1EEENS7_IiLi2EEENS7_IiLi3EEEEEEEEESE_NS0_27random_access_traversal_tagESE_xLb1ELb0EEC2Ev:
.LFB7282:
	.loc 8 683 0
	.cfi_startproc
	pushq	%rbp
	.seh_pushreg	%rbp
	.cfi_def_cfa_offset 16
	.cfi_offset 6, -16
	movq	%rsp, %rbp
	.seh_setframe	%rbp, 0
	.cfi_def_cfa_register 6
	subq	$32, %rsp
	.seh_stackalloc	32
	.seh_endprologue
	movq	%rcx, 16(%rbp)
.LBB66:
	.loc 8 683 0
	movq	16(%rbp), %rcx
	call	_ZN5boost9iterators6detail20iterator_facade_baseIN3dod7pointerI8particleINS3_6accessIJNS3_6memberIcLi0EEENS7_IiLi0EEENS7_IiLi1EEENS7_IiLi2EEENS7_IiLi3EEEEEEEEESE_NS0_27random_access_traversal_tagESE_xLb0ELb0EEC2Ev
.LBE66:
	nop
	addq	$32, %rsp
	popq	%rbp
	.cfi_restore 6
	.cfi_def_cfa 7, 8
	ret
	.cfi_endproc
.LFE7282:
	.seh_endproc
	.weak	_ZN5boost9iterators6detail20iterator_facade_baseIN3dod7pointerI8particleINS3_6accessIINS3_6memberIcLi0EEENS7_IiLi0EEENS7_IiLi1EEENS7_IiLi2EEENS7_IiLi3EEEEEEEEESE_NS0_27random_access_traversal_tagESE_xLb1ELb0EEC2Ev
	.def	_ZN5boost9iterators6detail20iterator_facade_baseIN3dod7pointerI8particleINS3_6accessIINS3_6memberIcLi0EEENS7_IiLi0EEENS7_IiLi1EEENS7_IiLi2EEENS7_IiLi3EEEEEEEEESE_NS0_27random_access_traversal_tagESE_xLb1ELb0EEC2Ev;	.scl	2;	.type	32;	.endef
	.set	_ZN5boost9iterators6detail20iterator_facade_baseIN3dod7pointerI8particleINS3_6accessIINS3_6memberIcLi0EEENS7_IiLi0EEENS7_IiLi1EEENS7_IiLi2EEENS7_IiLi3EEEEEEEEESE_NS0_27random_access_traversal_tagESE_xLb1ELb0EEC2Ev,_ZN5boost9iterators6detail20iterator_facade_baseIN3dod7pointerI8particleINS3_6accessIJNS3_6memberIcLi0EEENS7_IiLi0EEENS7_IiLi1EEENS7_IiLi2EEENS7_IiLi3EEEEEEEEESE_NS0_27random_access_traversal_tagESE_xLb1ELb0EEC2Ev
	.section	.text$_ZN5boost9iterators6detail20iterator_facade_baseIN3dod7pointerI8particleINS3_6accessIJNS3_6memberIcLi0EEENS7_IiLi0EEENS7_IiLi1EEENS7_IiLi2EEENS7_IiLi3EEEEEEEEESE_NS0_27random_access_traversal_tagESE_xLb1ELb1EEC2Ev,"x"
	.linkonce discard
	.align 2
	.globl	_ZN5boost9iterators6detail20iterator_facade_baseIN3dod7pointerI8particleINS3_6accessIJNS3_6memberIcLi0EEENS7_IiLi0EEENS7_IiLi1EEENS7_IiLi2EEENS7_IiLi3EEEEEEEEESE_NS0_27random_access_traversal_tagESE_xLb1ELb1EEC2Ev
	.def	_ZN5boost9iterators6detail20iterator_facade_baseIN3dod7pointerI8particleINS3_6accessIJNS3_6memberIcLi0EEENS7_IiLi0EEENS7_IiLi1EEENS7_IiLi2EEENS7_IiLi3EEEEEEEEESE_NS0_27random_access_traversal_tagESE_xLb1ELb1EEC2Ev;	.scl	2;	.type	32;	.endef
	.seh_proc	_ZN5boost9iterators6detail20iterator_facade_baseIN3dod7pointerI8particleINS3_6accessIJNS3_6memberIcLi0EEENS7_IiLi0EEENS7_IiLi1EEENS7_IiLi2EEENS7_IiLi3EEEEEEEEESE_NS0_27random_access_traversal_tagESE_xLb1ELb1EEC2Ev
_ZN5boost9iterators6detail20iterator_facade_baseIN3dod7pointerI8particleINS3_6accessIJNS3_6memberIcLi0EEENS7_IiLi0EEENS7_IiLi1EEENS7_IiLi2EEENS7_IiLi3EEEEEEEEESE_NS0_27random_access_traversal_tagESE_xLb1ELb1EEC2Ev:
.LFB7284:
	.loc 8 709 0
	.cfi_startproc
	pushq	%rbp
	.seh_pushreg	%rbp
	.cfi_def_cfa_offset 16
	.cfi_offset 6, -16
	movq	%rsp, %rbp
	.seh_setframe	%rbp, 0
	.cfi_def_cfa_register 6
	subq	$32, %rsp
	.seh_stackalloc	32
	.seh_endprologue
	movq	%rcx, 16(%rbp)
.LBB67:
	.loc 8 709 0
	movq	16(%rbp), %rcx
	call	_ZN5boost9iterators6detail20iterator_facade_baseIN3dod7pointerI8particleINS3_6accessIJNS3_6memberIcLi0EEENS7_IiLi0EEENS7_IiLi1EEENS7_IiLi2EEENS7_IiLi3EEEEEEEEESE_NS0_27random_access_traversal_tagESE_xLb1ELb0EEC2Ev
.LBE67:
	nop
	addq	$32, %rsp
	popq	%rbp
	.cfi_restore 6
	.cfi_def_cfa 7, 8
	ret
	.cfi_endproc
.LFE7284:
	.seh_endproc
	.weak	_ZN5boost9iterators6detail20iterator_facade_baseIN3dod7pointerI8particleINS3_6accessIINS3_6memberIcLi0EEENS7_IiLi0EEENS7_IiLi1EEENS7_IiLi2EEENS7_IiLi3EEEEEEEEESE_NS0_27random_access_traversal_tagESE_xLb1ELb1EEC2Ev
	.def	_ZN5boost9iterators6detail20iterator_facade_baseIN3dod7pointerI8particleINS3_6accessIINS3_6memberIcLi0EEENS7_IiLi0EEENS7_IiLi1EEENS7_IiLi2EEENS7_IiLi3EEEEEEEEESE_NS0_27random_access_traversal_tagESE_xLb1ELb1EEC2Ev;	.scl	2;	.type	32;	.endef
	.set	_ZN5boost9iterators6detail20iterator_facade_baseIN3dod7pointerI8particleINS3_6accessIINS3_6memberIcLi0EEENS7_IiLi0EEENS7_IiLi1EEENS7_IiLi2EEENS7_IiLi3EEEEEEEEESE_NS0_27random_access_traversal_tagESE_xLb1ELb1EEC2Ev,_ZN5boost9iterators6detail20iterator_facade_baseIN3dod7pointerI8particleINS3_6accessIJNS3_6memberIcLi0EEENS7_IiLi0EEENS7_IiLi1EEENS7_IiLi2EEENS7_IiLi3EEEEEEEEESE_NS0_27random_access_traversal_tagESE_xLb1ELb1EEC2Ev
	.section	.text$_ZN5boost9iterators15iterator_facadeIN3dod7pointerI8particleINS2_6accessIJNS2_6memberIcLi0EEENS6_IiLi0EEENS6_IiLi1EEENS6_IiLi2EEENS6_IiLi3EEEEEEEEESD_NS0_27random_access_traversal_tagESD_xEC2Ev,"x"
	.linkonce discard
	.align 2
	.globl	_ZN5boost9iterators15iterator_facadeIN3dod7pointerI8particleINS2_6accessIJNS2_6memberIcLi0EEENS6_IiLi0EEENS6_IiLi1EEENS6_IiLi2EEENS6_IiLi3EEEEEEEEESD_NS0_27random_access_traversal_tagESD_xEC2Ev
	.def	_ZN5boost9iterators15iterator_facadeIN3dod7pointerI8particleINS2_6accessIJNS2_6memberIcLi0EEENS6_IiLi0EEENS6_IiLi1EEENS6_IiLi2EEENS6_IiLi3EEEEEEEEESD_NS0_27random_access_traversal_tagESD_xEC2Ev;	.scl	2;	.type	32;	.endef
	.seh_proc	_ZN5boost9iterators15iterator_facadeIN3dod7pointerI8particleINS2_6accessIJNS2_6memberIcLi0EEENS6_IiLi0EEENS6_IiLi1EEENS6_IiLi2EEENS6_IiLi3EEEEEEEEESD_NS0_27random_access_traversal_tagESD_xEC2Ev
_ZN5boost9iterators15iterator_facadeIN3dod7pointerI8particleINS2_6accessIJNS2_6memberIcLi0EEENS6_IiLi0EEENS6_IiLi1EEENS6_IiLi2EEENS6_IiLi3EEEEEEEEESD_NS0_27random_access_traversal_tagESD_xEC2Ev:
.LFB7286:
	.loc 8 763 0
	.cfi_startproc
	pushq	%rbp
	.seh_pushreg	%rbp
	.cfi_def_cfa_offset 16
	.cfi_offset 6, -16
	movq	%rsp, %rbp
	.seh_setframe	%rbp, 0
	.cfi_def_cfa_register 6
	subq	$32, %rsp
	.seh_stackalloc	32
	.seh_endprologue
	movq	%rcx, 16(%rbp)
.LBB68:
	.loc 8 763 0
	movq	16(%rbp), %rcx
	call	_ZN5boost9iterators6detail20iterator_facade_baseIN3dod7pointerI8particleINS3_6accessIJNS3_6memberIcLi0EEENS7_IiLi0EEENS7_IiLi1EEENS7_IiLi2EEENS7_IiLi3EEEEEEEEESE_NS0_27random_access_traversal_tagESE_xLb1ELb1EEC2Ev
.LBE68:
	nop
	addq	$32, %rsp
	popq	%rbp
	.cfi_restore 6
	.cfi_def_cfa 7, 8
	ret
	.cfi_endproc
.LFE7286:
	.seh_endproc
	.weak	_ZN5boost9iterators15iterator_facadeIN3dod7pointerI8particleINS2_6accessIINS2_6memberIcLi0EEENS6_IiLi0EEENS6_IiLi1EEENS6_IiLi2EEENS6_IiLi3EEEEEEEEESD_NS0_27random_access_traversal_tagESD_xEC2Ev
	.def	_ZN5boost9iterators15iterator_facadeIN3dod7pointerI8particleINS2_6accessIINS2_6memberIcLi0EEENS6_IiLi0EEENS6_IiLi1EEENS6_IiLi2EEENS6_IiLi3EEEEEEEEESD_NS0_27random_access_traversal_tagESD_xEC2Ev;	.scl	2;	.type	32;	.endef
	.set	_ZN5boost9iterators15iterator_facadeIN3dod7pointerI8particleINS2_6accessIINS2_6memberIcLi0EEENS6_IiLi0EEENS6_IiLi1EEENS6_IiLi2EEENS6_IiLi3EEEEEEEEESD_NS0_27random_access_traversal_tagESD_xEC2Ev,_ZN5boost9iterators15iterator_facadeIN3dod7pointerI8particleINS2_6accessIJNS2_6memberIcLi0EEENS6_IiLi0EEENS6_IiLi1EEENS6_IiLi2EEENS6_IiLi3EEEEEEEEESD_NS0_27random_access_traversal_tagESD_xEC2Ev
	.section	.text$_ZN3dod7pointerI8particleINS_6accessIJNS_6memberIcLi0EEENS3_IiLi0EEENS3_IiLi1EEENS3_IiLi2EEENS3_IiLi3EEEEEEEEC1ERKS9_,"x"
	.linkonce discard
	.align 2
	.globl	_ZN3dod7pointerI8particleINS_6accessIJNS_6memberIcLi0EEENS3_IiLi0EEENS3_IiLi1EEENS3_IiLi2EEENS3_IiLi3EEEEEEEEC1ERKS9_
	.def	_ZN3dod7pointerI8particleINS_6accessIJNS_6memberIcLi0EEENS3_IiLi0EEENS3_IiLi1EEENS3_IiLi2EEENS3_IiLi3EEEEEEEEC1ERKS9_;	.scl	2;	.type	32;	.endef
	.seh_proc	_ZN3dod7pointerI8particleINS_6accessIJNS_6memberIcLi0EEENS3_IiLi0EEENS3_IiLi1EEENS3_IiLi2EEENS3_IiLi3EEEEEEEEC1ERKS9_
_ZN3dod7pointerI8particleINS_6accessIJNS_6memberIcLi0EEENS3_IiLi0EEENS3_IiLi1EEENS3_IiLi2EEENS3_IiLi3EEEEEEEEC1ERKS9_:
.LFB7289:
	.loc 5 125 0
	.cfi_startproc
	pushq	%rbp
	.seh_pushreg	%rbp
	.cfi_def_cfa_offset 16
	.cfi_offset 6, -16
	movq	%rsp, %rbp
	.seh_setframe	%rbp, 0
	.cfi_def_cfa_register 6
	subq	$32, %rsp
	.seh_stackalloc	32
	.seh_endprologue
	movq	%rcx, 16(%rbp)
	movq	%rdx, 24(%rbp)
.LBB69:
	.loc 5 125 0
	movq	16(%rbp), %rcx
	call	_ZN5boost9iterators15iterator_facadeIN3dod7pointerI8particleINS2_6accessIJNS2_6memberIcLi0EEENS6_IiLi0EEENS6_IiLi1EEENS6_IiLi2EEENS6_IiLi3EEEEEEEEESD_NS0_27random_access_traversal_tagESD_xEC2Ev
	movq	16(%rbp), %rax
	movq	24(%rbp), %rdx
	movq	(%rdx), %rcx
	movq	%rcx, (%rax)
	movq	8(%rdx), %rcx
	movq	%rcx, 8(%rax)
	movq	16(%rdx), %rcx
	movq	%rcx, 16(%rax)
	movq	24(%rdx), %rcx
	movq	%rcx, 24(%rax)
	movq	32(%rdx), %rdx
	movq	%rdx, 32(%rax)
.LBE69:
	nop
	addq	$32, %rsp
	popq	%rbp
	.cfi_restore 6
	.cfi_def_cfa 7, 8
	ret
	.cfi_endproc
.LFE7289:
	.seh_endproc
	.weak	_ZN3dod7pointerI8particleINS_6accessIINS_6memberIcLi0EEENS3_IiLi0EEENS3_IiLi1EEENS3_IiLi2EEENS3_IiLi3EEEEEEEEC1ERKS9_
	.def	_ZN3dod7pointerI8particleINS_6accessIINS_6memberIcLi0EEENS3_IiLi0EEENS3_IiLi1EEENS3_IiLi2EEENS3_IiLi3EEEEEEEEC1ERKS9_;	.scl	2;	.type	32;	.endef
	.set	_ZN3dod7pointerI8particleINS_6accessIINS_6memberIcLi0EEENS3_IiLi0EEENS3_IiLi1EEENS3_IiLi2EEENS3_IiLi3EEEEEEEEC1ERKS9_,_ZN3dod7pointerI8particleINS_6accessIJNS_6memberIcLi0EEENS3_IiLi0EEENS3_IiLi1EEENS3_IiLi2EEENS3_IiLi3EEEEEEEEC1ERKS9_
	.section	.text$_ZN5boost9iterators6detail20iterator_facade_baseIN3dod7pointerI8particleINS3_6accessIJNS3_6memberIcLi0EEENS7_IiLi0EEENS7_IiLi1EEENS7_IiLi2EEENS7_IiLi3EEEEEEEEESE_NS0_27random_access_traversal_tagESE_xLb1ELb1EEpLEx,"x"
	.linkonce discard
	.align 2
	.globl	_ZN5boost9iterators6detail20iterator_facade_baseIN3dod7pointerI8particleINS3_6accessIJNS3_6memberIcLi0EEENS7_IiLi0EEENS7_IiLi1EEENS7_IiLi2EEENS7_IiLi3EEEEEEEEESE_NS0_27random_access_traversal_tagESE_xLb1ELb1EEpLEx
	.def	_ZN5boost9iterators6detail20iterator_facade_baseIN3dod7pointerI8particleINS3_6accessIJNS3_6memberIcLi0EEENS7_IiLi0EEENS7_IiLi1EEENS7_IiLi2EEENS7_IiLi3EEEEEEEEESE_NS0_27random_access_traversal_tagESE_xLb1ELb1EEpLEx;	.scl	2;	.type	32;	.endef
	.seh_proc	_ZN5boost9iterators6detail20iterator_facade_baseIN3dod7pointerI8particleINS3_6accessIJNS3_6memberIcLi0EEENS7_IiLi0EEENS7_IiLi1EEENS7_IiLi2EEENS7_IiLi3EEEEEEEEESE_NS0_27random_access_traversal_tagESE_xLb1ELb1EEpLEx
_ZN5boost9iterators6detail20iterator_facade_baseIN3dod7pointerI8particleINS3_6accessIJNS3_6memberIcLi0EEENS7_IiLi0EEENS7_IiLi1EEENS7_IiLi2EEENS7_IiLi3EEEEEEEEESE_NS0_27random_access_traversal_tagESE_xLb1ELb1EEpLEx:
.LFB7290:
	.loc 8 731 0
	.cfi_startproc
	pushq	%rbp
	.seh_pushreg	%rbp
	.cfi_def_cfa_offset 16
	.cfi_offset 6, -16
	movq	%rsp, %rbp
	.seh_setframe	%rbp, 0
	.cfi_def_cfa_register 6
	subq	$32, %rsp
	.seh_stackalloc	32
	.seh_endprologue
	movq	%rcx, 16(%rbp)
	movq	%rdx, 24(%rbp)
	.loc 8 733 0
	movq	16(%rbp), %rcx
	call	_ZN5boost9iterators6detail20iterator_facade_baseIN3dod7pointerI8particleINS3_6accessIJNS3_6memberIcLi0EEENS7_IiLi0EEENS7_IiLi1EEENS7_IiLi2EEENS7_IiLi3EEEEEEEEESE_NS0_27random_access_traversal_tagESE_xLb0ELb0EE7derivedEv
	movq	%rax, %rcx
	movq	24(%rbp), %rax
	movq	%rax, %rdx
	call	_ZN5boost9iterators20iterator_core_access7advanceIN3dod7pointerI8particleINS3_6accessIJNS3_6memberIcLi0EEENS7_IiLi0EEENS7_IiLi1EEENS7_IiLi2EEENS7_IiLi3EEEEEEEEEEEvRT_NSG_15difference_typeE
	.loc 8 734 0
	movq	16(%rbp), %rcx
	call	_ZN5boost9iterators6detail20iterator_facade_baseIN3dod7pointerI8particleINS3_6accessIJNS3_6memberIcLi0EEENS7_IiLi0EEENS7_IiLi1EEENS7_IiLi2EEENS7_IiLi3EEEEEEEEESE_NS0_27random_access_traversal_tagESE_xLb0ELb0EE7derivedEv
	.loc 8 735 0
	addq	$32, %rsp
	popq	%rbp
	.cfi_restore 6
	.cfi_def_cfa 7, 8
	ret
	.cfi_endproc
.LFE7290:
	.seh_endproc
	.weak	_ZN5boost9iterators6detail20iterator_facade_baseIN3dod7pointerI8particleINS3_6accessIINS3_6memberIcLi0EEENS7_IiLi0EEENS7_IiLi1EEENS7_IiLi2EEENS7_IiLi3EEEEEEEEESE_NS0_27random_access_traversal_tagESE_xLb1ELb1EEpLEx
	.def	_ZN5boost9iterators6detail20iterator_facade_baseIN3dod7pointerI8particleINS3_6accessIINS3_6memberIcLi0EEENS7_IiLi0EEENS7_IiLi1EEENS7_IiLi2EEENS7_IiLi3EEEEEEEEESE_NS0_27random_access_traversal_tagESE_xLb1ELb1EEpLEx;	.scl	2;	.type	32;	.endef
	.set	_ZN5boost9iterators6detail20iterator_facade_baseIN3dod7pointerI8particleINS3_6accessIINS3_6memberIcLi0EEENS7_IiLi0EEENS7_IiLi1EEENS7_IiLi2EEENS7_IiLi3EEEEEEEEESE_NS0_27random_access_traversal_tagESE_xLb1ELb1EEpLEx,_ZN5boost9iterators6detail20iterator_facade_baseIN3dod7pointerI8particleINS3_6accessIJNS3_6memberIcLi0EEENS7_IiLi0EEENS7_IiLi1EEENS7_IiLi2EEENS7_IiLi3EEEEEEEEESE_NS0_27random_access_traversal_tagESE_xLb1ELb1EEpLEx
	.section	.text$_ZN3dod6accessIJNS_6memberIiLi0EEENS1_IiLi1EEEEEC2IPiJS6_EEEOT_DpOT0_,"x"
	.linkonce discard
	.align 2
	.globl	_ZN3dod6accessIJNS_6memberIiLi0EEENS1_IiLi1EEEEEC2IPiJS6_EEEOT_DpOT0_
	.def	_ZN3dod6accessIJNS_6memberIiLi0EEENS1_IiLi1EEEEEC2IPiJS6_EEEOT_DpOT0_;	.scl	2;	.type	32;	.endef
	.seh_proc	_ZN3dod6accessIJNS_6memberIiLi0EEENS1_IiLi1EEEEEC2IPiJS6_EEEOT_DpOT0_
_ZN3dod6accessIJNS_6memberIiLi0EEENS1_IiLi1EEEEEC2IPiJS6_EEEOT_DpOT0_:
.LFB7292:
	.loc 5 98 0
	.cfi_startproc
	pushq	%rbp
	.seh_pushreg	%rbp
	.cfi_def_cfa_offset 16
	.cfi_offset 6, -16
	movq	%rsp, %rbp
	.seh_setframe	%rbp, 0
	.cfi_def_cfa_register 6
	subq	$32, %rsp
	.seh_stackalloc	32
	.seh_endprologue
	movq	%rcx, 16(%rbp)
	movq	%rdx, 24(%rbp)
	movq	%r8, 32(%rbp)
.LBB70:
	.loc 5 99 0
	movq	24(%rbp), %rax
	movq	%rax, %rcx
	call	_ZSt7forwardIPiEOT_RNSt16remove_referenceIS1_E4typeE
	.loc 5 100 0
	movq	(%rax), %rdx
	movq	16(%rbp), %rax
	movq	%rax, %rcx
	call	_ZN3dod6accessIJNS_6memberIiLi0EEEEEC2EPi
	movq	32(%rbp), %rax
	movq	%rax, %rcx
	call	_ZSt7forwardIPiEOT_RNSt16remove_referenceIS1_E4typeE
	movq	(%rax), %rax
	movq	16(%rbp), %rdx
	leaq	8(%rdx), %rcx
	movq	%rax, %rdx
	call	_ZN3dod6accessIJNS_6memberIiLi1EEEEEC2EPi
.LBE70:
	.loc 5 101 0
	nop
	addq	$32, %rsp
	popq	%rbp
	.cfi_restore 6
	.cfi_def_cfa 7, 8
	ret
	.cfi_endproc
.LFE7292:
	.seh_endproc
	.weak	_ZN3dod6accessIINS_6memberIiLi0EEENS1_IiLi1EEEEEC2IPiIS6_EEEOT_DpOT0_
	.def	_ZN3dod6accessIINS_6memberIiLi0EEENS1_IiLi1EEEEEC2IPiIS6_EEEOT_DpOT0_;	.scl	2;	.type	32;	.endef
	.set	_ZN3dod6accessIINS_6memberIiLi0EEENS1_IiLi1EEEEEC2IPiIS6_EEEOT_DpOT0_,_ZN3dod6accessIJNS_6memberIiLi0EEENS1_IiLi1EEEEEC2IPiJS6_EEEOT_DpOT0_
	.section	.text$_ZN5boost9iterators6detail20iterator_facade_baseIN3dod7pointerI8particleINS3_6accessIJNS3_6memberIcLi0EEENS7_IiLi0EEENS7_IiLi1EEEEEEEEESC_NS0_27random_access_traversal_tagESC_xLb0ELb0EEC2Ev,"x"
	.linkonce discard
	.align 2
	.globl	_ZN5boost9iterators6detail20iterator_facade_baseIN3dod7pointerI8particleINS3_6accessIJNS3_6memberIcLi0EEENS7_IiLi0EEENS7_IiLi1EEEEEEEEESC_NS0_27random_access_traversal_tagESC_xLb0ELb0EEC2Ev
	.def	_ZN5boost9iterators6detail20iterator_facade_baseIN3dod7pointerI8particleINS3_6accessIJNS3_6memberIcLi0EEENS7_IiLi0EEENS7_IiLi1EEEEEEEEESC_NS0_27random_access_traversal_tagESC_xLb0ELb0EEC2Ev;	.scl	2;	.type	32;	.endef
	.seh_proc	_ZN5boost9iterators6detail20iterator_facade_baseIN3dod7pointerI8particleINS3_6accessIJNS3_6memberIcLi0EEENS7_IiLi0EEENS7_IiLi1EEEEEEEEESC_NS0_27random_access_traversal_tagESC_xLb0ELb0EEC2Ev
_ZN5boost9iterators6detail20iterator_facade_baseIN3dod7pointerI8particleINS3_6accessIJNS3_6memberIcLi0EEENS7_IiLi0EEENS7_IiLi1EEEEEEEEESC_NS0_27random_access_traversal_tagESC_xLb0ELb0EEC2Ev:
.LFB7299:
	.loc 8 616 0
	.cfi_startproc
	pushq	%rbp
	.seh_pushreg	%rbp
	.cfi_def_cfa_offset 16
	.cfi_offset 6, -16
	movq	%rsp, %rbp
	.seh_setframe	%rbp, 0
	.cfi_def_cfa_register 6
	.seh_endprologue
	movq	%rcx, 16(%rbp)
	.loc 8 616 0
	nop
	popq	%rbp
	.cfi_restore 6
	.cfi_def_cfa 7, 8
	ret
	.cfi_endproc
.LFE7299:
	.seh_endproc
	.weak	_ZN5boost9iterators6detail20iterator_facade_baseIN3dod7pointerI8particleINS3_6accessIINS3_6memberIcLi0EEENS7_IiLi0EEENS7_IiLi1EEEEEEEEESC_NS0_27random_access_traversal_tagESC_xLb0ELb0EEC2Ev
	.def	_ZN5boost9iterators6detail20iterator_facade_baseIN3dod7pointerI8particleINS3_6accessIINS3_6memberIcLi0EEENS7_IiLi0EEENS7_IiLi1EEEEEEEEESC_NS0_27random_access_traversal_tagESC_xLb0ELb0EEC2Ev;	.scl	2;	.type	32;	.endef
	.set	_ZN5boost9iterators6detail20iterator_facade_baseIN3dod7pointerI8particleINS3_6accessIINS3_6memberIcLi0EEENS7_IiLi0EEENS7_IiLi1EEEEEEEEESC_NS0_27random_access_traversal_tagESC_xLb0ELb0EEC2Ev,_ZN5boost9iterators6detail20iterator_facade_baseIN3dod7pointerI8particleINS3_6accessIJNS3_6memberIcLi0EEENS7_IiLi0EEENS7_IiLi1EEEEEEEEESC_NS0_27random_access_traversal_tagESC_xLb0ELb0EEC2Ev
	.section	.text$_ZN5boost9iterators6detail20iterator_facade_baseIN3dod7pointerI8particleINS3_6accessIJNS3_6memberIcLi0EEENS7_IiLi0EEENS7_IiLi1EEEEEEEEESC_NS0_27random_access_traversal_tagESC_xLb1ELb0EEC2Ev,"x"
	.linkonce discard
	.align 2
	.globl	_ZN5boost9iterators6detail20iterator_facade_baseIN3dod7pointerI8particleINS3_6accessIJNS3_6memberIcLi0EEENS7_IiLi0EEENS7_IiLi1EEEEEEEEESC_NS0_27random_access_traversal_tagESC_xLb1ELb0EEC2Ev
	.def	_ZN5boost9iterators6detail20iterator_facade_baseIN3dod7pointerI8particleINS3_6accessIJNS3_6memberIcLi0EEENS7_IiLi0EEENS7_IiLi1EEEEEEEEESC_NS0_27random_access_traversal_tagESC_xLb1ELb0EEC2Ev;	.scl	2;	.type	32;	.endef
	.seh_proc	_ZN5boost9iterators6detail20iterator_facade_baseIN3dod7pointerI8particleINS3_6accessIJNS3_6memberIcLi0EEENS7_IiLi0EEENS7_IiLi1EEEEEEEEESC_NS0_27random_access_traversal_tagESC_xLb1ELb0EEC2Ev
_ZN5boost9iterators6detail20iterator_facade_baseIN3dod7pointerI8particleINS3_6accessIJNS3_6memberIcLi0EEENS7_IiLi0EEENS7_IiLi1EEEEEEEEESC_NS0_27random_access_traversal_tagESC_xLb1ELb0EEC2Ev:
.LFB7301:
	.loc 8 683 0
	.cfi_startproc
	pushq	%rbp
	.seh_pushreg	%rbp
	.cfi_def_cfa_offset 16
	.cfi_offset 6, -16
	movq	%rsp, %rbp
	.seh_setframe	%rbp, 0
	.cfi_def_cfa_register 6
	subq	$32, %rsp
	.seh_stackalloc	32
	.seh_endprologue
	movq	%rcx, 16(%rbp)
.LBB71:
	.loc 8 683 0
	movq	16(%rbp), %rcx
	call	_ZN5boost9iterators6detail20iterator_facade_baseIN3dod7pointerI8particleINS3_6accessIJNS3_6memberIcLi0EEENS7_IiLi0EEENS7_IiLi1EEEEEEEEESC_NS0_27random_access_traversal_tagESC_xLb0ELb0EEC2Ev
.LBE71:
	nop
	addq	$32, %rsp
	popq	%rbp
	.cfi_restore 6
	.cfi_def_cfa 7, 8
	ret
	.cfi_endproc
.LFE7301:
	.seh_endproc
	.weak	_ZN5boost9iterators6detail20iterator_facade_baseIN3dod7pointerI8particleINS3_6accessIINS3_6memberIcLi0EEENS7_IiLi0EEENS7_IiLi1EEEEEEEEESC_NS0_27random_access_traversal_tagESC_xLb1ELb0EEC2Ev
	.def	_ZN5boost9iterators6detail20iterator_facade_baseIN3dod7pointerI8particleINS3_6accessIINS3_6memberIcLi0EEENS7_IiLi0EEENS7_IiLi1EEEEEEEEESC_NS0_27random_access_traversal_tagESC_xLb1ELb0EEC2Ev;	.scl	2;	.type	32;	.endef
	.set	_ZN5boost9iterators6detail20iterator_facade_baseIN3dod7pointerI8particleINS3_6accessIINS3_6memberIcLi0EEENS7_IiLi0EEENS7_IiLi1EEEEEEEEESC_NS0_27random_access_traversal_tagESC_xLb1ELb0EEC2Ev,_ZN5boost9iterators6detail20iterator_facade_baseIN3dod7pointerI8particleINS3_6accessIJNS3_6memberIcLi0EEENS7_IiLi0EEENS7_IiLi1EEEEEEEEESC_NS0_27random_access_traversal_tagESC_xLb1ELb0EEC2Ev
	.section	.text$_ZN5boost9iterators6detail20iterator_facade_baseIN3dod7pointerI8particleINS3_6accessIJNS3_6memberIcLi0EEENS7_IiLi0EEENS7_IiLi1EEEEEEEEESC_NS0_27random_access_traversal_tagESC_xLb1ELb1EEC2Ev,"x"
	.linkonce discard
	.align 2
	.globl	_ZN5boost9iterators6detail20iterator_facade_baseIN3dod7pointerI8particleINS3_6accessIJNS3_6memberIcLi0EEENS7_IiLi0EEENS7_IiLi1EEEEEEEEESC_NS0_27random_access_traversal_tagESC_xLb1ELb1EEC2Ev
	.def	_ZN5boost9iterators6detail20iterator_facade_baseIN3dod7pointerI8particleINS3_6accessIJNS3_6memberIcLi0EEENS7_IiLi0EEENS7_IiLi1EEEEEEEEESC_NS0_27random_access_traversal_tagESC_xLb1ELb1EEC2Ev;	.scl	2;	.type	32;	.endef
	.seh_proc	_ZN5boost9iterators6detail20iterator_facade_baseIN3dod7pointerI8particleINS3_6accessIJNS3_6memberIcLi0EEENS7_IiLi0EEENS7_IiLi1EEEEEEEEESC_NS0_27random_access_traversal_tagESC_xLb1ELb1EEC2Ev
_ZN5boost9iterators6detail20iterator_facade_baseIN3dod7pointerI8particleINS3_6accessIJNS3_6memberIcLi0EEENS7_IiLi0EEENS7_IiLi1EEEEEEEEESC_NS0_27random_access_traversal_tagESC_xLb1ELb1EEC2Ev:
.LFB7303:
	.loc 8 709 0
	.cfi_startproc
	pushq	%rbp
	.seh_pushreg	%rbp
	.cfi_def_cfa_offset 16
	.cfi_offset 6, -16
	movq	%rsp, %rbp
	.seh_setframe	%rbp, 0
	.cfi_def_cfa_register 6
	subq	$32, %rsp
	.seh_stackalloc	32
	.seh_endprologue
	movq	%rcx, 16(%rbp)
.LBB72:
	.loc 8 709 0
	movq	16(%rbp), %rcx
	call	_ZN5boost9iterators6detail20iterator_facade_baseIN3dod7pointerI8particleINS3_6accessIJNS3_6memberIcLi0EEENS7_IiLi0EEENS7_IiLi1EEEEEEEEESC_NS0_27random_access_traversal_tagESC_xLb1ELb0EEC2Ev
.LBE72:
	nop
	addq	$32, %rsp
	popq	%rbp
	.cfi_restore 6
	.cfi_def_cfa 7, 8
	ret
	.cfi_endproc
.LFE7303:
	.seh_endproc
	.weak	_ZN5boost9iterators6detail20iterator_facade_baseIN3dod7pointerI8particleINS3_6accessIINS3_6memberIcLi0EEENS7_IiLi0EEENS7_IiLi1EEEEEEEEESC_NS0_27random_access_traversal_tagESC_xLb1ELb1EEC2Ev
	.def	_ZN5boost9iterators6detail20iterator_facade_baseIN3dod7pointerI8particleINS3_6accessIINS3_6memberIcLi0EEENS7_IiLi0EEENS7_IiLi1EEEEEEEEESC_NS0_27random_access_traversal_tagESC_xLb1ELb1EEC2Ev;	.scl	2;	.type	32;	.endef
	.set	_ZN5boost9iterators6detail20iterator_facade_baseIN3dod7pointerI8particleINS3_6accessIINS3_6memberIcLi0EEENS7_IiLi0EEENS7_IiLi1EEEEEEEEESC_NS0_27random_access_traversal_tagESC_xLb1ELb1EEC2Ev,_ZN5boost9iterators6detail20iterator_facade_baseIN3dod7pointerI8particleINS3_6accessIJNS3_6memberIcLi0EEENS7_IiLi0EEENS7_IiLi1EEEEEEEEESC_NS0_27random_access_traversal_tagESC_xLb1ELb1EEC2Ev
	.section	.text$_ZN5boost9iterators15iterator_facadeIN3dod7pointerI8particleINS2_6accessIJNS2_6memberIcLi0EEENS6_IiLi0EEENS6_IiLi1EEEEEEEEESB_NS0_27random_access_traversal_tagESB_xEC2Ev,"x"
	.linkonce discard
	.align 2
	.globl	_ZN5boost9iterators15iterator_facadeIN3dod7pointerI8particleINS2_6accessIJNS2_6memberIcLi0EEENS6_IiLi0EEENS6_IiLi1EEEEEEEEESB_NS0_27random_access_traversal_tagESB_xEC2Ev
	.def	_ZN5boost9iterators15iterator_facadeIN3dod7pointerI8particleINS2_6accessIJNS2_6memberIcLi0EEENS6_IiLi0EEENS6_IiLi1EEEEEEEEESB_NS0_27random_access_traversal_tagESB_xEC2Ev;	.scl	2;	.type	32;	.endef
	.seh_proc	_ZN5boost9iterators15iterator_facadeIN3dod7pointerI8particleINS2_6accessIJNS2_6memberIcLi0EEENS6_IiLi0EEENS6_IiLi1EEEEEEEEESB_NS0_27random_access_traversal_tagESB_xEC2Ev
_ZN5boost9iterators15iterator_facadeIN3dod7pointerI8particleINS2_6accessIJNS2_6memberIcLi0EEENS6_IiLi0EEENS6_IiLi1EEEEEEEEESB_NS0_27random_access_traversal_tagESB_xEC2Ev:
.LFB7305:
	.loc 8 763 0
	.cfi_startproc
	pushq	%rbp
	.seh_pushreg	%rbp
	.cfi_def_cfa_offset 16
	.cfi_offset 6, -16
	movq	%rsp, %rbp
	.seh_setframe	%rbp, 0
	.cfi_def_cfa_register 6
	subq	$32, %rsp
	.seh_stackalloc	32
	.seh_endprologue
	movq	%rcx, 16(%rbp)
.LBB73:
	.loc 8 763 0
	movq	16(%rbp), %rcx
	call	_ZN5boost9iterators6detail20iterator_facade_baseIN3dod7pointerI8particleINS3_6accessIJNS3_6memberIcLi0EEENS7_IiLi0EEENS7_IiLi1EEEEEEEEESC_NS0_27random_access_traversal_tagESC_xLb1ELb1EEC2Ev
.LBE73:
	nop
	addq	$32, %rsp
	popq	%rbp
	.cfi_restore 6
	.cfi_def_cfa 7, 8
	ret
	.cfi_endproc
.LFE7305:
	.seh_endproc
	.weak	_ZN5boost9iterators15iterator_facadeIN3dod7pointerI8particleINS2_6accessIINS2_6memberIcLi0EEENS6_IiLi0EEENS6_IiLi1EEEEEEEEESB_NS0_27random_access_traversal_tagESB_xEC2Ev
	.def	_ZN5boost9iterators15iterator_facadeIN3dod7pointerI8particleINS2_6accessIINS2_6memberIcLi0EEENS6_IiLi0EEENS6_IiLi1EEEEEEEEESB_NS0_27random_access_traversal_tagESB_xEC2Ev;	.scl	2;	.type	32;	.endef
	.set	_ZN5boost9iterators15iterator_facadeIN3dod7pointerI8particleINS2_6accessIINS2_6memberIcLi0EEENS6_IiLi0EEENS6_IiLi1EEEEEEEEESB_NS0_27random_access_traversal_tagESB_xEC2Ev,_ZN5boost9iterators15iterator_facadeIN3dod7pointerI8particleINS2_6accessIJNS2_6memberIcLi0EEENS6_IiLi0EEENS6_IiLi1EEEEEEEEESB_NS0_27random_access_traversal_tagESB_xEC2Ev
	.section	.text$_ZN3dod7pointerI8particleINS_6accessIJNS_6memberIcLi0EEENS3_IiLi0EEENS3_IiLi1EEEEEEEEC1ERKS7_,"x"
	.linkonce discard
	.align 2
	.globl	_ZN3dod7pointerI8particleINS_6accessIJNS_6memberIcLi0EEENS3_IiLi0EEENS3_IiLi1EEEEEEEEC1ERKS7_
	.def	_ZN3dod7pointerI8particleINS_6accessIJNS_6memberIcLi0EEENS3_IiLi0EEENS3_IiLi1EEEEEEEEC1ERKS7_;	.scl	2;	.type	32;	.endef
	.seh_proc	_ZN3dod7pointerI8particleINS_6accessIJNS_6memberIcLi0EEENS3_IiLi0EEENS3_IiLi1EEEEEEEEC1ERKS7_
_ZN3dod7pointerI8particleINS_6accessIJNS_6memberIcLi0EEENS3_IiLi0EEENS3_IiLi1EEEEEEEEC1ERKS7_:
.LFB7308:
	.loc 5 125 0
	.cfi_startproc
	pushq	%rbp
	.seh_pushreg	%rbp
	.cfi_def_cfa_offset 16
	.cfi_offset 6, -16
	movq	%rsp, %rbp
	.seh_setframe	%rbp, 0
	.cfi_def_cfa_register 6
	subq	$32, %rsp
	.seh_stackalloc	32
	.seh_endprologue
	movq	%rcx, 16(%rbp)
	movq	%rdx, 24(%rbp)
.LBB74:
	.loc 5 125 0
	movq	16(%rbp), %rcx
	call	_ZN5boost9iterators15iterator_facadeIN3dod7pointerI8particleINS2_6accessIJNS2_6memberIcLi0EEENS6_IiLi0EEENS6_IiLi1EEEEEEEEESB_NS0_27random_access_traversal_tagESB_xEC2Ev
	movq	16(%rbp), %rax
	movq	24(%rbp), %rdx
	movq	(%rdx), %rcx
	movq	%rcx, (%rax)
	movq	8(%rdx), %rcx
	movq	%rcx, 8(%rax)
	movq	16(%rdx), %rdx
	movq	%rdx, 16(%rax)
.LBE74:
	nop
	addq	$32, %rsp
	popq	%rbp
	.cfi_restore 6
	.cfi_def_cfa 7, 8
	ret
	.cfi_endproc
.LFE7308:
	.seh_endproc
	.weak	_ZN3dod7pointerI8particleINS_6accessIINS_6memberIcLi0EEENS3_IiLi0EEENS3_IiLi1EEEEEEEEC1ERKS7_
	.def	_ZN3dod7pointerI8particleINS_6accessIINS_6memberIcLi0EEENS3_IiLi0EEENS3_IiLi1EEEEEEEEC1ERKS7_;	.scl	2;	.type	32;	.endef
	.set	_ZN3dod7pointerI8particleINS_6accessIINS_6memberIcLi0EEENS3_IiLi0EEENS3_IiLi1EEEEEEEEC1ERKS7_,_ZN3dod7pointerI8particleINS_6accessIJNS_6memberIcLi0EEENS3_IiLi0EEENS3_IiLi1EEEEEEEEC1ERKS7_
	.section	.text$_ZN5boost9iterators6detail20iterator_facade_baseIN3dod7pointerI8particleINS3_6accessIJNS3_6memberIcLi0EEENS7_IiLi0EEENS7_IiLi1EEEEEEEEESC_NS0_27random_access_traversal_tagESC_xLb1ELb1EEpLEx,"x"
	.linkonce discard
	.align 2
	.globl	_ZN5boost9iterators6detail20iterator_facade_baseIN3dod7pointerI8particleINS3_6accessIJNS3_6memberIcLi0EEENS7_IiLi0EEENS7_IiLi1EEEEEEEEESC_NS0_27random_access_traversal_tagESC_xLb1ELb1EEpLEx
	.def	_ZN5boost9iterators6detail20iterator_facade_baseIN3dod7pointerI8particleINS3_6accessIJNS3_6memberIcLi0EEENS7_IiLi0EEENS7_IiLi1EEEEEEEEESC_NS0_27random_access_traversal_tagESC_xLb1ELb1EEpLEx;	.scl	2;	.type	32;	.endef
	.seh_proc	_ZN5boost9iterators6detail20iterator_facade_baseIN3dod7pointerI8particleINS3_6accessIJNS3_6memberIcLi0EEENS7_IiLi0EEENS7_IiLi1EEEEEEEEESC_NS0_27random_access_traversal_tagESC_xLb1ELb1EEpLEx
_ZN5boost9iterators6detail20iterator_facade_baseIN3dod7pointerI8particleINS3_6accessIJNS3_6memberIcLi0EEENS7_IiLi0EEENS7_IiLi1EEEEEEEEESC_NS0_27random_access_traversal_tagESC_xLb1ELb1EEpLEx:
.LFB7309:
	.loc 8 731 0
	.cfi_startproc
	pushq	%rbp
	.seh_pushreg	%rbp
	.cfi_def_cfa_offset 16
	.cfi_offset 6, -16
	movq	%rsp, %rbp
	.seh_setframe	%rbp, 0
	.cfi_def_cfa_register 6
	subq	$32, %rsp
	.seh_stackalloc	32
	.seh_endprologue
	movq	%rcx, 16(%rbp)
	movq	%rdx, 24(%rbp)
	.loc 8 733 0
	movq	16(%rbp), %rcx
	call	_ZN5boost9iterators6detail20iterator_facade_baseIN3dod7pointerI8particleINS3_6accessIJNS3_6memberIcLi0EEENS7_IiLi0EEENS7_IiLi1EEEEEEEEESC_NS0_27random_access_traversal_tagESC_xLb0ELb0EE7derivedEv
	movq	%rax, %rcx
	movq	24(%rbp), %rax
	movq	%rax, %rdx
	call	_ZN5boost9iterators20iterator_core_access7advanceIN3dod7pointerI8particleINS3_6accessIJNS3_6memberIcLi0EEENS7_IiLi0EEENS7_IiLi1EEEEEEEEEEEvRT_NSE_15difference_typeE
	.loc 8 734 0
	movq	16(%rbp), %rcx
	call	_ZN5boost9iterators6detail20iterator_facade_baseIN3dod7pointerI8particleINS3_6accessIJNS3_6memberIcLi0EEENS7_IiLi0EEENS7_IiLi1EEEEEEEEESC_NS0_27random_access_traversal_tagESC_xLb0ELb0EE7derivedEv
	.loc 8 735 0
	addq	$32, %rsp
	popq	%rbp
	.cfi_restore 6
	.cfi_def_cfa 7, 8
	ret
	.cfi_endproc
.LFE7309:
	.seh_endproc
	.weak	_ZN5boost9iterators6detail20iterator_facade_baseIN3dod7pointerI8particleINS3_6accessIINS3_6memberIcLi0EEENS7_IiLi0EEENS7_IiLi1EEEEEEEEESC_NS0_27random_access_traversal_tagESC_xLb1ELb1EEpLEx
	.def	_ZN5boost9iterators6detail20iterator_facade_baseIN3dod7pointerI8particleINS3_6accessIINS3_6memberIcLi0EEENS7_IiLi0EEENS7_IiLi1EEEEEEEEESC_NS0_27random_access_traversal_tagESC_xLb1ELb1EEpLEx;	.scl	2;	.type	32;	.endef
	.set	_ZN5boost9iterators6detail20iterator_facade_baseIN3dod7pointerI8particleINS3_6accessIINS3_6memberIcLi0EEENS7_IiLi0EEENS7_IiLi1EEEEEEEEESC_NS0_27random_access_traversal_tagESC_xLb1ELb1EEpLEx,_ZN5boost9iterators6detail20iterator_facade_baseIN3dod7pointerI8particleINS3_6accessIJNS3_6memberIcLi0EEENS7_IiLi0EEENS7_IiLi1EEEEEEEEESC_NS0_27random_access_traversal_tagESC_xLb1ELb1EEpLEx
	.section	.text$_ZN9__gnu_cxxneIP14plain_particleSt6vectorIS1_SaIS1_EEEEbRKNS_17__normal_iteratorIT_T0_EESB_,"x"
	.linkonce discard
	.globl	_ZN9__gnu_cxxneIP14plain_particleSt6vectorIS1_SaIS1_EEEEbRKNS_17__normal_iteratorIT_T0_EESB_
	.def	_ZN9__gnu_cxxneIP14plain_particleSt6vectorIS1_SaIS1_EEEEbRKNS_17__normal_iteratorIT_T0_EESB_;	.scl	2;	.type	32;	.endef
	.seh_proc	_ZN9__gnu_cxxneIP14plain_particleSt6vectorIS1_SaIS1_EEEEbRKNS_17__normal_iteratorIT_T0_EESB_
_ZN9__gnu_cxxneIP14plain_particleSt6vectorIS1_SaIS1_EEEEbRKNS_17__normal_iteratorIT_T0_EESB_:
.LFB7310:
	.loc 12 841 0
	.cfi_startproc
	pushq	%rbp
	.seh_pushreg	%rbp
	.cfi_def_cfa_offset 16
	.cfi_offset 6, -16
	pushq	%rbx
	.seh_pushreg	%rbx
	.cfi_def_cfa_offset 24
	.cfi_offset 3, -24
	subq	$40, %rsp
	.seh_stackalloc	40
	.cfi_def_cfa_offset 64
	leaq	128(%rsp), %rbp
	.seh_setframe	%rbp, 128
	.cfi_def_cfa 6, -64
	.seh_endprologue
	movq	%rcx, -64(%rbp)
	movq	%rdx, -56(%rbp)
	.loc 12 844 0
	movq	-64(%rbp), %rcx
	call	_ZNK9__gnu_cxx17__normal_iteratorIP14plain_particleSt6vectorIS1_SaIS1_EEE4baseEv
	movq	(%rax), %rbx
	movq	-56(%rbp), %rax
	movq	%rax, %rcx
	call	_ZNK9__gnu_cxx17__normal_iteratorIP14plain_particleSt6vectorIS1_SaIS1_EEE4baseEv
	movq	(%rax), %rax
	cmpq	%rax, %rbx
	setne	%al
	addq	$40, %rsp
	popq	%rbx
	.cfi_restore 3
	popq	%rbp
	.cfi_restore 6
	.cfi_def_cfa 7, -24
	ret
	.cfi_endproc
.LFE7310:
	.seh_endproc
	.section	.text$_ZN9__gnu_cxx17__normal_iteratorIP14plain_particleSt6vectorIS1_SaIS1_EEEppEi,"x"
	.linkonce discard
	.align 2
	.globl	_ZN9__gnu_cxx17__normal_iteratorIP14plain_particleSt6vectorIS1_SaIS1_EEEppEi
	.def	_ZN9__gnu_cxx17__normal_iteratorIP14plain_particleSt6vectorIS1_SaIS1_EEEppEi;	.scl	2;	.type	32;	.endef
	.seh_proc	_ZN9__gnu_cxx17__normal_iteratorIP14plain_particleSt6vectorIS1_SaIS1_EEEppEi
_ZN9__gnu_cxx17__normal_iteratorIP14plain_particleSt6vectorIS1_SaIS1_EEEppEi:
.LFB7311:
	.loc 12 768 0
	.cfi_startproc
	pushq	%rbp
	.seh_pushreg	%rbp
	.cfi_def_cfa_offset 16
	.cfi_offset 6, -16
	movq	%rsp, %rbp
	.seh_setframe	%rbp, 0
	.cfi_def_cfa_register 6
	subq	$48, %rsp
	.seh_stackalloc	48
	.seh_endprologue
	movq	%rcx, 16(%rbp)
	movl	%edx, 24(%rbp)
	.loc 12 769 0
	movq	16(%rbp), %rax
	movq	(%rax), %rax
	leaq	20(%rax), %rcx
	movq	16(%rbp), %rdx
	movq	%rcx, (%rdx)
	movq	%rax, -8(%rbp)
	leaq	-8(%rbp), %rdx
	leaq	-16(%rbp), %rax
	movq	%rax, %rcx
	call	_ZN9__gnu_cxx17__normal_iteratorIP14plain_particleSt6vectorIS1_SaIS1_EEEC1ERKS2_
	movq	-16(%rbp), %rax
	addq	$48, %rsp
	popq	%rbp
	.cfi_restore 6
	.cfi_def_cfa 7, 8
	ret
	.cfi_endproc
.LFE7311:
	.seh_endproc
	.section	.text$_ZNK9__gnu_cxx17__normal_iteratorIP14plain_particleSt6vectorIS1_SaIS1_EEEptEv,"x"
	.linkonce discard
	.align 2
	.globl	_ZNK9__gnu_cxx17__normal_iteratorIP14plain_particleSt6vectorIS1_SaIS1_EEEptEv
	.def	_ZNK9__gnu_cxx17__normal_iteratorIP14plain_particleSt6vectorIS1_SaIS1_EEEptEv;	.scl	2;	.type	32;	.endef
	.seh_proc	_ZNK9__gnu_cxx17__normal_iteratorIP14plain_particleSt6vectorIS1_SaIS1_EEEptEv
_ZNK9__gnu_cxx17__normal_iteratorIP14plain_particleSt6vectorIS1_SaIS1_EEEptEv:
.LFB7312:
	.loc 12 757 0
	.cfi_startproc
	pushq	%rbp
	.seh_pushreg	%rbp
	.cfi_def_cfa_offset 16
	.cfi_offset 6, -16
	movq	%rsp, %rbp
	.seh_setframe	%rbp, 0
	.cfi_def_cfa_register 6
	.seh_endprologue
	movq	%rcx, 16(%rbp)
	.loc 12 758 0
	movq	16(%rbp), %rax
	movq	(%rax), %rax
	popq	%rbp
	.cfi_restore 6
	.cfi_def_cfa 7, 8
	ret
	.cfi_endproc
.LFE7312:
	.seh_endproc
	.section	.text$_ZNKSt6chrono8durationIxSt5ratioILx1ELx1000EEE5countEv,"x"
	.linkonce discard
	.align 2
	.globl	_ZNKSt6chrono8durationIxSt5ratioILx1ELx1000EEE5countEv
	.def	_ZNKSt6chrono8durationIxSt5ratioILx1ELx1000EEE5countEv;	.scl	2;	.type	32;	.endef
	.seh_proc	_ZNKSt6chrono8durationIxSt5ratioILx1ELx1000EEE5countEv
_ZNKSt6chrono8durationIxSt5ratioILx1ELx1000EEE5countEv:
.LFB7321:
	.loc 4 278 0
	.cfi_startproc
	pushq	%rbp
	.seh_pushreg	%rbp
	.cfi_def_cfa_offset 16
	.cfi_offset 6, -16
	movq	%rsp, %rbp
	.seh_setframe	%rbp, 0
	.cfi_def_cfa_register 6
	.seh_endprologue
	movq	%rcx, 16(%rbp)
	.loc 4 279 0
	movq	16(%rbp), %rax
	movq	(%rax), %rax
	popq	%rbp
	.cfi_restore 6
	.cfi_def_cfa 7, 8
	ret
	.cfi_endproc
.LFE7321:
	.seh_endproc
	.section	.text$_ZNSt6chrono20__duration_cast_implINS_8durationIxSt5ratioILx1ELx1000000000EEEES2_ILx1000000ELx1EExLb0ELb1EE6__castIxS2_ILx1ELx1000EEEES4_RKNS1_IT_T0_EE,"x"
	.linkonce discard
	.globl	_ZNSt6chrono20__duration_cast_implINS_8durationIxSt5ratioILx1ELx1000000000EEEES2_ILx1000000ELx1EExLb0ELb1EE6__castIxS2_ILx1ELx1000EEEES4_RKNS1_IT_T0_EE
	.def	_ZNSt6chrono20__duration_cast_implINS_8durationIxSt5ratioILx1ELx1000000000EEEES2_ILx1000000ELx1EExLb0ELb1EE6__castIxS2_ILx1ELx1000EEEES4_RKNS1_IT_T0_EE;	.scl	2;	.type	32;	.endef
	.seh_proc	_ZNSt6chrono20__duration_cast_implINS_8durationIxSt5ratioILx1ELx1000000000EEEES2_ILx1000000ELx1EExLb0ELb1EE6__castIxS2_ILx1ELx1000EEEES4_RKNS1_IT_T0_EE
_ZNSt6chrono20__duration_cast_implINS_8durationIxSt5ratioILx1ELx1000000000EEEES2_ILx1000000ELx1EExLb0ELb1EE6__castIxS2_ILx1ELx1000EEEES4_RKNS1_IT_T0_EE:
.LFB7320:
	.loc 4 172 0
	.cfi_startproc
	pushq	%rbp
	.seh_pushreg	%rbp
	.cfi_def_cfa_offset 16
	.cfi_offset 6, -16
	movq	%rsp, %rbp
	.seh_setframe	%rbp, 0
	.cfi_def_cfa_register 6
	subq	$48, %rsp
	.seh_stackalloc	48
	.seh_endprologue
	movq	%rcx, 16(%rbp)
	.loc 4 176 0
	movq	16(%rbp), %rcx
	call	_ZNKSt6chrono8durationIxSt5ratioILx1ELx1000EEE5countEv
	imulq	$1000000, %rax, %rax
	movq	%rax, -8(%rbp)
	leaq	-8(%rbp), %rdx
	leaq	-16(%rbp), %rax
	movq	%rax, %rcx
	call	_ZNSt6chrono8durationIxSt5ratioILx1ELx1000000000EEEC1IxvEERKT_
	movq	-16(%rbp), %rax
	.loc 4 177 0
	addq	$48, %rsp
	popq	%rbp
	.cfi_restore 6
	.cfi_def_cfa 7, 8
	ret
	.cfi_endproc
.LFE7320:
	.seh_endproc
	.section	.text$_ZNSt6chrono13duration_castINS_8durationIxSt5ratioILx1ELx1000000000EEEExS2_ILx1ELx1000EEEENSt9enable_ifIXsrNS_13__is_durationIT_EE5valueES8_E4typeERKNS1_IT0_T1_EE,"x"
	.linkonce discard
	.globl	_ZNSt6chrono13duration_castINS_8durationIxSt5ratioILx1ELx1000000000EEEExS2_ILx1ELx1000EEEENSt9enable_ifIXsrNS_13__is_durationIT_EE5valueES8_E4typeERKNS1_IT0_T1_EE
	.def	_ZNSt6chrono13duration_castINS_8durationIxSt5ratioILx1ELx1000000000EEEExS2_ILx1ELx1000EEEENSt9enable_ifIXsrNS_13__is_durationIT_EE5valueES8_E4typeERKNS1_IT0_T1_EE;	.scl	2;	.type	32;	.endef
	.seh_proc	_ZNSt6chrono13duration_castINS_8durationIxSt5ratioILx1ELx1000000000EEEExS2_ILx1ELx1000EEEENSt9enable_ifIXsrNS_13__is_durationIT_EE5valueES8_E4typeERKNS1_IT0_T1_EE
_ZNSt6chrono13duration_castINS_8durationIxSt5ratioILx1ELx1000000000EEEExS2_ILx1ELx1000EEEENSt9enable_ifIXsrNS_13__is_durationIT_EE5valueES8_E4typeERKNS1_IT0_T1_EE:
.LFB7319:
	.loc 4 194 0
	.cfi_startproc
	pushq	%rbp
	.seh_pushreg	%rbp
	.cfi_def_cfa_offset 16
	.cfi_offset 6, -16
	movq	%rsp, %rbp
	.seh_setframe	%rbp, 0
	.cfi_def_cfa_register 6
	subq	$32, %rsp
	.seh_stackalloc	32
	.seh_endprologue
	movq	%rcx, 16(%rbp)
	.loc 4 203 0
	movq	16(%rbp), %rcx
	call	_ZNSt6chrono20__duration_cast_implINS_8durationIxSt5ratioILx1ELx1000000000EEEES2_ILx1000000ELx1EExLb0ELb1EE6__castIxS2_ILx1ELx1000EEEES4_RKNS1_IT_T0_EE
	.loc 4 204 0
	addq	$32, %rsp
	popq	%rbp
	.cfi_restore 6
	.cfi_def_cfa 7, 8
	ret
	.cfi_endproc
.LFE7319:
	.seh_endproc
	.section	.text$_ZNSt6chrono8durationIxSt5ratioILx1ELx1000000000EEEC1IxS1_ILx1ELx1000EEvEERKNS0_IT_T0_EE,"x"
	.linkonce discard
	.align 2
	.globl	_ZNSt6chrono8durationIxSt5ratioILx1ELx1000000000EEEC1IxS1_ILx1ELx1000EEvEERKNS0_IT_T0_EE
	.def	_ZNSt6chrono8durationIxSt5ratioILx1ELx1000000000EEEC1IxS1_ILx1ELx1000EEvEERKNS0_IT_T0_EE;	.scl	2;	.type	32;	.endef
	.seh_proc	_ZNSt6chrono8durationIxSt5ratioILx1ELx1000000000EEEC1IxS1_ILx1ELx1000EEvEERKNS0_IT_T0_EE
_ZNSt6chrono8durationIxSt5ratioILx1ELx1000000000EEEC1IxS1_ILx1ELx1000EEvEERKNS0_IT_T0_EE:
.LFB7323:
	.loc 4 270 0
	.cfi_startproc
	pushq	%rbp
	.seh_pushreg	%rbp
	.cfi_def_cfa_offset 16
	.cfi_offset 6, -16
	movq	%rsp, %rbp
	.seh_setframe	%rbp, 0
	.cfi_def_cfa_register 6
	subq	$48, %rsp
	.seh_stackalloc	48
	.seh_endprologue
	movq	%rcx, 16(%rbp)
	movq	%rdx, 24(%rbp)
.LBB75:
	.loc 4 271 0
	movq	24(%rbp), %rax
	movq	%rax, %rcx
	call	_ZNSt6chrono13duration_castINS_8durationIxSt5ratioILx1ELx1000000000EEEExS2_ILx1ELx1000EEEENSt9enable_ifIXsrNS_13__is_durationIT_EE5valueES8_E4typeERKNS1_IT0_T1_EE
	movq	%rax, -16(%rbp)
	leaq	-16(%rbp), %rax
	movq	%rax, %rcx
	call	_ZNKSt6chrono8durationIxSt5ratioILx1ELx1000000000EEE5countEv
	movq	%rax, %rdx
	movq	16(%rbp), %rax
	movq	%rdx, (%rax)
.LBE75:
	nop
	addq	$48, %rsp
	popq	%rbp
	.cfi_restore 6
	.cfi_def_cfa 7, 8
	ret
	.cfi_endproc
.LFE7323:
	.seh_endproc
	.section	.text$_ZNSt6chronoltIxSt5ratioILx1ELx1000000000EExS1_ILx1ELx1000EEEEbRKNS_8durationIT_T0_EERKNS4_IT1_T2_EE,"x"
	.linkonce discard
	.globl	_ZNSt6chronoltIxSt5ratioILx1ELx1000000000EExS1_ILx1ELx1000EEEEbRKNS_8durationIT_T0_EERKNS4_IT1_T2_EE
	.def	_ZNSt6chronoltIxSt5ratioILx1ELx1000000000EExS1_ILx1ELx1000EEEEbRKNS_8durationIT_T0_EERKNS4_IT1_T2_EE;	.scl	2;	.type	32;	.endef
	.seh_proc	_ZNSt6chronoltIxSt5ratioILx1ELx1000000000EExS1_ILx1ELx1000EEEEbRKNS_8durationIT_T0_EERKNS4_IT1_T2_EE
_ZNSt6chronoltIxSt5ratioILx1ELx1000000000EExS1_ILx1ELx1000EEEEbRKNS_8durationIT_T0_EERKNS4_IT1_T2_EE:
.LFB7317:
	.loc 4 489 0
	.cfi_startproc
	pushq	%rbp
	.seh_pushreg	%rbp
	.cfi_def_cfa_offset 16
	.cfi_offset 6, -16
	pushq	%rbx
	.seh_pushreg	%rbx
	.cfi_def_cfa_offset 24
	.cfi_offset 3, -24
	subq	$72, %rsp
	.seh_stackalloc	72
	.cfi_def_cfa_offset 96
	leaq	128(%rsp), %rbp
	.seh_setframe	%rbp, 128
	.cfi_def_cfa 6, -32
	.seh_endprologue
	movq	%rcx, -32(%rbp)
	movq	%rdx, -24(%rbp)
	.loc 4 495 0
	movq	-32(%rbp), %rax
	movq	(%rax), %rax
	movq	%rax, -96(%rbp)
	leaq	-96(%rbp), %rax
	movq	%rax, %rcx
	call	_ZNKSt6chrono8durationIxSt5ratioILx1ELx1000000000EEE5countEv
	movq	%rax, %rbx
	movq	-24(%rbp), %rdx
	leaq	-80(%rbp), %rax
	movq	%rax, %rcx
	call	_ZNSt6chrono8durationIxSt5ratioILx1ELx1000000000EEEC1IxS1_ILx1ELx1000EEvEERKNS0_IT_T0_EE
	leaq	-80(%rbp), %rax
	movq	%rax, %rcx
	call	_ZNKSt6chrono8durationIxSt5ratioILx1ELx1000000000EEE5countEv
	cmpq	%rax, %rbx
	setl	%al
	.loc 4 496 0
	addq	$72, %rsp
	popq	%rbx
	.cfi_restore 3
	popq	%rbp
	.cfi_restore 6
	.cfi_def_cfa 7, -56
	ret
	.cfi_endproc
.LFE7317:
	.seh_endproc
	.section	.text$_ZNSt6chrono8durationIdSt5ratioILx1ELx1EEEC1IdvEERKT_,"x"
	.linkonce discard
	.align 2
	.globl	_ZNSt6chrono8durationIdSt5ratioILx1ELx1EEEC1IdvEERKT_
	.def	_ZNSt6chrono8durationIdSt5ratioILx1ELx1EEEC1IdvEERKT_;	.scl	2;	.type	32;	.endef
	.seh_proc	_ZNSt6chrono8durationIdSt5ratioILx1ELx1EEEC1IdvEERKT_
_ZNSt6chrono8durationIdSt5ratioILx1ELx1EEEC1IdvEERKT_:
.LFB7328:
	.loc 4 263 0
	.cfi_startproc
	pushq	%rbp
	.seh_pushreg	%rbp
	.cfi_def_cfa_offset 16
	.cfi_offset 6, -16
	movq	%rsp, %rbp
	.seh_setframe	%rbp, 0
	.cfi_def_cfa_register 6
	.seh_endprologue
	movq	%rcx, 16(%rbp)
	movq	%rdx, 24(%rbp)
.LBB76:
	.loc 4 264 0
	movq	24(%rbp), %rax
	movsd	(%rax), %xmm0
	movq	16(%rbp), %rax
	movsd	%xmm0, (%rax)
.LBE76:
	nop
	popq	%rbp
	.cfi_restore 6
	.cfi_def_cfa 7, 8
	ret
	.cfi_endproc
.LFE7328:
	.seh_endproc
	.section	.text$_ZNSt6chrono20__duration_cast_implINS_8durationIdSt5ratioILx1ELx1EEEES2_ILx1ELx1000000000EEdLb1ELb0EE6__castIxS5_EES4_RKNS1_IT_T0_EE,"x"
	.linkonce discard
	.globl	_ZNSt6chrono20__duration_cast_implINS_8durationIdSt5ratioILx1ELx1EEEES2_ILx1ELx1000000000EEdLb1ELb0EE6__castIxS5_EES4_RKNS1_IT_T0_EE
	.def	_ZNSt6chrono20__duration_cast_implINS_8durationIdSt5ratioILx1ELx1EEEES2_ILx1ELx1000000000EEdLb1ELb0EE6__castIxS5_EES4_RKNS1_IT_T0_EE;	.scl	2;	.type	32;	.endef
	.seh_proc	_ZNSt6chrono20__duration_cast_implINS_8durationIdSt5ratioILx1ELx1EEEES2_ILx1ELx1000000000EEdLb1ELb0EE6__castIxS5_EES4_RKNS1_IT_T0_EE
_ZNSt6chrono20__duration_cast_implINS_8durationIdSt5ratioILx1ELx1EEEES2_ILx1ELx1000000000EEdLb1ELb0EE6__castIxS5_EES4_RKNS1_IT_T0_EE:
.LFB7325:
	.loc 4 159 0
	.cfi_startproc
	pushq	%rbp
	.seh_pushreg	%rbp
	.cfi_def_cfa_offset 16
	.cfi_offset 6, -16
	movq	%rsp, %rbp
	.seh_setframe	%rbp, 0
	.cfi_def_cfa_register 6
	subq	$48, %rsp
	.seh_stackalloc	48
	.seh_endprologue
	movq	%rcx, 16(%rbp)
	.loc 4 163 0
	movq	16(%rbp), %rcx
	call	_ZNKSt6chrono8durationIxSt5ratioILx1ELx1000000000EEE5countEv
	pxor	%xmm0, %xmm0
	cvtsi2sdq	%rax, %xmm0
	movsd	.LC5(%rip), %xmm1
	divsd	%xmm1, %xmm0
	movsd	%xmm0, -8(%rbp)
	leaq	-8(%rbp), %rdx
	leaq	-16(%rbp), %rax
	movq	%rax, %rcx
	call	_ZNSt6chrono8durationIdSt5ratioILx1ELx1EEEC1IdvEERKT_
	movsd	-16(%rbp), %xmm0
	movq	%xmm0, %rax
	.loc 4 164 0
	movq	%rax, %xmm0
	addq	$48, %rsp
	popq	%rbp
	.cfi_restore 6
	.cfi_def_cfa 7, 8
	ret
	.cfi_endproc
.LFE7325:
	.seh_endproc
	.section	.text$_ZNSt6chrono13duration_castINS_8durationIdSt5ratioILx1ELx1EEEExS2_ILx1ELx1000000000EEEENSt9enable_ifIXsrNS_13__is_durationIT_EE5valueES8_E4typeERKNS1_IT0_T1_EE,"x"
	.linkonce discard
	.globl	_ZNSt6chrono13duration_castINS_8durationIdSt5ratioILx1ELx1EEEExS2_ILx1ELx1000000000EEEENSt9enable_ifIXsrNS_13__is_durationIT_EE5valueES8_E4typeERKNS1_IT0_T1_EE
	.def	_ZNSt6chrono13duration_castINS_8durationIdSt5ratioILx1ELx1EEEExS2_ILx1ELx1000000000EEEENSt9enable_ifIXsrNS_13__is_durationIT_EE5valueES8_E4typeERKNS1_IT0_T1_EE;	.scl	2;	.type	32;	.endef
	.seh_proc	_ZNSt6chrono13duration_castINS_8durationIdSt5ratioILx1ELx1EEEExS2_ILx1ELx1000000000EEEENSt9enable_ifIXsrNS_13__is_durationIT_EE5valueES8_E4typeERKNS1_IT0_T1_EE
_ZNSt6chrono13duration_castINS_8durationIdSt5ratioILx1ELx1EEEExS2_ILx1ELx1000000000EEEENSt9enable_ifIXsrNS_13__is_durationIT_EE5valueES8_E4typeERKNS1_IT0_T1_EE:
.LFB7324:
	.loc 4 194 0
	.cfi_startproc
	pushq	%rbp
	.seh_pushreg	%rbp
	.cfi_def_cfa_offset 16
	.cfi_offset 6, -16
	movq	%rsp, %rbp
	.seh_setframe	%rbp, 0
	.cfi_def_cfa_register 6
	subq	$32, %rsp
	.seh_stackalloc	32
	.seh_endprologue
	movq	%rcx, 16(%rbp)
	.loc 4 203 0
	movq	16(%rbp), %rcx
	call	_ZNSt6chrono20__duration_cast_implINS_8durationIdSt5ratioILx1ELx1EEEES2_ILx1ELx1000000000EEdLb1ELb0EE6__castIxS5_EES4_RKNS1_IT_T0_EE
	movq	%xmm0, %rax
	.loc 4 204 0
	movq	%rax, %xmm0
	addq	$32, %rsp
	popq	%rbp
	.cfi_restore 6
	.cfi_def_cfa 7, 8
	ret
	.cfi_endproc
.LFE7324:
	.seh_endproc
	.section	.text$_ZNKSt6chrono8durationIdSt5ratioILx1ELx1EEE5countEv,"x"
	.linkonce discard
	.align 2
	.globl	_ZNKSt6chrono8durationIdSt5ratioILx1ELx1EEE5countEv
	.def	_ZNKSt6chrono8durationIdSt5ratioILx1ELx1EEE5countEv;	.scl	2;	.type	32;	.endef
	.seh_proc	_ZNKSt6chrono8durationIdSt5ratioILx1ELx1EEE5countEv
_ZNKSt6chrono8durationIdSt5ratioILx1ELx1EEE5countEv:
.LFB7329:
	.loc 4 278 0
	.cfi_startproc
	pushq	%rbp
	.seh_pushreg	%rbp
	.cfi_def_cfa_offset 16
	.cfi_offset 6, -16
	movq	%rsp, %rbp
	.seh_setframe	%rbp, 0
	.cfi_def_cfa_register 6
	.seh_endprologue
	movq	%rcx, 16(%rbp)
	.loc 4 279 0
	movq	16(%rbp), %rax
	movsd	(%rax), %xmm0
	movq	%xmm0, %rax
	movq	%rax, %xmm0
	popq	%rbp
	.cfi_restore 6
	.cfi_def_cfa 7, 8
	ret
	.cfi_endproc
.LFE7329:
	.seh_endproc
	.section	.text$_ZNKSt5arrayIdLy10EE4sizeEv,"x"
	.linkonce discard
	.align 2
	.globl	_ZNKSt5arrayIdLy10EE4sizeEv
	.def	_ZNKSt5arrayIdLy10EE4sizeEv;	.scl	2;	.type	32;	.endef
	.seh_proc	_ZNKSt5arrayIdLy10EE4sizeEv
_ZNKSt5arrayIdLy10EE4sizeEv:
.LFB7330:
	.file 13 "c:/mingw/include/c++/5.1.0/array"
	.loc 13 162 0
	.cfi_startproc
	pushq	%rbp
	.seh_pushreg	%rbp
	.cfi_def_cfa_offset 16
	.cfi_offset 6, -16
	movq	%rsp, %rbp
	.seh_setframe	%rbp, 0
	.cfi_def_cfa_register 6
	.seh_endprologue
	movq	%rcx, 16(%rbp)
	.loc 13 162 0
	movl	$10, %eax
	popq	%rbp
	.cfi_restore 6
	.cfi_def_cfa 7, 8
	ret
	.cfi_endproc
.LFE7330:
	.seh_endproc
	.text
	.def	_Z7measureIZ4mainEUlvE_EdT_;	.scl	3;	.type	32;	.endef
	.seh_proc	_Z7measureIZ4mainEUlvE_EdT_
_Z7measureIZ4mainEUlvE_EdT_:
.LFB7313:
	.loc 5 17 0
	.cfi_startproc
	pushq	%rbp
	.seh_pushreg	%rbp
	.cfi_def_cfa_offset 16
	.cfi_offset 6, -16
	pushq	%rbx
	.seh_pushreg	%rbx
	.cfi_def_cfa_offset 24
	.cfi_offset 3, -24
	subq	$200, %rsp
	.seh_stackalloc	200
	.cfi_def_cfa_offset 224
	leaq	128(%rsp), %rbp
	.seh_setframe	%rbp, 128
	.cfi_def_cfa 6, 96
	.seh_endprologue
	movq	%rcx, %rbx
	movq	(%rbx), %rax
	movq	8(%rbx), %rdx
	movq	%rax, -96(%rbp)
	movq	%rdx, -88(%rbp)
.LBB77:
	.loc 5 26 0
	movl	$0, 60(%rbp)
.L253:
	.loc 5 26 0 is_stmt 0 discriminator 1
	cmpl	$9, 60(%rbp)
	jg	.L250
.LBB78:
	.loc 5 27 0 is_stmt 1
	movl	$0, 56(%rbp)
	.loc 5 28 0
	movq	$0, -80(%rbp)
	.loc 5 30 0
	call	_ZNSt6chrono3_V212system_clock3nowEv
	movq	%rax, measure_start(%rip)
.L252:
	.loc 5 32 0
	leaq	-96(%rbp), %rax
	movq	%rax, %rcx
	call	_ZZ4mainENKUlvE_clEv
	movl	%eax, _ZZ7measureIZ4mainEUlvE_EdT_E3res(%rip)
	.loc 5 33 0
	addl	$1, 56(%rbp)
	.loc 5 34 0
	call	_ZNSt6chrono3_V212system_clock3nowEv
	movq	%rax, -80(%rbp)
	.loc 5 35 0
	leaq	-80(%rbp), %rax
	leaq	measure_start(%rip), %rdx
	movq	%rax, %rcx
	call	_ZNSt6chronomiINS_3_V212system_clockENS_8durationIxSt5ratioILx1ELx1000000000EEEES6_EENSt11common_typeIJT0_T1_EE4typeERKNS_10time_pointIT_S8_EERKNSC_ISD_S9_EE
	movq	%rax, 16(%rbp)
	.loc 5 31 0
	leaq	16(%rbp), %rax
	leaq	_ZZ7measureIZ4mainEUlvE_EdT_E18min_time_per_trial(%rip), %rdx
	movq	%rax, %rcx
	call	_ZNSt6chronoltIxSt5ratioILx1ELx1000000000EExS1_ILx1ELx1000EEEEbRKNS_8durationIT_T0_EERKNS4_IT1_T2_EE
	testb	%al, %al
	je	.L251
	jmp	.L252
.L251:
	.loc 5 36 0 discriminator 2
	movl	60(%rbp), %eax
	movslq	%eax, %rdx
	leaq	-64(%rbp), %rax
	movq	%rax, %rcx
	call	_ZNSt5arrayIdLy10EEixEy
	movq	%rax, %rbx
	leaq	-80(%rbp), %rax
	leaq	measure_start(%rip), %rdx
	movq	%rax, %rcx
	call	_ZNSt6chronomiINS_3_V212system_clockENS_8durationIxSt5ratioILx1ELx1000000000EEEES6_EENSt11common_typeIJT0_T1_EE4typeERKNS_10time_pointIT_S8_EERKNSC_ISD_S9_EE
	movq	%rax, 48(%rbp)
	leaq	48(%rbp), %rax
	movq	%rax, %rcx
	call	_ZNSt6chrono13duration_castINS_8durationIdSt5ratioILx1ELx1EEEExS2_ILx1ELx1000000000EEEENSt9enable_ifIXsrNS_13__is_durationIT_EE5valueES8_E4typeERKNS1_IT0_T1_EE
	movq	%xmm0, %rax
	movq	%rax, %xmm0
	movsd	%xmm0, 32(%rbp)
	leaq	32(%rbp), %rax
	movq	%rax, %rcx
	call	_ZNKSt6chrono8durationIdSt5ratioILx1ELx1EEE5countEv
	movq	%xmm0, %rax
	pxor	%xmm0, %xmm0
	cvtsi2sd	56(%rbp), %xmm0
	movq	%rax, %xmm1
	divsd	%xmm0, %xmm1
	movapd	%xmm1, %xmm0
	movsd	%xmm0, (%rbx)
.LBE78:
	.loc 5 26 0 discriminator 2
	addl	$1, 60(%rbp)
	jmp	.L253
.L250:
.LBE77:
	.loc 5 40 0
	leaq	-64(%rbp), %rax
	movq	%rax, %rcx
	call	_ZNSt5arrayIdLy10EE3endEv
	movq	%rax, %rbx
	leaq	-64(%rbp), %rax
	movq	%rax, %rcx
	call	_ZNSt5arrayIdLy10EE5beginEv
	movq	%rbx, %rdx
	movq	%rax, %rcx
	call	_ZSt4sortIPdEvT_S1_
	.loc 5 42 0
	leaq	-64(%rbp), %rax
	movq	%rax, %rcx
	call	_ZNSt5arrayIdLy10EE3endEv
	.loc 5 41 0
	leaq	-16(%rax), %rbx
	.loc 5 42 0
	leaq	-64(%rbp), %rax
	movq	%rax, %rcx
	call	_ZNSt5arrayIdLy10EE5beginEv
	.loc 5 41 0
	addq	$16, %rax
	pxor	%xmm2, %xmm2
	movq	%rbx, %rdx
	movq	%rax, %rcx
	call	_ZSt10accumulateIPddET0_T_S2_S1_
	movq	%xmm0, %rbx
	.loc 5 42 0
	leaq	-64(%rbp), %rax
	movq	%rax, %rcx
	call	_ZNKSt5arrayIdLy10EE4sizeEv
	subq	$4, %rax
	testq	%rax, %rax
	js	.L254
	pxor	%xmm0, %xmm0
	cvtsi2sdq	%rax, %xmm0
	jmp	.L255
.L254:
	movq	%rax, %rdx
	shrq	%rdx
	andl	$1, %eax
	orq	%rax, %rdx
	pxor	%xmm0, %xmm0
	cvtsi2sdq	%rdx, %xmm0
	addsd	%xmm0, %xmm0
.L255:
	movq	%rbx, %xmm3
	divsd	%xmm0, %xmm3
	movapd	%xmm3, %xmm0
	movq	%xmm0, %rax
	.loc 5 43 0
	movq	%rax, %xmm0
	addq	$200, %rsp
	popq	%rbx
	.cfi_restore 3
	popq	%rbp
	.cfi_restore 6
	.cfi_def_cfa 7, -184
	ret
	.cfi_endproc
.LFE7313:
	.seh_endproc
	.def	_Z7measureIZ4mainEUlvE0_EdT_;	.scl	3;	.type	32;	.endef
	.seh_proc	_Z7measureIZ4mainEUlvE0_EdT_
_Z7measureIZ4mainEUlvE0_EdT_:
.LFB7331:
	.loc 5 17 0
	.cfi_startproc
	pushq	%rbp
	.seh_pushreg	%rbp
	.cfi_def_cfa_offset 16
	.cfi_offset 6, -16
	pushq	%rsi
	.seh_pushreg	%rsi
	.cfi_def_cfa_offset 24
	.cfi_offset 4, -24
	pushq	%rbx
	.seh_pushreg	%rbx
	.cfi_def_cfa_offset 32
	.cfi_offset 3, -32
	movq	%rsp, %rbp
	.seh_setframe	%rbp, 0
	.cfi_def_cfa_register 6
	subq	$176, %rsp
	.seh_stackalloc	176
	.seh_endprologue
	movq	%rcx, %rsi
.LBB79:
	.loc 5 26 0
	movl	$0, -4(%rbp)
.L261:
	.loc 5 26 0 is_stmt 0 discriminator 1
	cmpl	$9, -4(%rbp)
	jg	.L258
.LBB80:
	.loc 5 27 0 is_stmt 1
	movl	$0, -8(%rbp)
	.loc 5 28 0
	movq	$0, -144(%rbp)
	.loc 5 30 0
	call	_ZNSt6chrono3_V212system_clock3nowEv
	movq	%rax, measure_start(%rip)
.L260:
	.loc 5 32 0
	movq	%rsi, %rcx
	call	_ZZ4mainENKUlvE0_clEv
	movl	%eax, _ZZ7measureIZ4mainEUlvE0_EdT_E3res(%rip)
	.loc 5 33 0
	addl	$1, -8(%rbp)
	.loc 5 34 0
	call	_ZNSt6chrono3_V212system_clock3nowEv
	movq	%rax, -144(%rbp)
	.loc 5 35 0
	leaq	-144(%rbp), %rax
	leaq	measure_start(%rip), %rdx
	movq	%rax, %rcx
	call	_ZNSt6chronomiINS_3_V212system_clockENS_8durationIxSt5ratioILx1ELx1000000000EEEES6_EENSt11common_typeIJT0_T1_EE4typeERKNS_10time_pointIT_S8_EERKNSC_ISD_S9_EE
	movq	%rax, -48(%rbp)
	.loc 5 31 0
	leaq	-48(%rbp), %rax
	leaq	_ZZ7measureIZ4mainEUlvE0_EdT_E18min_time_per_trial(%rip), %rdx
	movq	%rax, %rcx
	call	_ZNSt6chronoltIxSt5ratioILx1ELx1000000000EExS1_ILx1ELx1000EEEEbRKNS_8durationIT_T0_EERKNS4_IT1_T2_EE
	testb	%al, %al
	je	.L259
	jmp	.L260
.L259:
	.loc 5 36 0 discriminator 2
	movl	-4(%rbp), %eax
	movslq	%eax, %rdx
	leaq	-128(%rbp), %rax
	movq	%rax, %rcx
	call	_ZNSt5arrayIdLy10EEixEy
	movq	%rax, %rbx
	leaq	-144(%rbp), %rax
	leaq	measure_start(%rip), %rdx
	movq	%rax, %rcx
	call	_ZNSt6chronomiINS_3_V212system_clockENS_8durationIxSt5ratioILx1ELx1000000000EEEES6_EENSt11common_typeIJT0_T1_EE4typeERKNS_10time_pointIT_S8_EERKNSC_ISD_S9_EE
	movq	%rax, -16(%rbp)
	leaq	-16(%rbp), %rax
	movq	%rax, %rcx
	call	_ZNSt6chrono13duration_castINS_8durationIdSt5ratioILx1ELx1EEEExS2_ILx1ELx1000000000EEEENSt9enable_ifIXsrNS_13__is_durationIT_EE5valueES8_E4typeERKNS1_IT0_T1_EE
	movq	%xmm0, %rax
	movq	%rax, %xmm0
	movsd	%xmm0, -32(%rbp)
	leaq	-32(%rbp), %rax
	movq	%rax, %rcx
	call	_ZNKSt6chrono8durationIdSt5ratioILx1ELx1EEE5countEv
	movq	%xmm0, %rax
	pxor	%xmm0, %xmm0
	cvtsi2sd	-8(%rbp), %xmm0
	movq	%rax, %xmm1
	divsd	%xmm0, %xmm1
	movapd	%xmm1, %xmm0
	movsd	%xmm0, (%rbx)
.LBE80:
	.loc 5 26 0 discriminator 2
	addl	$1, -4(%rbp)
	jmp	.L261
.L258:
.LBE79:
	.loc 5 40 0
	leaq	-128(%rbp), %rax
	movq	%rax, %rcx
	call	_ZNSt5arrayIdLy10EE3endEv
	movq	%rax, %rbx
	leaq	-128(%rbp), %rax
	movq	%rax, %rcx
	call	_ZNSt5arrayIdLy10EE5beginEv
	movq	%rbx, %rdx
	movq	%rax, %rcx
	call	_ZSt4sortIPdEvT_S1_
	.loc 5 42 0
	leaq	-128(%rbp), %rax
	movq	%rax, %rcx
	call	_ZNSt5arrayIdLy10EE3endEv
	.loc 5 41 0
	leaq	-16(%rax), %rbx
	.loc 5 42 0
	leaq	-128(%rbp), %rax
	movq	%rax, %rcx
	call	_ZNSt5arrayIdLy10EE5beginEv
	.loc 5 41 0
	addq	$16, %rax
	pxor	%xmm2, %xmm2
	movq	%rbx, %rdx
	movq	%rax, %rcx
	call	_ZSt10accumulateIPddET0_T_S2_S1_
	movq	%xmm0, %rbx
	.loc 5 42 0
	leaq	-128(%rbp), %rax
	movq	%rax, %rcx
	call	_ZNKSt5arrayIdLy10EE4sizeEv
	subq	$4, %rax
	testq	%rax, %rax
	js	.L262
	pxor	%xmm0, %xmm0
	cvtsi2sdq	%rax, %xmm0
	jmp	.L263
.L262:
	movq	%rax, %rdx
	shrq	%rdx
	andl	$1, %eax
	orq	%rax, %rdx
	pxor	%xmm0, %xmm0
	cvtsi2sdq	%rdx, %xmm0
	addsd	%xmm0, %xmm0
.L263:
	movq	%rbx, %xmm3
	divsd	%xmm0, %xmm3
	movapd	%xmm3, %xmm0
	movq	%xmm0, %rax
	.loc 5 43 0
	movq	%rax, %xmm0
	addq	$176, %rsp
	popq	%rbx
	.cfi_restore 3
	popq	%rsi
	.cfi_restore 4
	popq	%rbp
	.cfi_restore 6
	.cfi_def_cfa 7, 24
	ret
	.cfi_endproc
.LFE7331:
	.seh_endproc
	.section	.text$_ZN5boost9iteratorsneIN3dod7pointerI8particleINS2_6accessIJNS2_6memberIcLi0EEENS6_IiLi0EEENS6_IiLi1EEENS6_IiLi2EEENS6_IiLi3EEEEEEEEESD_NS0_27random_access_traversal_tagESD_xSE_SD_SF_SD_xEENS0_6detail23enable_if_interoperableIT_T4_NS_3mpl6apply2INSG_12always_bool2ESI_SJ_E4typeEE4typeERKNS0_15iterator_facadeISI_T0_T1_T2_T3_EERKNSR_ISJ_T5_T6_T7_T8_EE,"x"
	.linkonce discard
	.globl	_ZN5boost9iteratorsneIN3dod7pointerI8particleINS2_6accessIJNS2_6memberIcLi0EEENS6_IiLi0EEENS6_IiLi1EEENS6_IiLi2EEENS6_IiLi3EEEEEEEEESD_NS0_27random_access_traversal_tagESD_xSE_SD_SF_SD_xEENS0_6detail23enable_if_interoperableIT_T4_NS_3mpl6apply2INSG_12always_bool2ESI_SJ_E4typeEE4typeERKNS0_15iterator_facadeISI_T0_T1_T2_T3_EERKNSR_ISJ_T5_T6_T7_T8_EE
	.def	_ZN5boost9iteratorsneIN3dod7pointerI8particleINS2_6accessIJNS2_6memberIcLi0EEENS6_IiLi0EEENS6_IiLi1EEENS6_IiLi2EEENS6_IiLi3EEEEEEEEESD_NS0_27random_access_traversal_tagESD_xSE_SD_SF_SD_xEENS0_6detail23enable_if_interoperableIT_T4_NS_3mpl6apply2INSG_12always_bool2ESI_SJ_E4typeEE4typeERKNS0_15iterator_facadeISI_T0_T1_T2_T3_EERKNSR_ISJ_T5_T6_T7_T8_EE;	.scl	2;	.type	32;	.endef
	.seh_proc	_ZN5boost9iteratorsneIN3dod7pointerI8particleINS2_6accessIJNS2_6memberIcLi0EEENS6_IiLi0EEENS6_IiLi1EEENS6_IiLi2EEENS6_IiLi3EEEEEEEEESD_NS0_27random_access_traversal_tagESD_xSE_SD_SF_SD_xEENS0_6detail23enable_if_interoperableIT_T4_NS_3mpl6apply2INSG_12always_bool2ESI_SJ_E4typeEE4typeERKNS0_15iterator_facadeISI_T0_T1_T2_T3_EERKNSR_ISJ_T5_T6_T7_T8_EE
_ZN5boost9iteratorsneIN3dod7pointerI8particleINS2_6accessIJNS2_6memberIcLi0EEENS6_IiLi0EEENS6_IiLi1EEENS6_IiLi2EEENS6_IiLi3EEEEEEEEESD_NS0_27random_access_traversal_tagESD_xSE_SD_SF_SD_xEENS0_6detail23enable_if_interoperableIT_T4_NS_3mpl6apply2INSG_12always_bool2ESI_SJ_E4typeEE4typeERKNS0_15iterator_facadeISI_T0_T1_T2_T3_EERKNSR_ISJ_T5_T6_T7_T8_EE:
.LFB7332:
	.loc 8 891 0
	.cfi_startproc
	pushq	%rbp
	.seh_pushreg	%rbp
	.cfi_def_cfa_offset 16
	.cfi_offset 6, -16
	movq	%rsp, %rbp
	.seh_setframe	%rbp, 0
	.cfi_def_cfa_register 6
	subq	$48, %rsp
	.seh_stackalloc	48
	.seh_endprologue
	movq	%rcx, 16(%rbp)
	movq	%rdx, 24(%rbp)
	.loc 8 891 0
	movq	24(%rbp), %rax
	movq	%rax, %rdx
	movq	16(%rbp), %rcx
	call	_ZN5boost9iterators20iterator_core_access5equalIN3dod7pointerI8particleINS3_6accessIJNS3_6memberIcLi0EEENS7_IiLi0EEENS7_IiLi1EEENS7_IiLi2EEENS7_IiLi3EEEEEEEEESF_EEbRKT_RKT0_N4mpl_5bool_ILb1EEE
	xorl	$1, %eax
	addq	$48, %rsp
	popq	%rbp
	.cfi_restore 6
	.cfi_def_cfa 7, 8
	ret
	.cfi_endproc
.LFE7332:
	.seh_endproc
	.weak	_ZN5boost9iteratorsneIN3dod7pointerI8particleINS2_6accessIINS2_6memberIcLi0EEENS6_IiLi0EEENS6_IiLi1EEENS6_IiLi2EEENS6_IiLi3EEEEEEEEESD_NS0_27random_access_traversal_tagESD_xSE_SD_SF_SD_xEENS0_6detail23enable_if_interoperableIT_T4_NS_3mpl6apply2INSG_12always_bool2ESI_SJ_E4typeEE4typeERKNS0_15iterator_facadeISI_T0_T1_T2_T3_EERKNSR_ISJ_T5_T6_T7_T8_EE
	.def	_ZN5boost9iteratorsneIN3dod7pointerI8particleINS2_6accessIINS2_6memberIcLi0EEENS6_IiLi0EEENS6_IiLi1EEENS6_IiLi2EEENS6_IiLi3EEEEEEEEESD_NS0_27random_access_traversal_tagESD_xSE_SD_SF_SD_xEENS0_6detail23enable_if_interoperableIT_T4_NS_3mpl6apply2INSG_12always_bool2ESI_SJ_E4typeEE4typeERKNS0_15iterator_facadeISI_T0_T1_T2_T3_EERKNSR_ISJ_T5_T6_T7_T8_EE;	.scl	2;	.type	32;	.endef
	.set	_ZN5boost9iteratorsneIN3dod7pointerI8particleINS2_6accessIINS2_6memberIcLi0EEENS6_IiLi0EEENS6_IiLi1EEENS6_IiLi2EEENS6_IiLi3EEEEEEEEESD_NS0_27random_access_traversal_tagESD_xSE_SD_SF_SD_xEENS0_6detail23enable_if_interoperableIT_T4_NS_3mpl6apply2INSG_12always_bool2ESI_SJ_E4typeEE4typeERKNS0_15iterator_facadeISI_T0_T1_T2_T3_EERKNSR_ISJ_T5_T6_T7_T8_EE,_ZN5boost9iteratorsneIN3dod7pointerI8particleINS2_6accessIJNS2_6memberIcLi0EEENS6_IiLi0EEENS6_IiLi1EEENS6_IiLi2EEENS6_IiLi3EEEEEEEEESD_NS0_27random_access_traversal_tagESD_xSE_SD_SF_SD_xEENS0_6detail23enable_if_interoperableIT_T4_NS_3mpl6apply2INSG_12always_bool2ESI_SJ_E4typeEE4typeERKNS0_15iterator_facadeISI_T0_T1_T2_T3_EERKNSR_ISJ_T5_T6_T7_T8_EE
	.section	.text$_ZN5boost9iteratorsppIN3dod7pointerI8particleINS2_6accessIJNS2_6memberIcLi0EEENS6_IiLi0EEENS6_IiLi1EEENS6_IiLi2EEENS6_IiLi3EEEEEEEEESD_NS0_27random_access_traversal_tagESD_xEENS0_6detail24postfix_increment_resultIT_T0_T2_T1_E4typeERNS0_15iterator_facadeISI_SJ_SL_SK_T3_EEi,"x"
	.linkonce discard
	.globl	_ZN5boost9iteratorsppIN3dod7pointerI8particleINS2_6accessIJNS2_6memberIcLi0EEENS6_IiLi0EEENS6_IiLi1EEENS6_IiLi2EEENS6_IiLi3EEEEEEEEESD_NS0_27random_access_traversal_tagESD_xEENS0_6detail24postfix_increment_resultIT_T0_T2_T1_E4typeERNS0_15iterator_facadeISI_SJ_SL_SK_T3_EEi
	.def	_ZN5boost9iteratorsppIN3dod7pointerI8particleINS2_6accessIJNS2_6memberIcLi0EEENS6_IiLi0EEENS6_IiLi1EEENS6_IiLi2EEENS6_IiLi3EEEEEEEEESD_NS0_27random_access_traversal_tagESD_xEENS0_6detail24postfix_increment_resultIT_T0_T2_T1_E4typeERNS0_15iterator_facadeISI_SJ_SL_SK_T3_EEi;	.scl	2;	.type	32;	.endef
	.seh_proc	_ZN5boost9iteratorsppIN3dod7pointerI8particleINS2_6accessIJNS2_6memberIcLi0EEENS6_IiLi0EEENS6_IiLi1EEENS6_IiLi2EEENS6_IiLi3EEEEEEEEESD_NS0_27random_access_traversal_tagESD_xEENS0_6detail24postfix_increment_resultIT_T0_T2_T1_E4typeERNS0_15iterator_facadeISI_SJ_SL_SK_T3_EEi
_ZN5boost9iteratorsppIN3dod7pointerI8particleINS2_6accessIJNS2_6memberIcLi0EEENS6_IiLi0EEENS6_IiLi1EEENS6_IiLi2EEENS6_IiLi3EEEEEEEEESD_NS0_27random_access_traversal_tagESD_xEENS0_6detail24postfix_increment_resultIT_T0_T2_T1_E4typeERNS0_15iterator_facadeISI_SJ_SL_SK_T3_EEi:
.LFB7333:
	.loc 8 781 0
	.cfi_startproc
	pushq	%rbp
	.seh_pushreg	%rbp
	.cfi_def_cfa_offset 16
	.cfi_offset 6, -16
	movq	%rsp, %rbp
	.seh_setframe	%rbp, 0
	.cfi_def_cfa_register 6
	subq	$32, %rsp
	.seh_stackalloc	32
	.seh_endprologue
	movq	%rcx, 16(%rbp)
	movq	%rdx, 24(%rbp)
	movl	%r8d, 32(%rbp)
	.loc 8 787 0
	movq	16(%rbp), %rax
	movq	24(%rbp), %rdx
	movq	(%rdx), %rcx
	movq	%rcx, (%rax)
	movq	8(%rdx), %rcx
	movq	%rcx, 8(%rax)
	movq	16(%rdx), %rcx
	movq	%rcx, 16(%rax)
	movq	24(%rdx), %rcx
	movq	%rcx, 24(%rax)
	movq	32(%rdx), %rdx
	movq	%rdx, 32(%rax)
	.loc 8 789 0
	movq	24(%rbp), %rax
	movq	%rax, %rcx
	call	_ZN5boost9iterators6detail20iterator_facade_baseIN3dod7pointerI8particleINS3_6accessIJNS3_6memberIcLi0EEENS7_IiLi0EEENS7_IiLi1EEENS7_IiLi2EEENS7_IiLi3EEEEEEEEESE_NS0_27random_access_traversal_tagESE_xLb0ELb0EEppEv
	.loc 8 791 0
	nop
	.loc 8 792 0
	movq	16(%rbp), %rax
	addq	$32, %rsp
	popq	%rbp
	.cfi_restore 6
	.cfi_def_cfa 7, 8
	ret
	.cfi_endproc
.LFE7333:
	.seh_endproc
	.weak	_ZN5boost9iteratorsppIN3dod7pointerI8particleINS2_6accessIINS2_6memberIcLi0EEENS6_IiLi0EEENS6_IiLi1EEENS6_IiLi2EEENS6_IiLi3EEEEEEEEESD_NS0_27random_access_traversal_tagESD_xEENS0_6detail24postfix_increment_resultIT_T0_T2_T1_E4typeERNS0_15iterator_facadeISI_SJ_SL_SK_T3_EEi
	.def	_ZN5boost9iteratorsppIN3dod7pointerI8particleINS2_6accessIINS2_6memberIcLi0EEENS6_IiLi0EEENS6_IiLi1EEENS6_IiLi2EEENS6_IiLi3EEEEEEEEESD_NS0_27random_access_traversal_tagESD_xEENS0_6detail24postfix_increment_resultIT_T0_T2_T1_E4typeERNS0_15iterator_facadeISI_SJ_SL_SK_T3_EEi;	.scl	2;	.type	32;	.endef
	.set	_ZN5boost9iteratorsppIN3dod7pointerI8particleINS2_6accessIINS2_6memberIcLi0EEENS6_IiLi0EEENS6_IiLi1EEENS6_IiLi2EEENS6_IiLi3EEEEEEEEESD_NS0_27random_access_traversal_tagESD_xEENS0_6detail24postfix_increment_resultIT_T0_T2_T1_E4typeERNS0_15iterator_facadeISI_SJ_SL_SK_T3_EEi,_ZN5boost9iteratorsppIN3dod7pointerI8particleINS2_6accessIJNS2_6memberIcLi0EEENS6_IiLi0EEENS6_IiLi1EEENS6_IiLi2EEENS6_IiLi3EEEEEEEEESD_NS0_27random_access_traversal_tagESD_xEENS0_6detail24postfix_increment_resultIT_T0_T2_T1_E4typeERNS0_15iterator_facadeISI_SJ_SL_SK_T3_EEi
	.section	.text$_ZNK5boost9iterators6detail20iterator_facade_baseIN3dod7pointerI8particleINS3_6accessIJNS3_6memberIcLi0EEENS7_IiLi0EEENS7_IiLi1EEENS7_IiLi2EEENS7_IiLi3EEEEEEEEESE_NS0_27random_access_traversal_tagESE_xLb0ELb0EEptEv,"x"
	.linkonce discard
	.align 2
	.globl	_ZNK5boost9iterators6detail20iterator_facade_baseIN3dod7pointerI8particleINS3_6accessIJNS3_6memberIcLi0EEENS7_IiLi0EEENS7_IiLi1EEENS7_IiLi2EEENS7_IiLi3EEEEEEEEESE_NS0_27random_access_traversal_tagESE_xLb0ELb0EEptEv
	.def	_ZNK5boost9iterators6detail20iterator_facade_baseIN3dod7pointerI8particleINS3_6accessIJNS3_6memberIcLi0EEENS7_IiLi0EEENS7_IiLi1EEENS7_IiLi2EEENS7_IiLi3EEEEEEEEESE_NS0_27random_access_traversal_tagESE_xLb0ELb0EEptEv;	.scl	2;	.type	32;	.endef
	.seh_proc	_ZNK5boost9iterators6detail20iterator_facade_baseIN3dod7pointerI8particleINS3_6accessIJNS3_6memberIcLi0EEENS7_IiLi0EEENS7_IiLi1EEENS7_IiLi2EEENS7_IiLi3EEEEEEEEESE_NS0_27random_access_traversal_tagESE_xLb0ELb0EEptEv
_ZNK5boost9iterators6detail20iterator_facade_baseIN3dod7pointerI8particleINS3_6accessIJNS3_6memberIcLi0EEENS7_IiLi0EEENS7_IiLi1EEENS7_IiLi2EEENS7_IiLi3EEEEEEEEESE_NS0_27random_access_traversal_tagESE_xLb0ELb0EEptEv:
.LFB7334:
	.loc 8 649 0
	.cfi_startproc
	pushq	%rbp
	.seh_pushreg	%rbp
	.cfi_def_cfa_offset 16
	.cfi_offset 6, -16
	movq	%rsp, %rbp
	.seh_setframe	%rbp, 0
	.cfi_def_cfa_register 6
	subq	$80, %rsp
	.seh_stackalloc	80
	.seh_endprologue
	movq	%rcx, 16(%rbp)
	movq	%rdx, 24(%rbp)
	.loc 8 651 0
	movq	24(%rbp), %rax
	movq	%rax, %rcx
	call	_ZNK5boost9iterators6detail20iterator_facade_baseIN3dod7pointerI8particleINS3_6accessIJNS3_6memberIcLi0EEENS7_IiLi0EEENS7_IiLi1EEENS7_IiLi2EEENS7_IiLi3EEEEEEEEESE_NS0_27random_access_traversal_tagESE_xLb0ELb0EE7derivedEv
	movq	%rax, %rdx
	leaq	-48(%rbp), %rax
	movq	%rax, %rcx
	call	_ZNK5boost9iterators6detail20iterator_facade_baseIN3dod7pointerI8particleINS3_6accessIJNS3_6memberIcLi0EEENS7_IiLi0EEENS7_IiLi1EEENS7_IiLi2EEENS7_IiLi3EEEEEEEEESE_NS0_27random_access_traversal_tagESE_xLb0ELb0EEdeEv
	movq	16(%rbp), %rax
	leaq	-48(%rbp), %rdx
	movq	%rax, %rcx
	call	_ZN5boost9iterators6detail23operator_arrow_dispatchI8particleIN3dod6accessIJNS4_6memberIcLi0EEENS6_IiLi0EEENS6_IiLi1EEENS6_IiLi2EEENS6_IiLi3EEEEEEEPSD_E5applyERKSD_
	.loc 8 652 0
	movq	16(%rbp), %rax
	addq	$80, %rsp
	popq	%rbp
	.cfi_restore 6
	.cfi_def_cfa 7, 8
	ret
	.cfi_endproc
.LFE7334:
	.seh_endproc
	.weak	_ZNK5boost9iterators6detail20iterator_facade_baseIN3dod7pointerI8particleINS3_6accessIINS3_6memberIcLi0EEENS7_IiLi0EEENS7_IiLi1EEENS7_IiLi2EEENS7_IiLi3EEEEEEEEESE_NS0_27random_access_traversal_tagESE_xLb0ELb0EEptEv
	.def	_ZNK5boost9iterators6detail20iterator_facade_baseIN3dod7pointerI8particleINS3_6accessIINS3_6memberIcLi0EEENS7_IiLi0EEENS7_IiLi1EEENS7_IiLi2EEENS7_IiLi3EEEEEEEEESE_NS0_27random_access_traversal_tagESE_xLb0ELb0EEptEv;	.scl	2;	.type	32;	.endef
	.set	_ZNK5boost9iterators6detail20iterator_facade_baseIN3dod7pointerI8particleINS3_6accessIINS3_6memberIcLi0EEENS7_IiLi0EEENS7_IiLi1EEENS7_IiLi2EEENS7_IiLi3EEEEEEEEESE_NS0_27random_access_traversal_tagESE_xLb0ELb0EEptEv,_ZNK5boost9iterators6detail20iterator_facade_baseIN3dod7pointerI8particleINS3_6accessIJNS3_6memberIcLi0EEENS7_IiLi0EEENS7_IiLi1EEENS7_IiLi2EEENS7_IiLi3EEEEEEEEESE_NS0_27random_access_traversal_tagESE_xLb0ELb0EEptEv
	.section	.text$_ZN5boost9iterators6detail23operator_arrow_dispatchI8particleIN3dod6accessIJNS4_6memberIcLi0EEENS6_IiLi0EEENS6_IiLi1EEENS6_IiLi2EEENS6_IiLi3EEEEEEEPSD_E5proxyptEv,"x"
	.linkonce discard
	.align 2
	.globl	_ZN5boost9iterators6detail23operator_arrow_dispatchI8particleIN3dod6accessIJNS4_6memberIcLi0EEENS6_IiLi0EEENS6_IiLi1EEENS6_IiLi2EEENS6_IiLi3EEEEEEEPSD_E5proxyptEv
	.def	_ZN5boost9iterators6detail23operator_arrow_dispatchI8particleIN3dod6accessIJNS4_6memberIcLi0EEENS6_IiLi0EEENS6_IiLi1EEENS6_IiLi2EEENS6_IiLi3EEEEEEEPSD_E5proxyptEv;	.scl	2;	.type	32;	.endef
	.seh_proc	_ZN5boost9iterators6detail23operator_arrow_dispatchI8particleIN3dod6accessIJNS4_6memberIcLi0EEENS6_IiLi0EEENS6_IiLi1EEENS6_IiLi2EEENS6_IiLi3EEEEEEEPSD_E5proxyptEv
_ZN5boost9iterators6detail23operator_arrow_dispatchI8particleIN3dod6accessIJNS4_6memberIcLi0EEENS6_IiLi0EEENS6_IiLi1EEENS6_IiLi2EEENS6_IiLi3EEEEEEEPSD_E5proxyptEv:
.LFB7335:
	.loc 8 317 0
	.cfi_startproc
	pushq	%rbp
	.seh_pushreg	%rbp
	.cfi_def_cfa_offset 16
	.cfi_offset 6, -16
	movq	%rsp, %rbp
	.seh_setframe	%rbp, 0
	.cfi_def_cfa_register 6
	subq	$48, %rsp
	.seh_stackalloc	48
	.seh_endprologue
	movq	%rcx, 16(%rbp)
	.loc 8 317 0
	movq	16(%rbp), %rax
	movq	%rax, -8(%rbp)
	movq	-8(%rbp), %rax
	movq	%rax, -16(%rbp)
.LBB81:
.LBB82:
.LBB83:
.LBB84:
.LBB85:
	.file 14 "C:/MinGW/include/boost/core/addressof.hpp"
	.loc 14 29 0
	movq	-16(%rbp), %rax
	movq	%rax, -48(%rbp)
.LBE85:
.LBE84:
.LBE83:
.LBB86:
.LBB87:
	.loc 14 30 0
	movq	-48(%rbp), %rax
	movq	%rax, -24(%rbp)
	movl	$0, -28(%rbp)
.LBE87:
.LBE86:
.LBB88:
.LBB89:
	.loc 14 41 0
	movq	-24(%rbp), %rax
.LBE89:
.LBE88:
.LBE82:
.LBE81:
	.loc 8 317 0
	nop
	addq	$48, %rsp
	popq	%rbp
	.cfi_restore 6
	.cfi_def_cfa 7, 8
	ret
	.cfi_endproc
.LFE7335:
	.seh_endproc
	.weak	_ZN5boost9iterators6detail23operator_arrow_dispatchI8particleIN3dod6accessIINS4_6memberIcLi0EEENS6_IiLi0EEENS6_IiLi1EEENS6_IiLi2EEENS6_IiLi3EEEEEEEPSD_E5proxyptEv
	.def	_ZN5boost9iterators6detail23operator_arrow_dispatchI8particleIN3dod6accessIINS4_6memberIcLi0EEENS6_IiLi0EEENS6_IiLi1EEENS6_IiLi2EEENS6_IiLi3EEEEEEEPSD_E5proxyptEv;	.scl	2;	.type	32;	.endef
	.set	_ZN5boost9iterators6detail23operator_arrow_dispatchI8particleIN3dod6accessIINS4_6memberIcLi0EEENS6_IiLi0EEENS6_IiLi1EEENS6_IiLi2EEENS6_IiLi3EEEEEEEPSD_E5proxyptEv,_ZN5boost9iterators6detail23operator_arrow_dispatchI8particleIN3dod6accessIJNS4_6memberIcLi0EEENS6_IiLi0EEENS6_IiLi1EEENS6_IiLi2EEENS6_IiLi3EEEEEEEPSD_E5proxyptEv
	.section	.text$_ZNK8particleIN3dod6accessIJNS0_6memberIcLi0EEENS2_IiLi0EEENS2_IiLi1EEENS2_IiLi2EEENS2_IiLi3EEEEEEE6renderEv,"x"
	.linkonce discard
	.align 2
	.globl	_ZNK8particleIN3dod6accessIJNS0_6memberIcLi0EEENS2_IiLi0EEENS2_IiLi1EEENS2_IiLi2EEENS2_IiLi3EEEEEEE6renderEv
	.def	_ZNK8particleIN3dod6accessIJNS0_6memberIcLi0EEENS2_IiLi0EEENS2_IiLi1EEENS2_IiLi2EEENS2_IiLi3EEEEEEE6renderEv;	.scl	2;	.type	32;	.endef
	.seh_proc	_ZNK8particleIN3dod6accessIJNS0_6memberIcLi0EEENS2_IiLi0EEENS2_IiLi1EEENS2_IiLi2EEENS2_IiLi3EEEEEEE6renderEv
_ZNK8particleIN3dod6accessIJNS0_6memberIcLi0EEENS2_IiLi0EEENS2_IiLi1EEENS2_IiLi2EEENS2_IiLi3EEEEEEE6renderEv:
.LFB7336:
	.loc 5 225 0
	.cfi_startproc
	pushq	%rbp
	.seh_pushreg	%rbp
	.cfi_def_cfa_offset 16
	.cfi_offset 6, -16
	pushq	%rdi
	.seh_pushreg	%rdi
	.cfi_def_cfa_offset 24
	.cfi_offset 5, -24
	pushq	%rsi
	.seh_pushreg	%rsi
	.cfi_def_cfa_offset 32
	.cfi_offset 4, -32
	pushq	%rbx
	.seh_pushreg	%rbx
	.cfi_def_cfa_offset 40
	.cfi_offset 3, -40
	subq	$56, %rsp
	.seh_stackalloc	56
	.cfi_def_cfa_offset 96
	leaq	128(%rsp), %rbp
	.seh_setframe	%rbp, 128
	.cfi_def_cfa 6, -32
	.seh_endprologue
	movq	%rcx, -32(%rbp)
	.loc 5 227 0
	movq	-32(%rbp), %rax
	movq	%rax, %rcx
	call	_ZNK3dod6accessIJNS_6memberIcLi0EEEEE3getES2_
	movzbl	(%rax), %eax
	movsbl	%al, %esi
	movq	-32(%rbp), %rax
	addq	$16, %rax
	movl	%ebx, %edx
	movq	%rax, %rcx
	call	_ZNK3dod6accessIJNS_6memberIiLi1EEEEE3getES2_
	movl	(%rax), %ebx
	movq	-32(%rbp), %rax
	addq	$8, %rax
	movl	%edi, %edx
	movq	%rax, %rcx
	call	_ZNK3dod6accessIJNS_6memberIiLi0EEEEE3getES2_
	movl	(%rax), %eax
	movl	%esi, %r8d
	movl	%ebx, %edx
	movl	%eax, %ecx
	call	_Z9do_renderiic
	.loc 5 228 0
	nop
	addq	$56, %rsp
	popq	%rbx
	.cfi_restore 3
	popq	%rsi
	.cfi_restore 4
	popq	%rdi
	.cfi_restore 5
	popq	%rbp
	.cfi_restore 6
	.cfi_def_cfa 7, -24
	ret
	.cfi_endproc
.LFE7336:
	.seh_endproc
	.weak	_ZNK8particleIN3dod6accessIINS0_6memberIcLi0EEENS2_IiLi0EEENS2_IiLi1EEENS2_IiLi2EEENS2_IiLi3EEEEEEE6renderEv
	.def	_ZNK8particleIN3dod6accessIINS0_6memberIcLi0EEENS2_IiLi0EEENS2_IiLi1EEENS2_IiLi2EEENS2_IiLi3EEEEEEE6renderEv;	.scl	2;	.type	32;	.endef
	.set	_ZNK8particleIN3dod6accessIINS0_6memberIcLi0EEENS2_IiLi0EEENS2_IiLi1EEENS2_IiLi2EEENS2_IiLi3EEEEEEE6renderEv,_ZNK8particleIN3dod6accessIJNS0_6memberIcLi0EEENS2_IiLi0EEENS2_IiLi1EEENS2_IiLi2EEENS2_IiLi3EEEEEEE6renderEv
	.text
	.def	_Z7measureIZ4mainEUlvE1_EdT_;	.scl	3;	.type	32;	.endef
	.seh_proc	_Z7measureIZ4mainEUlvE1_EdT_
_Z7measureIZ4mainEUlvE1_EdT_:
.LFB7337:
	.loc 5 17 0
	.cfi_startproc
	pushq	%rbp
	.seh_pushreg	%rbp
	.cfi_def_cfa_offset 16
	.cfi_offset 6, -16
	pushq	%rsi
	.seh_pushreg	%rsi
	.cfi_def_cfa_offset 24
	.cfi_offset 4, -24
	pushq	%rbx
	.seh_pushreg	%rbx
	.cfi_def_cfa_offset 32
	.cfi_offset 3, -32
	movq	%rsp, %rbp
	.seh_setframe	%rbp, 0
	.cfi_def_cfa_register 6
	subq	$176, %rsp
	.seh_stackalloc	176
	.seh_endprologue
	movq	%rcx, %rsi
.LBB90:
	.loc 5 26 0
	movl	$0, -4(%rbp)
.L281:
	.loc 5 26 0 is_stmt 0 discriminator 1
	cmpl	$9, -4(%rbp)
	jg	.L278
.LBB91:
	.loc 5 27 0 is_stmt 1
	movl	$0, -8(%rbp)
	.loc 5 28 0
	movq	$0, -144(%rbp)
	.loc 5 30 0
	call	_ZNSt6chrono3_V212system_clock3nowEv
	movq	%rax, measure_start(%rip)
.L280:
	.loc 5 32 0
	movq	%rsi, %rcx
	call	_ZZ4mainENKUlvE1_clEv
	movl	%eax, _ZZ7measureIZ4mainEUlvE1_EdT_E3res(%rip)
	.loc 5 33 0
	addl	$1, -8(%rbp)
	.loc 5 34 0
	call	_ZNSt6chrono3_V212system_clock3nowEv
	movq	%rax, -144(%rbp)
	.loc 5 35 0
	leaq	-144(%rbp), %rax
	leaq	measure_start(%rip), %rdx
	movq	%rax, %rcx
	call	_ZNSt6chronomiINS_3_V212system_clockENS_8durationIxSt5ratioILx1ELx1000000000EEEES6_EENSt11common_typeIJT0_T1_EE4typeERKNS_10time_pointIT_S8_EERKNSC_ISD_S9_EE
	movq	%rax, -48(%rbp)
	.loc 5 31 0
	leaq	-48(%rbp), %rax
	leaq	_ZZ7measureIZ4mainEUlvE1_EdT_E18min_time_per_trial(%rip), %rdx
	movq	%rax, %rcx
	call	_ZNSt6chronoltIxSt5ratioILx1ELx1000000000EExS1_ILx1ELx1000EEEEbRKNS_8durationIT_T0_EERKNS4_IT1_T2_EE
	testb	%al, %al
	je	.L279
	jmp	.L280
.L279:
	.loc 5 36 0 discriminator 2
	movl	-4(%rbp), %eax
	movslq	%eax, %rdx
	leaq	-128(%rbp), %rax
	movq	%rax, %rcx
	call	_ZNSt5arrayIdLy10EEixEy
	movq	%rax, %rbx
	leaq	-144(%rbp), %rax
	leaq	measure_start(%rip), %rdx
	movq	%rax, %rcx
	call	_ZNSt6chronomiINS_3_V212system_clockENS_8durationIxSt5ratioILx1ELx1000000000EEEES6_EENSt11common_typeIJT0_T1_EE4typeERKNS_10time_pointIT_S8_EERKNSC_ISD_S9_EE
	movq	%rax, -16(%rbp)
	leaq	-16(%rbp), %rax
	movq	%rax, %rcx
	call	_ZNSt6chrono13duration_castINS_8durationIdSt5ratioILx1ELx1EEEExS2_ILx1ELx1000000000EEEENSt9enable_ifIXsrNS_13__is_durationIT_EE5valueES8_E4typeERKNS1_IT0_T1_EE
	movq	%xmm0, %rax
	movq	%rax, %xmm0
	movsd	%xmm0, -32(%rbp)
	leaq	-32(%rbp), %rax
	movq	%rax, %rcx
	call	_ZNKSt6chrono8durationIdSt5ratioILx1ELx1EEE5countEv
	movq	%xmm0, %rax
	pxor	%xmm0, %xmm0
	cvtsi2sd	-8(%rbp), %xmm0
	movq	%rax, %xmm1
	divsd	%xmm0, %xmm1
	movapd	%xmm1, %xmm0
	movsd	%xmm0, (%rbx)
.LBE91:
	.loc 5 26 0 discriminator 2
	addl	$1, -4(%rbp)
	jmp	.L281
.L278:
.LBE90:
	.loc 5 40 0
	leaq	-128(%rbp), %rax
	movq	%rax, %rcx
	call	_ZNSt5arrayIdLy10EE3endEv
	movq	%rax, %rbx
	leaq	-128(%rbp), %rax
	movq	%rax, %rcx
	call	_ZNSt5arrayIdLy10EE5beginEv
	movq	%rbx, %rdx
	movq	%rax, %rcx
	call	_ZSt4sortIPdEvT_S1_
	.loc 5 42 0
	leaq	-128(%rbp), %rax
	movq	%rax, %rcx
	call	_ZNSt5arrayIdLy10EE3endEv
	.loc 5 41 0
	leaq	-16(%rax), %rbx
	.loc 5 42 0
	leaq	-128(%rbp), %rax
	movq	%rax, %rcx
	call	_ZNSt5arrayIdLy10EE5beginEv
	.loc 5 41 0
	addq	$16, %rax
	pxor	%xmm2, %xmm2
	movq	%rbx, %rdx
	movq	%rax, %rcx
	call	_ZSt10accumulateIPddET0_T_S2_S1_
	movq	%xmm0, %rbx
	.loc 5 42 0
	leaq	-128(%rbp), %rax
	movq	%rax, %rcx
	call	_ZNKSt5arrayIdLy10EE4sizeEv
	subq	$4, %rax
	testq	%rax, %rax
	js	.L282
	pxor	%xmm0, %xmm0
	cvtsi2sdq	%rax, %xmm0
	jmp	.L283
.L282:
	movq	%rax, %rdx
	shrq	%rdx
	andl	$1, %eax
	orq	%rax, %rdx
	pxor	%xmm0, %xmm0
	cvtsi2sdq	%rdx, %xmm0
	addsd	%xmm0, %xmm0
.L283:
	movq	%rbx, %xmm3
	divsd	%xmm0, %xmm3
	movapd	%xmm3, %xmm0
	movq	%xmm0, %rax
	.loc 5 43 0
	movq	%rax, %xmm0
	addq	$176, %rsp
	popq	%rbx
	.cfi_restore 3
	popq	%rsi
	.cfi_restore 4
	popq	%rbp
	.cfi_restore 6
	.cfi_def_cfa 7, 24
	ret
	.cfi_endproc
.LFE7337:
	.seh_endproc
	.section	.text$_ZN5boost9iteratorsneIN3dod7pointerI8particleINS2_6accessIJNS2_6memberIcLi0EEENS6_IiLi0EEENS6_IiLi1EEEEEEEEESB_NS0_27random_access_traversal_tagESB_xSC_SB_SD_SB_xEENS0_6detail23enable_if_interoperableIT_T4_NS_3mpl6apply2INSE_12always_bool2ESG_SH_E4typeEE4typeERKNS0_15iterator_facadeISG_T0_T1_T2_T3_EERKNSP_ISH_T5_T6_T7_T8_EE,"x"
	.linkonce discard
	.globl	_ZN5boost9iteratorsneIN3dod7pointerI8particleINS2_6accessIJNS2_6memberIcLi0EEENS6_IiLi0EEENS6_IiLi1EEEEEEEEESB_NS0_27random_access_traversal_tagESB_xSC_SB_SD_SB_xEENS0_6detail23enable_if_interoperableIT_T4_NS_3mpl6apply2INSE_12always_bool2ESG_SH_E4typeEE4typeERKNS0_15iterator_facadeISG_T0_T1_T2_T3_EERKNSP_ISH_T5_T6_T7_T8_EE
	.def	_ZN5boost9iteratorsneIN3dod7pointerI8particleINS2_6accessIJNS2_6memberIcLi0EEENS6_IiLi0EEENS6_IiLi1EEEEEEEEESB_NS0_27random_access_traversal_tagESB_xSC_SB_SD_SB_xEENS0_6detail23enable_if_interoperableIT_T4_NS_3mpl6apply2INSE_12always_bool2ESG_SH_E4typeEE4typeERKNS0_15iterator_facadeISG_T0_T1_T2_T3_EERKNSP_ISH_T5_T6_T7_T8_EE;	.scl	2;	.type	32;	.endef
	.seh_proc	_ZN5boost9iteratorsneIN3dod7pointerI8particleINS2_6accessIJNS2_6memberIcLi0EEENS6_IiLi0EEENS6_IiLi1EEEEEEEEESB_NS0_27random_access_traversal_tagESB_xSC_SB_SD_SB_xEENS0_6detail23enable_if_interoperableIT_T4_NS_3mpl6apply2INSE_12always_bool2ESG_SH_E4typeEE4typeERKNS0_15iterator_facadeISG_T0_T1_T2_T3_EERKNSP_ISH_T5_T6_T7_T8_EE
_ZN5boost9iteratorsneIN3dod7pointerI8particleINS2_6accessIJNS2_6memberIcLi0EEENS6_IiLi0EEENS6_IiLi1EEEEEEEEESB_NS0_27random_access_traversal_tagESB_xSC_SB_SD_SB_xEENS0_6detail23enable_if_interoperableIT_T4_NS_3mpl6apply2INSE_12always_bool2ESG_SH_E4typeEE4typeERKNS0_15iterator_facadeISG_T0_T1_T2_T3_EERKNSP_ISH_T5_T6_T7_T8_EE:
.LFB7338:
	.loc 8 891 0
	.cfi_startproc
	pushq	%rbp
	.seh_pushreg	%rbp
	.cfi_def_cfa_offset 16
	.cfi_offset 6, -16
	movq	%rsp, %rbp
	.seh_setframe	%rbp, 0
	.cfi_def_cfa_register 6
	subq	$48, %rsp
	.seh_stackalloc	48
	.seh_endprologue
	movq	%rcx, 16(%rbp)
	movq	%rdx, 24(%rbp)
	.loc 8 891 0
	movq	24(%rbp), %rax
	movq	%rax, %rdx
	movq	16(%rbp), %rcx
	call	_ZN5boost9iterators20iterator_core_access5equalIN3dod7pointerI8particleINS3_6accessIJNS3_6memberIcLi0EEENS7_IiLi0EEENS7_IiLi1EEEEEEEEESD_EEbRKT_RKT0_N4mpl_5bool_ILb1EEE
	xorl	$1, %eax
	addq	$48, %rsp
	popq	%rbp
	.cfi_restore 6
	.cfi_def_cfa 7, 8
	ret
	.cfi_endproc
.LFE7338:
	.seh_endproc
	.weak	_ZN5boost9iteratorsneIN3dod7pointerI8particleINS2_6accessIINS2_6memberIcLi0EEENS6_IiLi0EEENS6_IiLi1EEEEEEEEESB_NS0_27random_access_traversal_tagESB_xSC_SB_SD_SB_xEENS0_6detail23enable_if_interoperableIT_T4_NS_3mpl6apply2INSE_12always_bool2ESG_SH_E4typeEE4typeERKNS0_15iterator_facadeISG_T0_T1_T2_T3_EERKNSP_ISH_T5_T6_T7_T8_EE
	.def	_ZN5boost9iteratorsneIN3dod7pointerI8particleINS2_6accessIINS2_6memberIcLi0EEENS6_IiLi0EEENS6_IiLi1EEEEEEEEESB_NS0_27random_access_traversal_tagESB_xSC_SB_SD_SB_xEENS0_6detail23enable_if_interoperableIT_T4_NS_3mpl6apply2INSE_12always_bool2ESG_SH_E4typeEE4typeERKNS0_15iterator_facadeISG_T0_T1_T2_T3_EERKNSP_ISH_T5_T6_T7_T8_EE;	.scl	2;	.type	32;	.endef
	.set	_ZN5boost9iteratorsneIN3dod7pointerI8particleINS2_6accessIINS2_6memberIcLi0EEENS6_IiLi0EEENS6_IiLi1EEEEEEEEESB_NS0_27random_access_traversal_tagESB_xSC_SB_SD_SB_xEENS0_6detail23enable_if_interoperableIT_T4_NS_3mpl6apply2INSE_12always_bool2ESG_SH_E4typeEE4typeERKNS0_15iterator_facadeISG_T0_T1_T2_T3_EERKNSP_ISH_T5_T6_T7_T8_EE,_ZN5boost9iteratorsneIN3dod7pointerI8particleINS2_6accessIJNS2_6memberIcLi0EEENS6_IiLi0EEENS6_IiLi1EEEEEEEEESB_NS0_27random_access_traversal_tagESB_xSC_SB_SD_SB_xEENS0_6detail23enable_if_interoperableIT_T4_NS_3mpl6apply2INSE_12always_bool2ESG_SH_E4typeEE4typeERKNS0_15iterator_facadeISG_T0_T1_T2_T3_EERKNSP_ISH_T5_T6_T7_T8_EE
	.section	.text$_ZN5boost9iteratorsppIN3dod7pointerI8particleINS2_6accessIJNS2_6memberIcLi0EEENS6_IiLi0EEENS6_IiLi1EEEEEEEEESB_NS0_27random_access_traversal_tagESB_xEENS0_6detail24postfix_increment_resultIT_T0_T2_T1_E4typeERNS0_15iterator_facadeISG_SH_SJ_SI_T3_EEi,"x"
	.linkonce discard
	.globl	_ZN5boost9iteratorsppIN3dod7pointerI8particleINS2_6accessIJNS2_6memberIcLi0EEENS6_IiLi0EEENS6_IiLi1EEEEEEEEESB_NS0_27random_access_traversal_tagESB_xEENS0_6detail24postfix_increment_resultIT_T0_T2_T1_E4typeERNS0_15iterator_facadeISG_SH_SJ_SI_T3_EEi
	.def	_ZN5boost9iteratorsppIN3dod7pointerI8particleINS2_6accessIJNS2_6memberIcLi0EEENS6_IiLi0EEENS6_IiLi1EEEEEEEEESB_NS0_27random_access_traversal_tagESB_xEENS0_6detail24postfix_increment_resultIT_T0_T2_T1_E4typeERNS0_15iterator_facadeISG_SH_SJ_SI_T3_EEi;	.scl	2;	.type	32;	.endef
	.seh_proc	_ZN5boost9iteratorsppIN3dod7pointerI8particleINS2_6accessIJNS2_6memberIcLi0EEENS6_IiLi0EEENS6_IiLi1EEEEEEEEESB_NS0_27random_access_traversal_tagESB_xEENS0_6detail24postfix_increment_resultIT_T0_T2_T1_E4typeERNS0_15iterator_facadeISG_SH_SJ_SI_T3_EEi
_ZN5boost9iteratorsppIN3dod7pointerI8particleINS2_6accessIJNS2_6memberIcLi0EEENS6_IiLi0EEENS6_IiLi1EEEEEEEEESB_NS0_27random_access_traversal_tagESB_xEENS0_6detail24postfix_increment_resultIT_T0_T2_T1_E4typeERNS0_15iterator_facadeISG_SH_SJ_SI_T3_EEi:
.LFB7339:
	.loc 8 781 0
	.cfi_startproc
	pushq	%rbp
	.seh_pushreg	%rbp
	.cfi_def_cfa_offset 16
	.cfi_offset 6, -16
	movq	%rsp, %rbp
	.seh_setframe	%rbp, 0
	.cfi_def_cfa_register 6
	subq	$32, %rsp
	.seh_stackalloc	32
	.seh_endprologue
	movq	%rcx, 16(%rbp)
	movq	%rdx, 24(%rbp)
	movl	%r8d, 32(%rbp)
	.loc 8 787 0
	movq	16(%rbp), %rax
	movq	24(%rbp), %rdx
	movq	(%rdx), %rcx
	movq	%rcx, (%rax)
	movq	8(%rdx), %rcx
	movq	%rcx, 8(%rax)
	movq	16(%rdx), %rdx
	movq	%rdx, 16(%rax)
	.loc 8 789 0
	movq	24(%rbp), %rax
	movq	%rax, %rcx
	call	_ZN5boost9iterators6detail20iterator_facade_baseIN3dod7pointerI8particleINS3_6accessIJNS3_6memberIcLi0EEENS7_IiLi0EEENS7_IiLi1EEEEEEEEESC_NS0_27random_access_traversal_tagESC_xLb0ELb0EEppEv
	.loc 8 791 0
	nop
	.loc 8 792 0
	movq	16(%rbp), %rax
	addq	$32, %rsp
	popq	%rbp
	.cfi_restore 6
	.cfi_def_cfa 7, 8
	ret
	.cfi_endproc
.LFE7339:
	.seh_endproc
	.weak	_ZN5boost9iteratorsppIN3dod7pointerI8particleINS2_6accessIINS2_6memberIcLi0EEENS6_IiLi0EEENS6_IiLi1EEEEEEEEESB_NS0_27random_access_traversal_tagESB_xEENS0_6detail24postfix_increment_resultIT_T0_T2_T1_E4typeERNS0_15iterator_facadeISG_SH_SJ_SI_T3_EEi
	.def	_ZN5boost9iteratorsppIN3dod7pointerI8particleINS2_6accessIINS2_6memberIcLi0EEENS6_IiLi0EEENS6_IiLi1EEEEEEEEESB_NS0_27random_access_traversal_tagESB_xEENS0_6detail24postfix_increment_resultIT_T0_T2_T1_E4typeERNS0_15iterator_facadeISG_SH_SJ_SI_T3_EEi;	.scl	2;	.type	32;	.endef
	.set	_ZN5boost9iteratorsppIN3dod7pointerI8particleINS2_6accessIINS2_6memberIcLi0EEENS6_IiLi0EEENS6_IiLi1EEEEEEEEESB_NS0_27random_access_traversal_tagESB_xEENS0_6detail24postfix_increment_resultIT_T0_T2_T1_E4typeERNS0_15iterator_facadeISG_SH_SJ_SI_T3_EEi,_ZN5boost9iteratorsppIN3dod7pointerI8particleINS2_6accessIJNS2_6memberIcLi0EEENS6_IiLi0EEENS6_IiLi1EEEEEEEEESB_NS0_27random_access_traversal_tagESB_xEENS0_6detail24postfix_increment_resultIT_T0_T2_T1_E4typeERNS0_15iterator_facadeISG_SH_SJ_SI_T3_EEi
	.section	.text$_ZNK5boost9iterators6detail20iterator_facade_baseIN3dod7pointerI8particleINS3_6accessIJNS3_6memberIcLi0EEENS7_IiLi0EEENS7_IiLi1EEEEEEEEESC_NS0_27random_access_traversal_tagESC_xLb0ELb0EEptEv,"x"
	.linkonce discard
	.align 2
	.globl	_ZNK5boost9iterators6detail20iterator_facade_baseIN3dod7pointerI8particleINS3_6accessIJNS3_6memberIcLi0EEENS7_IiLi0EEENS7_IiLi1EEEEEEEEESC_NS0_27random_access_traversal_tagESC_xLb0ELb0EEptEv
	.def	_ZNK5boost9iterators6detail20iterator_facade_baseIN3dod7pointerI8particleINS3_6accessIJNS3_6memberIcLi0EEENS7_IiLi0EEENS7_IiLi1EEEEEEEEESC_NS0_27random_access_traversal_tagESC_xLb0ELb0EEptEv;	.scl	2;	.type	32;	.endef
	.seh_proc	_ZNK5boost9iterators6detail20iterator_facade_baseIN3dod7pointerI8particleINS3_6accessIJNS3_6memberIcLi0EEENS7_IiLi0EEENS7_IiLi1EEEEEEEEESC_NS0_27random_access_traversal_tagESC_xLb0ELb0EEptEv
_ZNK5boost9iterators6detail20iterator_facade_baseIN3dod7pointerI8particleINS3_6accessIJNS3_6memberIcLi0EEENS7_IiLi0EEENS7_IiLi1EEEEEEEEESC_NS0_27random_access_traversal_tagESC_xLb0ELb0EEptEv:
.LFB7340:
	.loc 8 649 0
	.cfi_startproc
	pushq	%rbp
	.seh_pushreg	%rbp
	.cfi_def_cfa_offset 16
	.cfi_offset 6, -16
	movq	%rsp, %rbp
	.seh_setframe	%rbp, 0
	.cfi_def_cfa_register 6
	subq	$64, %rsp
	.seh_stackalloc	64
	.seh_endprologue
	movq	%rcx, 16(%rbp)
	movq	%rdx, 24(%rbp)
	.loc 8 651 0
	movq	24(%rbp), %rax
	movq	%rax, %rcx
	call	_ZNK5boost9iterators6detail20iterator_facade_baseIN3dod7pointerI8particleINS3_6accessIJNS3_6memberIcLi0EEENS7_IiLi0EEENS7_IiLi1EEEEEEEEESC_NS0_27random_access_traversal_tagESC_xLb0ELb0EE7derivedEv
	movq	%rax, %rdx
	leaq	-32(%rbp), %rax
	movq	%rax, %rcx
	call	_ZNK5boost9iterators6detail20iterator_facade_baseIN3dod7pointerI8particleINS3_6accessIJNS3_6memberIcLi0EEENS7_IiLi0EEENS7_IiLi1EEEEEEEEESC_NS0_27random_access_traversal_tagESC_xLb0ELb0EEdeEv
	movq	16(%rbp), %rax
	leaq	-32(%rbp), %rdx
	movq	%rax, %rcx
	call	_ZN5boost9iterators6detail23operator_arrow_dispatchI8particleIN3dod6accessIJNS4_6memberIcLi0EEENS6_IiLi0EEENS6_IiLi1EEEEEEEPSB_E5applyERKSB_
	.loc 8 652 0
	movq	16(%rbp), %rax
	addq	$64, %rsp
	popq	%rbp
	.cfi_restore 6
	.cfi_def_cfa 7, 8
	ret
	.cfi_endproc
.LFE7340:
	.seh_endproc
	.weak	_ZNK5boost9iterators6detail20iterator_facade_baseIN3dod7pointerI8particleINS3_6accessIINS3_6memberIcLi0EEENS7_IiLi0EEENS7_IiLi1EEEEEEEEESC_NS0_27random_access_traversal_tagESC_xLb0ELb0EEptEv
	.def	_ZNK5boost9iterators6detail20iterator_facade_baseIN3dod7pointerI8particleINS3_6accessIINS3_6memberIcLi0EEENS7_IiLi0EEENS7_IiLi1EEEEEEEEESC_NS0_27random_access_traversal_tagESC_xLb0ELb0EEptEv;	.scl	2;	.type	32;	.endef
	.set	_ZNK5boost9iterators6detail20iterator_facade_baseIN3dod7pointerI8particleINS3_6accessIINS3_6memberIcLi0EEENS7_IiLi0EEENS7_IiLi1EEEEEEEEESC_NS0_27random_access_traversal_tagESC_xLb0ELb0EEptEv,_ZNK5boost9iterators6detail20iterator_facade_baseIN3dod7pointerI8particleINS3_6accessIJNS3_6memberIcLi0EEENS7_IiLi0EEENS7_IiLi1EEEEEEEEESC_NS0_27random_access_traversal_tagESC_xLb0ELb0EEptEv
	.section	.text$_ZN5boost9iterators6detail23operator_arrow_dispatchI8particleIN3dod6accessIJNS4_6memberIcLi0EEENS6_IiLi0EEENS6_IiLi1EEEEEEEPSB_E5proxyptEv,"x"
	.linkonce discard
	.align 2
	.globl	_ZN5boost9iterators6detail23operator_arrow_dispatchI8particleIN3dod6accessIJNS4_6memberIcLi0EEENS6_IiLi0EEENS6_IiLi1EEEEEEEPSB_E5proxyptEv
	.def	_ZN5boost9iterators6detail23operator_arrow_dispatchI8particleIN3dod6accessIJNS4_6memberIcLi0EEENS6_IiLi0EEENS6_IiLi1EEEEEEEPSB_E5proxyptEv;	.scl	2;	.type	32;	.endef
	.seh_proc	_ZN5boost9iterators6detail23operator_arrow_dispatchI8particleIN3dod6accessIJNS4_6memberIcLi0EEENS6_IiLi0EEENS6_IiLi1EEEEEEEPSB_E5proxyptEv
_ZN5boost9iterators6detail23operator_arrow_dispatchI8particleIN3dod6accessIJNS4_6memberIcLi0EEENS6_IiLi0EEENS6_IiLi1EEEEEEEPSB_E5proxyptEv:
.LFB7341:
	.loc 8 317 0
	.cfi_startproc
	pushq	%rbp
	.seh_pushreg	%rbp
	.cfi_def_cfa_offset 16
	.cfi_offset 6, -16
	movq	%rsp, %rbp
	.seh_setframe	%rbp, 0
	.cfi_def_cfa_register 6
	subq	$48, %rsp
	.seh_stackalloc	48
	.seh_endprologue
	movq	%rcx, 16(%rbp)
	.loc 8 317 0
	movq	16(%rbp), %rax
	movq	%rax, -8(%rbp)
	movq	-8(%rbp), %rax
	movq	%rax, -16(%rbp)
.LBB92:
.LBB93:
.LBB94:
.LBB95:
.LBB96:
	.loc 14 29 0
	movq	-16(%rbp), %rax
	movq	%rax, -48(%rbp)
.LBE96:
.LBE95:
.LBE94:
.LBB97:
.LBB98:
	.loc 14 30 0
	movq	-48(%rbp), %rax
	movq	%rax, -24(%rbp)
	movl	$0, -28(%rbp)
.LBE98:
.LBE97:
.LBB99:
.LBB100:
	.loc 14 41 0
	movq	-24(%rbp), %rax
.LBE100:
.LBE99:
.LBE93:
.LBE92:
	.loc 8 317 0
	nop
	addq	$48, %rsp
	popq	%rbp
	.cfi_restore 6
	.cfi_def_cfa 7, 8
	ret
	.cfi_endproc
.LFE7341:
	.seh_endproc
	.weak	_ZN5boost9iterators6detail23operator_arrow_dispatchI8particleIN3dod6accessIINS4_6memberIcLi0EEENS6_IiLi0EEENS6_IiLi1EEEEEEEPSB_E5proxyptEv
	.def	_ZN5boost9iterators6detail23operator_arrow_dispatchI8particleIN3dod6accessIINS4_6memberIcLi0EEENS6_IiLi0EEENS6_IiLi1EEEEEEEPSB_E5proxyptEv;	.scl	2;	.type	32;	.endef
	.set	_ZN5boost9iterators6detail23operator_arrow_dispatchI8particleIN3dod6accessIINS4_6memberIcLi0EEENS6_IiLi0EEENS6_IiLi1EEEEEEEPSB_E5proxyptEv,_ZN5boost9iterators6detail23operator_arrow_dispatchI8particleIN3dod6accessIJNS4_6memberIcLi0EEENS6_IiLi0EEENS6_IiLi1EEEEEEEPSB_E5proxyptEv
	.section	.text$_ZNK8particleIN3dod6accessIJNS0_6memberIcLi0EEENS2_IiLi0EEENS2_IiLi1EEEEEEE6renderEv,"x"
	.linkonce discard
	.align 2
	.globl	_ZNK8particleIN3dod6accessIJNS0_6memberIcLi0EEENS2_IiLi0EEENS2_IiLi1EEEEEEE6renderEv
	.def	_ZNK8particleIN3dod6accessIJNS0_6memberIcLi0EEENS2_IiLi0EEENS2_IiLi1EEEEEEE6renderEv;	.scl	2;	.type	32;	.endef
	.seh_proc	_ZNK8particleIN3dod6accessIJNS0_6memberIcLi0EEENS2_IiLi0EEENS2_IiLi1EEEEEEE6renderEv
_ZNK8particleIN3dod6accessIJNS0_6memberIcLi0EEENS2_IiLi0EEENS2_IiLi1EEEEEEE6renderEv:
.LFB7342:
	.loc 5 225 0
	.cfi_startproc
	pushq	%rbp
	.seh_pushreg	%rbp
	.cfi_def_cfa_offset 16
	.cfi_offset 6, -16
	pushq	%rdi
	.seh_pushreg	%rdi
	.cfi_def_cfa_offset 24
	.cfi_offset 5, -24
	pushq	%rsi
	.seh_pushreg	%rsi
	.cfi_def_cfa_offset 32
	.cfi_offset 4, -32
	pushq	%rbx
	.seh_pushreg	%rbx
	.cfi_def_cfa_offset 40
	.cfi_offset 3, -40
	subq	$56, %rsp
	.seh_stackalloc	56
	.cfi_def_cfa_offset 96
	leaq	128(%rsp), %rbp
	.seh_setframe	%rbp, 128
	.cfi_def_cfa 6, -32
	.seh_endprologue
	movq	%rcx, -32(%rbp)
	.loc 5 227 0
	movq	-32(%rbp), %rax
	movq	%rax, %rcx
	call	_ZNK3dod6accessIJNS_6memberIcLi0EEEEE3getES2_
	movzbl	(%rax), %eax
	movsbl	%al, %esi
	movq	-32(%rbp), %rax
	addq	$16, %rax
	movl	%ebx, %edx
	movq	%rax, %rcx
	call	_ZNK3dod6accessIJNS_6memberIiLi1EEEEE3getES2_
	movl	(%rax), %ebx
	movq	-32(%rbp), %rax
	addq	$8, %rax
	movl	%edi, %edx
	movq	%rax, %rcx
	call	_ZNK3dod6accessIJNS_6memberIiLi0EEEEE3getES2_
	movl	(%rax), %eax
	movl	%esi, %r8d
	movl	%ebx, %edx
	movl	%eax, %ecx
	call	_Z9do_renderiic
	.loc 5 228 0
	nop
	addq	$56, %rsp
	popq	%rbx
	.cfi_restore 3
	popq	%rsi
	.cfi_restore 4
	popq	%rdi
	.cfi_restore 5
	popq	%rbp
	.cfi_restore 6
	.cfi_def_cfa 7, -24
	ret
	.cfi_endproc
.LFE7342:
	.seh_endproc
	.weak	_ZNK8particleIN3dod6accessIINS0_6memberIcLi0EEENS2_IiLi0EEENS2_IiLi1EEEEEEE6renderEv
	.def	_ZNK8particleIN3dod6accessIINS0_6memberIcLi0EEENS2_IiLi0EEENS2_IiLi1EEEEEEE6renderEv;	.scl	2;	.type	32;	.endef
	.set	_ZNK8particleIN3dod6accessIINS0_6memberIcLi0EEENS2_IiLi0EEENS2_IiLi1EEEEEEE6renderEv,_ZNK8particleIN3dod6accessIJNS0_6memberIcLi0EEENS2_IiLi0EEENS2_IiLi1EEEEEEE6renderEv
	.text
	.def	_Z7measureIZ4mainEUlvE2_EdT_;	.scl	3;	.type	32;	.endef
	.seh_proc	_Z7measureIZ4mainEUlvE2_EdT_
_Z7measureIZ4mainEUlvE2_EdT_:
.LFB7343:
	.loc 5 17 0
	.cfi_startproc
	pushq	%rbp
	.seh_pushreg	%rbp
	.cfi_def_cfa_offset 16
	.cfi_offset 6, -16
	pushq	%rsi
	.seh_pushreg	%rsi
	.cfi_def_cfa_offset 24
	.cfi_offset 4, -24
	pushq	%rbx
	.seh_pushreg	%rbx
	.cfi_def_cfa_offset 32
	.cfi_offset 3, -32
	movq	%rsp, %rbp
	.seh_setframe	%rbp, 0
	.cfi_def_cfa_register 6
	subq	$176, %rsp
	.seh_stackalloc	176
	.seh_endprologue
	movq	%rcx, %rsi
.LBB101:
	.loc 5 26 0
	movl	$0, -4(%rbp)
.L301:
	.loc 5 26 0 is_stmt 0 discriminator 1
	cmpl	$9, -4(%rbp)
	jg	.L298
.LBB102:
	.loc 5 27 0 is_stmt 1
	movl	$0, -8(%rbp)
	.loc 5 28 0
	movq	$0, -144(%rbp)
	.loc 5 30 0
	call	_ZNSt6chrono3_V212system_clock3nowEv
	movq	%rax, measure_start(%rip)
.L300:
	.loc 5 32 0
	movq	%rsi, %rcx
	call	_ZZ4mainENKUlvE2_clEv
	movl	%eax, _ZZ7measureIZ4mainEUlvE2_EdT_E3res(%rip)
	.loc 5 33 0
	addl	$1, -8(%rbp)
	.loc 5 34 0
	call	_ZNSt6chrono3_V212system_clock3nowEv
	movq	%rax, -144(%rbp)
	.loc 5 35 0
	leaq	-144(%rbp), %rax
	leaq	measure_start(%rip), %rdx
	movq	%rax, %rcx
	call	_ZNSt6chronomiINS_3_V212system_clockENS_8durationIxSt5ratioILx1ELx1000000000EEEES6_EENSt11common_typeIJT0_T1_EE4typeERKNS_10time_pointIT_S8_EERKNSC_ISD_S9_EE
	movq	%rax, -48(%rbp)
	.loc 5 31 0
	leaq	-48(%rbp), %rax
	leaq	_ZZ7measureIZ4mainEUlvE2_EdT_E18min_time_per_trial(%rip), %rdx
	movq	%rax, %rcx
	call	_ZNSt6chronoltIxSt5ratioILx1ELx1000000000EExS1_ILx1ELx1000EEEEbRKNS_8durationIT_T0_EERKNS4_IT1_T2_EE
	testb	%al, %al
	je	.L299
	jmp	.L300
.L299:
	.loc 5 36 0 discriminator 2
	movl	-4(%rbp), %eax
	movslq	%eax, %rdx
	leaq	-128(%rbp), %rax
	movq	%rax, %rcx
	call	_ZNSt5arrayIdLy10EEixEy
	movq	%rax, %rbx
	leaq	-144(%rbp), %rax
	leaq	measure_start(%rip), %rdx
	movq	%rax, %rcx
	call	_ZNSt6chronomiINS_3_V212system_clockENS_8durationIxSt5ratioILx1ELx1000000000EEEES6_EENSt11common_typeIJT0_T1_EE4typeERKNS_10time_pointIT_S8_EERKNSC_ISD_S9_EE
	movq	%rax, -16(%rbp)
	leaq	-16(%rbp), %rax
	movq	%rax, %rcx
	call	_ZNSt6chrono13duration_castINS_8durationIdSt5ratioILx1ELx1EEEExS2_ILx1ELx1000000000EEEENSt9enable_ifIXsrNS_13__is_durationIT_EE5valueES8_E4typeERKNS1_IT0_T1_EE
	movq	%xmm0, %rax
	movq	%rax, %xmm0
	movsd	%xmm0, -32(%rbp)
	leaq	-32(%rbp), %rax
	movq	%rax, %rcx
	call	_ZNKSt6chrono8durationIdSt5ratioILx1ELx1EEE5countEv
	movq	%xmm0, %rax
	pxor	%xmm0, %xmm0
	cvtsi2sd	-8(%rbp), %xmm0
	movq	%rax, %xmm1
	divsd	%xmm0, %xmm1
	movapd	%xmm1, %xmm0
	movsd	%xmm0, (%rbx)
.LBE102:
	.loc 5 26 0 discriminator 2
	addl	$1, -4(%rbp)
	jmp	.L301
.L298:
.LBE101:
	.loc 5 40 0
	leaq	-128(%rbp), %rax
	movq	%rax, %rcx
	call	_ZNSt5arrayIdLy10EE3endEv
	movq	%rax, %rbx
	leaq	-128(%rbp), %rax
	movq	%rax, %rcx
	call	_ZNSt5arrayIdLy10EE5beginEv
	movq	%rbx, %rdx
	movq	%rax, %rcx
	call	_ZSt4sortIPdEvT_S1_
	.loc 5 42 0
	leaq	-128(%rbp), %rax
	movq	%rax, %rcx
	call	_ZNSt5arrayIdLy10EE3endEv
	.loc 5 41 0
	leaq	-16(%rax), %rbx
	.loc 5 42 0
	leaq	-128(%rbp), %rax
	movq	%rax, %rcx
	call	_ZNSt5arrayIdLy10EE5beginEv
	.loc 5 41 0
	addq	$16, %rax
	pxor	%xmm2, %xmm2
	movq	%rbx, %rdx
	movq	%rax, %rcx
	call	_ZSt10accumulateIPddET0_T_S2_S1_
	movq	%xmm0, %rbx
	.loc 5 42 0
	leaq	-128(%rbp), %rax
	movq	%rax, %rcx
	call	_ZNKSt5arrayIdLy10EE4sizeEv
	subq	$4, %rax
	testq	%rax, %rax
	js	.L302
	pxor	%xmm0, %xmm0
	cvtsi2sdq	%rax, %xmm0
	jmp	.L303
.L302:
	movq	%rax, %rdx
	shrq	%rdx
	andl	$1, %eax
	orq	%rax, %rdx
	pxor	%xmm0, %xmm0
	cvtsi2sdq	%rdx, %xmm0
	addsd	%xmm0, %xmm0
.L303:
	movq	%rbx, %xmm3
	divsd	%xmm0, %xmm3
	movapd	%xmm3, %xmm0
	movq	%xmm0, %rax
	.loc 5 43 0
	movq	%rax, %xmm0
	addq	$176, %rsp
	popq	%rbx
	.cfi_restore 3
	popq	%rsi
	.cfi_restore 4
	popq	%rbp
	.cfi_restore 6
	.cfi_def_cfa 7, 24
	ret
	.cfi_endproc
.LFE7343:
	.seh_endproc
	.section	.text$_ZNK9__gnu_cxx17__normal_iteratorIP14plain_particleSt6vectorIS1_SaIS1_EEEixEx,"x"
	.linkonce discard
	.align 2
	.globl	_ZNK9__gnu_cxx17__normal_iteratorIP14plain_particleSt6vectorIS1_SaIS1_EEEixEx
	.def	_ZNK9__gnu_cxx17__normal_iteratorIP14plain_particleSt6vectorIS1_SaIS1_EEEixEx;	.scl	2;	.type	32;	.endef
	.seh_proc	_ZNK9__gnu_cxx17__normal_iteratorIP14plain_particleSt6vectorIS1_SaIS1_EEEixEx
_ZNK9__gnu_cxx17__normal_iteratorIP14plain_particleSt6vectorIS1_SaIS1_EEEixEx:
.LFB7344:
	.loc 12 785 0
	.cfi_startproc
	pushq	%rbp
	.seh_pushreg	%rbp
	.cfi_def_cfa_offset 16
	.cfi_offset 6, -16
	movq	%rsp, %rbp
	.seh_setframe	%rbp, 0
	.cfi_def_cfa_register 6
	.seh_endprologue
	movq	%rcx, 16(%rbp)
	movq	%rdx, 24(%rbp)
	.loc 12 786 0
	movq	16(%rbp), %rax
	movq	(%rax), %rcx
	movq	24(%rbp), %rdx
	movq	%rdx, %rax
	salq	$2, %rax
	addq	%rdx, %rax
	salq	$2, %rax
	addq	%rcx, %rax
	popq	%rbp
	.cfi_restore 6
	.cfi_def_cfa 7, 8
	ret
	.cfi_endproc
.LFE7344:
	.seh_endproc
	.text
	.def	_Z7measureIZ4mainEUlvE3_EdT_;	.scl	3;	.type	32;	.endef
	.seh_proc	_Z7measureIZ4mainEUlvE3_EdT_
_Z7measureIZ4mainEUlvE3_EdT_:
.LFB7345:
	.loc 5 17 0
	.cfi_startproc
	pushq	%rbp
	.seh_pushreg	%rbp
	.cfi_def_cfa_offset 16
	.cfi_offset 6, -16
	pushq	%rbx
	.seh_pushreg	%rbx
	.cfi_def_cfa_offset 24
	.cfi_offset 3, -24
	subq	$200, %rsp
	.seh_stackalloc	200
	.cfi_def_cfa_offset 224
	leaq	128(%rsp), %rbp
	.seh_setframe	%rbp, 128
	.cfi_def_cfa 6, 96
	.seh_endprologue
	movq	%rcx, %rbx
	movq	(%rbx), %rax
	movq	8(%rbx), %rdx
	movq	%rax, -96(%rbp)
	movq	%rdx, -88(%rbp)
.LBB103:
	.loc 5 26 0
	movl	$0, 60(%rbp)
.L311:
	.loc 5 26 0 is_stmt 0 discriminator 1
	cmpl	$9, 60(%rbp)
	jg	.L308
.LBB104:
	.loc 5 27 0 is_stmt 1
	movl	$0, 56(%rbp)
	.loc 5 28 0
	movq	$0, -80(%rbp)
	.loc 5 30 0
	call	_ZNSt6chrono3_V212system_clock3nowEv
	movq	%rax, measure_start(%rip)
.L310:
	.loc 5 32 0
	leaq	-96(%rbp), %rax
	movq	%rax, %rcx
	call	_ZZ4mainENKUlvE3_clEv
	movl	%eax, _ZZ7measureIZ4mainEUlvE3_EdT_E3res(%rip)
	.loc 5 33 0
	addl	$1, 56(%rbp)
	.loc 5 34 0
	call	_ZNSt6chrono3_V212system_clock3nowEv
	movq	%rax, -80(%rbp)
	.loc 5 35 0
	leaq	-80(%rbp), %rax
	leaq	measure_start(%rip), %rdx
	movq	%rax, %rcx
	call	_ZNSt6chronomiINS_3_V212system_clockENS_8durationIxSt5ratioILx1ELx1000000000EEEES6_EENSt11common_typeIJT0_T1_EE4typeERKNS_10time_pointIT_S8_EERKNSC_ISD_S9_EE
	movq	%rax, 16(%rbp)
	.loc 5 31 0
	leaq	16(%rbp), %rax
	leaq	_ZZ7measureIZ4mainEUlvE3_EdT_E18min_time_per_trial(%rip), %rdx
	movq	%rax, %rcx
	call	_ZNSt6chronoltIxSt5ratioILx1ELx1000000000EExS1_ILx1ELx1000EEEEbRKNS_8durationIT_T0_EERKNS4_IT1_T2_EE
	testb	%al, %al
	je	.L309
	jmp	.L310
.L309:
	.loc 5 36 0 discriminator 2
	movl	60(%rbp), %eax
	movslq	%eax, %rdx
	leaq	-64(%rbp), %rax
	movq	%rax, %rcx
	call	_ZNSt5arrayIdLy10EEixEy
	movq	%rax, %rbx
	leaq	-80(%rbp), %rax
	leaq	measure_start(%rip), %rdx
	movq	%rax, %rcx
	call	_ZNSt6chronomiINS_3_V212system_clockENS_8durationIxSt5ratioILx1ELx1000000000EEEES6_EENSt11common_typeIJT0_T1_EE4typeERKNS_10time_pointIT_S8_EERKNSC_ISD_S9_EE
	movq	%rax, 48(%rbp)
	leaq	48(%rbp), %rax
	movq	%rax, %rcx
	call	_ZNSt6chrono13duration_castINS_8durationIdSt5ratioILx1ELx1EEEExS2_ILx1ELx1000000000EEEENSt9enable_ifIXsrNS_13__is_durationIT_EE5valueES8_E4typeERKNS1_IT0_T1_EE
	movq	%xmm0, %rax
	movq	%rax, %xmm0
	movsd	%xmm0, 32(%rbp)
	leaq	32(%rbp), %rax
	movq	%rax, %rcx
	call	_ZNKSt6chrono8durationIdSt5ratioILx1ELx1EEE5countEv
	movq	%xmm0, %rax
	pxor	%xmm0, %xmm0
	cvtsi2sd	56(%rbp), %xmm0
	movq	%rax, %xmm1
	divsd	%xmm0, %xmm1
	movapd	%xmm1, %xmm0
	movsd	%xmm0, (%rbx)
.LBE104:
	.loc 5 26 0 discriminator 2
	addl	$1, 60(%rbp)
	jmp	.L311
.L308:
.LBE103:
	.loc 5 40 0
	leaq	-64(%rbp), %rax
	movq	%rax, %rcx
	call	_ZNSt5arrayIdLy10EE3endEv
	movq	%rax, %rbx
	leaq	-64(%rbp), %rax
	movq	%rax, %rcx
	call	_ZNSt5arrayIdLy10EE5beginEv
	movq	%rbx, %rdx
	movq	%rax, %rcx
	call	_ZSt4sortIPdEvT_S1_
	.loc 5 42 0
	leaq	-64(%rbp), %rax
	movq	%rax, %rcx
	call	_ZNSt5arrayIdLy10EE3endEv
	.loc 5 41 0
	leaq	-16(%rax), %rbx
	.loc 5 42 0
	leaq	-64(%rbp), %rax
	movq	%rax, %rcx
	call	_ZNSt5arrayIdLy10EE5beginEv
	.loc 5 41 0
	addq	$16, %rax
	pxor	%xmm2, %xmm2
	movq	%rbx, %rdx
	movq	%rax, %rcx
	call	_ZSt10accumulateIPddET0_T_S2_S1_
	movq	%xmm0, %rbx
	.loc 5 42 0
	leaq	-64(%rbp), %rax
	movq	%rax, %rcx
	call	_ZNKSt5arrayIdLy10EE4sizeEv
	subq	$4, %rax
	testq	%rax, %rax
	js	.L312
	pxor	%xmm0, %xmm0
	cvtsi2sdq	%rax, %xmm0
	jmp	.L313
.L312:
	movq	%rax, %rdx
	shrq	%rdx
	andl	$1, %eax
	orq	%rax, %rdx
	pxor	%xmm0, %xmm0
	cvtsi2sdq	%rdx, %xmm0
	addsd	%xmm0, %xmm0
.L313:
	movq	%rbx, %xmm3
	divsd	%xmm0, %xmm3
	movapd	%xmm3, %xmm0
	movq	%xmm0, %rax
	.loc 5 43 0
	movq	%rax, %xmm0
	addq	$200, %rsp
	popq	%rbx
	.cfi_restore 3
	popq	%rbp
	.cfi_restore 6
	.cfi_def_cfa 7, -184
	ret
	.cfi_endproc
.LFE7345:
	.seh_endproc
	.def	_Z7measureIZ4mainEUlvE4_EdT_;	.scl	3;	.type	32;	.endef
	.seh_proc	_Z7measureIZ4mainEUlvE4_EdT_
_Z7measureIZ4mainEUlvE4_EdT_:
.LFB7346:
	.loc 5 17 0
	.cfi_startproc
	pushq	%rbp
	.seh_pushreg	%rbp
	.cfi_def_cfa_offset 16
	.cfi_offset 6, -16
	pushq	%rsi
	.seh_pushreg	%rsi
	.cfi_def_cfa_offset 24
	.cfi_offset 4, -24
	pushq	%rbx
	.seh_pushreg	%rbx
	.cfi_def_cfa_offset 32
	.cfi_offset 3, -32
	movq	%rsp, %rbp
	.seh_setframe	%rbp, 0
	.cfi_def_cfa_register 6
	subq	$176, %rsp
	.seh_stackalloc	176
	.seh_endprologue
	movq	%rcx, %rsi
.LBB105:
	.loc 5 26 0
	movl	$0, -4(%rbp)
.L319:
	.loc 5 26 0 is_stmt 0 discriminator 1
	cmpl	$9, -4(%rbp)
	jg	.L316
.LBB106:
	.loc 5 27 0 is_stmt 1
	movl	$0, -8(%rbp)
	.loc 5 28 0
	movq	$0, -144(%rbp)
	.loc 5 30 0
	call	_ZNSt6chrono3_V212system_clock3nowEv
	movq	%rax, measure_start(%rip)
.L318:
	.loc 5 32 0
	movq	%rsi, %rcx
	call	_ZZ4mainENKUlvE4_clEv
	movl	%eax, _ZZ7measureIZ4mainEUlvE4_EdT_E3res(%rip)
	.loc 5 33 0
	addl	$1, -8(%rbp)
	.loc 5 34 0
	call	_ZNSt6chrono3_V212system_clock3nowEv
	movq	%rax, -144(%rbp)
	.loc 5 35 0
	leaq	-144(%rbp), %rax
	leaq	measure_start(%rip), %rdx
	movq	%rax, %rcx
	call	_ZNSt6chronomiINS_3_V212system_clockENS_8durationIxSt5ratioILx1ELx1000000000EEEES6_EENSt11common_typeIJT0_T1_EE4typeERKNS_10time_pointIT_S8_EERKNSC_ISD_S9_EE
	movq	%rax, -48(%rbp)
	.loc 5 31 0
	leaq	-48(%rbp), %rax
	leaq	_ZZ7measureIZ4mainEUlvE4_EdT_E18min_time_per_trial(%rip), %rdx
	movq	%rax, %rcx
	call	_ZNSt6chronoltIxSt5ratioILx1ELx1000000000EExS1_ILx1ELx1000EEEEbRKNS_8durationIT_T0_EERKNS4_IT1_T2_EE
	testb	%al, %al
	je	.L317
	jmp	.L318
.L317:
	.loc 5 36 0 discriminator 2
	movl	-4(%rbp), %eax
	movslq	%eax, %rdx
	leaq	-128(%rbp), %rax
	movq	%rax, %rcx
	call	_ZNSt5arrayIdLy10EEixEy
	movq	%rax, %rbx
	leaq	-144(%rbp), %rax
	leaq	measure_start(%rip), %rdx
	movq	%rax, %rcx
	call	_ZNSt6chronomiINS_3_V212system_clockENS_8durationIxSt5ratioILx1ELx1000000000EEEES6_EENSt11common_typeIJT0_T1_EE4typeERKNS_10time_pointIT_S8_EERKNSC_ISD_S9_EE
	movq	%rax, -16(%rbp)
	leaq	-16(%rbp), %rax
	movq	%rax, %rcx
	call	_ZNSt6chrono13duration_castINS_8durationIdSt5ratioILx1ELx1EEEExS2_ILx1ELx1000000000EEEENSt9enable_ifIXsrNS_13__is_durationIT_EE5valueES8_E4typeERKNS1_IT0_T1_EE
	movq	%xmm0, %rax
	movq	%rax, %xmm0
	movsd	%xmm0, -32(%rbp)
	leaq	-32(%rbp), %rax
	movq	%rax, %rcx
	call	_ZNKSt6chrono8durationIdSt5ratioILx1ELx1EEE5countEv
	movq	%xmm0, %rax
	pxor	%xmm0, %xmm0
	cvtsi2sd	-8(%rbp), %xmm0
	movq	%rax, %xmm1
	divsd	%xmm0, %xmm1
	movapd	%xmm1, %xmm0
	movsd	%xmm0, (%rbx)
.LBE106:
	.loc 5 26 0 discriminator 2
	addl	$1, -4(%rbp)
	jmp	.L319
.L316:
.LBE105:
	.loc 5 40 0
	leaq	-128(%rbp), %rax
	movq	%rax, %rcx
	call	_ZNSt5arrayIdLy10EE3endEv
	movq	%rax, %rbx
	leaq	-128(%rbp), %rax
	movq	%rax, %rcx
	call	_ZNSt5arrayIdLy10EE5beginEv
	movq	%rbx, %rdx
	movq	%rax, %rcx
	call	_ZSt4sortIPdEvT_S1_
	.loc 5 42 0
	leaq	-128(%rbp), %rax
	movq	%rax, %rcx
	call	_ZNSt5arrayIdLy10EE3endEv
	.loc 5 41 0
	leaq	-16(%rax), %rbx
	.loc 5 42 0
	leaq	-128(%rbp), %rax
	movq	%rax, %rcx
	call	_ZNSt5arrayIdLy10EE5beginEv
	.loc 5 41 0
	addq	$16, %rax
	pxor	%xmm2, %xmm2
	movq	%rbx, %rdx
	movq	%rax, %rcx
	call	_ZSt10accumulateIPddET0_T_S2_S1_
	movq	%xmm0, %rbx
	.loc 5 42 0
	leaq	-128(%rbp), %rax
	movq	%rax, %rcx
	call	_ZNKSt5arrayIdLy10EE4sizeEv
	subq	$4, %rax
	testq	%rax, %rax
	js	.L320
	pxor	%xmm0, %xmm0
	cvtsi2sdq	%rax, %xmm0
	jmp	.L321
.L320:
	movq	%rax, %rdx
	shrq	%rdx
	andl	$1, %eax
	orq	%rax, %rdx
	pxor	%xmm0, %xmm0
	cvtsi2sdq	%rdx, %xmm0
	addsd	%xmm0, %xmm0
.L321:
	movq	%rbx, %xmm3
	divsd	%xmm0, %xmm3
	movapd	%xmm3, %xmm0
	movq	%xmm0, %rax
	.loc 5 43 0
	movq	%rax, %xmm0
	addq	$176, %rsp
	popq	%rbx
	.cfi_restore 3
	popq	%rsi
	.cfi_restore 4
	popq	%rbp
	.cfi_restore 6
	.cfi_def_cfa 7, 24
	ret
	.cfi_endproc
.LFE7346:
	.seh_endproc
	.section	.text$_ZNK3dod7pointerI8particleINS_6accessIJNS_6memberIcLi0EEENS3_IiLi0EEENS3_IiLi1EEENS3_IiLi2EEENS3_IiLi3EEEEEEEEixEy,"x"
	.linkonce discard
	.align 2
	.globl	_ZNK3dod7pointerI8particleINS_6accessIJNS_6memberIcLi0EEENS3_IiLi0EEENS3_IiLi1EEENS3_IiLi2EEENS3_IiLi3EEEEEEEEixEy
	.def	_ZNK3dod7pointerI8particleINS_6accessIJNS_6memberIcLi0EEENS3_IiLi0EEENS3_IiLi1EEENS3_IiLi2EEENS3_IiLi3EEEEEEEEixEy;	.scl	2;	.type	32;	.endef
	.seh_proc	_ZNK3dod7pointerI8particleINS_6accessIJNS_6memberIcLi0EEENS3_IiLi0EEENS3_IiLi1EEENS3_IiLi2EEENS3_IiLi3EEEEEEEEixEy
_ZNK3dod7pointerI8particleINS_6accessIJNS_6memberIcLi0EEENS3_IiLi0EEENS3_IiLi1EEENS3_IiLi2EEENS3_IiLi3EEEEEEEEixEy:
.LFB7347:
	.loc 5 127 0
	.cfi_startproc
	pushq	%rbp
	.seh_pushreg	%rbp
	.cfi_def_cfa_offset 16
	.cfi_offset 6, -16
	movq	%rsp, %rbp
	.seh_setframe	%rbp, 0
	.cfi_def_cfa_register 6
	subq	$80, %rsp
	.seh_stackalloc	80
	.seh_endprologue
	movq	%rcx, 16(%rbp)
	movq	%rdx, 24(%rbp)
	movq	%r8, 32(%rbp)
	.loc 5 127 0
	movq	32(%rbp), %rcx
	leaq	-48(%rbp), %rax
	movq	24(%rbp), %rdx
	movq	%rcx, %r8
	movq	%rax, %rcx
	call	_ZN5boost9iteratorsplIN3dod7pointerI8particleINS2_6accessIJNS2_6memberIcLi0EEENS6_IiLi0EEENS6_IiLi1EEENS6_IiLi2EEENS6_IiLi3EEEEEEEEESD_NS0_27random_access_traversal_tagESD_xEENS0_9enable_ifINS0_6detail21is_traversal_at_leastIT1_SF_EET_E4typeERKNS0_15iterator_facadeISL_T0_SJ_T2_T3_EENSL_15difference_typeE
	movq	16(%rbp), %rax
	leaq	-48(%rbp), %rdx
	movq	%rax, %rcx
	call	_ZNK5boost9iterators6detail20iterator_facade_baseIN3dod7pointerI8particleINS3_6accessIJNS3_6memberIcLi0EEENS7_IiLi0EEENS7_IiLi1EEENS7_IiLi2EEENS7_IiLi3EEEEEEEEESE_NS0_27random_access_traversal_tagESE_xLb0ELb0EEdeEv
	movq	16(%rbp), %rax
	addq	$80, %rsp
	popq	%rbp
	.cfi_restore 6
	.cfi_def_cfa 7, 8
	ret
	.cfi_endproc
.LFE7347:
	.seh_endproc
	.weak	_ZNK3dod7pointerI8particleINS_6accessIINS_6memberIcLi0EEENS3_IiLi0EEENS3_IiLi1EEENS3_IiLi2EEENS3_IiLi3EEEEEEEEixEy
	.def	_ZNK3dod7pointerI8particleINS_6accessIINS_6memberIcLi0EEENS3_IiLi0EEENS3_IiLi1EEENS3_IiLi2EEENS3_IiLi3EEEEEEEEixEy;	.scl	2;	.type	32;	.endef
	.set	_ZNK3dod7pointerI8particleINS_6accessIINS_6memberIcLi0EEENS3_IiLi0EEENS3_IiLi1EEENS3_IiLi2EEENS3_IiLi3EEEEEEEEixEy,_ZNK3dod7pointerI8particleINS_6accessIJNS_6memberIcLi0EEENS3_IiLi0EEENS3_IiLi1EEENS3_IiLi2EEENS3_IiLi3EEEEEEEEixEy
	.text
	.def	_Z7measureIZ4mainEUlvE5_EdT_;	.scl	3;	.type	32;	.endef
	.seh_proc	_Z7measureIZ4mainEUlvE5_EdT_
_Z7measureIZ4mainEUlvE5_EdT_:
.LFB7348:
	.loc 5 17 0
	.cfi_startproc
	pushq	%rbp
	.seh_pushreg	%rbp
	.cfi_def_cfa_offset 16
	.cfi_offset 6, -16
	pushq	%rsi
	.seh_pushreg	%rsi
	.cfi_def_cfa_offset 24
	.cfi_offset 4, -24
	pushq	%rbx
	.seh_pushreg	%rbx
	.cfi_def_cfa_offset 32
	.cfi_offset 3, -32
	movq	%rsp, %rbp
	.seh_setframe	%rbp, 0
	.cfi_def_cfa_register 6
	subq	$176, %rsp
	.seh_stackalloc	176
	.seh_endprologue
	movq	%rcx, %rsi
.LBB107:
	.loc 5 26 0
	movl	$0, -4(%rbp)
.L329:
	.loc 5 26 0 is_stmt 0 discriminator 1
	cmpl	$9, -4(%rbp)
	jg	.L326
.LBB108:
	.loc 5 27 0 is_stmt 1
	movl	$0, -8(%rbp)
	.loc 5 28 0
	movq	$0, -144(%rbp)
	.loc 5 30 0
	call	_ZNSt6chrono3_V212system_clock3nowEv
	movq	%rax, measure_start(%rip)
.L328:
	.loc 5 32 0
	movq	%rsi, %rcx
	call	_ZZ4mainENKUlvE5_clEv
	movl	%eax, _ZZ7measureIZ4mainEUlvE5_EdT_E3res(%rip)
	.loc 5 33 0
	addl	$1, -8(%rbp)
	.loc 5 34 0
