	.file	"dod_perfv2.cpp"
	.text
.Ltext0:
	.section	.rodata
	.type	_ZStL19piecewise_construct, @object
	.size	_ZStL19piecewise_construct, 1
_ZStL19piecewise_construct:
	.zero	1
	.section	.text._ZN9__gnu_cxx5__ops16__iter_less_iterEv,"axG",@progbits,_ZN9__gnu_cxx5__ops16__iter_less_iterEv,comdat
	.weak	_ZN9__gnu_cxx5__ops16__iter_less_iterEv
	.type	_ZN9__gnu_cxx5__ops16__iter_less_iterEv, @function
_ZN9__gnu_cxx5__ops16__iter_less_iterEv:
.LFB183:
	.file 1 "/usr/include/c++/5.2.0/bits/predefined_ops.h"
	.loc 1 48 0
	.cfi_startproc
	pushq	%rbp
	.cfi_def_cfa_offset 16
	.cfi_offset 6, -16
	movq	%rsp, %rbp
	.cfi_def_cfa_register 6
	.loc 1 48 0
	popq	%rbp
	.cfi_def_cfa 7, 8
	ret
	.cfi_endproc
.LFE183:
	.size	_ZN9__gnu_cxx5__ops16__iter_less_iterEv, .-_ZN9__gnu_cxx5__ops16__iter_less_iterEv
	.section	.text._ZN9__gnu_cxx5__ops15__iter_comp_valENS0_15_Iter_less_iterE,"axG",@progbits,_ZN9__gnu_cxx5__ops15__iter_comp_valENS0_15_Iter_less_iterE,comdat
	.weak	_ZN9__gnu_cxx5__ops15__iter_comp_valENS0_15_Iter_less_iterE
	.type	_ZN9__gnu_cxx5__ops15__iter_comp_valENS0_15_Iter_less_iterE, @function
_ZN9__gnu_cxx5__ops15__iter_comp_valENS0_15_Iter_less_iterE:
.LFB186:
	.loc 1 64 0
	.cfi_startproc
	pushq	%rbp
	.cfi_def_cfa_offset 16
	.cfi_offset 6, -16
	movq	%rsp, %rbp
	.cfi_def_cfa_register 6
	.loc 1 64 0
	popq	%rbp
	.cfi_def_cfa 7, 8
	ret
	.cfi_endproc
.LFE186:
	.size	_ZN9__gnu_cxx5__ops15__iter_comp_valENS0_15_Iter_less_iterE, .-_ZN9__gnu_cxx5__ops15__iter_comp_valENS0_15_Iter_less_iterE
	.section	.text._ZN9__gnu_cxx5__ops15__val_comp_iterENS0_15_Iter_less_iterE,"axG",@progbits,_ZN9__gnu_cxx5__ops15__val_comp_iterENS0_15_Iter_less_iterE,comdat
	.weak	_ZN9__gnu_cxx5__ops15__val_comp_iterENS0_15_Iter_less_iterE
	.type	_ZN9__gnu_cxx5__ops15__val_comp_iterENS0_15_Iter_less_iterE, @function
_ZN9__gnu_cxx5__ops15__val_comp_iterENS0_15_Iter_less_iterE:
.LFB189:
	.loc 1 80 0
	.cfi_startproc
	pushq	%rbp
	.cfi_def_cfa_offset 16
	.cfi_offset 6, -16
	movq	%rsp, %rbp
	.cfi_def_cfa_register 6
	.loc 1 80 0
	popq	%rbp
	.cfi_def_cfa 7, 8
	ret
	.cfi_endproc
.LFE189:
	.size	_ZN9__gnu_cxx5__ops15__val_comp_iterENS0_15_Iter_less_iterE, .-_ZN9__gnu_cxx5__ops15__val_comp_iterENS0_15_Iter_less_iterE
	.section	.text._ZSt4__lgl,"axG",@progbits,_ZSt4__lgl,comdat
	.weak	_ZSt4__lgl
	.type	_ZSt4__lgl, @function
_ZSt4__lgl:
.LFB273:
	.file 2 "/usr/include/c++/5.2.0/bits/stl_algobase.h"
	.loc 2 1021 0
	.cfi_startproc
	pushq	%rbp
	.cfi_def_cfa_offset 16
	.cfi_offset 6, -16
	movq	%rsp, %rbp
	.cfi_def_cfa_register 6
	movq	%rdi, -8(%rbp)
	.loc 2 1021 0
	movl	$64, %edx
	movq	-8(%rbp), %rax
	bsrq	%rax, %rax
	xorq	$63, %rax
	cltq
	subq	%rax, %rdx
	movq	%rdx, %rax
	subq	$1, %rax
	popq	%rbp
	.cfi_def_cfa 7, 8
	ret
	.cfi_endproc
.LFE273:
	.size	_ZSt4__lgl, .-_ZSt4__lgl
	.section	.text._ZnwmPv,"axG",@progbits,_ZnwmPv,comdat
	.weak	_ZnwmPv
	.type	_ZnwmPv, @function
_ZnwmPv:
.LFB348:
	.file 3 "/usr/include/c++/5.2.0/new"
	.loc 3 130 0
	.cfi_startproc
	pushq	%rbp
	.cfi_def_cfa_offset 16
	.cfi_offset 6, -16
	movq	%rsp, %rbp
	.cfi_def_cfa_register 6
	movq	%rdi, -8(%rbp)
	movq	%rsi, -16(%rbp)
	.loc 3 130 0
	movq	-16(%rbp), %rax
	popq	%rbp
	.cfi_def_cfa 7, 8
	ret
	.cfi_endproc
.LFE348:
	.size	_ZnwmPv, .-_ZnwmPv
	.section	.text._ZNSt6chrono8durationIlSt5ratioILl1ELl1000000000EEEC1IlvEERKT_,"axG",@progbits,_ZNSt6chrono8durationIlSt5ratioILl1ELl1000000000EEEC1IlvEERKT_,comdat
	.align 2
	.weak	_ZNSt6chrono8durationIlSt5ratioILl1ELl1000000000EEEC1IlvEERKT_
	.type	_ZNSt6chrono8durationIlSt5ratioILl1ELl1000000000EEEC1IlvEERKT_, @function
_ZNSt6chrono8durationIlSt5ratioILl1ELl1000000000EEEC1IlvEERKT_:
.LFB6221:
	.file 4 "/usr/include/c++/5.2.0/chrono"
	.loc 4 263 0
	.cfi_startproc
	pushq	%rbp
	.cfi_def_cfa_offset 16
	.cfi_offset 6, -16
	movq	%rsp, %rbp
	.cfi_def_cfa_register 6
	movq	%rdi, -8(%rbp)
	movq	%rsi, -16(%rbp)
.LBB34:
	.loc 4 264 0
	movq	-16(%rbp), %rax
	movq	(%rax), %rdx
	movq	-8(%rbp), %rax
	movq	%rdx, (%rax)
.LBE34:
	nop
	popq	%rbp
	.cfi_def_cfa 7, 8
	ret
	.cfi_endproc
.LFE6221:
	.size	_ZNSt6chrono8durationIlSt5ratioILl1ELl1000000000EEEC1IlvEERKT_, .-_ZNSt6chrono8durationIlSt5ratioILl1ELl1000000000EEEC1IlvEERKT_
	.section	.text._ZNKSt6chrono8durationIlSt5ratioILl1ELl1000000000EEE5countEv,"axG",@progbits,_ZNKSt6chrono8durationIlSt5ratioILl1ELl1000000000EEE5countEv,comdat
	.align 2
	.weak	_ZNKSt6chrono8durationIlSt5ratioILl1ELl1000000000EEE5countEv
	.type	_ZNKSt6chrono8durationIlSt5ratioILl1ELl1000000000EEE5countEv, @function
_ZNKSt6chrono8durationIlSt5ratioILl1ELl1000000000EEE5countEv:
.LFB6225:
	.loc 4 278 0
	.cfi_startproc
	pushq	%rbp
	.cfi_def_cfa_offset 16
	.cfi_offset 6, -16
	movq	%rsp, %rbp
	.cfi_def_cfa_register 6
	movq	%rdi, -8(%rbp)
	.loc 4 279 0
	movq	-8(%rbp), %rax
	movq	(%rax), %rax
	popq	%rbp
	.cfi_def_cfa 7, 8
	ret
	.cfi_endproc
.LFE6225:
	.size	_ZNKSt6chrono8durationIlSt5ratioILl1ELl1000000000EEE5countEv, .-_ZNKSt6chrono8durationIlSt5ratioILl1ELl1000000000EEE5countEv
	.section	.text._ZNKSt6chrono10time_pointINS_3_V212system_clockENS_8durationIlSt5ratioILl1ELl1000000000EEEEE16time_since_epochEv,"axG",@progbits,_ZNKSt6chrono10time_pointINS_3_V212system_clockENS_8durationIlSt5ratioILl1ELl1000000000EEEEE16time_since_epochEv,comdat
	.align 2
	.weak	_ZNKSt6chrono10time_pointINS_3_V212system_clockENS_8durationIlSt5ratioILl1ELl1000000000EEEEE16time_since_epochEv
	.type	_ZNKSt6chrono10time_pointINS_3_V212system_clockENS_8durationIlSt5ratioILl1ELl1000000000EEEEE16time_since_epochEv, @function
_ZNKSt6chrono10time_pointINS_3_V212system_clockENS_8durationIlSt5ratioILl1ELl1000000000EEEEE16time_since_epochEv:
.LFB6227:
	.loc 4 568 0
	.cfi_startproc
	pushq	%rbp
	.cfi_def_cfa_offset 16
	.cfi_offset 6, -16
	movq	%rsp, %rbp
	.cfi_def_cfa_register 6
	movq	%rdi, -8(%rbp)
	.loc 4 569 0
	movq	-8(%rbp), %rax
	movq	(%rax), %rax
	popq	%rbp
	.cfi_def_cfa 7, 8
	ret
	.cfi_endproc
.LFE6227:
	.size	_ZNKSt6chrono10time_pointINS_3_V212system_clockENS_8durationIlSt5ratioILl1ELl1000000000EEEEE16time_since_epochEv, .-_ZNKSt6chrono10time_pointINS_3_V212system_clockENS_8durationIlSt5ratioILl1ELl1000000000EEEEE16time_since_epochEv
	.globl	measure_start
	.bss
	.align 8
	.type	measure_start, @object
	.size	measure_start, 8
measure_start:
	.zero	8
	.globl	measure_pause
	.align 8
	.type	measure_pause, @object
	.size	measure_pause, 8
measure_pause:
	.zero	8
	.text
	.globl	_Z12pause_timingv
	.type	_Z12pause_timingv, @function
_Z12pause_timingv:
.LFB6249:
	.file 5 "/home/manu343726/Documentos/joaquin-dod/dod_perfv2.cpp"
	.loc 5 46 0
	.cfi_startproc
	pushq	%rbp
	.cfi_def_cfa_offset 16
	.cfi_offset 6, -16
	movq	%rsp, %rbp
	.cfi_def_cfa_register 6
	.loc 5 47 0
	call	_ZNSt6chrono3_V212system_clock3nowEv
	movq	%rax, measure_pause(%rip)
	.loc 5 48 0
	nop
	popq	%rbp
	.cfi_def_cfa 7, 8
	ret
	.cfi_endproc
.LFE6249:
	.size	_Z12pause_timingv, .-_Z12pause_timingv
	.section	.text._ZNSt6chronomiIlSt5ratioILl1ELl1000000000EElS2_EENSt11common_typeIJNS_8durationIT_T0_EENS4_IT1_T2_EEEE4typeERKS7_RKSA_,"axG",@progbits,_ZNSt6chronomiIlSt5ratioILl1ELl1000000000EElS2_EENSt11common_typeIJNS_8durationIT_T0_EENS4_IT1_T2_EEEE4typeERKS7_RKSA_,comdat
	.weak	_ZNSt6chronomiIlSt5ratioILl1ELl1000000000EElS2_EENSt11common_typeIJNS_8durationIT_T0_EENS4_IT1_T2_EEEE4typeERKS7_RKSA_
	.type	_ZNSt6chronomiIlSt5ratioILl1ELl1000000000EElS2_EENSt11common_typeIJNS_8durationIT_T0_EENS4_IT1_T2_EEEE4typeERKS7_RKSA_, @function
_ZNSt6chronomiIlSt5ratioILl1ELl1000000000EElS2_EENSt11common_typeIJNS_8durationIT_T0_EENS4_IT1_T2_EEEE4typeERKS7_RKSA_:
.LFB6252:
	.loc 4 393 0
	.cfi_startproc
	pushq	%rbp
	.cfi_def_cfa_offset 16
	.cfi_offset 6, -16
	movq	%rsp, %rbp
	.cfi_def_cfa_register 6
	pushq	%rbx
	subq	$72, %rsp
	.cfi_offset 3, -24
	movq	%rdi, -72(%rbp)
	movq	%rsi, -80(%rbp)
	.loc 4 399 0
	movq	-72(%rbp), %rax
	movq	(%rax), %rax
	movq	%rax, -48(%rbp)
	leaq	-48(%rbp), %rax
	movq	%rax, %rdi
	call	_ZNKSt6chrono8durationIlSt5ratioILl1ELl1000000000EEE5countEv
	movq	%rax, %rbx
	movq	-80(%rbp), %rax
	movq	(%rax), %rax
	movq	%rax, -32(%rbp)
	leaq	-32(%rbp), %rax
	movq	%rax, %rdi
	call	_ZNKSt6chrono8durationIlSt5ratioILl1ELl1000000000EEE5countEv
	subq	%rax, %rbx
	movq	%rbx, %rax
	movq	%rax, -56(%rbp)
	leaq	-56(%rbp), %rdx
	leaq	-64(%rbp), %rax
	movq	%rdx, %rsi
	movq	%rax, %rdi
	call	_ZNSt6chrono8durationIlSt5ratioILl1ELl1000000000EEEC1IlvEERKT_
	movq	-64(%rbp), %rax
	.loc 4 400 0
	addq	$72, %rsp
	popq	%rbx
	popq	%rbp
	.cfi_def_cfa 7, 8
	ret
	.cfi_endproc
.LFE6252:
	.size	_ZNSt6chronomiIlSt5ratioILl1ELl1000000000EElS2_EENSt11common_typeIJNS_8durationIT_T0_EENS4_IT1_T2_EEEE4typeERKS7_RKSA_, .-_ZNSt6chronomiIlSt5ratioILl1ELl1000000000EElS2_EENSt11common_typeIJNS_8durationIT_T0_EENS4_IT1_T2_EEEE4typeERKS7_RKSA_
	.weak	_ZNSt6chronomiIlSt5ratioILl1ELl1000000000EElS2_EENSt11common_typeIINS_8durationIT_T0_EENS4_IT1_T2_EEEE4typeERKS7_RKSA_
	.set	_ZNSt6chronomiIlSt5ratioILl1ELl1000000000EElS2_EENSt11common_typeIINS_8durationIT_T0_EENS4_IT1_T2_EEEE4typeERKS7_RKSA_,_ZNSt6chronomiIlSt5ratioILl1ELl1000000000EElS2_EENSt11common_typeIJNS_8durationIT_T0_EENS4_IT1_T2_EEEE4typeERKS7_RKSA_
	.section	.text._ZNSt6chronomiINS_3_V212system_clockENS_8durationIlSt5ratioILl1ELl1000000000EEEES6_EENSt11common_typeIJT0_T1_EE4typeERKNS_10time_pointIT_S8_EERKNSC_ISD_S9_EE,"axG",@progbits,_ZNSt6chronomiINS_3_V212system_clockENS_8durationIlSt5ratioILl1ELl1000000000EEEES6_EENSt11common_typeIJT0_T1_EE4typeERKNS_10time_pointIT_S8_EERKNSC_ISD_S9_EE,comdat
	.weak	_ZNSt6chronomiINS_3_V212system_clockENS_8durationIlSt5ratioILl1ELl1000000000EEEES6_EENSt11common_typeIJT0_T1_EE4typeERKNS_10time_pointIT_S8_EERKNSC_ISD_S9_EE
	.type	_ZNSt6chronomiINS_3_V212system_clockENS_8durationIlSt5ratioILl1ELl1000000000EEEES6_EENSt11common_typeIJT0_T1_EE4typeERKNS_10time_pointIT_S8_EERKNSC_ISD_S9_EE, @function
_ZNSt6chronomiINS_3_V212system_clockENS_8durationIlSt5ratioILl1ELl1000000000EEEES6_EENSt11common_typeIJT0_T1_EE4typeERKNS_10time_pointIT_S8_EERKNSC_ISD_S9_EE:
.LFB6251:
	.loc 4 650 0
	.cfi_startproc
	pushq	%rbp
	.cfi_def_cfa_offset 16
	.cfi_offset 6, -16
	movq	%rsp, %rbp
	.cfi_def_cfa_register 6
	subq	$48, %rsp
	movq	%rdi, -40(%rbp)
	movq	%rsi, -48(%rbp)
	.loc 4 652 0
	movq	-48(%rbp), %rax
	movq	%rax, %rdi
	call	_ZNKSt6chrono10time_pointINS_3_V212system_clockENS_8durationIlSt5ratioILl1ELl1000000000EEEEE16time_since_epochEv
	movq	%rax, -32(%rbp)
	movq	-40(%rbp), %rax
	movq	%rax, %rdi
	call	_ZNKSt6chrono10time_pointINS_3_V212system_clockENS_8durationIlSt5ratioILl1ELl1000000000EEEEE16time_since_epochEv
	movq	%rax, -16(%rbp)
	leaq	-32(%rbp), %rdx
	leaq	-16(%rbp), %rax
	movq	%rdx, %rsi
	movq	%rax, %rdi
	call	_ZNSt6chronomiIlSt5ratioILl1ELl1000000000EElS2_EENSt11common_typeIJNS_8durationIT_T0_EENS4_IT1_T2_EEEE4typeERKS7_RKSA_
	leave
	.cfi_def_cfa 7, 8
	ret
	.cfi_endproc
.LFE6251:
	.size	_ZNSt6chronomiINS_3_V212system_clockENS_8durationIlSt5ratioILl1ELl1000000000EEEES6_EENSt11common_typeIJT0_T1_EE4typeERKNS_10time_pointIT_S8_EERKNSC_ISD_S9_EE, .-_ZNSt6chronomiINS_3_V212system_clockENS_8durationIlSt5ratioILl1ELl1000000000EEEES6_EENSt11common_typeIJT0_T1_EE4typeERKNS_10time_pointIT_S8_EERKNSC_ISD_S9_EE
	.weak	_ZNSt6chronomiINS_3_V212system_clockENS_8durationIlSt5ratioILl1ELl1000000000EEEES6_EENSt11common_typeIIT0_T1_EE4typeERKNS_10time_pointIT_S8_EERKNSC_ISD_S9_EE
	.set	_ZNSt6chronomiINS_3_V212system_clockENS_8durationIlSt5ratioILl1ELl1000000000EEEES6_EENSt11common_typeIIT0_T1_EE4typeERKNS_10time_pointIT_S8_EERKNSC_ISD_S9_EE,_ZNSt6chronomiINS_3_V212system_clockENS_8durationIlSt5ratioILl1ELl1000000000EEEES6_EENSt11common_typeIJT0_T1_EE4typeERKNS_10time_pointIT_S8_EERKNSC_ISD_S9_EE
	.text
	.globl	_Z13resume_timingv
	.type	_Z13resume_timingv, @function
_Z13resume_timingv:
.LFB6250:
	.loc 5 51 0
	.cfi_startproc
	pushq	%rbp
	.cfi_def_cfa_offset 16
	.cfi_offset 6, -16
	movq	%rsp, %rbp
	.cfi_def_cfa_register 6
	subq	$32, %rsp
	.loc 5 52 0
	call	_ZNSt6chrono3_V212system_clock3nowEv
	movq	%rax, -16(%rbp)
	leaq	-16(%rbp), %rax
	movl	$measure_pause, %esi
	movq	%rax, %rdi
	call	_ZNSt6chronomiINS_3_V212system_clockENS_8durationIlSt5ratioILl1ELl1000000000EEEES6_EENSt11common_typeIJT0_T1_EE4typeERKNS_10time_pointIT_S8_EERKNSC_ISD_S9_EE
	movq	%rax, -32(%rbp)
	leaq	-32(%rbp), %rax
	movq	%rax, %rsi
	movl	$measure_start, %edi
	call	_ZNSt6chrono10time_pointINS_3_V212system_clockENS_8durationIlSt5ratioILl1ELl1000000000EEEEEpLERKS6_
	.loc 5 53 0
	nop
	leave
	.cfi_def_cfa 7, 8
	ret
	.cfi_endproc
.LFE6250:
	.size	_Z13resume_timingv, .-_Z13resume_timingv
	.section	.rodata
	.type	_ZStL13allocator_arg, @object
	.size	_ZStL13allocator_arg, 1
_ZStL13allocator_arg:
	.zero	1
	.type	_ZStL6ignore, @object
	.size	_ZStL6ignore, 1
_ZStL6ignore:
	.zero	1
	.section	.text._ZN3dod6accessIJEEC2Ev,"axG",@progbits,_ZN3dod6accessIJEEC5Ev,comdat
	.align 2
	.weak	_ZN3dod6accessIJEEC2Ev
	.type	_ZN3dod6accessIJEEC2Ev, @function
_ZN3dod6accessIJEEC2Ev:
.LFB6976:
	.loc 5 77 0
	.cfi_startproc
	pushq	%rbp
	.cfi_def_cfa_offset 16
	.cfi_offset 6, -16
	movq	%rsp, %rbp
	.cfi_def_cfa_register 6
	movq	%rdi, -8(%rbp)
.LBB35:
	.loc 5 77 0
	movq	-8(%rbp), %rax
	movq	$0, (%rax)
.LBE35:
	nop
	popq	%rbp
	.cfi_def_cfa 7, 8
	ret
	.cfi_endproc
.LFE6976:
	.size	_ZN3dod6accessIJEEC2Ev, .-_ZN3dod6accessIJEEC2Ev
	.weak	_ZN3dod6accessIIEEC1Ev
	.set	_ZN3dod6accessIIEEC1Ev,_ZN3dod6accessIJEEC2Ev
	.weak	_ZN3dod6accessIJEEC1Ev
	.set	_ZN3dod6accessIJEEC1Ev,_ZN3dod6accessIJEEC2Ev
	.weak	_ZN3dod6accessIIEEC2Ev
	.set	_ZN3dod6accessIIEEC2Ev,_ZN3dod6accessIJEEC2Ev
	.section	.text._ZN3dod6accessIJEEC2ERKS1_l,"axG",@progbits,_ZN3dod6accessIJEEC5ERKS1_l,comdat
	.align 2
	.weak	_ZN3dod6accessIJEEC2ERKS1_l
	.type	_ZN3dod6accessIJEEC2ERKS1_l, @function
_ZN3dod6accessIJEEC2ERKS1_l:
.LFB6979:
	.loc 5 78 0
	.cfi_startproc
	pushq	%rbp
	.cfi_def_cfa_offset 16
	.cfi_offset 6, -16
	movq	%rsp, %rbp
	.cfi_def_cfa_register 6
	movq	%rdi, -8(%rbp)
	movq	%rsi, -16(%rbp)
	movq	%rdx, -24(%rbp)
.LBB36:
	.loc 5 78 0
	movq	-16(%rbp), %rax
	movq	(%rax), %rdx
	movq	-24(%rbp), %rax
	addq	%rax, %rdx
	movq	-8(%rbp), %rax
	movq	%rdx, (%rax)
.LBE36:
	nop
	popq	%rbp
	.cfi_def_cfa 7, 8
	ret
	.cfi_endproc
.LFE6979:
	.size	_ZN3dod6accessIJEEC2ERKS1_l, .-_ZN3dod6accessIJEEC2ERKS1_l
	.weak	_ZN3dod6accessIIEEC1ERKS1_l
	.set	_ZN3dod6accessIIEEC1ERKS1_l,_ZN3dod6accessIJEEC2ERKS1_l
	.weak	_ZN3dod6accessIJEEC1ERKS1_l
	.set	_ZN3dod6accessIJEEC1ERKS1_l,_ZN3dod6accessIJEEC2ERKS1_l
	.weak	_ZN3dod6accessIIEEC2ERKS1_l
	.set	_ZN3dod6accessIIEEC2ERKS1_l,_ZN3dod6accessIJEEC2ERKS1_l
	.local	_ZStL8__ioinit
	.comm	_ZStL8__ioinit,1,1
	.local	_ZL13render_output
	.comm	_ZL13render_output,4,4
	.text
	.globl	_Z9do_renderiic
	.type	_Z9do_renderiic, @function
_Z9do_renderiic:
.LFB6999:
	.loc 5 164 0
	.cfi_startproc
	pushq	%rbp
	.cfi_def_cfa_offset 16
	.cfi_offset 6, -16
	movq	%rsp, %rbp
	.cfi_def_cfa_register 6
	movl	%edi, -4(%rbp)
	movl	%esi, -8(%rbp)
	movl	%edx, %eax
	movb	%al, -12(%rbp)
	.loc 5 165 0
	movl	-4(%rbp), %edx
	movl	-8(%rbp), %eax
	addl	%eax, %edx
	movsbl	-12(%rbp), %eax
	addl	%eax, %edx
	movl	_ZL13render_output(%rip), %eax
	addl	%edx, %eax
	movl	%eax, _ZL13render_output(%rip)
	.loc 5 166 0
	nop
	popq	%rbp
	.cfi_def_cfa 7, 8
	ret
	.cfi_endproc
.LFE6999:
	.size	_Z9do_renderiic, .-_Z9do_renderiic
	.section	.text._ZN14plain_particleC2Eciiii,"axG",@progbits,_ZN14plain_particleC5Eciiii,comdat
	.align 2
	.weak	_ZN14plain_particleC2Eciiii
	.type	_ZN14plain_particleC2Eciiii, @function
_ZN14plain_particleC2Eciiii:
.LFB7001:
	.loc 5 180 0
	.cfi_startproc
	pushq	%rbp
	.cfi_def_cfa_offset 16
	.cfi_offset 6, -16
	movq	%rsp, %rbp
	.cfi_def_cfa_register 6
	movq	%rdi, -8(%rbp)
	movl	%esi, %eax
	movl	%edx, -16(%rbp)
	movl	%ecx, -20(%rbp)
	movl	%r8d, -24(%rbp)
	movl	%r9d, -28(%rbp)
	movb	%al, -12(%rbp)
.LBB37:
	.loc 5 181 0
	movq	-8(%rbp), %rax
	movzbl	-12(%rbp), %edx
	movb	%dl, (%rax)
	movq	-8(%rbp), %rax
	movl	-16(%rbp), %edx
	movl	%edx, 4(%rax)
	movq	-8(%rbp), %rax
	movl	-20(%rbp), %edx
	movl	%edx, 8(%rax)
	movq	-8(%rbp), %rax
	movl	-24(%rbp), %edx
	movl	%edx, 12(%rax)
	movq	-8(%rbp), %rax
	movl	-28(%rbp), %edx
	movl	%edx, 16(%rax)
.LBE37:
	.loc 5 182 0
	nop
	popq	%rbp
	.cfi_def_cfa 7, 8
	ret
	.cfi_endproc
.LFE7001:
	.size	_ZN14plain_particleC2Eciiii, .-_ZN14plain_particleC2Eciiii
	.weak	_ZN14plain_particleC1Eciiii
	.set	_ZN14plain_particleC1Eciiii,_ZN14plain_particleC2Eciiii
	.section	.text._ZNK14plain_particle6renderEv,"axG",@progbits,_ZNK14plain_particle6renderEv,comdat
	.align 2
	.weak	_ZNK14plain_particle6renderEv
	.type	_ZNK14plain_particle6renderEv, @function
_ZNK14plain_particle6renderEv:
.LFB7003:
	.loc 5 184 0
	.cfi_startproc
	pushq	%rbp
	.cfi_def_cfa_offset 16
	.cfi_offset 6, -16
	movq	%rsp, %rbp
	.cfi_def_cfa_register 6
	subq	$8, %rsp
	movq	%rdi, -8(%rbp)
	.loc 5 186 0
	movq	-8(%rbp), %rax
	movzbl	(%rax), %eax
	movsbl	%al, %edx
	movq	-8(%rbp), %rax
	movl	8(%rax), %ecx
	movq	-8(%rbp), %rax
	movl	4(%rax), %eax
	movl	%ecx, %esi
	movl	%eax, %edi
	call	_Z9do_renderiic
	.loc 5 187 0
	nop
	leave
	.cfi_def_cfa 7, 8
	ret
	.cfi_endproc
.LFE7003:
	.size	_ZNK14plain_particle6renderEv, .-_ZNK14plain_particle6renderEv
	.text
	.globl	_Z6renderPcS_PiS0_
	.type	_Z6renderPcS_PiS0_, @function
_Z6renderPcS_PiS0_:
.LFB7009:
	.loc 5 267 0
	.cfi_startproc
	pushq	%rbp
	.cfi_def_cfa_offset 16
	.cfi_offset 6, -16
	movq	%rsp, %rbp
	.cfi_def_cfa_register 6
	subq	$32, %rsp
	movq	%rdi, -8(%rbp)
	movq	%rsi, -16(%rbp)
	movq	%rdx, -24(%rbp)
	movq	%rcx, -32(%rbp)
	.loc 5 268 0
	movl	$0, _ZL13render_output(%rip)
.L29:
	.loc 5 269 0 discriminator 2
	movq	-8(%rbp), %rax
	cmpq	-16(%rbp), %rax
	je	.L28
	.loc 5 269 0 is_stmt 0 discriminator 1
	movq	-8(%rbp), %rax
	leaq	1(%rax), %rdx
	movq	%rdx, -8(%rbp)
	movzbl	(%rax), %eax
	movsbl	%al, %edx
	movq	-32(%rbp), %rax
	leaq	4(%rax), %rcx
	movq	%rcx, -32(%rbp)
	movl	(%rax), %ecx
	movq	-24(%rbp), %rax
	leaq	4(%rax), %rsi
	movq	%rsi, -24(%rbp)
	movl	(%rax), %eax
	movl	%ecx, %esi
	movl	%eax, %edi
	call	_Z9do_renderiic
	jmp	.L29
.L28:
	.loc 5 270 0 is_stmt 1
	movl	_ZL13render_output(%rip), %eax
	.loc 5 271 0
	leave
	.cfi_def_cfa 7, 8
	ret
	.cfi_endproc
.LFE7009:
	.size	_Z6renderPcS_PiS0_, .-_Z6renderPcS_PiS0_
	.globl	_Z6renderPcPiS0_m
	.type	_Z6renderPcPiS0_m, @function
_Z6renderPcPiS0_m:
.LFB7010:
	.loc 5 274 0
	.cfi_startproc
	pushq	%rbp
	.cfi_def_cfa_offset 16
	.cfi_offset 6, -16
	movq	%rsp, %rbp
	.cfi_def_cfa_register 6
	subq	$48, %rsp
	movq	%rdi, -24(%rbp)
	movq	%rsi, -32(%rbp)
	movq	%rdx, -40(%rbp)
	movq	%rcx, -48(%rbp)
	.loc 5 275 0
	movl	$0, _ZL13render_output(%rip)
.LBB38:
	.loc 5 276 0
	movq	$0, -8(%rbp)
.L33:
	.loc 5 276 0 is_stmt 0 discriminator 3
	movq	-8(%rbp), %rax
	cmpq	-48(%rbp), %rax
	jnb	.L32
	.loc 5 276 0 discriminator 2
	movq	-24(%rbp), %rdx
	movq	-8(%rbp), %rax
	addq	%rdx, %rax
	movzbl	(%rax), %eax
	movsbl	%al, %edx
	movq	-8(%rbp), %rax
	leaq	0(,%rax,4), %rcx
	movq	-40(%rbp), %rax
	addq	%rcx, %rax
	movl	(%rax), %ecx
	movq	-8(%rbp), %rax
	leaq	0(,%rax,4), %rsi
	movq	-32(%rbp), %rax
	addq	%rsi, %rax
	movl	(%rax), %eax
	movl	%ecx, %esi
	movl	%eax, %edi
	call	_Z9do_renderiic
	addq	$1, -8(%rbp)
	jmp	.L33
.L32:
.LBE38:
	.loc 5 277 0 is_stmt 1
	movl	_ZL13render_output(%rip), %eax
	.loc 5 278 0
	leave
	.cfi_def_cfa 7, 8
	ret
	.cfi_endproc
.LFE7010:
	.size	_Z6renderPcPiS0_m, .-_Z6renderPcPiS0_m
	.align 2
	.type	_ZZ4mainENKUlvE_clEv, @function
_ZZ4mainENKUlvE_clEv:
.LFB7015:
	.loc 5 346 0
	.cfi_startproc
	pushq	%rbp
	.cfi_def_cfa_offset 16
	.cfi_offset 6, -16
	movq	%rsp, %rbp
	.cfi_def_cfa_register 6
	subq	$16, %rsp
	movq	%rdi, -8(%rbp)
	.loc 5 346 0
	movq	-8(%rbp), %rax
	movq	8(%rax), %rdx
	movq	-8(%rbp), %rax
	movq	%rdx, %rsi
	movq	(%rax), %rdi
	call	_Z6renderIN9__gnu_cxx17__normal_iteratorIP14plain_particleSt6vectorIS2_SaIS2_EEEEEiT_S8_
	leave
	.cfi_def_cfa 7, 8
	ret
	.cfi_endproc
.LFE7015:
	.size	_ZZ4mainENKUlvE_clEv, .-_ZZ4mainENKUlvE_clEv
	.align 2
	.type	_ZZ4mainENKUlvE0_clEv, @function
_ZZ4mainENKUlvE0_clEv:
.LFB7016:
	.loc 5 347 0
	.cfi_startproc
	pushq	%rbp
	.cfi_def_cfa_offset 16
	.cfi_offset 6, -16
	movq	%rsp, %rbp
	.cfi_def_cfa_register 6
	subq	$8, %rsp
	movq	%rdi, -8(%rbp)
	.loc 5 347 0
	movq	-8(%rbp), %rax
	movq	24(%rax), %rcx
	movq	-8(%rbp), %rax
	movq	16(%rax), %rdx
	movq	-8(%rbp), %rax
	movq	8(%rax), %rsi
	movq	-8(%rbp), %rax
	movq	(%rax), %rax
	movq	%rax, %rdi
	call	_Z6renderPcS_PiS0_
	leave
	.cfi_def_cfa 7, 8
	ret
	.cfi_endproc
.LFE7016:
	.size	_ZZ4mainENKUlvE0_clEv, .-_ZZ4mainENKUlvE0_clEv
	.align 2
	.type	_ZZ4mainENKUlvE1_clEv, @function
_ZZ4mainENKUlvE1_clEv:
.LFB7017:
	.loc 5 348 0
	.cfi_startproc
	pushq	%rbp
	.cfi_def_cfa_offset 16
	.cfi_offset 6, -16
	movq	%rsp, %rbp
	.cfi_def_cfa_register 6
	subq	$16, %rsp
	movq	%rdi, -8(%rbp)
	.loc 5 348 0
	movq	-8(%rbp), %rax
	pushq	88(%rax)
	pushq	80(%rax)
	pushq	72(%rax)
	pushq	64(%rax)
	pushq	56(%rax)
	pushq	48(%rax)
	movq	-8(%rbp), %rax
	pushq	40(%rax)
	pushq	32(%rax)
	pushq	24(%rax)
	pushq	16(%rax)
	pushq	8(%rax)
	pushq	(%rax)
	call	_Z6renderIN3dod7pointerI8particleINS0_6accessIJNS0_6memberIcLi0EEENS4_IiLi0EEENS4_IiLi1EEENS4_IiLi2EEENS4_IiLi3EEEEEEEEEEiT_SD_
	addq	$96, %rsp
	leave
	.cfi_def_cfa 7, 8
	ret
	.cfi_endproc
.LFE7017:
	.size	_ZZ4mainENKUlvE1_clEv, .-_ZZ4mainENKUlvE1_clEv
	.align 2
	.type	_ZZ4mainENKUlvE2_clEv, @function
_ZZ4mainENKUlvE2_clEv:
.LFB7018:
	.loc 5 349 0
	.cfi_startproc
	pushq	%rbp
	.cfi_def_cfa_offset 16
	.cfi_offset 6, -16
	movq	%rsp, %rbp
	.cfi_def_cfa_register 6
	subq	$16, %rsp
	movq	%rdi, -8(%rbp)
	.loc 5 349 0
	movq	-8(%rbp), %rax
	pushq	56(%rax)
	pushq	48(%rax)
	pushq	40(%rax)
	pushq	32(%rax)
	movq	-8(%rbp), %rax
	pushq	24(%rax)
	pushq	16(%rax)
	pushq	8(%rax)
	pushq	(%rax)
	call	_Z6renderIN3dod7pointerI8particleINS0_6accessIJNS0_6memberIcLi0EEENS4_IiLi0EEENS4_IiLi1EEEEEEEEEEiT_SB_
	addq	$64, %rsp
	leave
	.cfi_def_cfa 7, 8
	ret
	.cfi_endproc
.LFE7018:
	.size	_ZZ4mainENKUlvE2_clEv, .-_ZZ4mainENKUlvE2_clEv
	.align 2
	.type	_ZZ4mainENKUlvE3_clEv, @function
_ZZ4mainENKUlvE3_clEv:
.LFB7019:
	.loc 5 350 0
	.cfi_startproc
	pushq	%rbp
	.cfi_def_cfa_offset 16
	.cfi_offset 6, -16
	movq	%rsp, %rbp
	.cfi_def_cfa_register 6
	subq	$16, %rsp
	movq	%rdi, -8(%rbp)
	.loc 5 350 0
	movq	-8(%rbp), %rax
	movq	8(%rax), %rdx
	movq	-8(%rbp), %rax
	movq	%rdx, %rsi
	movq	(%rax), %rdi
	call	_Z6renderIN9__gnu_cxx17__normal_iteratorIP14plain_particleSt6vectorIS2_SaIS2_EEEEmEiT_T0_
	leave
	.cfi_def_cfa 7, 8
	ret
	.cfi_endproc
.LFE7019:
	.size	_ZZ4mainENKUlvE3_clEv, .-_ZZ4mainENKUlvE3_clEv
	.align 2
	.type	_ZZ4mainENKUlvE4_clEv, @function
_ZZ4mainENKUlvE4_clEv:
.LFB7020:
	.loc 5 351 0
	.cfi_startproc
	pushq	%rbp
	.cfi_def_cfa_offset 16
	.cfi_offset 6, -16
	movq	%rsp, %rbp
	.cfi_def_cfa_register 6
	subq	$8, %rsp
	movq	%rdi, -8(%rbp)
	.loc 5 351 0
	movq	-8(%rbp), %rax
	movq	24(%rax), %rcx
	movq	-8(%rbp), %rax
	movq	16(%rax), %rdx
	movq	-8(%rbp), %rax
	movq	8(%rax), %rsi
	movq	-8(%rbp), %rax
	movq	(%rax), %rax
	movq	%rax, %rdi
	call	_Z6renderPcPiS0_m
	leave
	.cfi_def_cfa 7, 8
	ret
	.cfi_endproc
.LFE7020:
	.size	_ZZ4mainENKUlvE4_clEv, .-_ZZ4mainENKUlvE4_clEv
	.align 2
	.type	_ZZ4mainENKUlvE5_clEv, @function
_ZZ4mainENKUlvE5_clEv:
.LFB7021:
	.loc 5 352 0
	.cfi_startproc
	pushq	%rbp
	.cfi_def_cfa_offset 16
	.cfi_offset 6, -16
	movq	%rsp, %rbp
	.cfi_def_cfa_register 6
	subq	$16, %rsp
	movq	%rdi, -8(%rbp)
	.loc 5 352 0
	movq	-8(%rbp), %rax
	movq	48(%rax), %rdx
	movq	-8(%rbp), %rax
	pushq	40(%rax)
	pushq	32(%rax)
	pushq	24(%rax)
	pushq	16(%rax)
	pushq	8(%rax)
	pushq	(%rax)
	movq	%rdx, %rdi
	call	_Z6renderIN3dod7pointerI8particleINS0_6accessIJNS0_6memberIcLi0EEENS4_IiLi0EEENS4_IiLi1EEENS4_IiLi2EEENS4_IiLi3EEEEEEEEEmEiT_T0_
	addq	$48, %rsp
	leave
	.cfi_def_cfa 7, 8
	ret
	.cfi_endproc
.LFE7021:
	.size	_ZZ4mainENKUlvE5_clEv, .-_ZZ4mainENKUlvE5_clEv
	.align 2
	.type	_ZZ4mainENKUlvE6_clEv, @function
_ZZ4mainENKUlvE6_clEv:
.LFB7022:
	.loc 5 353 0
	.cfi_startproc
	pushq	%rbp
	.cfi_def_cfa_offset 16
	.cfi_offset 6, -16
	movq	%rsp, %rbp
	.cfi_def_cfa_register 6
	subq	$16, %rsp
	movq	%rdi, -8(%rbp)
	.loc 5 353 0
	movq	-8(%rbp), %rax
	movq	32(%rax), %rdx
	movq	-8(%rbp), %rax
	pushq	24(%rax)
	pushq	16(%rax)
	pushq	8(%rax)
	pushq	(%rax)
	movq	%rdx, %rdi
	call	_Z6renderIN3dod7pointerI8particleINS0_6accessIJNS0_6memberIcLi0EEENS4_IiLi0EEENS4_IiLi1EEEEEEEEEmEiT_T0_
	addq	$32, %rsp
	leave
	.cfi_def_cfa 7, 8
	ret
	.cfi_endproc
.LFE7022:
	.size	_ZZ4mainENKUlvE6_clEv, .-_ZZ4mainENKUlvE6_clEv
	.section	.rodata
.LC0:
	.string	"render:"
	.align 8
.LC1:
	.string	"n;oop;raw;dod;render_dod;oop[i];raw[i];dod[i];render_dod[i]"
.LC2:
	.string	";"
	.text
	.globl	main
	.type	main, @function
main:
.LFB7014:
	.loc 5 303 0
	.cfi_startproc
	.cfi_personality 0x3,__gxx_personality_v0
	.cfi_lsda 0x3,.LLSDA7014
	pushq	%rbp
	.cfi_def_cfa_offset 16
	.cfi_offset 6, -16
	movq	%rsp, %rbp
	.cfi_def_cfa_register 6
	pushq	%r15
	pushq	%r14
	pushq	%r13
	pushq	%r12
	pushq	%rbx
	subq	$984, %rsp
	.cfi_offset 15, -24
	.cfi_offset 14, -32
	.cfi_offset 13, -40
	.cfi_offset 12, -48
	.cfi_offset 3, -56
	.loc 5 310 0
	movq	$10000, -72(%rbp)
	movq	$10000000, -80(%rbp)
	movq	$10, -88(%rbp)
	.loc 5 312 0
	movl	$.LC0, %esi
	movl	$_ZSt4cout, %edi
.LEHB0:
	call	_ZStlsISt11char_traitsIcEERSt13basic_ostreamIcT_ES5_PKc
	movl	$_ZSt4endlIcSt11char_traitsIcEERSt13basic_ostreamIT_T0_ES6_, %esi
	movq	%rax, %rdi
	call	_ZNSolsEPFRSoS_E
	.loc 5 313 0
	movl	$.LC1, %esi
	movl	$_ZSt4cout, %edi
	call	_ZStlsISt11char_traitsIcEERSt13basic_ostreamIcT_ES5_PKc
	movl	$_ZSt4endlIcSt11char_traitsIcEERSt13basic_ostreamIT_T0_ES6_, %esi
	movq	%rax, %rdi
	call	_ZNSolsEPFRSoS_E
.LEHE0:
.LBB39:
	.loc 5 315 0
	movq	-72(%rbp), %rax
	movq	%rax, -56(%rbp)
.L55:
	.loc 5 315 0 is_stmt 0 discriminator 1
	movq	-56(%rbp), %rax
	cmpq	-80(%rbp), %rax
	ja	.L52
.LBB40:
	.loc 5 316 0 is_stmt 1
	leaq	-640(%rbp), %rax
	movq	%rax, %rdi
	call	_ZNSt6vectorIcSaIcEEC1Ev
	.loc 5 317 0
	leaq	-672(%rbp), %rax
	movq	%rax, %rdi
	call	_ZNSt6vectorIiSaIiEEC1Ev
	leaq	-704(%rbp), %rax
	movq	%rax, %rdi
	call	_ZNSt6vectorIiSaIiEEC1Ev
	leaq	-736(%rbp), %rax
	movq	%rax, %rdi
	call	_ZNSt6vectorIiSaIiEEC1Ev
	leaq	-768(%rbp), %rax
	movq	%rax, %rdi
	call	_ZNSt6vectorIiSaIiEEC1Ev
	.loc 5 318 0
	leaq	-800(%rbp), %rax
	movq	%rax, %rdi
	call	_ZNSt6vectorI14plain_particleSaIS0_EEC1Ev
.LBB41:
	.loc 5 320 0
	movq	$0, -64(%rbp)
.L54:
	.loc 5 320 0 is_stmt 0 discriminator 1
	movq	-64(%rbp), %rax
	cmpq	-56(%rbp), %rax
	jnb	.L53
.LBB42:
	.loc 5 321 0 is_stmt 1
	movq	-64(%rbp), %rcx
	movabsq	$-3689348814741910323, %rdx
	movq	%rcx, %rax
	mulq	%rdx
	shrq	$2, %rdx
	movq	%rdx, %rax
	salq	$2, %rax
	addq	%rdx, %rax
	subq	%rax, %rcx
	movq	%rcx, %rdx
	movl	%edx, %eax
	movb	%al, -833(%rbp)
	.loc 5 322 0
	movq	-64(%rbp), %rax
	movl	%eax, -840(%rbp)
	movq	-64(%rbp), %rax
	addl	%eax, %eax
	movl	%eax, -844(%rbp)
	movq	-64(%rbp), %rcx
	movabsq	$-3689348814741910323, %rdx
	movq	%rcx, %rax
	mulq	%rdx
	shrq	$4, %rdx
	movq	%rdx, %rax
	salq	$2, %rax
	addq	%rdx, %rax
	salq	$2, %rax
	subq	%rax, %rcx
	movq	%rcx, %rdx
	movl	%edx, %eax
	movl	%eax, -848(%rbp)
	movq	-64(%rbp), %rcx
	movabsq	$-3689348814741910323, %rdx
	movq	%rcx, %rax
	mulq	%rdx
	shrq	$3, %rdx
	movq	%rdx, %rax
	salq	$2, %rax
	addq	%rdx, %rax
	addq	%rax, %rax
	subq	%rax, %rcx
	movq	%rcx, %rdx
	movl	%edx, %eax
	movl	%eax, -852(%rbp)
	.loc 5 323 0
	movl	-852(%rbp), %r8d
	movl	-848(%rbp), %edi
	movl	-844(%rbp), %ecx
	movl	-840(%rbp), %edx
	movzbl	-833(%rbp), %eax
	movsbl	%al, %esi
	leaq	-608(%rbp), %rax
	movl	%r8d, %r9d
	movl	%edi, %r8d
	movq	%rax, %rdi
	call	_ZN14plain_particleC1Eciiii
	leaq	-608(%rbp), %rdx
	leaq	-800(%rbp), %rax
	movq	%rdx, %rsi
	movq	%rax, %rdi
.LEHB1:
	call	_ZNSt6vectorI14plain_particleSaIS0_EE9push_backEOS0_
	.loc 5 324 0 discriminator 2
	leaq	-833(%rbp), %rdx
	leaq	-640(%rbp), %rax
	movq	%rdx, %rsi
	movq	%rax, %rdi
	call	_ZNSt6vectorIcSaIcEE9push_backERKc
	.loc 5 325 0
	leaq	-840(%rbp), %rdx
	leaq	-672(%rbp), %rax
	movq	%rdx, %rsi
	movq	%rax, %rdi
	call	_ZNSt6vectorIiSaIiEE9push_backERKi
	.loc 5 326 0
	leaq	-844(%rbp), %rdx
	leaq	-704(%rbp), %rax
	movq	%rdx, %rsi
	movq	%rax, %rdi
	call	_ZNSt6vectorIiSaIiEE9push_backERKi
	.loc 5 327 0
	leaq	-848(%rbp), %rdx
	leaq	-736(%rbp), %rax
	movq	%rdx, %rsi
	movq	%rax, %rdi
	call	_ZNSt6vectorIiSaIiEE9push_backERKi
	.loc 5 328 0
	leaq	-852(%rbp), %rdx
	leaq	-768(%rbp), %rax
	movq	%rdx, %rsi
	movq	%rax, %rdi
	call	_ZNSt6vectorIiSaIiEE9push_backERKi
.LEHE1:
.LBE42:
	.loc 5 320 0 discriminator 2
	addq	$1, -64(%rbp)
	jmp	.L54
.L53:
.LBE41:
	.loc 5 334 0
	leaq	-800(%rbp), %rax
	movq	%rax, %rdi
	call	_ZNSt6vectorI14plain_particleSaIS0_EE5beginEv
	movq	%rax, -816(%rbp)
	.loc 5 335 0
	leaq	-800(%rbp), %rax
	movq	%rax, %rdi
	call	_ZNSt6vectorI14plain_particleSaIS0_EE3endEv
	movq	%rax, -832(%rbp)
	.loc 5 336 0
	leaq	-640(%rbp), %rax
	movl	$0, %esi
	movq	%rax, %rdi
	call	_ZNSt6vectorIcSaIcEEixEm
	movq	%rax, -96(%rbp)
	.loc 5 337 0
	movq	-96(%rbp), %rdx
	movq	-56(%rbp), %rax
	addq	%rdx, %rax
	movq	%rax, -104(%rbp)
	.loc 5 338 0
	leaq	-672(%rbp), %rax
	movl	$0, %esi
	movq	%rax, %rdi
	call	_ZNSt6vectorIiSaIiEEixEm
	movq	%rax, -112(%rbp)
	.loc 5 339 0
	leaq	-704(%rbp), %rax
	movl	$0, %esi
	movq	%rax, %rdi
	call	_ZNSt6vectorIiSaIiEEixEm
	movq	%rax, -120(%rbp)
	.loc 5 340 0
	leaq	-768(%rbp), %rax
	movl	$0, %esi
	movq	%rax, %rdi
	call	_ZNSt6vectorIiSaIiEEixEm
	movq	%rax, -528(%rbp)
	leaq	-736(%rbp), %rax
	movl	$0, %esi
	movq	%rax, %rdi
	call	_ZNSt6vectorIiSaIiEEixEm
	movq	%rax, -520(%rbp)
	leaq	-704(%rbp), %rax
	movl	$0, %esi
	movq	%rax, %rdi
	call	_ZNSt6vectorIiSaIiEEixEm
	movq	%rax, -512(%rbp)
	leaq	-672(%rbp), %rax
	movl	$0, %esi
	movq	%rax, %rdi
	call	_ZNSt6vectorIiSaIiEEixEm
	movq	%rax, -504(%rbp)
	leaq	-640(%rbp), %rax
	movl	$0, %esi
	movq	%rax, %rdi
	call	_ZNSt6vectorIcSaIcEEixEm
	movq	%rax, %r10
	leaq	-528(%rbp), %rdi
	leaq	-520(%rbp), %rsi
	leaq	-512(%rbp), %rcx
	leaq	-504(%rbp), %rdx
	leaq	-576(%rbp), %rax
	movq	%rdi, %r9
	movq	%rsi, %r8
	movq	%r10, %rsi
	movq	%rax, %rdi
.LEHB2:
	call	_ZN3dod6accessIJNS_6memberIcLi0EEENS1_IiLi0EEENS1_IiLi1EEENS1_IiLi2EEENS1_IiLi3EEEEEC1IJPiS9_S9_S9_EEEPcDpOT_
	.loc 5 340 0 is_stmt 0 discriminator 2
	leaq	-960(%rbp), %rax
	leaq	-576(%rbp), %rdx
	movq	%rdx, %rsi
	movq	%rax, %rdi
	call	_ZN3dod12make_pointerI8particleNS_6accessIJNS_6memberIcLi0EEENS3_IiLi0EEENS3_IiLi1EEENS3_IiLi2EEENS3_IiLi3EEEEEEEENS_7pointerIT_IT0_EEERKSC_
.LEHE2:
	.loc 5 341 0 is_stmt 1 discriminator 4
	movq	-56(%rbp), %rdx
	leaq	-912(%rbp), %rax
	leaq	-960(%rbp), %rcx
	movq	%rcx, %rsi
	movq	%rax, %rdi
.LEHB3:
	call	_ZN5boost9iteratorsplIN3dod7pointerI8particleINS2_6accessIJNS2_6memberIcLi0EEENS6_IiLi0EEENS6_IiLi1EEENS6_IiLi2EEENS6_IiLi3EEEEEEEEESD_NS0_27random_access_traversal_tagESD_lEENS0_9enable_ifINS0_6detail21is_traversal_at_leastIT1_SF_EET_E4typeERKNS0_15iterator_facadeISL_T0_SJ_T2_T3_EENSL_15difference_typeE
.LEHE3:
	.loc 5 342 0
	leaq	-704(%rbp), %rax
	movl	$0, %esi
	movq	%rax, %rdi
	call	_ZNSt6vectorIiSaIiEEixEm
	movq	%rax, -464(%rbp)
	leaq	-672(%rbp), %rax
	movl	$0, %esi
	movq	%rax, %rdi
	call	_ZNSt6vectorIiSaIiEEixEm
	movq	%rax, -456(%rbp)
	leaq	-640(%rbp), %rax
	movl	$0, %esi
	movq	%rax, %rdi
	call	_ZNSt6vectorIcSaIcEEixEm
	movq	%rax, %rsi
	leaq	-464(%rbp), %rcx
	leaq	-456(%rbp), %rdx
	leaq	-496(%rbp), %rax
	movq	%rax, %rdi
.LEHB4:
	call	_ZN3dod6accessIJNS_6memberIcLi0EEENS1_IiLi0EEENS1_IiLi1EEEEEC1IJPiS7_EEEPcDpOT_
	.loc 5 342 0 is_stmt 0 discriminator 2
	leaq	-1024(%rbp), %rax
	leaq	-496(%rbp), %rdx
	movq	%rdx, %rsi
	movq	%rax, %rdi
	call	_ZN3dod12make_pointerI8particleNS_6accessIJNS_6memberIcLi0EEENS3_IiLi0EEENS3_IiLi1EEEEEEEENS_7pointerIT_IT0_EEERKSA_
.LEHE4:
	.loc 5 343 0 is_stmt 1 discriminator 4
	movq	-56(%rbp), %rdx
	leaq	-992(%rbp), %rax
	leaq	-1024(%rbp), %rcx
	movq	%rcx, %rsi
	movq	%rax, %rdi
.LEHB5:
	call	_ZN5boost9iteratorsplIN3dod7pointerI8particleINS2_6accessIJNS2_6memberIcLi0EEENS6_IiLi0EEENS6_IiLi1EEEEEEEEESB_NS0_27random_access_traversal_tagESB_lEENS0_9enable_ifINS0_6detail21is_traversal_at_leastIT1_SD_EET_E4typeERKNS0_15iterator_facadeISJ_T0_SH_T2_T3_EENSJ_15difference_typeE
	.loc 5 345 0
	movq	-56(%rbp), %rax
	movq	%rax, %rsi
	movl	$_ZSt4cout, %edi
	call	_ZNSolsEm
	movl	$.LC2, %esi
	movq	%rax, %rdi
	call	_ZStlsISt11char_traitsIcEERSt13basic_ostreamIcT_ES5_PKc
	.loc 5 346 0
	movq	-816(%rbp), %r14
	movq	-832(%rbp), %r15
	movq	-56(%rbp), %rax
	movq	%r14, %rsi
	movq	%r15, %rdi
	movq	%r14, %rdx
	movq	%r15, %rcx
	movq	%rax, %rdx
	movq	%rsi, %rdi
	movq	%rcx, %rsi
	call	_Z7measureIZ4mainEUlvE_EdT_m
	movl	$_ZSt4cout, %edi
	call	_ZNSolsEd
	.loc 5 346 0 is_stmt 0 discriminator 1
	movl	$.LC2, %esi
	movq	%rax, %rdi
	call	_ZStlsISt11char_traitsIcEERSt13basic_ostreamIcT_ES5_PKc
	.loc 5 347 0 is_stmt 1
	movq	-96(%rbp), %rax
	movq	%rax, -448(%rbp)
	movq	-104(%rbp), %rax
	movq	%rax, -440(%rbp)
	movq	-112(%rbp), %rax
	movq	%rax, -432(%rbp)
	movq	-120(%rbp), %rax
	movq	%rax, -424(%rbp)
	movq	-56(%rbp), %rax
	pushq	-424(%rbp)
	pushq	-432(%rbp)
	pushq	-440(%rbp)
	pushq	-448(%rbp)
	movq	%rax, %rdi
	.cfi_escape 0x2e,0x20
	call	_Z7measureIZ4mainEUlvE0_EdT_m
	addq	$32, %rsp
	movl	$_ZSt4cout, %edi
	.cfi_escape 0x2e,0
	call	_ZNSolsEd
	.loc 5 347 0 is_stmt 0 discriminator 1
	movl	$.LC2, %esi
	movq	%rax, %rdi
	call	_ZStlsISt11char_traitsIcEERSt13basic_ostreamIcT_ES5_PKc
	.loc 5 348 0 is_stmt 1
	movq	-960(%rbp), %rax
	movq	%rax, -416(%rbp)
	movq	-952(%rbp), %rax
	movq	%rax, -408(%rbp)
	movq	-944(%rbp), %rax
	movq	%rax, -400(%rbp)
	movq	-936(%rbp), %rax
	movq	%rax, -392(%rbp)
	movq	-928(%rbp), %rax
	movq	%rax, -384(%rbp)
	movq	-920(%rbp), %rax
	movq	%rax, -376(%rbp)
	movq	-912(%rbp), %rax
	movq	%rax, -368(%rbp)
	movq	-904(%rbp), %rax
	movq	%rax, -360(%rbp)
	movq	-896(%rbp), %rax
	movq	%rax, -352(%rbp)
	movq	-888(%rbp), %rax
	movq	%rax, -344(%rbp)
	movq	-880(%rbp), %rax
	movq	%rax, -336(%rbp)
	movq	-872(%rbp), %rax
	movq	%rax, -328(%rbp)
	movq	-56(%rbp), %rax
	pushq	-328(%rbp)
	pushq	-336(%rbp)
	pushq	-344(%rbp)
	pushq	-352(%rbp)
	pushq	-360(%rbp)
	pushq	-368(%rbp)
	pushq	-376(%rbp)
	pushq	-384(%rbp)
	pushq	-392(%rbp)
	pushq	-400(%rbp)
	pushq	-408(%rbp)
	pushq	-416(%rbp)
	movq	%rax, %rdi
	.cfi_escape 0x2e,0x60
	call	_Z7measureIZ4mainEUlvE1_EdT_m
	addq	$96, %rsp
	movl	$_ZSt4cout, %edi
	.cfi_escape 0x2e,0
	call	_ZNSolsEd
	.loc 5 348 0 is_stmt 0 discriminator 1
	movl	$.LC2, %esi
	movq	%rax, %rdi
	call	_ZStlsISt11char_traitsIcEERSt13basic_ostreamIcT_ES5_PKc
	.loc 5 349 0 is_stmt 1
	movq	-1024(%rbp), %rax
	movq	%rax, -320(%rbp)
	movq	-1016(%rbp), %rax
	movq	%rax, -312(%rbp)
	movq	-1008(%rbp), %rax
	movq	%rax, -304(%rbp)
	movq	-1000(%rbp), %rax
	movq	%rax, -296(%rbp)
	movq	-992(%rbp), %rax
	movq	%rax, -288(%rbp)
	movq	-984(%rbp), %rax
	movq	%rax, -280(%rbp)
	movq	-976(%rbp), %rax
	movq	%rax, -272(%rbp)
	movq	-968(%rbp), %rax
	movq	%rax, -264(%rbp)
	movq	-56(%rbp), %rax
	pushq	-264(%rbp)
	pushq	-272(%rbp)
	pushq	-280(%rbp)
	pushq	-288(%rbp)
	pushq	-296(%rbp)
	pushq	-304(%rbp)
	pushq	-312(%rbp)
	pushq	-320(%rbp)
	movq	%rax, %rdi
	.cfi_escape 0x2e,0x40
	call	_Z7measureIZ4mainEUlvE2_EdT_m
	addq	$64, %rsp
	movl	$_ZSt4cout, %edi
	.cfi_escape 0x2e,0
	call	_ZNSolsEd
	.loc 5 349 0 is_stmt 0 discriminator 1
	movl	$.LC2, %esi
	movq	%rax, %rdi
	call	_ZStlsISt11char_traitsIcEERSt13basic_ostreamIcT_ES5_PKc
	.loc 5 350 0 is_stmt 1
	movq	-816(%rbp), %r12
	movq	-56(%rbp), %r13
	movq	-56(%rbp), %rax
	movq	%r12, %rsi
	movq	%r13, %rdi
	movq	%r12, %rdx
	movq	%r13, %rcx
	movq	%rax, %rdx
	movq	%rsi, %rdi
	movq	%rcx, %rsi
	call	_Z7measureIZ4mainEUlvE3_EdT_m
	movl	$_ZSt4cout, %edi
	call	_ZNSolsEd
	.loc 5 350 0 is_stmt 0 discriminator 1
	movl	$.LC2, %esi
	movq	%rax, %rdi
	call	_ZStlsISt11char_traitsIcEERSt13basic_ostreamIcT_ES5_PKc
	.loc 5 351 0 is_stmt 1
	movq	-96(%rbp), %rax
	movq	%rax, -256(%rbp)
	movq	-112(%rbp), %rax
	movq	%rax, -248(%rbp)
	movq	-120(%rbp), %rax
	movq	%rax, -240(%rbp)
	movq	-56(%rbp), %rax
	movq	%rax, -232(%rbp)
	movq	-56(%rbp), %rax
	pushq	-232(%rbp)
	pushq	-240(%rbp)
	pushq	-248(%rbp)
	pushq	-256(%rbp)
	movq	%rax, %rdi
	.cfi_escape 0x2e,0x20
	call	_Z7measureIZ4mainEUlvE4_EdT_m
	addq	$32, %rsp
	movl	$_ZSt4cout, %edi
	.cfi_escape 0x2e,0
	call	_ZNSolsEd
	.loc 5 351 0 is_stmt 0 discriminator 1
	movl	$.LC2, %esi
	movq	%rax, %rdi
	call	_ZStlsISt11char_traitsIcEERSt13basic_ostreamIcT_ES5_PKc
	.loc 5 352 0 is_stmt 1
	movq	-960(%rbp), %rax
	movq	%rax, -224(%rbp)
	movq	-952(%rbp), %rax
	movq	%rax, -216(%rbp)
	movq	-944(%rbp), %rax
	movq	%rax, -208(%rbp)
	movq	-936(%rbp), %rax
	movq	%rax, -200(%rbp)
	movq	-928(%rbp), %rax
	movq	%rax, -192(%rbp)
	movq	-920(%rbp), %rax
	movq	%rax, -184(%rbp)
	movq	-56(%rbp), %rax
	movq	%rax, -176(%rbp)
	subq	$8, %rsp
	movq	-56(%rbp), %rax
	pushq	-176(%rbp)
	pushq	-184(%rbp)
	pushq	-192(%rbp)
	pushq	-200(%rbp)
	pushq	-208(%rbp)
	pushq	-216(%rbp)
	pushq	-224(%rbp)
	movq	%rax, %rdi
	.cfi_escape 0x2e,0x40
	call	_Z7measureIZ4mainEUlvE5_EdT_m
	addq	$64, %rsp
	movl	$_ZSt4cout, %edi
	.cfi_escape 0x2e,0
	call	_ZNSolsEd
	.loc 5 352 0 is_stmt 0 discriminator 1
	movl	$.LC2, %esi
	movq	%rax, %rdi
	call	_ZStlsISt11char_traitsIcEERSt13basic_ostreamIcT_ES5_PKc
	.loc 5 353 0 is_stmt 1
	movq	-1024(%rbp), %rax
	movq	%rax, -160(%rbp)
	movq	-1016(%rbp), %rax
	movq	%rax, -152(%rbp)
	movq	-1008(%rbp), %rax
	movq	%rax, -144(%rbp)
	movq	-1000(%rbp), %rax
	movq	%rax, -136(%rbp)
	movq	-56(%rbp), %rax
	movq	%rax, -128(%rbp)
	subq	$8, %rsp
	movq	-56(%rbp), %rax
	pushq	-128(%rbp)
	pushq	-136(%rbp)
	pushq	-144(%rbp)
	pushq	-152(%rbp)
	pushq	-160(%rbp)
	movq	%rax, %rdi
	.cfi_escape 0x2e,0x30
	call	_Z7measureIZ4mainEUlvE6_EdT_m
	addq	$48, %rsp
	movl	$_ZSt4cout, %edi
	.cfi_escape 0x2e,0
	call	_ZNSolsEd
	.loc 5 353 0 is_stmt 0 discriminator 1
	movl	$_ZSt4endlIcSt11char_traitsIcEERSt13basic_ostreamIT_T0_ES6_, %esi
	movq	%rax, %rdi
	call	_ZNSolsEPFRSoS_E
.LEHE5:
	.loc 5 318 0 is_stmt 1 discriminator 2
	leaq	-800(%rbp), %rax
	movq	%rax, %rdi
	call	_ZNSt6vectorI14plain_particleSaIS0_EED1Ev
	.loc 5 317 0 discriminator 2
	leaq	-768(%rbp), %rax
	movq	%rax, %rdi
	call	_ZNSt6vectorIiSaIiEED1Ev
	leaq	-736(%rbp), %rax
	movq	%rax, %rdi
	call	_ZNSt6vectorIiSaIiEED1Ev
	leaq	-704(%rbp), %rax
	movq	%rax, %rdi
	call	_ZNSt6vectorIiSaIiEED1Ev
	leaq	-672(%rbp), %rax
	movq	%rax, %rdi
	call	_ZNSt6vectorIiSaIiEED1Ev
	.loc 5 316 0 discriminator 2
	leaq	-640(%rbp), %rax
	movq	%rax, %rdi
	call	_ZNSt6vectorIcSaIcEED1Ev
.LBE40:
	.loc 5 315 0 discriminator 2
	movq	-56(%rbp), %rax
	imulq	-88(%rbp), %rax
	movq	%rax, -56(%rbp)
	jmp	.L55
.L52:
.LBE39:
	.loc 5 355 0
	movl	$0, %eax
	jmp	.L63
.L61:
	movq	%rax, %rbx
	jmp	.L58
.L62:
	movq	%rax, %rbx
	jmp	.L58
.L60:
	movq	%rax, %rbx
.L58:
.LBB44:
.LBB43:
	.loc 5 318 0
	leaq	-800(%rbp), %rax
	movq	%rax, %rdi
	call	_ZNSt6vectorI14plain_particleSaIS0_EED1Ev
	.loc 5 317 0
	leaq	-768(%rbp), %rax
	movq	%rax, %rdi
	call	_ZNSt6vectorIiSaIiEED1Ev
	leaq	-736(%rbp), %rax
	movq	%rax, %rdi
	call	_ZNSt6vectorIiSaIiEED1Ev
	leaq	-704(%rbp), %rax
	movq	%rax, %rdi
	call	_ZNSt6vectorIiSaIiEED1Ev
	leaq	-672(%rbp), %rax
	movq	%rax, %rdi
	call	_ZNSt6vectorIiSaIiEED1Ev
	.loc 5 316 0
	leaq	-640(%rbp), %rax
	movq	%rax, %rdi
	call	_ZNSt6vectorIcSaIcEED1Ev
	movq	%rbx, %rax
	movq	%rax, %rdi
.LEHB6:
	call	_Unwind_Resume
.LEHE6:
.L63:
.LBE43:
.LBE44:
	.loc 5 355 0
	leaq	-40(%rbp), %rsp
	popq	%rbx
	popq	%r12
	popq	%r13
	popq	%r14
	popq	%r15
	popq	%rbp
	.cfi_def_cfa 7, 8
	ret
	.cfi_endproc
.LFE7014:
	.globl	__gxx_personality_v0
	.section	.gcc_except_table,"a",@progbits
.LLSDA7014:
	.byte	0xff
	.byte	0xff
	.byte	0x1
	.uleb128 .LLSDACSE7014-.LLSDACSB7014
.LLSDACSB7014:
	.uleb128 .LEHB0-.LFB7014
	.uleb128 .LEHE0-.LEHB0
	.uleb128 0
	.uleb128 0
	.uleb128 .LEHB1-.LFB7014
	.uleb128 .LEHE1-.LEHB1
	.uleb128 .L60-.LFB7014
	.uleb128 0
	.uleb128 .LEHB2-.LFB7014
	.uleb128 .LEHE2-.LEHB2
	.uleb128 .L61-.LFB7014
	.uleb128 0
	.uleb128 .LEHB3-.LFB7014
	.uleb128 .LEHE3-.LEHB3
	.uleb128 .L60-.LFB7014
	.uleb128 0
	.uleb128 .LEHB4-.LFB7014
	.uleb128 .LEHE4-.LEHB4
	.uleb128 .L62-.LFB7014
	.uleb128 0
	.uleb128 .LEHB5-.LFB7014
	.uleb128 .LEHE5-.LEHB5
	.uleb128 .L60-.LFB7014
	.uleb128 0
	.uleb128 .LEHB6-.LFB7014
	.uleb128 .LEHE6-.LEHB6
	.uleb128 0
	.uleb128 0
.LLSDACSE7014:
	.text
	.size	main, .-main
	.section	.text._ZNSt6chrono10time_pointINS_3_V212system_clockENS_8durationIlSt5ratioILl1ELl1000000000EEEEEpLERKS6_,"axG",@progbits,_ZNSt6chrono10time_pointINS_3_V212system_clockENS_8durationIlSt5ratioILl1ELl1000000000EEEEEpLERKS6_,comdat
	.align 2
	.weak	_ZNSt6chrono10time_pointINS_3_V212system_clockENS_8durationIlSt5ratioILl1ELl1000000000EEEEEpLERKS6_
	.type	_ZNSt6chrono10time_pointINS_3_V212system_clockENS_8durationIlSt5ratioILl1ELl1000000000EEEEEpLERKS6_, @function
_ZNSt6chrono10time_pointINS_3_V212system_clockENS_8durationIlSt5ratioILl1ELl1000000000EEEEEpLERKS6_:
.LFB7085:
	.loc 4 573 0
	.cfi_startproc
	pushq	%rbp
	.cfi_def_cfa_offset 16
	.cfi_offset 6, -16
	movq	%rsp, %rbp
	.cfi_def_cfa_register 6
	subq	$16, %rsp
	movq	%rdi, -8(%rbp)
	movq	%rsi, -16(%rbp)
	.loc 4 575 0
	movq	-8(%rbp), %rax
	movq	-16(%rbp), %rdx
	movq	%rdx, %rsi
	movq	%rax, %rdi
	call	_ZNSt6chrono8durationIlSt5ratioILl1ELl1000000000EEEpLERKS3_
	.loc 4 576 0
	movq	-8(%rbp), %rax
	.loc 4 577 0
	leave
	.cfi_def_cfa 7, 8
	ret
	.cfi_endproc
.LFE7085:
	.size	_ZNSt6chrono10time_pointINS_3_V212system_clockENS_8durationIlSt5ratioILl1ELl1000000000EEEEEpLERKS6_, .-_ZNSt6chrono10time_pointINS_3_V212system_clockENS_8durationIlSt5ratioILl1ELl1000000000EEEEEpLERKS6_
	.section	.text._ZNSt6vectorIcSaIcEEC2Ev,"axG",@progbits,_ZNSt6vectorIcSaIcEEC5Ev,comdat
	.align 2
	.weak	_ZNSt6vectorIcSaIcEEC2Ev
	.type	_ZNSt6vectorIcSaIcEEC2Ev, @function
_ZNSt6vectorIcSaIcEEC2Ev:
.LFB7097:
	.file 6 "/usr/include/c++/5.2.0/bits/stl_vector.h"
	.loc 6 253 0
	.cfi_startproc
	.cfi_personality 0x3,__gxx_personality_v0
	.cfi_lsda 0x3,.LLSDA7097
	pushq	%rbp
	.cfi_def_cfa_offset 16
	.cfi_offset 6, -16
	movq	%rsp, %rbp
	.cfi_def_cfa_register 6
	subq	$16, %rsp
	movq	%rdi, -8(%rbp)
.LBB45:
	.loc 6 257 0
	movq	-8(%rbp), %rax
	movq	%rax, %rdi
	call	_ZNSt12_Vector_baseIcSaIcEEC2Ev
.LBE45:
	nop
	leave
	.cfi_def_cfa 7, 8
	ret
	.cfi_endproc
.LFE7097:
	.section	.gcc_except_table
.LLSDA7097:
	.byte	0xff
	.byte	0xff
	.byte	0x1
	.uleb128 .LLSDACSE7097-.LLSDACSB7097
.LLSDACSB7097:
.LLSDACSE7097:
	.section	.text._ZNSt6vectorIcSaIcEEC2Ev,"axG",@progbits,_ZNSt6vectorIcSaIcEEC5Ev,comdat
	.size	_ZNSt6vectorIcSaIcEEC2Ev, .-_ZNSt6vectorIcSaIcEEC2Ev
	.weak	_ZNSt6vectorIcSaIcEEC1Ev
	.set	_ZNSt6vectorIcSaIcEEC1Ev,_ZNSt6vectorIcSaIcEEC2Ev
	.section	.text._ZNSt6vectorIcSaIcEED2Ev,"axG",@progbits,_ZNSt6vectorIcSaIcEED5Ev,comdat
	.align 2
	.weak	_ZNSt6vectorIcSaIcEED2Ev
	.type	_ZNSt6vectorIcSaIcEED2Ev, @function
_ZNSt6vectorIcSaIcEED2Ev:
.LFB7100:
	.loc 6 423 0
	.cfi_startproc
	.cfi_personality 0x3,__gxx_personality_v0
	.cfi_lsda 0x3,.LLSDA7100
	pushq	%rbp
	.cfi_def_cfa_offset 16
	.cfi_offset 6, -16
	movq	%rsp, %rbp
	.cfi_def_cfa_register 6
	subq	$16, %rsp
	movq	%rdi, -8(%rbp)
.LBB46:
	.loc 6 425 0
	movq	-8(%rbp), %rax
	movq	%rax, %rdi
	call	_ZNSt12_Vector_baseIcSaIcEE19_M_get_Tp_allocatorEv
	movq	%rax, %rdx
	.loc 6 424 0
	movq	-8(%rbp), %rax
	movq	8(%rax), %rcx
	movq	-8(%rbp), %rax
	movq	(%rax), %rax
	movq	%rcx, %rsi
	movq	%rax, %rdi
	call	_ZSt8_DestroyIPccEvT_S1_RSaIT0_E
	.loc 6 425 0
	movq	-8(%rbp), %rax
	movq	%rax, %rdi
	call	_ZNSt12_Vector_baseIcSaIcEED2Ev
.LBE46:
	nop
	leave
	.cfi_def_cfa 7, 8
	ret
	.cfi_endproc
.LFE7100:
	.section	.gcc_except_table
.LLSDA7100:
	.byte	0xff
	.byte	0xff
	.byte	0x1
	.uleb128 .LLSDACSE7100-.LLSDACSB7100
.LLSDACSB7100:
.LLSDACSE7100:
	.section	.text._ZNSt6vectorIcSaIcEED2Ev,"axG",@progbits,_ZNSt6vectorIcSaIcEED5Ev,comdat
	.size	_ZNSt6vectorIcSaIcEED2Ev, .-_ZNSt6vectorIcSaIcEED2Ev
	.weak	_ZNSt6vectorIcSaIcEED1Ev
	.set	_ZNSt6vectorIcSaIcEED1Ev,_ZNSt6vectorIcSaIcEED2Ev
	.section	.text._ZNSt6vectorIiSaIiEEC2Ev,"axG",@progbits,_ZNSt6vectorIiSaIiEEC5Ev,comdat
	.align 2
	.weak	_ZNSt6vectorIiSaIiEEC2Ev
	.type	_ZNSt6vectorIiSaIiEEC2Ev, @function
_ZNSt6vectorIiSaIiEEC2Ev:
.LFB7103:
	.loc 6 253 0
	.cfi_startproc
	.cfi_personality 0x3,__gxx_personality_v0
	.cfi_lsda 0x3,.LLSDA7103
	pushq	%rbp
	.cfi_def_cfa_offset 16
	.cfi_offset 6, -16
	movq	%rsp, %rbp
	.cfi_def_cfa_register 6
	subq	$16, %rsp
	movq	%rdi, -8(%rbp)
.LBB47:
	.loc 6 257 0
	movq	-8(%rbp), %rax
	movq	%rax, %rdi
	call	_ZNSt12_Vector_baseIiSaIiEEC2Ev
.LBE47:
	nop
	leave
	.cfi_def_cfa 7, 8
	ret
	.cfi_endproc
.LFE7103:
	.section	.gcc_except_table
.LLSDA7103:
	.byte	0xff
	.byte	0xff
	.byte	0x1
	.uleb128 .LLSDACSE7103-.LLSDACSB7103
.LLSDACSB7103:
.LLSDACSE7103:
	.section	.text._ZNSt6vectorIiSaIiEEC2Ev,"axG",@progbits,_ZNSt6vectorIiSaIiEEC5Ev,comdat
	.size	_ZNSt6vectorIiSaIiEEC2Ev, .-_ZNSt6vectorIiSaIiEEC2Ev
	.weak	_ZNSt6vectorIiSaIiEEC1Ev
	.set	_ZNSt6vectorIiSaIiEEC1Ev,_ZNSt6vectorIiSaIiEEC2Ev
	.section	.text._ZNSt6vectorIiSaIiEED2Ev,"axG",@progbits,_ZNSt6vectorIiSaIiEED5Ev,comdat
	.align 2
	.weak	_ZNSt6vectorIiSaIiEED2Ev
	.type	_ZNSt6vectorIiSaIiEED2Ev, @function
_ZNSt6vectorIiSaIiEED2Ev:
.LFB7106:
	.loc 6 423 0
	.cfi_startproc
	.cfi_personality 0x3,__gxx_personality_v0
	.cfi_lsda 0x3,.LLSDA7106
	pushq	%rbp
	.cfi_def_cfa_offset 16
	.cfi_offset 6, -16
	movq	%rsp, %rbp
	.cfi_def_cfa_register 6
	subq	$16, %rsp
	movq	%rdi, -8(%rbp)
.LBB48:
	.loc 6 425 0
	movq	-8(%rbp), %rax
	movq	%rax, %rdi
	call	_ZNSt12_Vector_baseIiSaIiEE19_M_get_Tp_allocatorEv
	movq	%rax, %rdx
	.loc 6 424 0
	movq	-8(%rbp), %rax
	movq	8(%rax), %rcx
	movq	-8(%rbp), %rax
	movq	(%rax), %rax
	movq	%rcx, %rsi
	movq	%rax, %rdi
	call	_ZSt8_DestroyIPiiEvT_S1_RSaIT0_E
	.loc 6 425 0
	movq	-8(%rbp), %rax
	movq	%rax, %rdi
	call	_ZNSt12_Vector_baseIiSaIiEED2Ev
.LBE48:
	nop
	leave
	.cfi_def_cfa 7, 8
	ret
	.cfi_endproc
.LFE7106:
	.section	.gcc_except_table
.LLSDA7106:
	.byte	0xff
	.byte	0xff
	.byte	0x1
	.uleb128 .LLSDACSE7106-.LLSDACSB7106
.LLSDACSB7106:
.LLSDACSE7106:
	.section	.text._ZNSt6vectorIiSaIiEED2Ev,"axG",@progbits,_ZNSt6vectorIiSaIiEED5Ev,comdat
	.size	_ZNSt6vectorIiSaIiEED2Ev, .-_ZNSt6vectorIiSaIiEED2Ev
	.weak	_ZNSt6vectorIiSaIiEED1Ev
	.set	_ZNSt6vectorIiSaIiEED1Ev,_ZNSt6vectorIiSaIiEED2Ev
	.section	.text._ZNSt6vectorI14plain_particleSaIS0_EEC2Ev,"axG",@progbits,_ZNSt6vectorI14plain_particleSaIS0_EEC5Ev,comdat
	.align 2
	.weak	_ZNSt6vectorI14plain_particleSaIS0_EEC2Ev
	.type	_ZNSt6vectorI14plain_particleSaIS0_EEC2Ev, @function
_ZNSt6vectorI14plain_particleSaIS0_EEC2Ev:
.LFB7109:
	.loc 6 253 0
	.cfi_startproc
	.cfi_personality 0x3,__gxx_personality_v0
	.cfi_lsda 0x3,.LLSDA7109
	pushq	%rbp
	.cfi_def_cfa_offset 16
	.cfi_offset 6, -16
	movq	%rsp, %rbp
	.cfi_def_cfa_register 6
	subq	$16, %rsp
	movq	%rdi, -8(%rbp)
.LBB49:
	.loc 6 257 0
	movq	-8(%rbp), %rax
	movq	%rax, %rdi
	call	_ZNSt12_Vector_baseI14plain_particleSaIS0_EEC2Ev
.LBE49:
	nop
	leave
	.cfi_def_cfa 7, 8
	ret
	.cfi_endproc
.LFE7109:
	.section	.gcc_except_table
.LLSDA7109:
	.byte	0xff
	.byte	0xff
	.byte	0x1
	.uleb128 .LLSDACSE7109-.LLSDACSB7109
.LLSDACSB7109:
.LLSDACSE7109:
	.section	.text._ZNSt6vectorI14plain_particleSaIS0_EEC2Ev,"axG",@progbits,_ZNSt6vectorI14plain_particleSaIS0_EEC5Ev,comdat
	.size	_ZNSt6vectorI14plain_particleSaIS0_EEC2Ev, .-_ZNSt6vectorI14plain_particleSaIS0_EEC2Ev
	.weak	_ZNSt6vectorI14plain_particleSaIS0_EEC1Ev
	.set	_ZNSt6vectorI14plain_particleSaIS0_EEC1Ev,_ZNSt6vectorI14plain_particleSaIS0_EEC2Ev
	.section	.text._ZNSt6vectorI14plain_particleSaIS0_EED2Ev,"axG",@progbits,_ZNSt6vectorI14plain_particleSaIS0_EED5Ev,comdat
	.align 2
	.weak	_ZNSt6vectorI14plain_particleSaIS0_EED2Ev
	.type	_ZNSt6vectorI14plain_particleSaIS0_EED2Ev, @function
_ZNSt6vectorI14plain_particleSaIS0_EED2Ev:
.LFB7112:
	.loc 6 423 0
	.cfi_startproc
	.cfi_personality 0x3,__gxx_personality_v0
	.cfi_lsda 0x3,.LLSDA7112
	pushq	%rbp
	.cfi_def_cfa_offset 16
	.cfi_offset 6, -16
	movq	%rsp, %rbp
	.cfi_def_cfa_register 6
	subq	$16, %rsp
	movq	%rdi, -8(%rbp)
.LBB50:
	.loc 6 425 0
	movq	-8(%rbp), %rax
	movq	%rax, %rdi
	call	_ZNSt12_Vector_baseI14plain_particleSaIS0_EE19_M_get_Tp_allocatorEv
	movq	%rax, %rdx
	.loc 6 424 0
	movq	-8(%rbp), %rax
	movq	8(%rax), %rcx
	movq	-8(%rbp), %rax
	movq	(%rax), %rax
	movq	%rcx, %rsi
	movq	%rax, %rdi
	call	_ZSt8_DestroyIP14plain_particleS0_EvT_S2_RSaIT0_E
	.loc 6 425 0
	movq	-8(%rbp), %rax
	movq	%rax, %rdi
	call	_ZNSt12_Vector_baseI14plain_particleSaIS0_EED2Ev
.LBE50:
	nop
	leave
	.cfi_def_cfa 7, 8
	ret
	.cfi_endproc
.LFE7112:
	.section	.gcc_except_table
.LLSDA7112:
	.byte	0xff
	.byte	0xff
	.byte	0x1
	.uleb128 .LLSDACSE7112-.LLSDACSB7112
.LLSDACSB7112:
.LLSDACSE7112:
	.section	.text._ZNSt6vectorI14plain_particleSaIS0_EED2Ev,"axG",@progbits,_ZNSt6vectorI14plain_particleSaIS0_EED5Ev,comdat
	.size	_ZNSt6vectorI14plain_particleSaIS0_EED2Ev, .-_ZNSt6vectorI14plain_particleSaIS0_EED2Ev
	.weak	_ZNSt6vectorI14plain_particleSaIS0_EED1Ev
	.set	_ZNSt6vectorI14plain_particleSaIS0_EED1Ev,_ZNSt6vectorI14plain_particleSaIS0_EED2Ev
	.section	.text._ZSt4moveIR14plain_particleEONSt16remove_referenceIT_E4typeEOS3_,"axG",@progbits,_ZSt4moveIR14plain_particleEONSt16remove_referenceIT_E4typeEOS3_,comdat
	.weak	_ZSt4moveIR14plain_particleEONSt16remove_referenceIT_E4typeEOS3_
	.type	_ZSt4moveIR14plain_particleEONSt16remove_referenceIT_E4typeEOS3_, @function
_ZSt4moveIR14plain_particleEONSt16remove_referenceIT_E4typeEOS3_:
.LFB7115:
	.file 7 "/usr/include/c++/5.2.0/bits/move.h"
	.loc 7 101 0
	.cfi_startproc
	pushq	%rbp
	.cfi_def_cfa_offset 16
	.cfi_offset 6, -16
	movq	%rsp, %rbp
	.cfi_def_cfa_register 6
	movq	%rdi, -8(%rbp)
	.loc 7 102 0
	movq	-8(%rbp), %rax
	popq	%rbp
	.cfi_def_cfa 7, 8
	ret
	.cfi_endproc
.LFE7115:
	.size	_ZSt4moveIR14plain_particleEONSt16remove_referenceIT_E4typeEOS3_, .-_ZSt4moveIR14plain_particleEONSt16remove_referenceIT_E4typeEOS3_
	.section	.text._ZNSt6vectorI14plain_particleSaIS0_EE9push_backEOS0_,"axG",@progbits,_ZNSt6vectorI14plain_particleSaIS0_EE9push_backEOS0_,comdat
	.align 2
	.weak	_ZNSt6vectorI14plain_particleSaIS0_EE9push_backEOS0_
	.type	_ZNSt6vectorI14plain_particleSaIS0_EE9push_backEOS0_, @function
_ZNSt6vectorI14plain_particleSaIS0_EE9push_backEOS0_:
.LFB7114:
	.loc 6 931 0
	.cfi_startproc
	pushq	%rbp
	.cfi_def_cfa_offset 16
	.cfi_offset 6, -16
	movq	%rsp, %rbp
	.cfi_def_cfa_register 6
	subq	$16, %rsp
	movq	%rdi, -8(%rbp)
	movq	%rsi, -16(%rbp)
	.loc 6 932 0
	movq	-16(%rbp), %rax
	movq	%rax, %rdi
	call	_ZSt4moveIR14plain_particleEONSt16remove_referenceIT_E4typeEOS3_
	movq	%rax, %rdx
	movq	-8(%rbp), %rax
	movq	%rdx, %rsi
	movq	%rax, %rdi
	call	_ZNSt6vectorI14plain_particleSaIS0_EE12emplace_backIJS0_EEEvDpOT_
	nop
	leave
	.cfi_def_cfa 7, 8
	ret
	.cfi_endproc
.LFE7114:
	.size	_ZNSt6vectorI14plain_particleSaIS0_EE9push_backEOS0_, .-_ZNSt6vectorI14plain_particleSaIS0_EE9push_backEOS0_
	.section	.text._ZNSt6vectorIcSaIcEE9push_backERKc,"axG",@progbits,_ZNSt6vectorIcSaIcEE9push_backERKc,comdat
	.align 2
	.weak	_ZNSt6vectorIcSaIcEE9push_backERKc
	.type	_ZNSt6vectorIcSaIcEE9push_backERKc, @function
_ZNSt6vectorIcSaIcEE9push_backERKc:
.LFB7116:
	.loc 6 913 0
	.cfi_startproc
	pushq	%rbp
	.cfi_def_cfa_offset 16
	.cfi_offset 6, -16
	movq	%rsp, %rbp
	.cfi_def_cfa_register 6
	subq	$16, %rsp
	movq	%rdi, -8(%rbp)
	movq	%rsi, -16(%rbp)
	.loc 6 915 0
	movq	-8(%rbp), %rax
	movq	8(%rax), %rdx
	movq	-8(%rbp), %rax
	movq	16(%rax), %rax
	cmpq	%rax, %rdx
	je	.L76
	.loc 6 917 0
	movq	-8(%rbp), %rax
	movq	8(%rax), %rcx
	movq	-8(%rbp), %rax
	movq	-16(%rbp), %rdx
	movq	%rcx, %rsi
	movq	%rax, %rdi
	call	_ZNSt16allocator_traitsISaIcEE9constructIcJRKcEEEDTcl12_S_constructfp_fp0_spcl7forwardIT0_Efp1_EEERS0_PT_DpOS5_
	.loc 6 919 0
	movq	-8(%rbp), %rax
	movq	8(%rax), %rax
	leaq	1(%rax), %rdx
	movq	-8(%rbp), %rax
	movq	%rdx, 8(%rax)
	.loc 6 927 0
	jmp	.L78
.L76:
	.loc 6 923 0
	movq	-16(%rbp), %rdx
	movq	-8(%rbp), %rax
	movq	%rdx, %rsi
	movq	%rax, %rdi
	call	_ZNSt6vectorIcSaIcEE19_M_emplace_back_auxIJRKcEEEvDpOT_
.L78:
	.loc 6 927 0
	nop
	leave
	.cfi_def_cfa 7, 8
	ret
	.cfi_endproc
.LFE7116:
	.size	_ZNSt6vectorIcSaIcEE9push_backERKc, .-_ZNSt6vectorIcSaIcEE9push_backERKc
	.section	.text._ZNSt6vectorIiSaIiEE9push_backERKi,"axG",@progbits,_ZNSt6vectorIiSaIiEE9push_backERKi,comdat
	.align 2
	.weak	_ZNSt6vectorIiSaIiEE9push_backERKi
	.type	_ZNSt6vectorIiSaIiEE9push_backERKi, @function
_ZNSt6vectorIiSaIiEE9push_backERKi:
.LFB7117:
	.loc 6 913 0
	.cfi_startproc
	pushq	%rbp
	.cfi_def_cfa_offset 16
	.cfi_offset 6, -16
	movq	%rsp, %rbp
	.cfi_def_cfa_register 6
	subq	$16, %rsp
	movq	%rdi, -8(%rbp)
	movq	%rsi, -16(%rbp)
	.loc 6 915 0
	movq	-8(%rbp), %rax
	movq	8(%rax), %rdx
	movq	-8(%rbp), %rax
	movq	16(%rax), %rax
	cmpq	%rax, %rdx
	je	.L80
	.loc 6 917 0
	movq	-8(%rbp), %rax
	movq	8(%rax), %rcx
	movq	-8(%rbp), %rax
	movq	-16(%rbp), %rdx
	movq	%rcx, %rsi
	movq	%rax, %rdi
	call	_ZNSt16allocator_traitsISaIiEE9constructIiJRKiEEEDTcl12_S_constructfp_fp0_spcl7forwardIT0_Efp1_EEERS0_PT_DpOS5_
	.loc 6 919 0
	movq	-8(%rbp), %rax
	movq	8(%rax), %rax
	leaq	4(%rax), %rdx
	movq	-8(%rbp), %rax
	movq	%rdx, 8(%rax)
	.loc 6 927 0
	jmp	.L82
.L80:
	.loc 6 923 0
	movq	-16(%rbp), %rdx
	movq	-8(%rbp), %rax
	movq	%rdx, %rsi
	movq	%rax, %rdi
	call	_ZNSt6vectorIiSaIiEE19_M_emplace_back_auxIJRKiEEEvDpOT_
.L82:
	.loc 6 927 0
	nop
	leave
	.cfi_def_cfa 7, 8
	ret
	.cfi_endproc
.LFE7117:
	.size	_ZNSt6vectorIiSaIiEE9push_backERKi, .-_ZNSt6vectorIiSaIiEE9push_backERKi
	.section	.text._ZNSt6vectorI14plain_particleSaIS0_EE5beginEv,"axG",@progbits,_ZNSt6vectorI14plain_particleSaIS0_EE5beginEv,comdat
	.align 2
	.weak	_ZNSt6vectorI14plain_particleSaIS0_EE5beginEv
	.type	_ZNSt6vectorI14plain_particleSaIS0_EE5beginEv, @function
_ZNSt6vectorI14plain_particleSaIS0_EE5beginEv:
.LFB7118:
	.loc 6 547 0
	.cfi_startproc
	pushq	%rbp
	.cfi_def_cfa_offset 16
	.cfi_offset 6, -16
	movq	%rsp, %rbp
	.cfi_def_cfa_register 6
	subq	$32, %rsp
	movq	%rdi, -24(%rbp)
	.loc 6 548 0
	movq	-24(%rbp), %rdx
	leaq	-16(%rbp), %rax
	movq	%rdx, %rsi
	movq	%rax, %rdi
	call	_ZN9__gnu_cxx17__normal_iteratorIP14plain_particleSt6vectorIS1_SaIS1_EEEC1ERKS2_
	movq	-16(%rbp), %rax
	leave
	.cfi_def_cfa 7, 8
	ret
	.cfi_endproc
.LFE7118:
	.size	_ZNSt6vectorI14plain_particleSaIS0_EE5beginEv, .-_ZNSt6vectorI14plain_particleSaIS0_EE5beginEv
	.section	.text._ZNSt6vectorI14plain_particleSaIS0_EE3endEv,"axG",@progbits,_ZNSt6vectorI14plain_particleSaIS0_EE3endEv,comdat
	.align 2
	.weak	_ZNSt6vectorI14plain_particleSaIS0_EE3endEv
	.type	_ZNSt6vectorI14plain_particleSaIS0_EE3endEv, @function
_ZNSt6vectorI14plain_particleSaIS0_EE3endEv:
.LFB7119:
	.loc 6 565 0
	.cfi_startproc
	pushq	%rbp
	.cfi_def_cfa_offset 16
	.cfi_offset 6, -16
	movq	%rsp, %rbp
	.cfi_def_cfa_register 6
	subq	$32, %rsp
	movq	%rdi, -24(%rbp)
	.loc 6 566 0
	movq	-24(%rbp), %rax
	leaq	8(%rax), %rdx
	leaq	-16(%rbp), %rax
	movq	%rdx, %rsi
	movq	%rax, %rdi
	call	_ZN9__gnu_cxx17__normal_iteratorIP14plain_particleSt6vectorIS1_SaIS1_EEEC1ERKS2_
	movq	-16(%rbp), %rax
	leave
	.cfi_def_cfa 7, 8
	ret
	.cfi_endproc
.LFE7119:
	.size	_ZNSt6vectorI14plain_particleSaIS0_EE3endEv, .-_ZNSt6vectorI14plain_particleSaIS0_EE3endEv
	.section	.text._ZNSt6vectorIcSaIcEEixEm,"axG",@progbits,_ZNSt6vectorIcSaIcEEixEm,comdat
	.align 2
	.weak	_ZNSt6vectorIcSaIcEEixEm
	.type	_ZNSt6vectorIcSaIcEEixEm, @function
_ZNSt6vectorIcSaIcEEixEm:
.LFB7120:
	.loc 6 779 0
	.cfi_startproc
	pushq	%rbp
	.cfi_def_cfa_offset 16
	.cfi_offset 6, -16
	movq	%rsp, %rbp
	.cfi_def_cfa_register 6
	movq	%rdi, -8(%rbp)
	movq	%rsi, -16(%rbp)
	.loc 6 780 0
	movq	-8(%rbp), %rax
	movq	(%rax), %rdx
	movq	-16(%rbp), %rax
	addq	%rdx, %rax
	popq	%rbp
	.cfi_def_cfa 7, 8
	ret
	.cfi_endproc
.LFE7120:
	.size	_ZNSt6vectorIcSaIcEEixEm, .-_ZNSt6vectorIcSaIcEEixEm
	.section	.text._ZNSt6vectorIiSaIiEEixEm,"axG",@progbits,_ZNSt6vectorIiSaIiEEixEm,comdat
	.align 2
	.weak	_ZNSt6vectorIiSaIiEEixEm
	.type	_ZNSt6vectorIiSaIiEEixEm, @function
_ZNSt6vectorIiSaIiEEixEm:
.LFB7121:
	.loc 6 779 0
	.cfi_startproc
	pushq	%rbp
	.cfi_def_cfa_offset 16
	.cfi_offset 6, -16
	movq	%rsp, %rbp
	.cfi_def_cfa_register 6
	movq	%rdi, -8(%rbp)
	movq	%rsi, -16(%rbp)
	.loc 6 780 0
	movq	-8(%rbp), %rax
	movq	(%rax), %rax
	movq	-16(%rbp), %rdx
	salq	$2, %rdx
	addq	%rdx, %rax
	popq	%rbp
	.cfi_def_cfa 7, 8
	ret
	.cfi_endproc
.LFE7121:
	.size	_ZNSt6vectorIiSaIiEEixEm, .-_ZNSt6vectorIiSaIiEEixEm
	.section	.text._ZSt7forwardIPiEOT_RNSt16remove_referenceIS1_E4typeE,"axG",@progbits,_ZSt7forwardIPiEOT_RNSt16remove_referenceIS1_E4typeE,comdat
	.weak	_ZSt7forwardIPiEOT_RNSt16remove_referenceIS1_E4typeE
	.type	_ZSt7forwardIPiEOT_RNSt16remove_referenceIS1_E4typeE, @function
_ZSt7forwardIPiEOT_RNSt16remove_referenceIS1_E4typeE:
.LFB7123:
	.loc 7 76 0
	.cfi_startproc
	pushq	%rbp
	.cfi_def_cfa_offset 16
	.cfi_offset 6, -16
	movq	%rsp, %rbp
	.cfi_def_cfa_register 6
	movq	%rdi, -8(%rbp)
	.loc 7 77 0
	movq	-8(%rbp), %rax
	popq	%rbp
	.cfi_def_cfa 7, 8
	ret
	.cfi_endproc
.LFE7123:
	.size	_ZSt7forwardIPiEOT_RNSt16remove_referenceIS1_E4typeE, .-_ZSt7forwardIPiEOT_RNSt16remove_referenceIS1_E4typeE
	.section	.text._ZN3dod6accessIJNS_6memberIcLi0EEENS1_IiLi0EEENS1_IiLi1EEENS1_IiLi2EEENS1_IiLi3EEEEEC2IJPiS9_S9_S9_EEEPcDpOT_,"axG",@progbits,_ZN3dod6accessIJNS_6memberIcLi0EEENS1_IiLi0EEENS1_IiLi1EEENS1_IiLi2EEENS1_IiLi3EEEEEC5IJPiS9_S9_S9_EEEPcDpOT_,comdat
	.align 2
	.weak	_ZN3dod6accessIJNS_6memberIcLi0EEENS1_IiLi0EEENS1_IiLi1EEENS1_IiLi2EEENS1_IiLi3EEEEEC2IJPiS9_S9_S9_EEEPcDpOT_
	.type	_ZN3dod6accessIJNS_6memberIcLi0EEENS1_IiLi0EEENS1_IiLi1EEENS1_IiLi2EEENS1_IiLi3EEEEEC2IJPiS9_S9_S9_EEEPcDpOT_, @function
_ZN3dod6accessIJNS_6memberIcLi0EEENS1_IiLi0EEENS1_IiLi1EEENS1_IiLi2EEENS1_IiLi3EEEEEC2IJPiS9_S9_S9_EEEPcDpOT_:
.LFB7124:
	.loc 5 95 0
	.cfi_startproc
	pushq	%rbp
	.cfi_def_cfa_offset 16
	.cfi_offset 6, -16
	movq	%rsp, %rbp
	.cfi_def_cfa_register 6
	pushq	%r13
	pushq	%r12
	pushq	%rbx
	subq	$56, %rsp
	.cfi_offset 13, -24
	.cfi_offset 12, -32
	.cfi_offset 3, -40
	movq	%rdi, -40(%rbp)
	movq	%rsi, -48(%rbp)
	movq	%rdx, -56(%rbp)
	movq	%rcx, -64(%rbp)
	movq	%r8, -72(%rbp)
	movq	%r9, -80(%rbp)
.LBB51:
	.loc 5 95 0
	movq	-80(%rbp), %rax
	movq	%rax, %rdi
	call	_ZSt7forwardIPiEOT_RNSt16remove_referenceIS1_E4typeE
	movq	%rax, %r13
	movq	-72(%rbp), %rax
	movq	%rax, %rdi
	call	_ZSt7forwardIPiEOT_RNSt16remove_referenceIS1_E4typeE
	movq	%rax, %r12
	movq	-64(%rbp), %rax
	movq	%rax, %rdi
	call	_ZSt7forwardIPiEOT_RNSt16remove_referenceIS1_E4typeE
	movq	%rax, %rbx
	movq	-56(%rbp), %rax
	movq	%rax, %rdi
	call	_ZSt7forwardIPiEOT_RNSt16remove_referenceIS1_E4typeE
	movq	(%rax), %rsi
	movq	-40(%rbp), %rax
	movq	%r13, %r8
	movq	%r12, %rcx
	movq	%rbx, %rdx
	movq	%rax, %rdi
	call	_ZN3dod6accessIJNS_6memberIiLi0EEENS1_IiLi1EEENS1_IiLi2EEENS1_IiLi3EEEEEC2IJPiS8_S8_EEES8_DpOT_
	movq	-40(%rbp), %rax
	movq	-48(%rbp), %rdx
	movq	%rdx, 40(%rax)
.LBE51:
	nop
	addq	$56, %rsp
	popq	%rbx
	popq	%r12
	popq	%r13
	popq	%rbp
	.cfi_def_cfa 7, 8
	ret
	.cfi_endproc
.LFE7124:
	.size	_ZN3dod6accessIJNS_6memberIcLi0EEENS1_IiLi0EEENS1_IiLi1EEENS1_IiLi2EEENS1_IiLi3EEEEEC2IJPiS9_S9_S9_EEEPcDpOT_, .-_ZN3dod6accessIJNS_6memberIcLi0EEENS1_IiLi0EEENS1_IiLi1EEENS1_IiLi2EEENS1_IiLi3EEEEEC2IJPiS9_S9_S9_EEEPcDpOT_
	.weak	_ZN3dod6accessIINS_6memberIcLi0EEENS1_IiLi0EEENS1_IiLi1EEENS1_IiLi2EEENS1_IiLi3EEEEEC2IIPiS9_S9_S9_EEEPcDpOT_
	.set	_ZN3dod6accessIINS_6memberIcLi0EEENS1_IiLi0EEENS1_IiLi1EEENS1_IiLi2EEENS1_IiLi3EEEEEC2IIPiS9_S9_S9_EEEPcDpOT_,_ZN3dod6accessIJNS_6memberIcLi0EEENS1_IiLi0EEENS1_IiLi1EEENS1_IiLi2EEENS1_IiLi3EEEEEC2IJPiS9_S9_S9_EEEPcDpOT_
	.weak	_ZN3dod6accessIJNS_6memberIcLi0EEENS1_IiLi0EEENS1_IiLi1EEENS1_IiLi2EEENS1_IiLi3EEEEEC1IJPiS9_S9_S9_EEEPcDpOT_
	.set	_ZN3dod6accessIJNS_6memberIcLi0EEENS1_IiLi0EEENS1_IiLi1EEENS1_IiLi2EEENS1_IiLi3EEEEEC1IJPiS9_S9_S9_EEEPcDpOT_,_ZN3dod6accessIJNS_6memberIcLi0EEENS1_IiLi0EEENS1_IiLi1EEENS1_IiLi2EEENS1_IiLi3EEEEEC2IJPiS9_S9_S9_EEEPcDpOT_
	.weak	_ZN3dod6accessIINS_6memberIcLi0EEENS1_IiLi0EEENS1_IiLi1EEENS1_IiLi2EEENS1_IiLi3EEEEEC1IIPiS9_S9_S9_EEEPcDpOT_
	.set	_ZN3dod6accessIINS_6memberIcLi0EEENS1_IiLi0EEENS1_IiLi1EEENS1_IiLi2EEENS1_IiLi3EEEEEC1IIPiS9_S9_S9_EEEPcDpOT_,_ZN3dod6accessIJNS_6memberIcLi0EEENS1_IiLi0EEENS1_IiLi1EEENS1_IiLi2EEENS1_IiLi3EEEEEC1IJPiS9_S9_S9_EEEPcDpOT_
	.section	.text._ZN3dod12make_pointerI8particleNS_6accessIJNS_6memberIcLi0EEENS3_IiLi0EEENS3_IiLi1EEENS3_IiLi2EEENS3_IiLi3EEEEEEEENS_7pointerIT_IT0_EEERKSC_,"axG",@progbits,_ZN3dod12make_pointerI8particleNS_6accessIJNS_6memberIcLi0EEENS3_IiLi0EEENS3_IiLi1EEENS3_IiLi2EEENS3_IiLi3EEEEEEEENS_7pointerIT_IT0_EEERKSC_,comdat
	.weak	_ZN3dod12make_pointerI8particleNS_6accessIJNS_6memberIcLi0EEENS3_IiLi0EEENS3_IiLi1EEENS3_IiLi2EEENS3_IiLi3EEEEEEEENS_7pointerIT_IT0_EEERKSC_
	.type	_ZN3dod12make_pointerI8particleNS_6accessIJNS_6memberIcLi0EEENS3_IiLi0EEENS3_IiLi1EEENS3_IiLi2EEENS3_IiLi3EEEEEEEENS_7pointerIT_IT0_EEERKSC_, @function
_ZN3dod12make_pointerI8particleNS_6accessIJNS_6memberIcLi0EEENS3_IiLi0EEENS3_IiLi1EEENS3_IiLi2EEENS3_IiLi3EEEEEEEENS_7pointerIT_IT0_EEERKSC_:
.LFB7126:
	.loc 5 149 0
	.cfi_startproc
	pushq	%rbp
	.cfi_def_cfa_offset 16
	.cfi_offset 6, -16
	movq	%rsp, %rbp
	.cfi_def_cfa_register 6
	subq	$16, %rsp
	movq	%rdi, -8(%rbp)
	movq	%rsi, -16(%rbp)
	.loc 5 151 0
	movq	-16(%rbp), %rdx
	movq	-8(%rbp), %rax
	movq	%rdx, %rsi
	movq	%rax, %rdi
	call	_ZN3dod7pointerI8particleINS_6accessIJNS_6memberIcLi0EEENS3_IiLi0EEENS3_IiLi1EEENS3_IiLi2EEENS3_IiLi3EEEEEEEEC1ERKS9_
	.loc 5 152 0
	movq	-8(%rbp), %rax
	leave
	.cfi_def_cfa 7, 8
	ret
	.cfi_endproc
.LFE7126:
	.size	_ZN3dod12make_pointerI8particleNS_6accessIJNS_6memberIcLi0EEENS3_IiLi0EEENS3_IiLi1EEENS3_IiLi2EEENS3_IiLi3EEEEEEEENS_7pointerIT_IT0_EEERKSC_, .-_ZN3dod12make_pointerI8particleNS_6accessIJNS_6memberIcLi0EEENS3_IiLi0EEENS3_IiLi1EEENS3_IiLi2EEENS3_IiLi3EEEEEEEENS_7pointerIT_IT0_EEERKSC_
	.weak	_ZN3dod12make_pointerI8particleNS_6accessIINS_6memberIcLi0EEENS3_IiLi0EEENS3_IiLi1EEENS3_IiLi2EEENS3_IiLi3EEEEEEEENS_7pointerIT_IT0_EEERKSC_
	.set	_ZN3dod12make_pointerI8particleNS_6accessIINS_6memberIcLi0EEENS3_IiLi0EEENS3_IiLi1EEENS3_IiLi2EEENS3_IiLi3EEEEEEEENS_7pointerIT_IT0_EEERKSC_,_ZN3dod12make_pointerI8particleNS_6accessIJNS_6memberIcLi0EEENS3_IiLi0EEENS3_IiLi1EEENS3_IiLi2EEENS3_IiLi3EEEEEEEENS_7pointerIT_IT0_EEERKSC_
	.section	.text._ZN5boost9iteratorsplIN3dod7pointerI8particleINS2_6accessIJNS2_6memberIcLi0EEENS6_IiLi0EEENS6_IiLi1EEENS6_IiLi2EEENS6_IiLi3EEEEEEEEESD_NS0_27random_access_traversal_tagESD_lEENS0_9enable_ifINS0_6detail21is_traversal_at_leastIT1_SF_EET_E4typeERKNS0_15iterator_facadeISL_T0_SJ_T2_T3_EENSL_15difference_typeE,"axG",@progbits,_ZN5boost9iteratorsplIN3dod7pointerI8particleINS2_6accessIJNS2_6memberIcLi0EEENS6_IiLi0EEENS6_IiLi1EEENS6_IiLi2EEENS6_IiLi3EEEEEEEEESD_NS0_27random_access_traversal_tagESD_lEENS0_9enable_ifINS0_6detail21is_traversal_at_leastIT1_SF_EET_E4typeERKNS0_15iterator_facadeISL_T0_SJ_T2_T3_EENSL_15difference_typeE,comdat
	.weak	_ZN5boost9iteratorsplIN3dod7pointerI8particleINS2_6accessIJNS2_6memberIcLi0EEENS6_IiLi0EEENS6_IiLi1EEENS6_IiLi2EEENS6_IiLi3EEEEEEEEESD_NS0_27random_access_traversal_tagESD_lEENS0_9enable_ifINS0_6detail21is_traversal_at_leastIT1_SF_EET_E4typeERKNS0_15iterator_facadeISL_T0_SJ_T2_T3_EENSL_15difference_typeE
	.type	_ZN5boost9iteratorsplIN3dod7pointerI8particleINS2_6accessIJNS2_6memberIcLi0EEENS6_IiLi0EEENS6_IiLi1EEENS6_IiLi2EEENS6_IiLi3EEEEEEEEESD_NS0_27random_access_traversal_tagESD_lEENS0_9enable_ifINS0_6detail21is_traversal_at_leastIT1_SF_EET_E4typeERKNS0_15iterator_facadeISL_T0_SJ_T2_T3_EENSL_15difference_typeE, @function
_ZN5boost9iteratorsplIN3dod7pointerI8particleINS2_6accessIJNS2_6memberIcLi0EEENS6_IiLi0EEENS6_IiLi1EEENS6_IiLi2EEENS6_IiLi3EEEEEEEEESD_NS0_27random_access_traversal_tagESD_lEENS0_9enable_ifINS0_6detail21is_traversal_at_leastIT1_SF_EET_E4typeERKNS0_15iterator_facadeISL_T0_SJ_T2_T3_EENSL_15difference_typeE:
.LFB7127:
	.file 8 "/usr/include/boost/iterator/iterator_facade.hpp"
	.loc 8 945 0
	.cfi_startproc
	pushq	%rbp
	.cfi_def_cfa_offset 16
	.cfi_offset 6, -16
	movq	%rsp, %rbp
	.cfi_def_cfa_register 6
	subq	$80, %rsp
	movq	%rdi, -56(%rbp)
	movq	%rsi, -64(%rbp)
	movq	%rdx, -72(%rbp)
	.loc 8 945 0
	movq	-64(%rbp), %rax
	movq	(%rax), %rdx
	movq	%rdx, -48(%rbp)
	movq	8(%rax), %rdx
	movq	%rdx, -40(%rbp)
	movq	16(%rax), %rdx
	movq	%rdx, -32(%rbp)
	movq	24(%rax), %rdx
	movq	%rdx, -24(%rbp)
	movq	32(%rax), %rdx
	movq	%rdx, -16(%rbp)
	movq	40(%rax), %rax
	movq	%rax, -8(%rbp)
	movq	-72(%rbp), %rdx
	leaq	-48(%rbp), %rax
	movq	%rdx, %rsi
	movq	%rax, %rdi
	call	_ZN5boost9iterators6detail20iterator_facade_baseIN3dod7pointerI8particleINS3_6accessIJNS3_6memberIcLi0EEENS7_IiLi0EEENS7_IiLi1EEENS7_IiLi2EEENS7_IiLi3EEEEEEEEESE_NS0_27random_access_traversal_tagESE_lLb1ELb1EEpLEl
	movq	%rax, %rdx
	movq	-56(%rbp), %rax
	movq	(%rdx), %rcx
	movq	%rcx, (%rax)
	movq	8(%rdx), %rcx
	movq	%rcx, 8(%rax)
	movq	16(%rdx), %rcx
	movq	%rcx, 16(%rax)
	movq	24(%rdx), %rcx
	movq	%rcx, 24(%rax)
	movq	32(%rdx), %rcx
	movq	%rcx, 32(%rax)
	movq	40(%rdx), %rdx
	movq	%rdx, 40(%rax)
	movq	-56(%rbp), %rax
	leave
	.cfi_def_cfa 7, 8
	ret
	.cfi_endproc
.LFE7127:
	.size	_ZN5boost9iteratorsplIN3dod7pointerI8particleINS2_6accessIJNS2_6memberIcLi0EEENS6_IiLi0EEENS6_IiLi1EEENS6_IiLi2EEENS6_IiLi3EEEEEEEEESD_NS0_27random_access_traversal_tagESD_lEENS0_9enable_ifINS0_6detail21is_traversal_at_leastIT1_SF_EET_E4typeERKNS0_15iterator_facadeISL_T0_SJ_T2_T3_EENSL_15difference_typeE, .-_ZN5boost9iteratorsplIN3dod7pointerI8particleINS2_6accessIJNS2_6memberIcLi0EEENS6_IiLi0EEENS6_IiLi1EEENS6_IiLi2EEENS6_IiLi3EEEEEEEEESD_NS0_27random_access_traversal_tagESD_lEENS0_9enable_ifINS0_6detail21is_traversal_at_leastIT1_SF_EET_E4typeERKNS0_15iterator_facadeISL_T0_SJ_T2_T3_EENSL_15difference_typeE
	.weak	_ZN5boost9iteratorsplIN3dod7pointerI8particleINS2_6accessIINS2_6memberIcLi0EEENS6_IiLi0EEENS6_IiLi1EEENS6_IiLi2EEENS6_IiLi3EEEEEEEEESD_NS0_27random_access_traversal_tagESD_lEENS0_9enable_ifINS0_6detail21is_traversal_at_leastIT1_SF_EET_E4typeERKNS0_15iterator_facadeISL_T0_SJ_T2_T3_EENSL_15difference_typeE
	.set	_ZN5boost9iteratorsplIN3dod7pointerI8particleINS2_6accessIINS2_6memberIcLi0EEENS6_IiLi0EEENS6_IiLi1EEENS6_IiLi2EEENS6_IiLi3EEEEEEEEESD_NS0_27random_access_traversal_tagESD_lEENS0_9enable_ifINS0_6detail21is_traversal_at_leastIT1_SF_EET_E4typeERKNS0_15iterator_facadeISL_T0_SJ_T2_T3_EENSL_15difference_typeE,_ZN5boost9iteratorsplIN3dod7pointerI8particleINS2_6accessIJNS2_6memberIcLi0EEENS6_IiLi0EEENS6_IiLi1EEENS6_IiLi2EEENS6_IiLi3EEEEEEEEESD_NS0_27random_access_traversal_tagESD_lEENS0_9enable_ifINS0_6detail21is_traversal_at_leastIT1_SF_EET_E4typeERKNS0_15iterator_facadeISL_T0_SJ_T2_T3_EENSL_15difference_typeE
	.section	.text._ZN3dod6accessIJNS_6memberIcLi0EEENS1_IiLi0EEENS1_IiLi1EEEEEC2IJPiS7_EEEPcDpOT_,"axG",@progbits,_ZN3dod6accessIJNS_6memberIcLi0EEENS1_IiLi0EEENS1_IiLi1EEEEEC5IJPiS7_EEEPcDpOT_,comdat
	.align 2
	.weak	_ZN3dod6accessIJNS_6memberIcLi0EEENS1_IiLi0EEENS1_IiLi1EEEEEC2IJPiS7_EEEPcDpOT_
	.type	_ZN3dod6accessIJNS_6memberIcLi0EEENS1_IiLi0EEENS1_IiLi1EEEEEC2IJPiS7_EEEPcDpOT_, @function
_ZN3dod6accessIJNS_6memberIcLi0EEENS1_IiLi0EEENS1_IiLi1EEEEEC2IJPiS7_EEEPcDpOT_:
.LFB7129:
	.loc 5 95 0
	.cfi_startproc
	pushq	%rbp
	.cfi_def_cfa_offset 16
	.cfi_offset 6, -16
	movq	%rsp, %rbp
	.cfi_def_cfa_register 6
	pushq	%rbx
	subq	$40, %rsp
	.cfi_offset 3, -24
	movq	%rdi, -24(%rbp)
	movq	%rsi, -32(%rbp)
	movq	%rdx, -40(%rbp)
	movq	%rcx, -48(%rbp)
.LBB52:
	.loc 5 95 0
	movq	-48(%rbp), %rax
	movq	%rax, %rdi
	call	_ZSt7forwardIPiEOT_RNSt16remove_referenceIS1_E4typeE
	movq	%rax, %rbx
	movq	-40(%rbp), %rax
	movq	%rax, %rdi
	call	_ZSt7forwardIPiEOT_RNSt16remove_referenceIS1_E4typeE
	movq	(%rax), %rcx
	movq	-24(%rbp), %rax
	movq	%rbx, %rdx
	movq	%rcx, %rsi
	movq	%rax, %rdi
	call	_ZN3dod6accessIJNS_6memberIiLi0EEENS1_IiLi1EEEEEC2IJPiEEES6_DpOT_
	movq	-24(%rbp), %rax
	movq	-32(%rbp), %rdx
	movq	%rdx, 24(%rax)
.LBE52:
	nop
	addq	$40, %rsp
	popq	%rbx
	popq	%rbp
	.cfi_def_cfa 7, 8
	ret
	.cfi_endproc
.LFE7129:
	.size	_ZN3dod6accessIJNS_6memberIcLi0EEENS1_IiLi0EEENS1_IiLi1EEEEEC2IJPiS7_EEEPcDpOT_, .-_ZN3dod6accessIJNS_6memberIcLi0EEENS1_IiLi0EEENS1_IiLi1EEEEEC2IJPiS7_EEEPcDpOT_
	.weak	_ZN3dod6accessIINS_6memberIcLi0EEENS1_IiLi0EEENS1_IiLi1EEEEEC2IIPiS7_EEEPcDpOT_
	.set	_ZN3dod6accessIINS_6memberIcLi0EEENS1_IiLi0EEENS1_IiLi1EEEEEC2IIPiS7_EEEPcDpOT_,_ZN3dod6accessIJNS_6memberIcLi0EEENS1_IiLi0EEENS1_IiLi1EEEEEC2IJPiS7_EEEPcDpOT_
	.weak	_ZN3dod6accessIJNS_6memberIcLi0EEENS1_IiLi0EEENS1_IiLi1EEEEEC1IJPiS7_EEEPcDpOT_
	.set	_ZN3dod6accessIJNS_6memberIcLi0EEENS1_IiLi0EEENS1_IiLi1EEEEEC1IJPiS7_EEEPcDpOT_,_ZN3dod6accessIJNS_6memberIcLi0EEENS1_IiLi0EEENS1_IiLi1EEEEEC2IJPiS7_EEEPcDpOT_
	.weak	_ZN3dod6accessIINS_6memberIcLi0EEENS1_IiLi0EEENS1_IiLi1EEEEEC1IIPiS7_EEEPcDpOT_
	.set	_ZN3dod6accessIINS_6memberIcLi0EEENS1_IiLi0EEENS1_IiLi1EEEEEC1IIPiS7_EEEPcDpOT_,_ZN3dod6accessIJNS_6memberIcLi0EEENS1_IiLi0EEENS1_IiLi1EEEEEC1IJPiS7_EEEPcDpOT_
	.section	.text._ZN3dod12make_pointerI8particleNS_6accessIJNS_6memberIcLi0EEENS3_IiLi0EEENS3_IiLi1EEEEEEEENS_7pointerIT_IT0_EEERKSA_,"axG",@progbits,_ZN3dod12make_pointerI8particleNS_6accessIJNS_6memberIcLi0EEENS3_IiLi0EEENS3_IiLi1EEEEEEEENS_7pointerIT_IT0_EEERKSA_,comdat
	.weak	_ZN3dod12make_pointerI8particleNS_6accessIJNS_6memberIcLi0EEENS3_IiLi0EEENS3_IiLi1EEEEEEEENS_7pointerIT_IT0_EEERKSA_
	.type	_ZN3dod12make_pointerI8particleNS_6accessIJNS_6memberIcLi0EEENS3_IiLi0EEENS3_IiLi1EEEEEEEENS_7pointerIT_IT0_EEERKSA_, @function
_ZN3dod12make_pointerI8particleNS_6accessIJNS_6memberIcLi0EEENS3_IiLi0EEENS3_IiLi1EEEEEEEENS_7pointerIT_IT0_EEERKSA_:
.LFB7131:
	.loc 5 149 0
	.cfi_startproc
	pushq	%rbp
	.cfi_def_cfa_offset 16
	.cfi_offset 6, -16
	movq	%rsp, %rbp
	.cfi_def_cfa_register 6
	subq	$16, %rsp
	movq	%rdi, -8(%rbp)
	movq	%rsi, -16(%rbp)
	.loc 5 151 0
	movq	-16(%rbp), %rdx
	movq	-8(%rbp), %rax
	movq	%rdx, %rsi
	movq	%rax, %rdi
	call	_ZN3dod7pointerI8particleINS_6accessIJNS_6memberIcLi0EEENS3_IiLi0EEENS3_IiLi1EEEEEEEEC1ERKS7_
	.loc 5 152 0
	movq	-8(%rbp), %rax
	leave
	.cfi_def_cfa 7, 8
	ret
	.cfi_endproc
.LFE7131:
	.size	_ZN3dod12make_pointerI8particleNS_6accessIJNS_6memberIcLi0EEENS3_IiLi0EEENS3_IiLi1EEEEEEEENS_7pointerIT_IT0_EEERKSA_, .-_ZN3dod12make_pointerI8particleNS_6accessIJNS_6memberIcLi0EEENS3_IiLi0EEENS3_IiLi1EEEEEEEENS_7pointerIT_IT0_EEERKSA_
	.weak	_ZN3dod12make_pointerI8particleNS_6accessIINS_6memberIcLi0EEENS3_IiLi0EEENS3_IiLi1EEEEEEEENS_7pointerIT_IT0_EEERKSA_
	.set	_ZN3dod12make_pointerI8particleNS_6accessIINS_6memberIcLi0EEENS3_IiLi0EEENS3_IiLi1EEEEEEEENS_7pointerIT_IT0_EEERKSA_,_ZN3dod12make_pointerI8particleNS_6accessIJNS_6memberIcLi0EEENS3_IiLi0EEENS3_IiLi1EEEEEEEENS_7pointerIT_IT0_EEERKSA_
	.section	.text._ZN5boost9iteratorsplIN3dod7pointerI8particleINS2_6accessIJNS2_6memberIcLi0EEENS6_IiLi0EEENS6_IiLi1EEEEEEEEESB_NS0_27random_access_traversal_tagESB_lEENS0_9enable_ifINS0_6detail21is_traversal_at_leastIT1_SD_EET_E4typeERKNS0_15iterator_facadeISJ_T0_SH_T2_T3_EENSJ_15difference_typeE,"axG",@progbits,_ZN5boost9iteratorsplIN3dod7pointerI8particleINS2_6accessIJNS2_6memberIcLi0EEENS6_IiLi0EEENS6_IiLi1EEEEEEEEESB_NS0_27random_access_traversal_tagESB_lEENS0_9enable_ifINS0_6detail21is_traversal_at_leastIT1_SD_EET_E4typeERKNS0_15iterator_facadeISJ_T0_SH_T2_T3_EENSJ_15difference_typeE,comdat
	.weak	_ZN5boost9iteratorsplIN3dod7pointerI8particleINS2_6accessIJNS2_6memberIcLi0EEENS6_IiLi0EEENS6_IiLi1EEEEEEEEESB_NS0_27random_access_traversal_tagESB_lEENS0_9enable_ifINS0_6detail21is_traversal_at_leastIT1_SD_EET_E4typeERKNS0_15iterator_facadeISJ_T0_SH_T2_T3_EENSJ_15difference_typeE
	.type	_ZN5boost9iteratorsplIN3dod7pointerI8particleINS2_6accessIJNS2_6memberIcLi0EEENS6_IiLi0EEENS6_IiLi1EEEEEEEEESB_NS0_27random_access_traversal_tagESB_lEENS0_9enable_ifINS0_6detail21is_traversal_at_leastIT1_SD_EET_E4typeERKNS0_15iterator_facadeISJ_T0_SH_T2_T3_EENSJ_15difference_typeE, @function
_ZN5boost9iteratorsplIN3dod7pointerI8particleINS2_6accessIJNS2_6memberIcLi0EEENS6_IiLi0EEENS6_IiLi1EEEEEEEEESB_NS0_27random_access_traversal_tagESB_lEENS0_9enable_ifINS0_6detail21is_traversal_at_leastIT1_SD_EET_E4typeERKNS0_15iterator_facadeISJ_T0_SH_T2_T3_EENSJ_15difference_typeE:
.LFB7132:
	.loc 8 945 0
	.cfi_startproc
	pushq	%rbp
	.cfi_def_cfa_offset 16
	.cfi_offset 6, -16
	movq	%rsp, %rbp
	.cfi_def_cfa_register 6
	subq	$64, %rsp
	movq	%rdi, -40(%rbp)
	movq	%rsi, -48(%rbp)
	movq	%rdx, -56(%rbp)
	.loc 8 945 0
	movq	-48(%rbp), %rax
	movq	(%rax), %rdx
	movq	%rdx, -32(%rbp)
	movq	8(%rax), %rdx
	movq	%rdx, -24(%rbp)
	movq	16(%rax), %rdx
	movq	%rdx, -16(%rbp)
	movq	24(%rax), %rax
	movq	%rax, -8(%rbp)
	movq	-56(%rbp), %rdx
	leaq	-32(%rbp), %rax
	movq	%rdx, %rsi
	movq	%rax, %rdi
	call	_ZN5boost9iterators6detail20iterator_facade_baseIN3dod7pointerI8particleINS3_6accessIJNS3_6memberIcLi0EEENS7_IiLi0EEENS7_IiLi1EEEEEEEEESC_NS0_27random_access_traversal_tagESC_lLb1ELb1EEpLEl
	movq	%rax, %rdx
	movq	-40(%rbp), %rax
	movq	(%rdx), %rcx
	movq	%rcx, (%rax)
	movq	8(%rdx), %rcx
	movq	%rcx, 8(%rax)
	movq	16(%rdx), %rcx
	movq	%rcx, 16(%rax)
	movq	24(%rdx), %rdx
	movq	%rdx, 24(%rax)
	movq	-40(%rbp), %rax
	leave
	.cfi_def_cfa 7, 8
	ret
	.cfi_endproc
.LFE7132:
	.size	_ZN5boost9iteratorsplIN3dod7pointerI8particleINS2_6accessIJNS2_6memberIcLi0EEENS6_IiLi0EEENS6_IiLi1EEEEEEEEESB_NS0_27random_access_traversal_tagESB_lEENS0_9enable_ifINS0_6detail21is_traversal_at_leastIT1_SD_EET_E4typeERKNS0_15iterator_facadeISJ_T0_SH_T2_T3_EENSJ_15difference_typeE, .-_ZN5boost9iteratorsplIN3dod7pointerI8particleINS2_6accessIJNS2_6memberIcLi0EEENS6_IiLi0EEENS6_IiLi1EEEEEEEEESB_NS0_27random_access_traversal_tagESB_lEENS0_9enable_ifINS0_6detail21is_traversal_at_leastIT1_SD_EET_E4typeERKNS0_15iterator_facadeISJ_T0_SH_T2_T3_EENSJ_15difference_typeE
	.weak	_ZN5boost9iteratorsplIN3dod7pointerI8particleINS2_6accessIINS2_6memberIcLi0EEENS6_IiLi0EEENS6_IiLi1EEEEEEEEESB_NS0_27random_access_traversal_tagESB_lEENS0_9enable_ifINS0_6detail21is_traversal_at_leastIT1_SD_EET_E4typeERKNS0_15iterator_facadeISJ_T0_SH_T2_T3_EENSJ_15difference_typeE
	.set	_ZN5boost9iteratorsplIN3dod7pointerI8particleINS2_6accessIINS2_6memberIcLi0EEENS6_IiLi0EEENS6_IiLi1EEEEEEEEESB_NS0_27random_access_traversal_tagESB_lEENS0_9enable_ifINS0_6detail21is_traversal_at_leastIT1_SD_EET_E4typeERKNS0_15iterator_facadeISJ_T0_SH_T2_T3_EENSJ_15difference_typeE,_ZN5boost9iteratorsplIN3dod7pointerI8particleINS2_6accessIJNS2_6memberIcLi0EEENS6_IiLi0EEENS6_IiLi1EEEEEEEEESB_NS0_27random_access_traversal_tagESB_lEENS0_9enable_ifINS0_6detail21is_traversal_at_leastIT1_SD_EET_E4typeERKNS0_15iterator_facadeISJ_T0_SH_T2_T3_EENSJ_15difference_typeE
	.section	.text._Z6renderIN9__gnu_cxx17__normal_iteratorIP14plain_particleSt6vectorIS2_SaIS2_EEEEEiT_S8_,"axG",@progbits,_Z6renderIN9__gnu_cxx17__normal_iteratorIP14plain_particleSt6vectorIS2_SaIS2_EEEEEiT_S8_,comdat
	.weak	_Z6renderIN9__gnu_cxx17__normal_iteratorIP14plain_particleSt6vectorIS2_SaIS2_EEEEEiT_S8_
	.type	_Z6renderIN9__gnu_cxx17__normal_iteratorIP14plain_particleSt6vectorIS2_SaIS2_EEEEEiT_S8_, @function
_Z6renderIN9__gnu_cxx17__normal_iteratorIP14plain_particleSt6vectorIS2_SaIS2_EEEEEiT_S8_:
.LFB7134:
	.loc 5 281 0
	.cfi_startproc
	pushq	%rbp
	.cfi_def_cfa_offset 16
	.cfi_offset 6, -16
	movq	%rsp, %rbp
	.cfi_def_cfa_register 6
	subq	$32, %rsp
	movq	%rdi, -16(%rbp)
	movq	%rsi, -32(%rbp)
	.loc 5 283 0
	movl	$0, _ZL13render_output(%rip)
.L105:
	.loc 5 284 0
	leaq	-32(%rbp), %rdx
	leaq	-16(%rbp), %rax
	movq	%rdx, %rsi
	movq	%rax, %rdi
	call	_ZN9__gnu_cxxneIP14plain_particleSt6vectorIS1_SaIS1_EEEEbRKNS_17__normal_iteratorIT_T0_EESB_
	testb	%al, %al
	je	.L104
	.loc 5 285 0
	leaq	-16(%rbp), %rax
	movq	%rax, %rdi
	call	_ZNK9__gnu_cxx17__normal_iteratorIP14plain_particleSt6vectorIS1_SaIS1_EEEptEv
	movq	%rax, %rdi
	call	_ZNK14plain_particle6renderEv
	.loc 5 286 0
	leaq	-16(%rbp), %rax
	movq	%rax, %rdi
	call	_ZN9__gnu_cxx17__normal_iteratorIP14plain_particleSt6vectorIS1_SaIS1_EEEppEv
	.loc 5 284 0
	jmp	.L105
.L104:
	.loc 5 288 0
	movl	_ZL13render_output(%rip), %eax
	.loc 5 289 0
	leave
	.cfi_def_cfa 7, 8
	ret
	.cfi_endproc
.LFE7134:
	.size	_Z6renderIN9__gnu_cxx17__normal_iteratorIP14plain_particleSt6vectorIS2_SaIS2_EEEEEiT_S8_, .-_Z6renderIN9__gnu_cxx17__normal_iteratorIP14plain_particleSt6vectorIS2_SaIS2_EEEEEiT_S8_
	.text
	.type	_Z7measureIZ4mainEUlvE_EdT_m, @function
_Z7measureIZ4mainEUlvE_EdT_m:
.LFB7135:
	.loc 5 300 0
	.cfi_startproc
	pushq	%rbp
	.cfi_def_cfa_offset 16
	.cfi_offset 6, -16
	movq	%rsp, %rbp
	.cfi_def_cfa_register 6
	pushq	%rbx
	subq	$40, %rsp
	.cfi_offset 3, -24
	movq	%rdi, %rax
	movq	%rax, %rcx
	movq	%rdx, %rbx
	movq	%rsi, %rbx
	movq	%rcx, -32(%rbp)
	movq	%rbx, -24(%rbp)
	movq	%rdx, -40(%rbp)
	.loc 5 300 0
	movq	-32(%rbp), %rdx
	movq	-24(%rbp), %rax
	movq	%rdx, %rdi
	movq	%rax, %rsi
	call	_Z7measureIZ4mainEUlvE_EdT_
	movapd	%xmm0, %xmm1
	movq	-40(%rbp), %rax
	testq	%rax, %rax
	js	.L108
	pxor	%xmm0, %xmm0
	cvtsi2sdq	%rax, %xmm0
	jmp	.L109
.L108:
	movq	%rax, %rdx
	shrq	%rdx
	andl	$1, %eax
	orq	%rax, %rdx
	pxor	%xmm0, %xmm0
	cvtsi2sdq	%rdx, %xmm0
	addsd	%xmm0, %xmm0
.L109:
	divsd	%xmm0, %xmm1
	movapd	%xmm1, %xmm0
	movsd	.LC3(%rip), %xmm1
	mulsd	%xmm1, %xmm0
	addq	$40, %rsp
	popq	%rbx
	popq	%rbp
	.cfi_def_cfa 7, 8
	ret
	.cfi_endproc
.LFE7135:
	.size	_Z7measureIZ4mainEUlvE_EdT_m, .-_Z7measureIZ4mainEUlvE_EdT_m
	.type	_Z7measureIZ4mainEUlvE0_EdT_m, @function
_Z7measureIZ4mainEUlvE0_EdT_m:
.LFB7137:
	.loc 5 300 0
	.cfi_startproc
	pushq	%rbp
	.cfi_def_cfa_offset 16
	.cfi_offset 6, -16
	movq	%rsp, %rbp
	.cfi_def_cfa_register 6
	subq	$16, %rsp
	movq	%rdi, -8(%rbp)
	.loc 5 300 0
	pushq	40(%rbp)
	pushq	32(%rbp)
	pushq	24(%rbp)
	pushq	16(%rbp)
	call	_Z7measureIZ4mainEUlvE0_EdT_
	addq	$32, %rsp
	movapd	%xmm0, %xmm1
	movq	-8(%rbp), %rax
	testq	%rax, %rax
	js	.L112
	pxor	%xmm0, %xmm0
	cvtsi2sdq	%rax, %xmm0
	jmp	.L113
.L112:
	movq	%rax, %rdx
	shrq	%rdx
	andl	$1, %eax
	orq	%rax, %rdx
	pxor	%xmm0, %xmm0
	cvtsi2sdq	%rdx, %xmm0
	addsd	%xmm0, %xmm0
.L113:
	divsd	%xmm0, %xmm1
	movapd	%xmm1, %xmm0
	movsd	.LC3(%rip), %xmm1
	mulsd	%xmm1, %xmm0
	leave
	.cfi_def_cfa 7, 8
	ret
	.cfi_endproc
.LFE7137:
	.size	_Z7measureIZ4mainEUlvE0_EdT_m, .-_Z7measureIZ4mainEUlvE0_EdT_m
	.section	.text._Z6renderIN3dod7pointerI8particleINS0_6accessIJNS0_6memberIcLi0EEENS4_IiLi0EEENS4_IiLi1EEENS4_IiLi2EEENS4_IiLi3EEEEEEEEEEiT_SD_,"axG",@progbits,_Z6renderIN3dod7pointerI8particleINS0_6accessIJNS0_6memberIcLi0EEENS4_IiLi0EEENS4_IiLi1EEENS4_IiLi2EEENS4_IiLi3EEEEEEEEEEiT_SD_,comdat
	.weak	_Z6renderIN3dod7pointerI8particleINS0_6accessIJNS0_6memberIcLi0EEENS4_IiLi0EEENS4_IiLi1EEENS4_IiLi2EEENS4_IiLi3EEEEEEEEEEiT_SD_
	.type	_Z6renderIN3dod7pointerI8particleINS0_6accessIJNS0_6memberIcLi0EEENS4_IiLi0EEENS4_IiLi1EEENS4_IiLi2EEENS4_IiLi3EEEEEEEEEEiT_SD_, @function
_Z6renderIN3dod7pointerI8particleINS0_6accessIJNS0_6memberIcLi0EEENS4_IiLi0EEENS4_IiLi1EEENS4_IiLi2EEENS4_IiLi3EEEEEEEEEEiT_SD_:
.LFB7138:
	.loc 5 281 0
	.cfi_startproc
	pushq	%rbp
	.cfi_def_cfa_offset 16
	.cfi_offset 6, -16
	movq	%rsp, %rbp
	.cfi_def_cfa_register 6
	subq	$48, %rsp
	.loc 5 283 0
	movl	$0, _ZL13render_output(%rip)
.L117:
	.loc 5 284 0
	leaq	64(%rbp), %rax
	movq	%rax, %rsi
	leaq	16(%rbp), %rdi
	call	_ZN5boost9iteratorsneIN3dod7pointerI8particleINS2_6accessIJNS2_6memberIcLi0EEENS6_IiLi0EEENS6_IiLi1EEENS6_IiLi2EEENS6_IiLi3EEEEEEEEESD_NS0_27random_access_traversal_tagESD_lSE_SD_SF_SD_lEENS0_6detail23enable_if_interoperableIT_T4_NS_3mpl6apply2INSG_12always_bool2ESI_SJ_E4typeEE4typeERKNS0_15iterator_facadeISI_T0_T1_T2_T3_EERKNSR_ISJ_T5_T6_T7_T8_EE
	testb	%al, %al
	je	.L116
	.loc 5 285 0
	leaq	-48(%rbp), %rax
	leaq	16(%rbp), %rsi
	movq	%rax, %rdi
	call	_ZNK5boost9iterators6detail20iterator_facade_baseIN3dod7pointerI8particleINS3_6accessIJNS3_6memberIcLi0EEENS7_IiLi0EEENS7_IiLi1EEENS7_IiLi2EEENS7_IiLi3EEEEEEEEESE_NS0_27random_access_traversal_tagESE_lLb0ELb0EEptEv
	leaq	-48(%rbp), %rax
	movq	%rax, %rdi
	call	_ZN5boost9iterators6detail23operator_arrow_dispatchI8particleIN3dod6accessIJNS4_6memberIcLi0EEENS6_IiLi0EEENS6_IiLi1EEENS6_IiLi2EEENS6_IiLi3EEEEEEEPSD_E5proxyptEv
	movq	%rax, %rdi
	call	_ZNK8particleIN3dod6accessIJNS0_6memberIcLi0EEENS2_IiLi0EEENS2_IiLi1EEENS2_IiLi2EEENS2_IiLi3EEEEEEE6renderEv
	.loc 5 286 0
	leaq	16(%rbp), %rdi
	call	_ZN5boost9iterators6detail20iterator_facade_baseIN3dod7pointerI8particleINS3_6accessIJNS3_6memberIcLi0EEENS7_IiLi0EEENS7_IiLi1EEENS7_IiLi2EEENS7_IiLi3EEEEEEEEESE_NS0_27random_access_traversal_tagESE_lLb0ELb0EEppEv
	.loc 5 284 0
	jmp	.L117
.L116:
	.loc 5 288 0
	movl	_ZL13render_output(%rip), %eax
	.loc 5 289 0
	leave
	.cfi_def_cfa 7, 8
	ret
	.cfi_endproc
.LFE7138:
	.size	_Z6renderIN3dod7pointerI8particleINS0_6accessIJNS0_6memberIcLi0EEENS4_IiLi0EEENS4_IiLi1EEENS4_IiLi2EEENS4_IiLi3EEEEEEEEEEiT_SD_, .-_Z6renderIN3dod7pointerI8particleINS0_6accessIJNS0_6memberIcLi0EEENS4_IiLi0EEENS4_IiLi1EEENS4_IiLi2EEENS4_IiLi3EEEEEEEEEEiT_SD_
	.weak	_Z6renderIN3dod7pointerI8particleINS0_6accessIINS0_6memberIcLi0EEENS4_IiLi0EEENS4_IiLi1EEENS4_IiLi2EEENS4_IiLi3EEEEEEEEEEiT_SD_
	.set	_Z6renderIN3dod7pointerI8particleINS0_6accessIINS0_6memberIcLi0EEENS4_IiLi0EEENS4_IiLi1EEENS4_IiLi2EEENS4_IiLi3EEEEEEEEEEiT_SD_,_Z6renderIN3dod7pointerI8particleINS0_6accessIJNS0_6memberIcLi0EEENS4_IiLi0EEENS4_IiLi1EEENS4_IiLi2EEENS4_IiLi3EEEEEEEEEEiT_SD_
	.text
	.type	_Z7measureIZ4mainEUlvE1_EdT_m, @function
_Z7measureIZ4mainEUlvE1_EdT_m:
.LFB7139:
	.loc 5 300 0
	.cfi_startproc
	pushq	%rbp
	.cfi_def_cfa_offset 16
	.cfi_offset 6, -16
	movq	%rsp, %rbp
	.cfi_def_cfa_register 6
	subq	$16, %rsp
	movq	%rdi, -8(%rbp)
	.loc 5 300 0
	pushq	104(%rbp)
	pushq	96(%rbp)
	pushq	88(%rbp)
	pushq	80(%rbp)
	pushq	72(%rbp)
	pushq	64(%rbp)
	pushq	56(%rbp)
	pushq	48(%rbp)
	pushq	40(%rbp)
	pushq	32(%rbp)
	pushq	24(%rbp)
	pushq	16(%rbp)
	call	_Z7measureIZ4mainEUlvE1_EdT_
	addq	$96, %rsp
	movapd	%xmm0, %xmm1
	movq	-8(%rbp), %rax
	testq	%rax, %rax
	js	.L120
	pxor	%xmm0, %xmm0
	cvtsi2sdq	%rax, %xmm0
	jmp	.L121
.L120:
	movq	%rax, %rdx
	shrq	%rdx
	andl	$1, %eax
	orq	%rax, %rdx
	pxor	%xmm0, %xmm0
	cvtsi2sdq	%rdx, %xmm0
	addsd	%xmm0, %xmm0
.L121:
	divsd	%xmm0, %xmm1
	movapd	%xmm1, %xmm0
	movsd	.LC3(%rip), %xmm1
	mulsd	%xmm1, %xmm0
	leave
	.cfi_def_cfa 7, 8
	ret
	.cfi_endproc
.LFE7139:
	.size	_Z7measureIZ4mainEUlvE1_EdT_m, .-_Z7measureIZ4mainEUlvE1_EdT_m
	.section	.text._Z6renderIN3dod7pointerI8particleINS0_6accessIJNS0_6memberIcLi0EEENS4_IiLi0EEENS4_IiLi1EEEEEEEEEEiT_SB_,"axG",@progbits,_Z6renderIN3dod7pointerI8particleINS0_6accessIJNS0_6memberIcLi0EEENS4_IiLi0EEENS4_IiLi1EEEEEEEEEEiT_SB_,comdat
	.weak	_Z6renderIN3dod7pointerI8particleINS0_6accessIJNS0_6memberIcLi0EEENS4_IiLi0EEENS4_IiLi1EEEEEEEEEEiT_SB_
	.type	_Z6renderIN3dod7pointerI8particleINS0_6accessIJNS0_6memberIcLi0EEENS4_IiLi0EEENS4_IiLi1EEEEEEEEEEiT_SB_, @function
_Z6renderIN3dod7pointerI8particleINS0_6accessIJNS0_6memberIcLi0EEENS4_IiLi0EEENS4_IiLi1EEEEEEEEEEiT_SB_:
.LFB7140:
	.loc 5 281 0
	.cfi_startproc
	pushq	%rbp
	.cfi_def_cfa_offset 16
	.cfi_offset 6, -16
	movq	%rsp, %rbp
	.cfi_def_cfa_register 6
	subq	$32, %rsp
	.loc 5 283 0
	movl	$0, _ZL13render_output(%rip)
.L125:
	.loc 5 284 0
	leaq	48(%rbp), %rax
	movq	%rax, %rsi
	leaq	16(%rbp), %rdi
	call	_ZN5boost9iteratorsneIN3dod7pointerI8particleINS2_6accessIJNS2_6memberIcLi0EEENS6_IiLi0EEENS6_IiLi1EEEEEEEEESB_NS0_27random_access_traversal_tagESB_lSC_SB_SD_SB_lEENS0_6detail23enable_if_interoperableIT_T4_NS_3mpl6apply2INSE_12always_bool2ESG_SH_E4typeEE4typeERKNS0_15iterator_facadeISG_T0_T1_T2_T3_EERKNSP_ISH_T5_T6_T7_T8_EE
	testb	%al, %al
	je	.L124
	.loc 5 285 0
	leaq	-32(%rbp), %rax
	leaq	16(%rbp), %rsi
	movq	%rax, %rdi
	call	_ZNK5boost9iterators6detail20iterator_facade_baseIN3dod7pointerI8particleINS3_6accessIJNS3_6memberIcLi0EEENS7_IiLi0EEENS7_IiLi1EEEEEEEEESC_NS0_27random_access_traversal_tagESC_lLb0ELb0EEptEv
	leaq	-32(%rbp), %rax
	movq	%rax, %rdi
	call	_ZN5boost9iterators6detail23operator_arrow_dispatchI8particleIN3dod6accessIJNS4_6memberIcLi0EEENS6_IiLi0EEENS6_IiLi1EEEEEEEPSB_E5proxyptEv
	movq	%rax, %rdi
	call	_ZNK8particleIN3dod6accessIJNS0_6memberIcLi0EEENS2_IiLi0EEENS2_IiLi1EEEEEEE6renderEv
	.loc 5 286 0
	leaq	16(%rbp), %rdi
	call	_ZN5boost9iterators6detail20iterator_facade_baseIN3dod7pointerI8particleINS3_6accessIJNS3_6memberIcLi0EEENS7_IiLi0EEENS7_IiLi1EEEEEEEEESC_NS0_27random_access_traversal_tagESC_lLb0ELb0EEppEv
	.loc 5 284 0
	jmp	.L125
.L124:
	.loc 5 288 0
	movl	_ZL13render_output(%rip), %eax
	.loc 5 289 0
	leave
	.cfi_def_cfa 7, 8
	ret
	.cfi_endproc
.LFE7140:
	.size	_Z6renderIN3dod7pointerI8particleINS0_6accessIJNS0_6memberIcLi0EEENS4_IiLi0EEENS4_IiLi1EEEEEEEEEEiT_SB_, .-_Z6renderIN3dod7pointerI8particleINS0_6accessIJNS0_6memberIcLi0EEENS4_IiLi0EEENS4_IiLi1EEEEEEEEEEiT_SB_
	.weak	_Z6renderIN3dod7pointerI8particleINS0_6accessIINS0_6memberIcLi0EEENS4_IiLi0EEENS4_IiLi1EEEEEEEEEEiT_SB_
	.set	_Z6renderIN3dod7pointerI8particleINS0_6accessIINS0_6memberIcLi0EEENS4_IiLi0EEENS4_IiLi1EEEEEEEEEEiT_SB_,_Z6renderIN3dod7pointerI8particleINS0_6accessIJNS0_6memberIcLi0EEENS4_IiLi0EEENS4_IiLi1EEEEEEEEEEiT_SB_
	.text
	.type	_Z7measureIZ4mainEUlvE2_EdT_m, @function
_Z7measureIZ4mainEUlvE2_EdT_m:
.LFB7141:
	.loc 5 300 0
	.cfi_startproc
	pushq	%rbp
	.cfi_def_cfa_offset 16
	.cfi_offset 6, -16
	movq	%rsp, %rbp
	.cfi_def_cfa_register 6
	subq	$16, %rsp
	movq	%rdi, -8(%rbp)
	.loc 5 300 0
	pushq	72(%rbp)
	pushq	64(%rbp)
	pushq	56(%rbp)
	pushq	48(%rbp)
	pushq	40(%rbp)
	pushq	32(%rbp)
	pushq	24(%rbp)
	pushq	16(%rbp)
	call	_Z7measureIZ4mainEUlvE2_EdT_
	addq	$64, %rsp
	movapd	%xmm0, %xmm1
	movq	-8(%rbp), %rax
	testq	%rax, %rax
	js	.L128
	pxor	%xmm0, %xmm0
	cvtsi2sdq	%rax, %xmm0
	jmp	.L129
.L128:
	movq	%rax, %rdx
	shrq	%rdx
	andl	$1, %eax
	orq	%rax, %rdx
	pxor	%xmm0, %xmm0
	cvtsi2sdq	%rdx, %xmm0
	addsd	%xmm0, %xmm0
.L129:
	divsd	%xmm0, %xmm1
	movapd	%xmm1, %xmm0
	movsd	.LC3(%rip), %xmm1
	mulsd	%xmm1, %xmm0
	leave
	.cfi_def_cfa 7, 8
	ret
	.cfi_endproc
.LFE7141:
	.size	_Z7measureIZ4mainEUlvE2_EdT_m, .-_Z7measureIZ4mainEUlvE2_EdT_m
	.section	.text._Z6renderIN9__gnu_cxx17__normal_iteratorIP14plain_particleSt6vectorIS2_SaIS2_EEEEmEiT_T0_,"axG",@progbits,_Z6renderIN9__gnu_cxx17__normal_iteratorIP14plain_particleSt6vectorIS2_SaIS2_EEEEmEiT_T0_,comdat
	.weak	_Z6renderIN9__gnu_cxx17__normal_iteratorIP14plain_particleSt6vectorIS2_SaIS2_EEEEmEiT_T0_
	.type	_Z6renderIN9__gnu_cxx17__normal_iteratorIP14plain_particleSt6vectorIS2_SaIS2_EEEEmEiT_T0_, @function
_Z6renderIN9__gnu_cxx17__normal_iteratorIP14plain_particleSt6vectorIS2_SaIS2_EEEEmEiT_T0_:
.LFB7142:
	.loc 5 292 0
	.cfi_startproc
	pushq	%rbp
	.cfi_def_cfa_offset 16
	.cfi_offset 6, -16
	movq	%rsp, %rbp
	.cfi_def_cfa_register 6
	subq	$32, %rsp
	movq	%rdi, -32(%rbp)
	movq	%rsi, -24(%rbp)
	.loc 5 294 0
	movl	$0, _ZL13render_output(%rip)
.LBB53:
	.loc 5 295 0
	movq	$0, -8(%rbp)
.L133:
	.loc 5 295 0 is_stmt 0 discriminator 3
	movq	-8(%rbp), %rax
	cmpq	-24(%rbp), %rax
	jnb	.L132
	.loc 5 295 0 discriminator 2
	movq	-8(%rbp), %rdx
	leaq	-32(%rbp), %rax
	movq	%rdx, %rsi
	movq	%rax, %rdi
	call	_ZNK9__gnu_cxx17__normal_iteratorIP14plain_particleSt6vectorIS1_SaIS1_EEEixEl
	movq	%rax, %rdi
	call	_ZNK14plain_particle6renderEv
	addq	$1, -8(%rbp)
	jmp	.L133
.L132:
.LBE53:
	.loc 5 296 0 is_stmt 1
	movl	_ZL13render_output(%rip), %eax
	.loc 5 297 0
	leave
	.cfi_def_cfa 7, 8
	ret
	.cfi_endproc
.LFE7142:
	.size	_Z6renderIN9__gnu_cxx17__normal_iteratorIP14plain_particleSt6vectorIS2_SaIS2_EEEEmEiT_T0_, .-_Z6renderIN9__gnu_cxx17__normal_iteratorIP14plain_particleSt6vectorIS2_SaIS2_EEEEmEiT_T0_
	.text
	.type	_Z7measureIZ4mainEUlvE3_EdT_m, @function
_Z7measureIZ4mainEUlvE3_EdT_m:
.LFB7143:
	.loc 5 300 0
	.cfi_startproc
	pushq	%rbp
	.cfi_def_cfa_offset 16
	.cfi_offset 6, -16
	movq	%rsp, %rbp
	.cfi_def_cfa_register 6
	pushq	%rbx
	subq	$40, %rsp
	.cfi_offset 3, -24
	movq	%rdi, %rax
	movq	%rax, %rcx
	movq	%rdx, %rbx
	movq	%rsi, %rbx
	movq	%rcx, -32(%rbp)
	movq	%rbx, -24(%rbp)
	movq	%rdx, -40(%rbp)
	.loc 5 300 0
	movq	-32(%rbp), %rdx
	movq	-24(%rbp), %rax
	movq	%rdx, %rdi
	movq	%rax, %rsi
	call	_Z7measureIZ4mainEUlvE3_EdT_
	movapd	%xmm0, %xmm1
	movq	-40(%rbp), %rax
	testq	%rax, %rax
	js	.L136
	pxor	%xmm0, %xmm0
	cvtsi2sdq	%rax, %xmm0
	jmp	.L137
.L136:
	movq	%rax, %rdx
	shrq	%rdx
	andl	$1, %eax
	orq	%rax, %rdx
	pxor	%xmm0, %xmm0
	cvtsi2sdq	%rdx, %xmm0
	addsd	%xmm0, %xmm0
.L137:
	divsd	%xmm0, %xmm1
	movapd	%xmm1, %xmm0
	movsd	.LC3(%rip), %xmm1
	mulsd	%xmm1, %xmm0
	addq	$40, %rsp
	popq	%rbx
	popq	%rbp
	.cfi_def_cfa 7, 8
	ret
	.cfi_endproc
.LFE7143:
	.size	_Z7measureIZ4mainEUlvE3_EdT_m, .-_Z7measureIZ4mainEUlvE3_EdT_m
	.type	_Z7measureIZ4mainEUlvE4_EdT_m, @function
_Z7measureIZ4mainEUlvE4_EdT_m:
.LFB7144:
	.loc 5 300 0
	.cfi_startproc
	pushq	%rbp
	.cfi_def_cfa_offset 16
	.cfi_offset 6, -16
	movq	%rsp, %rbp
	.cfi_def_cfa_register 6
	subq	$16, %rsp
	movq	%rdi, -8(%rbp)
	.loc 5 300 0
	pushq	40(%rbp)
	pushq	32(%rbp)
	pushq	24(%rbp)
	pushq	16(%rbp)
	call	_Z7measureIZ4mainEUlvE4_EdT_
	addq	$32, %rsp
	movapd	%xmm0, %xmm1
	movq	-8(%rbp), %rax
	testq	%rax, %rax
	js	.L140
	pxor	%xmm0, %xmm0
	cvtsi2sdq	%rax, %xmm0
	jmp	.L141
.L140:
	movq	%rax, %rdx
	shrq	%rdx
	andl	$1, %eax
	orq	%rax, %rdx
	pxor	%xmm0, %xmm0
	cvtsi2sdq	%rdx, %xmm0
	addsd	%xmm0, %xmm0
.L141:
	divsd	%xmm0, %xmm1
	movapd	%xmm1, %xmm0
	movsd	.LC3(%rip), %xmm1
	mulsd	%xmm1, %xmm0
	leave
	.cfi_def_cfa 7, 8
	ret
	.cfi_endproc
.LFE7144:
	.size	_Z7measureIZ4mainEUlvE4_EdT_m, .-_Z7measureIZ4mainEUlvE4_EdT_m
	.section	.text._Z6renderIN3dod7pointerI8particleINS0_6accessIJNS0_6memberIcLi0EEENS4_IiLi0EEENS4_IiLi1EEENS4_IiLi2EEENS4_IiLi3EEEEEEEEEmEiT_T0_,"axG",@progbits,_Z6renderIN3dod7pointerI8particleINS0_6accessIJNS0_6memberIcLi0EEENS4_IiLi0EEENS4_IiLi1EEENS4_IiLi2EEENS4_IiLi3EEEEEEEEEmEiT_T0_,comdat
	.weak	_Z6renderIN3dod7pointerI8particleINS0_6accessIJNS0_6memberIcLi0EEENS4_IiLi0EEENS4_IiLi1EEENS4_IiLi2EEENS4_IiLi3EEEEEEEEEmEiT_T0_
	.type	_Z6renderIN3dod7pointerI8particleINS0_6accessIJNS0_6memberIcLi0EEENS4_IiLi0EEENS4_IiLi1EEENS4_IiLi2EEENS4_IiLi3EEEEEEEEEmEiT_T0_, @function
_Z6renderIN3dod7pointerI8particleINS0_6accessIJNS0_6memberIcLi0EEENS4_IiLi0EEENS4_IiLi1EEENS4_IiLi2EEENS4_IiLi3EEEEEEEEEmEiT_T0_:
.LFB7145:
	.loc 5 292 0
	.cfi_startproc
	pushq	%rbp
	.cfi_def_cfa_offset 16
	.cfi_offset 6, -16
	movq	%rsp, %rbp
	.cfi_def_cfa_register 6
	subq	$80, %rsp
	movq	%rdi, -72(%rbp)
	.loc 5 294 0
	movl	$0, _ZL13render_output(%rip)
.LBB54:
	.loc 5 295 0
	movq	$0, -8(%rbp)
.L145:
	.loc 5 295 0 is_stmt 0 discriminator 5
	movq	-8(%rbp), %rax
	cmpq	-72(%rbp), %rax
	jnb	.L144
	.loc 5 295 0 discriminator 2
	movq	-8(%rbp), %rdx
	leaq	-64(%rbp), %rax
	leaq	16(%rbp), %rsi
	movq	%rax, %rdi
	call	_ZNK3dod7pointerI8particleINS_6accessIJNS_6memberIcLi0EEENS3_IiLi0EEENS3_IiLi1EEENS3_IiLi2EEENS3_IiLi3EEEEEEEEixEl
	leaq	-64(%rbp), %rax
	movq	%rax, %rdi
	call	_ZNK8particleIN3dod6accessIJNS0_6memberIcLi0EEENS2_IiLi0EEENS2_IiLi1EEENS2_IiLi2EEENS2_IiLi3EEEEEEE6renderEv
	addq	$1, -8(%rbp)
	jmp	.L145
.L144:
.LBE54:
	.loc 5 296 0 is_stmt 1
	movl	_ZL13render_output(%rip), %eax
	.loc 5 297 0
	leave
	.cfi_def_cfa 7, 8
	ret
	.cfi_endproc
.LFE7145:
	.size	_Z6renderIN3dod7pointerI8particleINS0_6accessIJNS0_6memberIcLi0EEENS4_IiLi0EEENS4_IiLi1EEENS4_IiLi2EEENS4_IiLi3EEEEEEEEEmEiT_T0_, .-_Z6renderIN3dod7pointerI8particleINS0_6accessIJNS0_6memberIcLi0EEENS4_IiLi0EEENS4_IiLi1EEENS4_IiLi2EEENS4_IiLi3EEEEEEEEEmEiT_T0_
	.weak	_Z6renderIN3dod7pointerI8particleINS0_6accessIINS0_6memberIcLi0EEENS4_IiLi0EEENS4_IiLi1EEENS4_IiLi2EEENS4_IiLi3EEEEEEEEEmEiT_T0_
	.set	_Z6renderIN3dod7pointerI8particleINS0_6accessIINS0_6memberIcLi0EEENS4_IiLi0EEENS4_IiLi1EEENS4_IiLi2EEENS4_IiLi3EEEEEEEEEmEiT_T0_,_Z6renderIN3dod7pointerI8particleINS0_6accessIJNS0_6memberIcLi0EEENS4_IiLi0EEENS4_IiLi1EEENS4_IiLi2EEENS4_IiLi3EEEEEEEEEmEiT_T0_
	.text
	.type	_Z7measureIZ4mainEUlvE5_EdT_m, @function
_Z7measureIZ4mainEUlvE5_EdT_m:
.LFB7146:
	.loc 5 300 0
	.cfi_startproc
	pushq	%rbp
	.cfi_def_cfa_offset 16
	.cfi_offset 6, -16
	movq	%rsp, %rbp
	.cfi_def_cfa_register 6
	subq	$16, %rsp
	movq	%rdi, -8(%rbp)
	.loc 5 300 0
	subq	$8, %rsp
	pushq	64(%rbp)
	pushq	56(%rbp)
	pushq	48(%rbp)
	pushq	40(%rbp)
	pushq	32(%rbp)
	pushq	24(%rbp)
	pushq	16(%rbp)
	call	_Z7measureIZ4mainEUlvE5_EdT_
	addq	$64, %rsp
	movapd	%xmm0, %xmm1
	movq	-8(%rbp), %rax
	testq	%rax, %rax
	js	.L148
	pxor	%xmm0, %xmm0
	cvtsi2sdq	%rax, %xmm0
	jmp	.L149
.L148:
	movq	%rax, %rdx
	shrq	%rdx
	andl	$1, %eax
	orq	%rax, %rdx
	pxor	%xmm0, %xmm0
	cvtsi2sdq	%rdx, %xmm0
	addsd	%xmm0, %xmm0
.L149:
	divsd	%xmm0, %xmm1
	movapd	%xmm1, %xmm0
	movsd	.LC3(%rip), %xmm1
	mulsd	%xmm1, %xmm0
	leave
	.cfi_def_cfa 7, 8
	ret
	.cfi_endproc
.LFE7146:
	.size	_Z7measureIZ4mainEUlvE5_EdT_m, .-_Z7measureIZ4mainEUlvE5_EdT_m
	.section	.text._Z6renderIN3dod7pointerI8particleINS0_6accessIJNS0_6memberIcLi0EEENS4_IiLi0EEENS4_IiLi1EEEEEEEEEmEiT_T0_,"axG",@progbits,_Z6renderIN3dod7pointerI8particleINS0_6accessIJNS0_6memberIcLi0EEENS4_IiLi0EEENS4_IiLi1EEEEEEEEEmEiT_T0_,comdat
	.weak	_Z6renderIN3dod7pointerI8particleINS0_6accessIJNS0_6memberIcLi0EEENS4_IiLi0EEENS4_IiLi1EEEEEEEEEmEiT_T0_
	.type	_Z6renderIN3dod7pointerI8particleINS0_6accessIJNS0_6memberIcLi0EEENS4_IiLi0EEENS4_IiLi1EEEEEEEEEmEiT_T0_, @function
_Z6renderIN3dod7pointerI8particleINS0_6accessIJNS0_6memberIcLi0EEENS4_IiLi0EEENS4_IiLi1EEEEEEEEEmEiT_T0_:
.LFB7147:
	.loc 5 292 0
	.cfi_startproc
	pushq	%rbp
	.cfi_def_cfa_offset 16
	.cfi_offset 6, -16
	movq	%rsp, %rbp
	.cfi_def_cfa_register 6
	subq	$64, %rsp
	movq	%rdi, -56(%rbp)
	.loc 5 294 0
	movl	$0, _ZL13render_output(%rip)
.LBB55:
	.loc 5 295 0
	movq	$0, -8(%rbp)
.L153:
	.loc 5 295 0 is_stmt 0 discriminator 5
	movq	-8(%rbp), %rax
	cmpq	-56(%rbp), %rax
	jnb	.L152
	.loc 5 295 0 discriminator 2
	movq	-8(%rbp), %rdx
	leaq	-48(%rbp), %rax
	leaq	16(%rbp), %rsi
	movq	%rax, %rdi
	call	_ZNK3dod7pointerI8particleINS_6accessIJNS_6memberIcLi0EEENS3_IiLi0EEENS3_IiLi1EEEEEEEEixEl
	leaq	-48(%rbp), %rax
	movq	%rax, %rdi
	call	_ZNK8particleIN3dod6accessIJNS0_6memberIcLi0EEENS2_IiLi0EEENS2_IiLi1EEEEEEE6renderEv
	addq	$1, -8(%rbp)
	jmp	.L153
.L152:
.LBE55:
	.loc 5 296 0 is_stmt 1
	movl	_ZL13render_output(%rip), %eax
	.loc 5 297 0
	leave
	.cfi_def_cfa 7, 8
	ret
	.cfi_endproc
.LFE7147:
	.size	_Z6renderIN3dod7pointerI8particleINS0_6accessIJNS0_6memberIcLi0EEENS4_IiLi0EEENS4_IiLi1EEEEEEEEEmEiT_T0_, .-_Z6renderIN3dod7pointerI8particleINS0_6accessIJNS0_6memberIcLi0EEENS4_IiLi0EEENS4_IiLi1EEEEEEEEEmEiT_T0_
	.weak	_Z6renderIN3dod7pointerI8particleINS0_6accessIINS0_6memberIcLi0EEENS4_IiLi0EEENS4_IiLi1EEEEEEEEEmEiT_T0_
	.set	_Z6renderIN3dod7pointerI8particleINS0_6accessIINS0_6memberIcLi0EEENS4_IiLi0EEENS4_IiLi1EEEEEEEEEmEiT_T0_,_Z6renderIN3dod7pointerI8particleINS0_6accessIJNS0_6memberIcLi0EEENS4_IiLi0EEENS4_IiLi1EEEEEEEEEmEiT_T0_
	.text
	.type	_Z7measureIZ4mainEUlvE6_EdT_m, @function
_Z7measureIZ4mainEUlvE6_EdT_m:
.LFB7148:
	.loc 5 300 0
	.cfi_startproc
	pushq	%rbp
	.cfi_def_cfa_offset 16
	.cfi_offset 6, -16
	movq	%rsp, %rbp
	.cfi_def_cfa_register 6
	subq	$16, %rsp
	movq	%rdi, -8(%rbp)
	.loc 5 300 0
	subq	$8, %rsp
	pushq	48(%rbp)
	pushq	40(%rbp)
	pushq	32(%rbp)
	pushq	24(%rbp)
	pushq	16(%rbp)
	call	_Z7measureIZ4mainEUlvE6_EdT_
	addq	$48, %rsp
	movapd	%xmm0, %xmm1
	movq	-8(%rbp), %rax
	testq	%rax, %rax
	js	.L156
	pxor	%xmm0, %xmm0
	cvtsi2sdq	%rax, %xmm0
	jmp	.L157
.L156:
	movq	%rax, %rdx
	shrq	%rdx
	andl	$1, %eax
	orq	%rax, %rdx
	pxor	%xmm0, %xmm0
	cvtsi2sdq	%rdx, %xmm0
	addsd	%xmm0, %xmm0
.L157:
	divsd	%xmm0, %xmm1
	movapd	%xmm1, %xmm0
	movsd	.LC3(%rip), %xmm1
	mulsd	%xmm1, %xmm0
	leave
	.cfi_def_cfa 7, 8
	ret
	.cfi_endproc
.LFE7148:
	.size	_Z7measureIZ4mainEUlvE6_EdT_m, .-_Z7measureIZ4mainEUlvE6_EdT_m
	.section	.text._ZNSt6chrono8durationIlSt5ratioILl1ELl1000000000EEEpLERKS3_,"axG",@progbits,_ZNSt6chrono8durationIlSt5ratioILl1ELl1000000000EEEpLERKS3_,comdat
	.align 2
	.weak	_ZNSt6chrono8durationIlSt5ratioILl1ELl1000000000EEEpLERKS3_
	.type	_ZNSt6chrono8durationIlSt5ratioILl1ELl1000000000EEEpLERKS3_, @function
_ZNSt6chrono8durationIlSt5ratioILl1ELl1000000000EEEpLERKS3_:
.LFB7204:
	.loc 4 313 0
	.cfi_startproc
	pushq	%rbp
	.cfi_def_cfa_offset 16
	.cfi_offset 6, -16
	movq	%rsp, %rbp
	.cfi_def_cfa_register 6
	subq	$16, %rsp
	movq	%rdi, -8(%rbp)
	movq	%rsi, -16(%rbp)
	.loc 4 315 0
	movq	-16(%rbp), %rax
	movq	%rax, %rdi
	call	_ZNKSt6chrono8durationIlSt5ratioILl1ELl1000000000EEE5countEv
	movq	%rax, %rdx
	movq	-8(%rbp), %rax
	movq	(%rax), %rax
	addq	%rax, %rdx
	movq	-8(%rbp), %rax
	movq	%rdx, (%rax)
	.loc 4 316 0
	movq	-8(%rbp), %rax
	.loc 4 317 0
	leave
	.cfi_def_cfa 7, 8
	ret
	.cfi_endproc
.LFE7204:
	.size	_ZNSt6chrono8durationIlSt5ratioILl1ELl1000000000EEEpLERKS3_, .-_ZNSt6chrono8durationIlSt5ratioILl1ELl1000000000EEEpLERKS3_
	.section	.text._ZNSt12_Vector_baseIcSaIcEE12_Vector_implD2Ev,"axG",@progbits,_ZNSt12_Vector_baseIcSaIcEE12_Vector_implD5Ev,comdat
	.align 2
	.weak	_ZNSt12_Vector_baseIcSaIcEE12_Vector_implD2Ev
	.type	_ZNSt12_Vector_baseIcSaIcEE12_Vector_implD2Ev, @function
_ZNSt12_Vector_baseIcSaIcEE12_Vector_implD2Ev:
.LFB7215:
	.loc 6 79 0
	.cfi_startproc
	pushq	%rbp
	.cfi_def_cfa_offset 16
	.cfi_offset 6, -16
	movq	%rsp, %rbp
	.cfi_def_cfa_register 6
	subq	$16, %rsp
	movq	%rdi, -8(%rbp)
.LBB56:
	.loc 6 79 0
	movq	-8(%rbp), %rax
	movq	%rax, %rdi
	call	_ZNSaIcED2Ev
.LBE56:
	nop
	leave
	.cfi_def_cfa 7, 8
	ret
	.cfi_endproc
.LFE7215:
	.size	_ZNSt12_Vector_baseIcSaIcEE12_Vector_implD2Ev, .-_ZNSt12_Vector_baseIcSaIcEE12_Vector_implD2Ev
	.weak	_ZNSt12_Vector_baseIcSaIcEE12_Vector_implD1Ev
	.set	_ZNSt12_Vector_baseIcSaIcEE12_Vector_implD1Ev,_ZNSt12_Vector_baseIcSaIcEE12_Vector_implD2Ev
	.section	.text._ZNSt12_Vector_baseIcSaIcEEC2Ev,"axG",@progbits,_ZNSt12_Vector_baseIcSaIcEEC5Ev,comdat
	.align 2
	.weak	_ZNSt12_Vector_baseIcSaIcEEC2Ev
	.type	_ZNSt12_Vector_baseIcSaIcEEC2Ev, @function
_ZNSt12_Vector_baseIcSaIcEEC2Ev:
.LFB7217:
	.loc 6 124 0
	.cfi_startproc
	pushq	%rbp
	.cfi_def_cfa_offset 16
	.cfi_offset 6, -16
	movq	%rsp, %rbp
	.cfi_def_cfa_register 6
	subq	$16, %rsp
	movq	%rdi, -8(%rbp)
.LBB57:
	.loc 6 125 0
	movq	-8(%rbp), %rax
	movq	%rax, %rdi
	call	_ZNSt12_Vector_baseIcSaIcEE12_Vector_implC1Ev
.LBE57:
	nop
	leave
	.cfi_def_cfa 7, 8
	ret
	.cfi_endproc
.LFE7217:
	.size	_ZNSt12_Vector_baseIcSaIcEEC2Ev, .-_ZNSt12_Vector_baseIcSaIcEEC2Ev
	.weak	_ZNSt12_Vector_baseIcSaIcEEC1Ev
	.set	_ZNSt12_Vector_baseIcSaIcEEC1Ev,_ZNSt12_Vector_baseIcSaIcEEC2Ev
	.section	.text._ZNSt12_Vector_baseIcSaIcEED2Ev,"axG",@progbits,_ZNSt12_Vector_baseIcSaIcEED5Ev,comdat
	.align 2
	.weak	_ZNSt12_Vector_baseIcSaIcEED2Ev
	.type	_ZNSt12_Vector_baseIcSaIcEED2Ev, @function
_ZNSt12_Vector_baseIcSaIcEED2Ev:
.LFB7220:
	.loc 6 159 0
	.cfi_startproc
	.cfi_personality 0x3,__gxx_personality_v0
	.cfi_lsda 0x3,.LLSDA7220
	pushq	%rbp
	.cfi_def_cfa_offset 16
	.cfi_offset 6, -16
	movq	%rsp, %rbp
	.cfi_def_cfa_register 6
	subq	$16, %rsp
	movq	%rdi, -8(%rbp)
.LBB58:
	.loc 6 161 0
	movq	-8(%rbp), %rax
	movq	16(%rax), %rax
	.loc 6 160 0
	movq	%rax, %rdx
	.loc 6 161 0
	movq	-8(%rbp), %rax
	movq	(%rax), %rax
	.loc 6 160 0
	subq	%rax, %rdx
	movq	%rdx, %rax
	movq	%rax, %rdx
	movq	-8(%rbp), %rax
	movq	(%rax), %rcx
	movq	-8(%rbp), %rax
	movq	%rcx, %rsi
	movq	%rax, %rdi
	call	_ZNSt12_Vector_baseIcSaIcEE13_M_deallocateEPcm
	.loc 6 161 0
	movq	-8(%rbp), %rax
	movq	%rax, %rdi
	call	_ZNSt12_Vector_baseIcSaIcEE12_Vector_implD1Ev
.LBE58:
	nop
	leave
	.cfi_def_cfa 7, 8
	ret
	.cfi_endproc
.LFE7220:
	.section	.gcc_except_table
.LLSDA7220:
	.byte	0xff
	.byte	0xff
	.byte	0x1
	.uleb128 .LLSDACSE7220-.LLSDACSB7220
.LLSDACSB7220:
.LLSDACSE7220:
	.section	.text._ZNSt12_Vector_baseIcSaIcEED2Ev,"axG",@progbits,_ZNSt12_Vector_baseIcSaIcEED5Ev,comdat
	.size	_ZNSt12_Vector_baseIcSaIcEED2Ev, .-_ZNSt12_Vector_baseIcSaIcEED2Ev
	.weak	_ZNSt12_Vector_baseIcSaIcEED1Ev
	.set	_ZNSt12_Vector_baseIcSaIcEED1Ev,_ZNSt12_Vector_baseIcSaIcEED2Ev
	.section	.text._ZNSt12_Vector_baseIcSaIcEE19_M_get_Tp_allocatorEv,"axG",@progbits,_ZNSt12_Vector_baseIcSaIcEE19_M_get_Tp_allocatorEv,comdat
	.align 2
	.weak	_ZNSt12_Vector_baseIcSaIcEE19_M_get_Tp_allocatorEv
	.type	_ZNSt12_Vector_baseIcSaIcEE19_M_get_Tp_allocatorEv, @function
_ZNSt12_Vector_baseIcSaIcEE19_M_get_Tp_allocatorEv:
.LFB7222:
	.loc 6 113 0
	.cfi_startproc
	pushq	%rbp
	.cfi_def_cfa_offset 16
	.cfi_offset 6, -16
	movq	%rsp, %rbp
	.cfi_def_cfa_register 6
	movq	%rdi, -8(%rbp)
	.loc 6 114 0
	movq	-8(%rbp), %rax
	popq	%rbp
	.cfi_def_cfa 7, 8
	ret
	.cfi_endproc
.LFE7222:
	.size	_ZNSt12_Vector_baseIcSaIcEE19_M_get_Tp_allocatorEv, .-_ZNSt12_Vector_baseIcSaIcEE19_M_get_Tp_allocatorEv
	.section	.text._ZSt8_DestroyIPccEvT_S1_RSaIT0_E,"axG",@progbits,_ZSt8_DestroyIPccEvT_S1_RSaIT0_E,comdat
	.weak	_ZSt8_DestroyIPccEvT_S1_RSaIT0_E
	.type	_ZSt8_DestroyIPccEvT_S1_RSaIT0_E, @function
_ZSt8_DestroyIPccEvT_S1_RSaIT0_E:
.LFB7223:
	.file 9 "/usr/include/c++/5.2.0/bits/stl_construct.h"
	.loc 9 148 0
	.cfi_startproc
	pushq	%rbp
	.cfi_def_cfa_offset 16
	.cfi_offset 6, -16
	movq	%rsp, %rbp
	.cfi_def_cfa_register 6
	subq	$32, %rsp
	movq	%rdi, -8(%rbp)
	movq	%rsi, -16(%rbp)
	movq	%rdx, -24(%rbp)
	.loc 9 151 0
	movq	-16(%rbp), %rdx
	movq	-8(%rbp), %rax
	movq	%rdx, %rsi
	movq	%rax, %rdi
	call	_ZSt8_DestroyIPcEvT_S1_
	.loc 9 152 0
	nop
	leave
	.cfi_def_cfa 7, 8
	ret
	.cfi_endproc
.LFE7223:
	.size	_ZSt8_DestroyIPccEvT_S1_RSaIT0_E, .-_ZSt8_DestroyIPccEvT_S1_RSaIT0_E
	.section	.text._ZNSt12_Vector_baseIiSaIiEE12_Vector_implD2Ev,"axG",@progbits,_ZNSt12_Vector_baseIiSaIiEE12_Vector_implD5Ev,comdat
	.align 2
	.weak	_ZNSt12_Vector_baseIiSaIiEE12_Vector_implD2Ev
	.type	_ZNSt12_Vector_baseIiSaIiEE12_Vector_implD2Ev, @function
_ZNSt12_Vector_baseIiSaIiEE12_Vector_implD2Ev:
.LFB7226:
	.loc 6 79 0
	.cfi_startproc
	pushq	%rbp
	.cfi_def_cfa_offset 16
	.cfi_offset 6, -16
	movq	%rsp, %rbp
	.cfi_def_cfa_register 6
	subq	$16, %rsp
	movq	%rdi, -8(%rbp)
.LBB59:
	.loc 6 79 0
	movq	-8(%rbp), %rax
	movq	%rax, %rdi
	call	_ZNSaIiED2Ev
.LBE59:
	nop
	leave
	.cfi_def_cfa 7, 8
	ret
	.cfi_endproc
.LFE7226:
	.size	_ZNSt12_Vector_baseIiSaIiEE12_Vector_implD2Ev, .-_ZNSt12_Vector_baseIiSaIiEE12_Vector_implD2Ev
	.weak	_ZNSt12_Vector_baseIiSaIiEE12_Vector_implD1Ev
	.set	_ZNSt12_Vector_baseIiSaIiEE12_Vector_implD1Ev,_ZNSt12_Vector_baseIiSaIiEE12_Vector_implD2Ev
	.section	.text._ZNSt12_Vector_baseIiSaIiEEC2Ev,"axG",@progbits,_ZNSt12_Vector_baseIiSaIiEEC5Ev,comdat
	.align 2
	.weak	_ZNSt12_Vector_baseIiSaIiEEC2Ev
	.type	_ZNSt12_Vector_baseIiSaIiEEC2Ev, @function
_ZNSt12_Vector_baseIiSaIiEEC2Ev:
.LFB7228:
	.loc 6 124 0
	.cfi_startproc
	pushq	%rbp
	.cfi_def_cfa_offset 16
	.cfi_offset 6, -16
	movq	%rsp, %rbp
	.cfi_def_cfa_register 6
	subq	$16, %rsp
	movq	%rdi, -8(%rbp)
.LBB60:
	.loc 6 125 0
	movq	-8(%rbp), %rax
	movq	%rax, %rdi
	call	_ZNSt12_Vector_baseIiSaIiEE12_Vector_implC1Ev
.LBE60:
	nop
	leave
	.cfi_def_cfa 7, 8
	ret
	.cfi_endproc
.LFE7228:
	.size	_ZNSt12_Vector_baseIiSaIiEEC2Ev, .-_ZNSt12_Vector_baseIiSaIiEEC2Ev
	.weak	_ZNSt12_Vector_baseIiSaIiEEC1Ev
	.set	_ZNSt12_Vector_baseIiSaIiEEC1Ev,_ZNSt12_Vector_baseIiSaIiEEC2Ev
	.section	.text._ZNSt12_Vector_baseIiSaIiEED2Ev,"axG",@progbits,_ZNSt12_Vector_baseIiSaIiEED5Ev,comdat
	.align 2
	.weak	_ZNSt12_Vector_baseIiSaIiEED2Ev
	.type	_ZNSt12_Vector_baseIiSaIiEED2Ev, @function
_ZNSt12_Vector_baseIiSaIiEED2Ev:
.LFB7231:
	.loc 6 159 0
	.cfi_startproc
	.cfi_personality 0x3,__gxx_personality_v0
	.cfi_lsda 0x3,.LLSDA7231
	pushq	%rbp
	.cfi_def_cfa_offset 16
	.cfi_offset 6, -16
	movq	%rsp, %rbp
	.cfi_def_cfa_register 6
	subq	$16, %rsp
	movq	%rdi, -8(%rbp)
.LBB61:
	.loc 6 161 0
	movq	-8(%rbp), %rax
	movq	16(%rax), %rax
	.loc 6 160 0
	movq	%rax, %rdx
	.loc 6 161 0
	movq	-8(%rbp), %rax
	movq	(%rax), %rax
	.loc 6 160 0
	subq	%rax, %rdx
	movq	%rdx, %rax
	sarq	$2, %rax
	movq	%rax, %rdx
	movq	-8(%rbp), %rax
	movq	(%rax), %rcx
	movq	-8(%rbp), %rax
	movq	%rcx, %rsi
	movq	%rax, %rdi
	call	_ZNSt12_Vector_baseIiSaIiEE13_M_deallocateEPim
	.loc 6 161 0
	movq	-8(%rbp), %rax
	movq	%rax, %rdi
	call	_ZNSt12_Vector_baseIiSaIiEE12_Vector_implD1Ev
.LBE61:
	nop
	leave
	.cfi_def_cfa 7, 8
	ret
	.cfi_endproc
.LFE7231:
	.section	.gcc_except_table
.LLSDA7231:
	.byte	0xff
	.byte	0xff
	.byte	0x1
	.uleb128 .LLSDACSE7231-.LLSDACSB7231
.LLSDACSB7231:
.LLSDACSE7231:
	.section	.text._ZNSt12_Vector_baseIiSaIiEED2Ev,"axG",@progbits,_ZNSt12_Vector_baseIiSaIiEED5Ev,comdat
	.size	_ZNSt12_Vector_baseIiSaIiEED2Ev, .-_ZNSt12_Vector_baseIiSaIiEED2Ev
	.weak	_ZNSt12_Vector_baseIiSaIiEED1Ev
	.set	_ZNSt12_Vector_baseIiSaIiEED1Ev,_ZNSt12_Vector_baseIiSaIiEED2Ev
	.section	.text._ZNSt12_Vector_baseIiSaIiEE19_M_get_Tp_allocatorEv,"axG",@progbits,_ZNSt12_Vector_baseIiSaIiEE19_M_get_Tp_allocatorEv,comdat
	.align 2
	.weak	_ZNSt12_Vector_baseIiSaIiEE19_M_get_Tp_allocatorEv
	.type	_ZNSt12_Vector_baseIiSaIiEE19_M_get_Tp_allocatorEv, @function
_ZNSt12_Vector_baseIiSaIiEE19_M_get_Tp_allocatorEv:
.LFB7233:
	.loc 6 113 0
	.cfi_startproc
	pushq	%rbp
	.cfi_def_cfa_offset 16
	.cfi_offset 6, -16
	movq	%rsp, %rbp
	.cfi_def_cfa_register 6
	movq	%rdi, -8(%rbp)
	.loc 6 114 0
	movq	-8(%rbp), %rax
	popq	%rbp
	.cfi_def_cfa 7, 8
	ret
	.cfi_endproc
.LFE7233:
	.size	_ZNSt12_Vector_baseIiSaIiEE19_M_get_Tp_allocatorEv, .-_ZNSt12_Vector_baseIiSaIiEE19_M_get_Tp_allocatorEv
	.section	.text._ZSt8_DestroyIPiiEvT_S1_RSaIT0_E,"axG",@progbits,_ZSt8_DestroyIPiiEvT_S1_RSaIT0_E,comdat
	.weak	_ZSt8_DestroyIPiiEvT_S1_RSaIT0_E
	.type	_ZSt8_DestroyIPiiEvT_S1_RSaIT0_E, @function
_ZSt8_DestroyIPiiEvT_S1_RSaIT0_E:
.LFB7234:
	.loc 9 148 0
	.cfi_startproc
	pushq	%rbp
	.cfi_def_cfa_offset 16
	.cfi_offset 6, -16
	movq	%rsp, %rbp
	.cfi_def_cfa_register 6
	subq	$32, %rsp
	movq	%rdi, -8(%rbp)
	movq	%rsi, -16(%rbp)
	movq	%rdx, -24(%rbp)
	.loc 9 151 0
	movq	-16(%rbp), %rdx
	movq	-8(%rbp), %rax
	movq	%rdx, %rsi
	movq	%rax, %rdi
	call	_ZSt8_DestroyIPiEvT_S1_
	.loc 9 152 0
	nop
	leave
	.cfi_def_cfa 7, 8
	ret
	.cfi_endproc
.LFE7234:
	.size	_ZSt8_DestroyIPiiEvT_S1_RSaIT0_E, .-_ZSt8_DestroyIPiiEvT_S1_RSaIT0_E
	.section	.text._ZNSt12_Vector_baseI14plain_particleSaIS0_EE12_Vector_implD2Ev,"axG",@progbits,_ZNSt12_Vector_baseI14plain_particleSaIS0_EE12_Vector_implD5Ev,comdat
	.align 2
	.weak	_ZNSt12_Vector_baseI14plain_particleSaIS0_EE12_Vector_implD2Ev
	.type	_ZNSt12_Vector_baseI14plain_particleSaIS0_EE12_Vector_implD2Ev, @function
_ZNSt12_Vector_baseI14plain_particleSaIS0_EE12_Vector_implD2Ev:
.LFB7237:
	.loc 6 79 0
	.cfi_startproc
	pushq	%rbp
	.cfi_def_cfa_offset 16
	.cfi_offset 6, -16
	movq	%rsp, %rbp
	.cfi_def_cfa_register 6
	subq	$16, %rsp
	movq	%rdi, -8(%rbp)
.LBB62:
	.loc 6 79 0
	movq	-8(%rbp), %rax
	movq	%rax, %rdi
	call	_ZNSaI14plain_particleED2Ev
.LBE62:
	nop
	leave
	.cfi_def_cfa 7, 8
	ret
	.cfi_endproc
.LFE7237:
	.size	_ZNSt12_Vector_baseI14plain_particleSaIS0_EE12_Vector_implD2Ev, .-_ZNSt12_Vector_baseI14plain_particleSaIS0_EE12_Vector_implD2Ev
	.weak	_ZNSt12_Vector_baseI14plain_particleSaIS0_EE12_Vector_implD1Ev
	.set	_ZNSt12_Vector_baseI14plain_particleSaIS0_EE12_Vector_implD1Ev,_ZNSt12_Vector_baseI14plain_particleSaIS0_EE12_Vector_implD2Ev
	.section	.text._ZNSt12_Vector_baseI14plain_particleSaIS0_EEC2Ev,"axG",@progbits,_ZNSt12_Vector_baseI14plain_particleSaIS0_EEC5Ev,comdat
	.align 2
	.weak	_ZNSt12_Vector_baseI14plain_particleSaIS0_EEC2Ev
	.type	_ZNSt12_Vector_baseI14plain_particleSaIS0_EEC2Ev, @function
_ZNSt12_Vector_baseI14plain_particleSaIS0_EEC2Ev:
.LFB7239:
	.loc 6 124 0
	.cfi_startproc
	pushq	%rbp
	.cfi_def_cfa_offset 16
	.cfi_offset 6, -16
	movq	%rsp, %rbp
	.cfi_def_cfa_register 6
	subq	$16, %rsp
	movq	%rdi, -8(%rbp)
.LBB63:
	.loc 6 125 0
	movq	-8(%rbp), %rax
	movq	%rax, %rdi
	call	_ZNSt12_Vector_baseI14plain_particleSaIS0_EE12_Vector_implC1Ev
.LBE63:
	nop
	leave
	.cfi_def_cfa 7, 8
	ret
	.cfi_endproc
.LFE7239:
	.size	_ZNSt12_Vector_baseI14plain_particleSaIS0_EEC2Ev, .-_ZNSt12_Vector_baseI14plain_particleSaIS0_EEC2Ev
	.weak	_ZNSt12_Vector_baseI14plain_particleSaIS0_EEC1Ev
	.set	_ZNSt12_Vector_baseI14plain_particleSaIS0_EEC1Ev,_ZNSt12_Vector_baseI14plain_particleSaIS0_EEC2Ev
	.section	.text._ZNSt12_Vector_baseI14plain_particleSaIS0_EED2Ev,"axG",@progbits,_ZNSt12_Vector_baseI14plain_particleSaIS0_EED5Ev,comdat
	.align 2
	.weak	_ZNSt12_Vector_baseI14plain_particleSaIS0_EED2Ev
	.type	_ZNSt12_Vector_baseI14plain_particleSaIS0_EED2Ev, @function
_ZNSt12_Vector_baseI14plain_particleSaIS0_EED2Ev:
.LFB7242:
	.loc 6 159 0
	.cfi_startproc
	.cfi_personality 0x3,__gxx_personality_v0
	.cfi_lsda 0x3,.LLSDA7242
	pushq	%rbp
	.cfi_def_cfa_offset 16
	.cfi_offset 6, -16
	movq	%rsp, %rbp
	.cfi_def_cfa_register 6
	subq	$16, %rsp
	movq	%rdi, -8(%rbp)
.LBB64:
	.loc 6 161 0
	movq	-8(%rbp), %rax
	movq	16(%rax), %rax
	.loc 6 160 0
	movq	%rax, %rdx
	.loc 6 161 0
	movq	-8(%rbp), %rax
	movq	(%rax), %rax
	.loc 6 160 0
	subq	%rax, %rdx
	movq	%rdx, %rax
	sarq	$2, %rax
	movq	%rax, %rdx
	movabsq	$-3689348814741910323, %rax
	imulq	%rdx, %rax
	movq	%rax, %rdx
	movq	-8(%rbp), %rax
	movq	(%rax), %rcx
	movq	-8(%rbp), %rax
	movq	%rcx, %rsi
	movq	%rax, %rdi
	call	_ZNSt12_Vector_baseI14plain_particleSaIS0_EE13_M_deallocateEPS0_m
	.loc 6 161 0
	movq	-8(%rbp), %rax
	movq	%rax, %rdi
	call	_ZNSt12_Vector_baseI14plain_particleSaIS0_EE12_Vector_implD1Ev
.LBE64:
	nop
	leave
	.cfi_def_cfa 7, 8
	ret
	.cfi_endproc
.LFE7242:
	.section	.gcc_except_table
.LLSDA7242:
	.byte	0xff
	.byte	0xff
	.byte	0x1
	.uleb128 .LLSDACSE7242-.LLSDACSB7242
.LLSDACSB7242:
.LLSDACSE7242:
	.section	.text._ZNSt12_Vector_baseI14plain_particleSaIS0_EED2Ev,"axG",@progbits,_ZNSt12_Vector_baseI14plain_particleSaIS0_EED5Ev,comdat
	.size	_ZNSt12_Vector_baseI14plain_particleSaIS0_EED2Ev, .-_ZNSt12_Vector_baseI14plain_particleSaIS0_EED2Ev
	.weak	_ZNSt12_Vector_baseI14plain_particleSaIS0_EED1Ev
	.set	_ZNSt12_Vector_baseI14plain_particleSaIS0_EED1Ev,_ZNSt12_Vector_baseI14plain_particleSaIS0_EED2Ev
	.section	.text._ZNSt12_Vector_baseI14plain_particleSaIS0_EE19_M_get_Tp_allocatorEv,"axG",@progbits,_ZNSt12_Vector_baseI14plain_particleSaIS0_EE19_M_get_Tp_allocatorEv,comdat
	.align 2
	.weak	_ZNSt12_Vector_baseI14plain_particleSaIS0_EE19_M_get_Tp_allocatorEv
	.type	_ZNSt12_Vector_baseI14plain_particleSaIS0_EE19_M_get_Tp_allocatorEv, @function
_ZNSt12_Vector_baseI14plain_particleSaIS0_EE19_M_get_Tp_allocatorEv:
.LFB7244:
	.loc 6 113 0
	.cfi_startproc
	pushq	%rbp
	.cfi_def_cfa_offset 16
	.cfi_offset 6, -16
	movq	%rsp, %rbp
	.cfi_def_cfa_register 6
	movq	%rdi, -8(%rbp)
	.loc 6 114 0
	movq	-8(%rbp), %rax
	popq	%rbp
	.cfi_def_cfa 7, 8
	ret
	.cfi_endproc
.LFE7244:
	.size	_ZNSt12_Vector_baseI14plain_particleSaIS0_EE19_M_get_Tp_allocatorEv, .-_ZNSt12_Vector_baseI14plain_particleSaIS0_EE19_M_get_Tp_allocatorEv
	.section	.text._ZSt8_DestroyIP14plain_particleS0_EvT_S2_RSaIT0_E,"axG",@progbits,_ZSt8_DestroyIP14plain_particleS0_EvT_S2_RSaIT0_E,comdat
	.weak	_ZSt8_DestroyIP14plain_particleS0_EvT_S2_RSaIT0_E
	.type	_ZSt8_DestroyIP14plain_particleS0_EvT_S2_RSaIT0_E, @function
_ZSt8_DestroyIP14plain_particleS0_EvT_S2_RSaIT0_E:
.LFB7245:
	.loc 9 148 0
	.cfi_startproc
	pushq	%rbp
	.cfi_def_cfa_offset 16
	.cfi_offset 6, -16
	movq	%rsp, %rbp
	.cfi_def_cfa_register 6
	subq	$32, %rsp
	movq	%rdi, -8(%rbp)
	movq	%rsi, -16(%rbp)
	movq	%rdx, -24(%rbp)
	.loc 9 151 0
	movq	-16(%rbp), %rdx
	movq	-8(%rbp), %rax
	movq	%rdx, %rsi
	movq	%rax, %rdi
	call	_ZSt8_DestroyIP14plain_particleEvT_S2_
	.loc 9 152 0
	nop
	leave
	.cfi_def_cfa 7, 8
	ret
	.cfi_endproc
.LFE7245:
	.size	_ZSt8_DestroyIP14plain_particleS0_EvT_S2_RSaIT0_E, .-_ZSt8_DestroyIP14plain_particleS0_EvT_S2_RSaIT0_E
	.section	.text._ZSt7forwardI14plain_particleEOT_RNSt16remove_referenceIS1_E4typeE,"axG",@progbits,_ZSt7forwardI14plain_particleEOT_RNSt16remove_referenceIS1_E4typeE,comdat
	.weak	_ZSt7forwardI14plain_particleEOT_RNSt16remove_referenceIS1_E4typeE
	.type	_ZSt7forwardI14plain_particleEOT_RNSt16remove_referenceIS1_E4typeE, @function
_ZSt7forwardI14plain_particleEOT_RNSt16remove_referenceIS1_E4typeE:
.LFB7247:
	.loc 7 76 0
	.cfi_startproc
	pushq	%rbp
	.cfi_def_cfa_offset 16
	.cfi_offset 6, -16
	movq	%rsp, %rbp
	.cfi_def_cfa_register 6
	movq	%rdi, -8(%rbp)
	.loc 7 77 0
	movq	-8(%rbp), %rax
	popq	%rbp
	.cfi_def_cfa 7, 8
	ret
	.cfi_endproc
.LFE7247:
	.size	_ZSt7forwardI14plain_particleEOT_RNSt16remove_referenceIS1_E4typeE, .-_ZSt7forwardI14plain_particleEOT_RNSt16remove_referenceIS1_E4typeE
	.section	.text._ZNSt6vectorI14plain_particleSaIS0_EE12emplace_backIJS0_EEEvDpOT_,"axG",@progbits,_ZNSt6vectorI14plain_particleSaIS0_EE12emplace_backIJS0_EEEvDpOT_,comdat
	.align 2
	.weak	_ZNSt6vectorI14plain_particleSaIS0_EE12emplace_backIJS0_EEEvDpOT_
	.type	_ZNSt6vectorI14plain_particleSaIS0_EE12emplace_backIJS0_EEEvDpOT_, @function
_ZNSt6vectorI14plain_particleSaIS0_EE12emplace_backIJS0_EEEvDpOT_:
.LFB7246:
	.file 10 "/usr/include/c++/5.2.0/bits/vector.tcc"
	.loc 10 91 0
	.cfi_startproc
	pushq	%rbp
	.cfi_def_cfa_offset 16
	.cfi_offset 6, -16
	movq	%rsp, %rbp
	.cfi_def_cfa_register 6
	subq	$16, %rsp
	movq	%rdi, -8(%rbp)
	movq	%rsi, -16(%rbp)
	.loc 10 94 0
	movq	-8(%rbp), %rax
	movq	8(%rax), %rdx
	movq	-8(%rbp), %rax
	movq	16(%rax), %rax
	cmpq	%rax, %rdx
	je	.L182
	.loc 10 97 0
	movq	-16(%rbp), %rax
	movq	%rax, %rdi
	call	_ZSt7forwardI14plain_particleEOT_RNSt16remove_referenceIS1_E4typeE
	movq	%rax, %rdx
	.loc 10 96 0
	movq	-8(%rbp), %rax
	movq	8(%rax), %rcx
	movq	-8(%rbp), %rax
	movq	%rcx, %rsi
	movq	%rax, %rdi
	call	_ZNSt16allocator_traitsISaI14plain_particleEE9constructIS0_JS0_EEEDTcl12_S_constructfp_fp0_spcl7forwardIT0_Efp1_EEERS1_PT_DpOS4_
	.loc 10 98 0
	movq	-8(%rbp), %rax
	movq	8(%rax), %rax
	leaq	20(%rax), %rdx
	movq	-8(%rbp), %rax
	movq	%rdx, 8(%rax)
	.loc 10 102 0
	jmp	.L184
.L182:
	.loc 10 101 0
	movq	-16(%rbp), %rax
	movq	%rax, %rdi
	call	_ZSt7forwardI14plain_particleEOT_RNSt16remove_referenceIS1_E4typeE
	movq	%rax, %rdx
	movq	-8(%rbp), %rax
	movq	%rdx, %rsi
	movq	%rax, %rdi
	call	_ZNSt6vectorI14plain_particleSaIS0_EE19_M_emplace_back_auxIJS0_EEEvDpOT_
.L184:
	.loc 10 102 0
	nop
	leave
	.cfi_def_cfa 7, 8
	ret
	.cfi_endproc
.LFE7246:
	.size	_ZNSt6vectorI14plain_particleSaIS0_EE12emplace_backIJS0_EEEvDpOT_, .-_ZNSt6vectorI14plain_particleSaIS0_EE12emplace_backIJS0_EEEvDpOT_
	.weak	_ZNSt6vectorI14plain_particleSaIS0_EE12emplace_backIIS0_EEEvDpOT_
	.set	_ZNSt6vectorI14plain_particleSaIS0_EE12emplace_backIIS0_EEEvDpOT_,_ZNSt6vectorI14plain_particleSaIS0_EE12emplace_backIJS0_EEEvDpOT_
	.section	.text._ZSt7forwardIRKcEOT_RNSt16remove_referenceIS2_E4typeE,"axG",@progbits,_ZSt7forwardIRKcEOT_RNSt16remove_referenceIS2_E4typeE,comdat
	.weak	_ZSt7forwardIRKcEOT_RNSt16remove_referenceIS2_E4typeE
	.type	_ZSt7forwardIRKcEOT_RNSt16remove_referenceIS2_E4typeE, @function
_ZSt7forwardIRKcEOT_RNSt16remove_referenceIS2_E4typeE:
.LFB7249:
	.loc 7 76 0
	.cfi_startproc
	pushq	%rbp
	.cfi_def_cfa_offset 16
	.cfi_offset 6, -16
	movq	%rsp, %rbp
	.cfi_def_cfa_register 6
	movq	%rdi, -8(%rbp)
	.loc 7 77 0
	movq	-8(%rbp), %rax
	popq	%rbp
	.cfi_def_cfa 7, 8
	ret
	.cfi_endproc
.LFE7249:
	.size	_ZSt7forwardIRKcEOT_RNSt16remove_referenceIS2_E4typeE, .-_ZSt7forwardIRKcEOT_RNSt16remove_referenceIS2_E4typeE
	.section	.text._ZNSt16allocator_traitsISaIcEE9constructIcJRKcEEEDTcl12_S_constructfp_fp0_spcl7forwardIT0_Efp1_EEERS0_PT_DpOS5_,"axG",@progbits,_ZNSt16allocator_traitsISaIcEE9constructIcJRKcEEEDTcl12_S_constructfp_fp0_spcl7forwardIT0_Efp1_EEERS0_PT_DpOS5_,comdat
	.weak	_ZNSt16allocator_traitsISaIcEE9constructIcJRKcEEEDTcl12_S_constructfp_fp0_spcl7forwardIT0_Efp1_EEERS0_PT_DpOS5_
	.type	_ZNSt16allocator_traitsISaIcEE9constructIcJRKcEEEDTcl12_S_constructfp_fp0_spcl7forwardIT0_Efp1_EEERS0_PT_DpOS5_, @function
_ZNSt16allocator_traitsISaIcEE9constructIcJRKcEEEDTcl12_S_constructfp_fp0_spcl7forwardIT0_Efp1_EEERS0_PT_DpOS5_:
.LFB7248:
	.file 11 "/usr/include/c++/5.2.0/bits/alloc_traits.h"
	.loc 11 400 0
	.cfi_startproc
	pushq	%rbp
	.cfi_def_cfa_offset 16
	.cfi_offset 6, -16
	movq	%rsp, %rbp
	.cfi_def_cfa_register 6
	subq	$32, %rsp
	movq	%rdi, -8(%rbp)
	movq	%rsi, -16(%rbp)
	movq	%rdx, -24(%rbp)
	.loc 11 402 0
	movq	-24(%rbp), %rax
	movq	%rax, %rdi
	call	_ZSt7forwardIRKcEOT_RNSt16remove_referenceIS2_E4typeE
	movq	%rax, %rdx
	movq	-16(%rbp), %rcx
	movq	-8(%rbp), %rax
	movq	%rcx, %rsi
	movq	%rax, %rdi
	call	_ZNSt16allocator_traitsISaIcEE12_S_constructIcJRKcEEENSt9enable_ifIXsrSt6__and_IJNS1_18__construct_helperIT_JDpT0_EE4typeEEE5valueEvE4typeERS0_PS8_DpOS9_
	nop
	leave
	.cfi_def_cfa 7, 8
	ret
	.cfi_endproc
.LFE7248:
	.size	_ZNSt16allocator_traitsISaIcEE9constructIcJRKcEEEDTcl12_S_constructfp_fp0_spcl7forwardIT0_Efp1_EEERS0_PT_DpOS5_, .-_ZNSt16allocator_traitsISaIcEE9constructIcJRKcEEEDTcl12_S_constructfp_fp0_spcl7forwardIT0_Efp1_EEERS0_PT_DpOS5_
	.weak	_ZNSt16allocator_traitsISaIcEE9constructIcIRKcEEEDTcl12_S_constructfp_fp0_spcl7forwardIT0_Efp1_EEERS0_PT_DpOS5_
	.set	_ZNSt16allocator_traitsISaIcEE9constructIcIRKcEEEDTcl12_S_constructfp_fp0_spcl7forwardIT0_Efp1_EEERS0_PT_DpOS5_,_ZNSt16allocator_traitsISaIcEE9constructIcJRKcEEEDTcl12_S_constructfp_fp0_spcl7forwardIT0_Efp1_EEERS0_PT_DpOS5_
	.section	.rodata
.LC4:
	.string	"vector::_M_emplace_back_aux"
	.section	.text._ZNSt6vectorIcSaIcEE19_M_emplace_back_auxIJRKcEEEvDpOT_,"axG",@progbits,_ZNSt6vectorIcSaIcEE19_M_emplace_back_auxIJRKcEEEvDpOT_,comdat
	.align 2
	.weak	_ZNSt6vectorIcSaIcEE19_M_emplace_back_auxIJRKcEEEvDpOT_
	.type	_ZNSt6vectorIcSaIcEE19_M_emplace_back_auxIJRKcEEEvDpOT_, @function
_ZNSt6vectorIcSaIcEE19_M_emplace_back_auxIJRKcEEEvDpOT_:
.LFB7250:
	.loc 10 407 0
	.cfi_startproc
	.cfi_personality 0x3,__gxx_personality_v0
	.cfi_lsda 0x3,.LLSDA7250
	pushq	%rbp
	.cfi_def_cfa_offset 16
	.cfi_offset 6, -16
	movq	%rsp, %rbp
	.cfi_def_cfa_register 6
	pushq	%rbx
	subq	$56, %rsp
	.cfi_offset 3, -24
	movq	%rdi, -56(%rbp)
	movq	%rsi, -64(%rbp)
	.loc 10 411 0
	movq	-56(%rbp), %rax
	movl	$.LC4, %edx
	movl	$1, %esi
	movq	%rax, %rdi
.LEHB7:
	call	_ZNKSt6vectorIcSaIcEE12_M_check_lenEmPKc
	movq	%rax, -32(%rbp)
	.loc 10 412 0
	movq	-56(%rbp), %rax
	movq	-32(%rbp), %rdx
	movq	%rdx, %rsi
	movq	%rax, %rdi
	call	_ZNSt12_Vector_baseIcSaIcEE11_M_allocateEm
.LEHE7:
	movq	%rax, -40(%rbp)
	.loc 10 413 0
	movq	-40(%rbp), %rax
	movq	%rax, -24(%rbp)
	.loc 10 417 0
	movq	-64(%rbp), %rax
	movq	%rax, %rdi
	call	_ZSt7forwardIRKcEOT_RNSt16remove_referenceIS2_E4typeE
	movq	%rax, %rbx
	.loc 10 416 0
	movq	-56(%rbp), %rax
	movq	%rax, %rdi
	call	_ZNKSt6vectorIcSaIcEE4sizeEv
	movq	%rax, %rdx
	movq	-40(%rbp), %rax
	leaq	(%rdx,%rax), %rcx
	movq	-56(%rbp), %rax
	movq	%rbx, %rdx
	movq	%rcx, %rsi
	movq	%rax, %rdi
.LEHB8:
	call	_ZNSt16allocator_traitsISaIcEE9constructIcJRKcEEEDTcl12_S_constructfp_fp0_spcl7forwardIT0_Efp1_EEERS0_PT_DpOS5_
	.loc 10 418 0
	movq	$0, -24(%rbp)
	.loc 10 423 0
	movq	-56(%rbp), %rax
	movq	%rax, %rdi
	call	_ZNSt12_Vector_baseIcSaIcEE19_M_get_Tp_allocatorEv
	movq	%rax, %rcx
	.loc 10 422 0
	movq	-56(%rbp), %rax
	movq	8(%rax), %rsi
	movq	-56(%rbp), %rax
	movq	(%rax), %rax
	.loc 10 420 0
	movq	-40(%rbp), %rdx
	movq	%rax, %rdi
	call	_ZSt34__uninitialized_move_if_noexcept_aIPcS0_SaIcEET0_T_S3_S2_RT1_
.LEHE8:
	movq	%rax, -24(%rbp)
	.loc 10 425 0
	addq	$1, -24(%rbp)
	.loc 10 437 0
	movq	-56(%rbp), %rax
	movq	%rax, %rdi
	call	_ZNSt12_Vector_baseIcSaIcEE19_M_get_Tp_allocatorEv
	movq	%rax, %rdx
	.loc 10 436 0
	movq	-56(%rbp), %rax
	movq	8(%rax), %rcx
	movq	-56(%rbp), %rax
	movq	(%rax), %rax
	movq	%rcx, %rsi
	movq	%rax, %rdi
.LEHB9:
	call	_ZSt8_DestroyIPccEvT_S1_RSaIT0_E
	.loc 10 440 0
	movq	-56(%rbp), %rax
	movq	16(%rax), %rax
	.loc 10 438 0
	movq	%rax, %rdx
	.loc 10 440 0
	movq	-56(%rbp), %rax
	movq	(%rax), %rax
	.loc 10 438 0
	subq	%rax, %rdx
	movq	%rdx, %rax
	movq	%rax, %rdx
	movq	-56(%rbp), %rax
	movq	(%rax), %rcx
	movq	-56(%rbp), %rax
	movq	%rcx, %rsi
	movq	%rax, %rdi
	call	_ZNSt12_Vector_baseIcSaIcEE13_M_deallocateEPcm
.LEHE9:
	.loc 10 441 0
	movq	-56(%rbp), %rax
	movq	-40(%rbp), %rdx
	movq	%rdx, (%rax)
	.loc 10 442 0
	movq	-56(%rbp), %rax
	movq	-24(%rbp), %rdx
	movq	%rdx, 8(%rax)
	.loc 10 443 0
	movq	-40(%rbp), %rdx
	movq	-32(%rbp), %rax
	addq	%rax, %rdx
	movq	-56(%rbp), %rax
	movq	%rdx, 16(%rax)
	.loc 10 444 0
	jmp	.L195
.L193:
	.loc 10 427 0
	movq	%rax, %rdi
	call	__cxa_begin_catch
	.loc 10 429 0
	cmpq	$0, -24(%rbp)
	jne	.L190
	.loc 10 430 0
	movq	-56(%rbp), %rax
	movq	%rax, %rdi
	call	_ZNKSt6vectorIcSaIcEE4sizeEv
	movq	%rax, %rdx
	movq	-40(%rbp), %rax
	addq	%rax, %rdx
	movq	-56(%rbp), %rax
	movq	%rdx, %rsi
	movq	%rax, %rdi
.LEHB10:
	call	_ZNSt16allocator_traitsISaIcEE7destroyIcEEvRS0_PT_
	jmp	.L191
.L190:
	.loc 10 432 0
	movq	-56(%rbp), %rax
	movq	%rax, %rdi
	call	_ZNSt12_Vector_baseIcSaIcEE19_M_get_Tp_allocatorEv
	movq	%rax, %rdx
	movq	-24(%rbp), %rcx
	movq	-40(%rbp), %rax
	movq	%rcx, %rsi
	movq	%rax, %rdi
	call	_ZSt8_DestroyIPccEvT_S1_RSaIT0_E
.L191:
	.loc 10 433 0
	movq	-56(%rbp), %rax
	movq	-32(%rbp), %rdx
	movq	-40(%rbp), %rcx
	movq	%rcx, %rsi
	movq	%rax, %rdi
	call	_ZNSt12_Vector_baseIcSaIcEE13_M_deallocateEPcm
	.loc 10 434 0
	call	__cxa_rethrow
.LEHE10:
.L194:
	movq	%rax, %rbx
	.loc 10 427 0
	call	__cxa_end_catch
	movq	%rbx, %rax
	movq	%rax, %rdi
.LEHB11:
	call	_Unwind_Resume
.LEHE11:
.L195:
	.loc 10 444 0
	addq	$56, %rsp
	popq	%rbx
	popq	%rbp
	.cfi_def_cfa 7, 8
	ret
	.cfi_endproc
.LFE7250:
	.section	.gcc_except_table
	.align 4
.LLSDA7250:
	.byte	0xff
	.byte	0x3
	.uleb128 .LLSDATT7250-.LLSDATTD7250
.LLSDATTD7250:
	.byte	0x1
	.uleb128 .LLSDACSE7250-.LLSDACSB7250
.LLSDACSB7250:
	.uleb128 .LEHB7-.LFB7250
	.uleb128 .LEHE7-.LEHB7
	.uleb128 0
	.uleb128 0
	.uleb128 .LEHB8-.LFB7250
	.uleb128 .LEHE8-.LEHB8
	.uleb128 .L193-.LFB7250
	.uleb128 0x1
	.uleb128 .LEHB9-.LFB7250
	.uleb128 .LEHE9-.LEHB9
	.uleb128 0
	.uleb128 0
	.uleb128 .LEHB10-.LFB7250
	.uleb128 .LEHE10-.LEHB10
	.uleb128 .L194-.LFB7250
	.uleb128 0
	.uleb128 .LEHB11-.LFB7250
	.uleb128 .LEHE11-.LEHB11
	.uleb128 0
	.uleb128 0
.LLSDACSE7250:
	.byte	0x1
	.byte	0
	.align 4
	.long	0

.LLSDATT7250:
	.section	.text._ZNSt6vectorIcSaIcEE19_M_emplace_back_auxIJRKcEEEvDpOT_,"axG",@progbits,_ZNSt6vectorIcSaIcEE19_M_emplace_back_auxIJRKcEEEvDpOT_,comdat
	.size	_ZNSt6vectorIcSaIcEE19_M_emplace_back_auxIJRKcEEEvDpOT_, .-_ZNSt6vectorIcSaIcEE19_M_emplace_back_auxIJRKcEEEvDpOT_
	.weak	_ZNSt6vectorIcSaIcEE19_M_emplace_back_auxIIRKcEEEvDpOT_
	.set	_ZNSt6vectorIcSaIcEE19_M_emplace_back_auxIIRKcEEEvDpOT_,_ZNSt6vectorIcSaIcEE19_M_emplace_back_auxIJRKcEEEvDpOT_
	.section	.text._ZSt7forwardIRKiEOT_RNSt16remove_referenceIS2_E4typeE,"axG",@progbits,_ZSt7forwardIRKiEOT_RNSt16remove_referenceIS2_E4typeE,comdat
	.weak	_ZSt7forwardIRKiEOT_RNSt16remove_referenceIS2_E4typeE
	.type	_ZSt7forwardIRKiEOT_RNSt16remove_referenceIS2_E4typeE, @function
_ZSt7forwardIRKiEOT_RNSt16remove_referenceIS2_E4typeE:
.LFB7252:
	.loc 7 76 0
	.cfi_startproc
	pushq	%rbp
	.cfi_def_cfa_offset 16
	.cfi_offset 6, -16
	movq	%rsp, %rbp
	.cfi_def_cfa_register 6
	movq	%rdi, -8(%rbp)
	.loc 7 77 0
	movq	-8(%rbp), %rax
	popq	%rbp
	.cfi_def_cfa 7, 8
	ret
	.cfi_endproc
.LFE7252:
	.size	_ZSt7forwardIRKiEOT_RNSt16remove_referenceIS2_E4typeE, .-_ZSt7forwardIRKiEOT_RNSt16remove_referenceIS2_E4typeE
	.section	.text._ZNSt16allocator_traitsISaIiEE9constructIiJRKiEEEDTcl12_S_constructfp_fp0_spcl7forwardIT0_Efp1_EEERS0_PT_DpOS5_,"axG",@progbits,_ZNSt16allocator_traitsISaIiEE9constructIiJRKiEEEDTcl12_S_constructfp_fp0_spcl7forwardIT0_Efp1_EEERS0_PT_DpOS5_,comdat
	.weak	_ZNSt16allocator_traitsISaIiEE9constructIiJRKiEEEDTcl12_S_constructfp_fp0_spcl7forwardIT0_Efp1_EEERS0_PT_DpOS5_
	.type	_ZNSt16allocator_traitsISaIiEE9constructIiJRKiEEEDTcl12_S_constructfp_fp0_spcl7forwardIT0_Efp1_EEERS0_PT_DpOS5_, @function
_ZNSt16allocator_traitsISaIiEE9constructIiJRKiEEEDTcl12_S_constructfp_fp0_spcl7forwardIT0_Efp1_EEERS0_PT_DpOS5_:
.LFB7251:
	.loc 11 400 0
	.cfi_startproc
	pushq	%rbp
	.cfi_def_cfa_offset 16
	.cfi_offset 6, -16
	movq	%rsp, %rbp
	.cfi_def_cfa_register 6
	subq	$32, %rsp
	movq	%rdi, -8(%rbp)
	movq	%rsi, -16(%rbp)
	movq	%rdx, -24(%rbp)
	.loc 11 402 0
	movq	-24(%rbp), %rax
	movq	%rax, %rdi
	call	_ZSt7forwardIRKiEOT_RNSt16remove_referenceIS2_E4typeE
	movq	%rax, %rdx
	movq	-16(%rbp), %rcx
	movq	-8(%rbp), %rax
	movq	%rcx, %rsi
	movq	%rax, %rdi
	call	_ZNSt16allocator_traitsISaIiEE12_S_constructIiJRKiEEENSt9enable_ifIXsrSt6__and_IJNS1_18__construct_helperIT_JDpT0_EE4typeEEE5valueEvE4typeERS0_PS8_DpOS9_
	nop
	leave
	.cfi_def_cfa 7, 8
	ret
	.cfi_endproc
.LFE7251:
	.size	_ZNSt16allocator_traitsISaIiEE9constructIiJRKiEEEDTcl12_S_constructfp_fp0_spcl7forwardIT0_Efp1_EEERS0_PT_DpOS5_, .-_ZNSt16allocator_traitsISaIiEE9constructIiJRKiEEEDTcl12_S_constructfp_fp0_spcl7forwardIT0_Efp1_EEERS0_PT_DpOS5_
	.weak	_ZNSt16allocator_traitsISaIiEE9constructIiIRKiEEEDTcl12_S_constructfp_fp0_spcl7forwardIT0_Efp1_EEERS0_PT_DpOS5_
	.set	_ZNSt16allocator_traitsISaIiEE9constructIiIRKiEEEDTcl12_S_constructfp_fp0_spcl7forwardIT0_Efp1_EEERS0_PT_DpOS5_,_ZNSt16allocator_traitsISaIiEE9constructIiJRKiEEEDTcl12_S_constructfp_fp0_spcl7forwardIT0_Efp1_EEERS0_PT_DpOS5_
	.section	.text._ZNSt6vectorIiSaIiEE19_M_emplace_back_auxIJRKiEEEvDpOT_,"axG",@progbits,_ZNSt6vectorIiSaIiEE19_M_emplace_back_auxIJRKiEEEvDpOT_,comdat
	.align 2
	.weak	_ZNSt6vectorIiSaIiEE19_M_emplace_back_auxIJRKiEEEvDpOT_
	.type	_ZNSt6vectorIiSaIiEE19_M_emplace_back_auxIJRKiEEEvDpOT_, @function
_ZNSt6vectorIiSaIiEE19_M_emplace_back_auxIJRKiEEEvDpOT_:
.LFB7253:
	.loc 10 407 0
	.cfi_startproc
	.cfi_personality 0x3,__gxx_personality_v0
	.cfi_lsda 0x3,.LLSDA7253
	pushq	%rbp
	.cfi_def_cfa_offset 16
	.cfi_offset 6, -16
	movq	%rsp, %rbp
	.cfi_def_cfa_register 6
	pushq	%rbx
	subq	$56, %rsp
	.cfi_offset 3, -24
	movq	%rdi, -56(%rbp)
	movq	%rsi, -64(%rbp)
	.loc 10 411 0
	movq	-56(%rbp), %rax
	movl	$.LC4, %edx
	movl	$1, %esi
	movq	%rax, %rdi
.LEHB12:
	call	_ZNKSt6vectorIiSaIiEE12_M_check_lenEmPKc
	movq	%rax, -32(%rbp)
	.loc 10 412 0
	movq	-56(%rbp), %rax
	movq	-32(%rbp), %rdx
	movq	%rdx, %rsi
	movq	%rax, %rdi
	call	_ZNSt12_Vector_baseIiSaIiEE11_M_allocateEm
.LEHE12:
	movq	%rax, -40(%rbp)
	.loc 10 413 0
	movq	-40(%rbp), %rax
	movq	%rax, -24(%rbp)
	.loc 10 417 0
	movq	-64(%rbp), %rax
	movq	%rax, %rdi
	call	_ZSt7forwardIRKiEOT_RNSt16remove_referenceIS2_E4typeE
	movq	%rax, %rbx
	.loc 10 416 0
	movq	-56(%rbp), %rax
	movq	%rax, %rdi
	call	_ZNKSt6vectorIiSaIiEE4sizeEv
	leaq	0(,%rax,4), %rdx
	movq	-40(%rbp), %rax
	leaq	(%rdx,%rax), %rcx
	movq	-56(%rbp), %rax
	movq	%rbx, %rdx
	movq	%rcx, %rsi
	movq	%rax, %rdi
.LEHB13:
	call	_ZNSt16allocator_traitsISaIiEE9constructIiJRKiEEEDTcl12_S_constructfp_fp0_spcl7forwardIT0_Efp1_EEERS0_PT_DpOS5_
	.loc 10 418 0
	movq	$0, -24(%rbp)
	.loc 10 423 0
	movq	-56(%rbp), %rax
	movq	%rax, %rdi
	call	_ZNSt12_Vector_baseIiSaIiEE19_M_get_Tp_allocatorEv
	movq	%rax, %rcx
	.loc 10 422 0
	movq	-56(%rbp), %rax
	movq	8(%rax), %rsi
	movq	-56(%rbp), %rax
	movq	(%rax), %rax
	.loc 10 420 0
	movq	-40(%rbp), %rdx
	movq	%rax, %rdi
	call	_ZSt34__uninitialized_move_if_noexcept_aIPiS0_SaIiEET0_T_S3_S2_RT1_
.LEHE13:
	movq	%rax, -24(%rbp)
	.loc 10 425 0
	addq	$4, -24(%rbp)
	.loc 10 437 0
	movq	-56(%rbp), %rax
	movq	%rax, %rdi
	call	_ZNSt12_Vector_baseIiSaIiEE19_M_get_Tp_allocatorEv
	movq	%rax, %rdx
	.loc 10 436 0
	movq	-56(%rbp), %rax
	movq	8(%rax), %rcx
	movq	-56(%rbp), %rax
	movq	(%rax), %rax
	movq	%rcx, %rsi
	movq	%rax, %rdi
.LEHB14:
	call	_ZSt8_DestroyIPiiEvT_S1_RSaIT0_E
	.loc 10 440 0
	movq	-56(%rbp), %rax
	movq	16(%rax), %rax
	.loc 10 438 0
	movq	%rax, %rdx
	.loc 10 440 0
	movq	-56(%rbp), %rax
	movq	(%rax), %rax
	.loc 10 438 0
	subq	%rax, %rdx
	movq	%rdx, %rax
	sarq	$2, %rax
	movq	%rax, %rdx
	movq	-56(%rbp), %rax
	movq	(%rax), %rcx
	movq	-56(%rbp), %rax
	movq	%rcx, %rsi
	movq	%rax, %rdi
	call	_ZNSt12_Vector_baseIiSaIiEE13_M_deallocateEPim
.LEHE14:
	.loc 10 441 0
	movq	-56(%rbp), %rax
	movq	-40(%rbp), %rdx
	movq	%rdx, (%rax)
	.loc 10 442 0
	movq	-56(%rbp), %rax
	movq	-24(%rbp), %rdx
	movq	%rdx, 8(%rax)
	.loc 10 443 0
	movq	-32(%rbp), %rax
	leaq	0(,%rax,4), %rdx
	movq	-40(%rbp), %rax
	addq	%rax, %rdx
	movq	-56(%rbp), %rax
	movq	%rdx, 16(%rax)
	.loc 10 444 0
	jmp	.L206
.L204:
	.loc 10 427 0
	movq	%rax, %rdi
	call	__cxa_begin_catch
	.loc 10 429 0
	cmpq	$0, -24(%rbp)
	jne	.L201
	.loc 10 430 0
	movq	-56(%rbp), %rax
	movq	%rax, %rdi
	call	_ZNKSt6vectorIiSaIiEE4sizeEv
	leaq	0(,%rax,4), %rdx
	movq	-40(%rbp), %rax
	addq	%rax, %rdx
	movq	-56(%rbp), %rax
	movq	%rdx, %rsi
	movq	%rax, %rdi
.LEHB15:
	call	_ZNSt16allocator_traitsISaIiEE7destroyIiEEvRS0_PT_
	jmp	.L202
.L201:
	.loc 10 432 0
	movq	-56(%rbp), %rax
	movq	%rax, %rdi
	call	_ZNSt12_Vector_baseIiSaIiEE19_M_get_Tp_allocatorEv
	movq	%rax, %rdx
	movq	-24(%rbp), %rcx
	movq	-40(%rbp), %rax
	movq	%rcx, %rsi
	movq	%rax, %rdi
	call	_ZSt8_DestroyIPiiEvT_S1_RSaIT0_E
.L202:
	.loc 10 433 0
	movq	-56(%rbp), %rax
	movq	-32(%rbp), %rdx
	movq	-40(%rbp), %rcx
	movq	%rcx, %rsi
	movq	%rax, %rdi
	call	_ZNSt12_Vector_baseIiSaIiEE13_M_deallocateEPim
	.loc 10 434 0
	call	__cxa_rethrow
.LEHE15:
.L205:
	movq	%rax, %rbx
	.loc 10 427 0
	call	__cxa_end_catch
	movq	%rbx, %rax
	movq	%rax, %rdi
.LEHB16:
	call	_Unwind_Resume
.LEHE16:
.L206:
	.loc 10 444 0
	addq	$56, %rsp
	popq	%rbx
	popq	%rbp
	.cfi_def_cfa 7, 8
	ret
	.cfi_endproc
.LFE7253:
	.section	.gcc_except_table
	.align 4
.LLSDA7253:
	.byte	0xff
	.byte	0x3
	.uleb128 .LLSDATT7253-.LLSDATTD7253
.LLSDATTD7253:
	.byte	0x1
	.uleb128 .LLSDACSE7253-.LLSDACSB7253
.LLSDACSB7253:
	.uleb128 .LEHB12-.LFB7253
	.uleb128 .LEHE12-.LEHB12
	.uleb128 0
	.uleb128 0
	.uleb128 .LEHB13-.LFB7253
	.uleb128 .LEHE13-.LEHB13
	.uleb128 .L204-.LFB7253
	.uleb128 0x1
	.uleb128 .LEHB14-.LFB7253
	.uleb128 .LEHE14-.LEHB14
	.uleb128 0
	.uleb128 0
	.uleb128 .LEHB15-.LFB7253
	.uleb128 .LEHE15-.LEHB15
	.uleb128 .L205-.LFB7253
	.uleb128 0
	.uleb128 .LEHB16-.LFB7253
	.uleb128 .LEHE16-.LEHB16
	.uleb128 0
	.uleb128 0
.LLSDACSE7253:
	.byte	0x1
	.byte	0
	.align 4
	.long	0

.LLSDATT7253:
	.section	.text._ZNSt6vectorIiSaIiEE19_M_emplace_back_auxIJRKiEEEvDpOT_,"axG",@progbits,_ZNSt6vectorIiSaIiEE19_M_emplace_back_auxIJRKiEEEvDpOT_,comdat
	.size	_ZNSt6vectorIiSaIiEE19_M_emplace_back_auxIJRKiEEEvDpOT_, .-_ZNSt6vectorIiSaIiEE19_M_emplace_back_auxIJRKiEEEvDpOT_
	.weak	_ZNSt6vectorIiSaIiEE19_M_emplace_back_auxIIRKiEEEvDpOT_
	.set	_ZNSt6vectorIiSaIiEE19_M_emplace_back_auxIIRKiEEEvDpOT_,_ZNSt6vectorIiSaIiEE19_M_emplace_back_auxIJRKiEEEvDpOT_
	.section	.text._ZN9__gnu_cxx17__normal_iteratorIP14plain_particleSt6vectorIS1_SaIS1_EEEC2ERKS2_,"axG",@progbits,_ZN9__gnu_cxx17__normal_iteratorIP14plain_particleSt6vectorIS1_SaIS1_EEEC5ERKS2_,comdat
	.align 2
	.weak	_ZN9__gnu_cxx17__normal_iteratorIP14plain_particleSt6vectorIS1_SaIS1_EEEC2ERKS2_
	.type	_ZN9__gnu_cxx17__normal_iteratorIP14plain_particleSt6vectorIS1_SaIS1_EEEC2ERKS2_, @function
_ZN9__gnu_cxx17__normal_iteratorIP14plain_particleSt6vectorIS1_SaIS1_EEEC2ERKS2_:
.LFB7255:
	.file 12 "/usr/include/c++/5.2.0/bits/stl_iterator.h"
	.loc 12 740 0
	.cfi_startproc
	pushq	%rbp
	.cfi_def_cfa_offset 16
	.cfi_offset 6, -16
	movq	%rsp, %rbp
	.cfi_def_cfa_register 6
	movq	%rdi, -8(%rbp)
	movq	%rsi, -16(%rbp)
.LBB65:
	.loc 12 741 0
	movq	-16(%rbp), %rax
	movq	(%rax), %rdx
	movq	-8(%rbp), %rax
	movq	%rdx, (%rax)
.LBE65:
	nop
	popq	%rbp
	.cfi_def_cfa 7, 8
	ret
	.cfi_endproc
.LFE7255:
	.size	_ZN9__gnu_cxx17__normal_iteratorIP14plain_particleSt6vectorIS1_SaIS1_EEEC2ERKS2_, .-_ZN9__gnu_cxx17__normal_iteratorIP14plain_particleSt6vectorIS1_SaIS1_EEEC2ERKS2_
	.weak	_ZN9__gnu_cxx17__normal_iteratorIP14plain_particleSt6vectorIS1_SaIS1_EEEC1ERKS2_
	.set	_ZN9__gnu_cxx17__normal_iteratorIP14plain_particleSt6vectorIS1_SaIS1_EEEC1ERKS2_,_ZN9__gnu_cxx17__normal_iteratorIP14plain_particleSt6vectorIS1_SaIS1_EEEC2ERKS2_
	.section	.text._ZN3dod6accessIJNS_6memberIiLi0EEENS1_IiLi1EEENS1_IiLi2EEENS1_IiLi3EEEEEC2IJPiS8_S8_EEES8_DpOT_,"axG",@progbits,_ZN3dod6accessIJNS_6memberIiLi0EEENS1_IiLi1EEENS1_IiLi2EEENS1_IiLi3EEEEEC5IJPiS8_S8_EEES8_DpOT_,comdat
	.align 2
	.weak	_ZN3dod6accessIJNS_6memberIiLi0EEENS1_IiLi1EEENS1_IiLi2EEENS1_IiLi3EEEEEC2IJPiS8_S8_EEES8_DpOT_
	.type	_ZN3dod6accessIJNS_6memberIiLi0EEENS1_IiLi1EEENS1_IiLi2EEENS1_IiLi3EEEEEC2IJPiS8_S8_EEES8_DpOT_, @function
_ZN3dod6accessIJNS_6memberIiLi0EEENS1_IiLi1EEENS1_IiLi2EEENS1_IiLi3EEEEEC2IJPiS8_S8_EEES8_DpOT_:
.LFB7258:
	.loc 5 95 0
	.cfi_startproc
	pushq	%rbp
	.cfi_def_cfa_offset 16
	.cfi_offset 6, -16
	movq	%rsp, %rbp
	.cfi_def_cfa_register 6
	pushq	%r12
	pushq	%rbx
	subq	$48, %rsp
	.cfi_offset 12, -24
	.cfi_offset 3, -32
	movq	%rdi, -24(%rbp)
	movq	%rsi, -32(%rbp)
	movq	%rdx, -40(%rbp)
	movq	%rcx, -48(%rbp)
	movq	%r8, -56(%rbp)
.LBB66:
	.loc 5 95 0
	movq	-56(%rbp), %rax
	movq	%rax, %rdi
	call	_ZSt7forwardIPiEOT_RNSt16remove_referenceIS1_E4typeE
	movq	%rax, %r12
	movq	-48(%rbp), %rax
	movq	%rax, %rdi
	call	_ZSt7forwardIPiEOT_RNSt16remove_referenceIS1_E4typeE
	movq	%rax, %rbx
	movq	-40(%rbp), %rax
	movq	%rax, %rdi
	call	_ZSt7forwardIPiEOT_RNSt16remove_referenceIS1_E4typeE
	movq	(%rax), %rsi
	movq	-24(%rbp), %rax
	movq	%r12, %rcx
	movq	%rbx, %rdx
	movq	%rax, %rdi
	call	_ZN3dod6accessIJNS_6memberIiLi1EEENS1_IiLi2EEENS1_IiLi3EEEEEC2IJPiS7_EEES7_DpOT_
	movq	-24(%rbp), %rax
	movq	-32(%rbp), %rdx
	movq	%rdx, 32(%rax)
.LBE66:
	nop
	addq	$48, %rsp
	popq	%rbx
	popq	%r12
	popq	%rbp
	.cfi_def_cfa 7, 8
	ret
	.cfi_endproc
.LFE7258:
	.size	_ZN3dod6accessIJNS_6memberIiLi0EEENS1_IiLi1EEENS1_IiLi2EEENS1_IiLi3EEEEEC2IJPiS8_S8_EEES8_DpOT_, .-_ZN3dod6accessIJNS_6memberIiLi0EEENS1_IiLi1EEENS1_IiLi2EEENS1_IiLi3EEEEEC2IJPiS8_S8_EEES8_DpOT_
	.weak	_ZN3dod6accessIINS_6memberIiLi0EEENS1_IiLi1EEENS1_IiLi2EEENS1_IiLi3EEEEEC2IIPiS8_S8_EEES8_DpOT_
	.set	_ZN3dod6accessIINS_6memberIiLi0EEENS1_IiLi1EEENS1_IiLi2EEENS1_IiLi3EEEEEC2IIPiS8_S8_EEES8_DpOT_,_ZN3dod6accessIJNS_6memberIiLi0EEENS1_IiLi1EEENS1_IiLi2EEENS1_IiLi3EEEEEC2IJPiS8_S8_EEES8_DpOT_
	.weak	_ZN3dod6accessIJNS_6memberIiLi0EEENS1_IiLi1EEENS1_IiLi2EEENS1_IiLi3EEEEEC1IJPiS8_S8_EEES8_DpOT_
	.set	_ZN3dod6accessIJNS_6memberIiLi0EEENS1_IiLi1EEENS1_IiLi2EEENS1_IiLi3EEEEEC1IJPiS8_S8_EEES8_DpOT_,_ZN3dod6accessIJNS_6memberIiLi0EEENS1_IiLi1EEENS1_IiLi2EEENS1_IiLi3EEEEEC2IJPiS8_S8_EEES8_DpOT_
	.weak	_ZN3dod6accessIINS_6memberIiLi0EEENS1_IiLi1EEENS1_IiLi2EEENS1_IiLi3EEEEEC1IIPiS8_S8_EEES8_DpOT_
	.set	_ZN3dod6accessIINS_6memberIiLi0EEENS1_IiLi1EEENS1_IiLi2EEENS1_IiLi3EEEEEC1IIPiS8_S8_EEES8_DpOT_,_ZN3dod6accessIJNS_6memberIiLi0EEENS1_IiLi1EEENS1_IiLi2EEENS1_IiLi3EEEEEC1IJPiS8_S8_EEES8_DpOT_
	.section	.text._ZN5boost9iterators6detail20iterator_facade_baseIN3dod7pointerI8particleINS3_6accessIJNS3_6memberIcLi0EEENS7_IiLi0EEENS7_IiLi1EEENS7_IiLi2EEENS7_IiLi3EEEEEEEEESE_NS0_27random_access_traversal_tagESE_lLb0ELb0EEC2Ev,"axG",@progbits,_ZN5boost9iterators6detail20iterator_facade_baseIN3dod7pointerI8particleINS3_6accessIJNS3_6memberIcLi0EEENS7_IiLi0EEENS7_IiLi1EEENS7_IiLi2EEENS7_IiLi3EEEEEEEEESE_NS0_27random_access_traversal_tagESE_lLb0ELb0EEC5Ev,comdat
	.align 2
	.weak	_ZN5boost9iterators6detail20iterator_facade_baseIN3dod7pointerI8particleINS3_6accessIJNS3_6memberIcLi0EEENS7_IiLi0EEENS7_IiLi1EEENS7_IiLi2EEENS7_IiLi3EEEEEEEEESE_NS0_27random_access_traversal_tagESE_lLb0ELb0EEC2Ev
	.type	_ZN5boost9iterators6detail20iterator_facade_baseIN3dod7pointerI8particleINS3_6accessIJNS3_6memberIcLi0EEENS7_IiLi0EEENS7_IiLi1EEENS7_IiLi2EEENS7_IiLi3EEEEEEEEESE_NS0_27random_access_traversal_tagESE_lLb0ELb0EEC2Ev, @function
_ZN5boost9iterators6detail20iterator_facade_baseIN3dod7pointerI8particleINS3_6accessIJNS3_6memberIcLi0EEENS7_IiLi0EEENS7_IiLi1EEENS7_IiLi2EEENS7_IiLi3EEEEEEEEESE_NS0_27random_access_traversal_tagESE_lLb0ELb0EEC2Ev:
.LFB7265:
	.loc 8 616 0
	.cfi_startproc
	pushq	%rbp
	.cfi_def_cfa_offset 16
	.cfi_offset 6, -16
	movq	%rsp, %rbp
	.cfi_def_cfa_register 6
	movq	%rdi, -8(%rbp)
	.loc 8 616 0
	nop
	popq	%rbp
	.cfi_def_cfa 7, 8
	ret
	.cfi_endproc
.LFE7265:
	.size	_ZN5boost9iterators6detail20iterator_facade_baseIN3dod7pointerI8particleINS3_6accessIJNS3_6memberIcLi0EEENS7_IiLi0EEENS7_IiLi1EEENS7_IiLi2EEENS7_IiLi3EEEEEEEEESE_NS0_27random_access_traversal_tagESE_lLb0ELb0EEC2Ev, .-_ZN5boost9iterators6detail20iterator_facade_baseIN3dod7pointerI8particleINS3_6accessIJNS3_6memberIcLi0EEENS7_IiLi0EEENS7_IiLi1EEENS7_IiLi2EEENS7_IiLi3EEEEEEEEESE_NS0_27random_access_traversal_tagESE_lLb0ELb0EEC2Ev
	.weak	_ZN5boost9iterators6detail20iterator_facade_baseIN3dod7pointerI8particleINS3_6accessIINS3_6memberIcLi0EEENS7_IiLi0EEENS7_IiLi1EEENS7_IiLi2EEENS7_IiLi3EEEEEEEEESE_NS0_27random_access_traversal_tagESE_lLb0ELb0EEC2Ev
	.set	_ZN5boost9iterators6detail20iterator_facade_baseIN3dod7pointerI8particleINS3_6accessIINS3_6memberIcLi0EEENS7_IiLi0EEENS7_IiLi1EEENS7_IiLi2EEENS7_IiLi3EEEEEEEEESE_NS0_27random_access_traversal_tagESE_lLb0ELb0EEC2Ev,_ZN5boost9iterators6detail20iterator_facade_baseIN3dod7pointerI8particleINS3_6accessIJNS3_6memberIcLi0EEENS7_IiLi0EEENS7_IiLi1EEENS7_IiLi2EEENS7_IiLi3EEEEEEEEESE_NS0_27random_access_traversal_tagESE_lLb0ELb0EEC2Ev
	.weak	_ZN5boost9iterators6detail20iterator_facade_baseIN3dod7pointerI8particleINS3_6accessIJNS3_6memberIcLi0EEENS7_IiLi0EEENS7_IiLi1EEENS7_IiLi2EEENS7_IiLi3EEEEEEEEESE_NS0_27random_access_traversal_tagESE_lLb0ELb0EEC1Ev
	.set	_ZN5boost9iterators6detail20iterator_facade_baseIN3dod7pointerI8particleINS3_6accessIJNS3_6memberIcLi0EEENS7_IiLi0EEENS7_IiLi1EEENS7_IiLi2EEENS7_IiLi3EEEEEEEEESE_NS0_27random_access_traversal_tagESE_lLb0ELb0EEC1Ev,_ZN5boost9iterators6detail20iterator_facade_baseIN3dod7pointerI8particleINS3_6accessIJNS3_6memberIcLi0EEENS7_IiLi0EEENS7_IiLi1EEENS7_IiLi2EEENS7_IiLi3EEEEEEEEESE_NS0_27random_access_traversal_tagESE_lLb0ELb0EEC2Ev
	.weak	_ZN5boost9iterators6detail20iterator_facade_baseIN3dod7pointerI8particleINS3_6accessIINS3_6memberIcLi0EEENS7_IiLi0EEENS7_IiLi1EEENS7_IiLi2EEENS7_IiLi3EEEEEEEEESE_NS0_27random_access_traversal_tagESE_lLb0ELb0EEC1Ev
	.set	_ZN5boost9iterators6detail20iterator_facade_baseIN3dod7pointerI8particleINS3_6accessIINS3_6memberIcLi0EEENS7_IiLi0EEENS7_IiLi1EEENS7_IiLi2EEENS7_IiLi3EEEEEEEEESE_NS0_27random_access_traversal_tagESE_lLb0ELb0EEC1Ev,_ZN5boost9iterators6detail20iterator_facade_baseIN3dod7pointerI8particleINS3_6accessIJNS3_6memberIcLi0EEENS7_IiLi0EEENS7_IiLi1EEENS7_IiLi2EEENS7_IiLi3EEEEEEEEESE_NS0_27random_access_traversal_tagESE_lLb0ELb0EEC1Ev
	.section	.text._ZN5boost9iterators6detail20iterator_facade_baseIN3dod7pointerI8particleINS3_6accessIJNS3_6memberIcLi0EEENS7_IiLi0EEENS7_IiLi1EEENS7_IiLi2EEENS7_IiLi3EEEEEEEEESE_NS0_27random_access_traversal_tagESE_lLb1ELb0EEC2Ev,"axG",@progbits,_ZN5boost9iterators6detail20iterator_facade_baseIN3dod7pointerI8particleINS3_6accessIJNS3_6memberIcLi0EEENS7_IiLi0EEENS7_IiLi1EEENS7_IiLi2EEENS7_IiLi3EEEEEEEEESE_NS0_27random_access_traversal_tagESE_lLb1ELb0EEC5Ev,comdat
	.align 2
	.weak	_ZN5boost9iterators6detail20iterator_facade_baseIN3dod7pointerI8particleINS3_6accessIJNS3_6memberIcLi0EEENS7_IiLi0EEENS7_IiLi1EEENS7_IiLi2EEENS7_IiLi3EEEEEEEEESE_NS0_27random_access_traversal_tagESE_lLb1ELb0EEC2Ev
	.type	_ZN5boost9iterators6detail20iterator_facade_baseIN3dod7pointerI8particleINS3_6accessIJNS3_6memberIcLi0EEENS7_IiLi0EEENS7_IiLi1EEENS7_IiLi2EEENS7_IiLi3EEEEEEEEESE_NS0_27random_access_traversal_tagESE_lLb1ELb0EEC2Ev, @function
_ZN5boost9iterators6detail20iterator_facade_baseIN3dod7pointerI8particleINS3_6accessIJNS3_6memberIcLi0EEENS7_IiLi0EEENS7_IiLi1EEENS7_IiLi2EEENS7_IiLi3EEEEEEEEESE_NS0_27random_access_traversal_tagESE_lLb1ELb0EEC2Ev:
.LFB7267:
	.loc 8 683 0
	.cfi_startproc
	pushq	%rbp
	.cfi_def_cfa_offset 16
	.cfi_offset 6, -16
	movq	%rsp, %rbp
	.cfi_def_cfa_register 6
	subq	$16, %rsp
	movq	%rdi, -8(%rbp)
.LBB67:
	.loc 8 683 0
	movq	-8(%rbp), %rax
	movq	%rax, %rdi
	call	_ZN5boost9iterators6detail20iterator_facade_baseIN3dod7pointerI8particleINS3_6accessIJNS3_6memberIcLi0EEENS7_IiLi0EEENS7_IiLi1EEENS7_IiLi2EEENS7_IiLi3EEEEEEEEESE_NS0_27random_access_traversal_tagESE_lLb0ELb0EEC2Ev
.LBE67:
	nop
	leave
	.cfi_def_cfa 7, 8
	ret
	.cfi_endproc
.LFE7267:
	.size	_ZN5boost9iterators6detail20iterator_facade_baseIN3dod7pointerI8particleINS3_6accessIJNS3_6memberIcLi0EEENS7_IiLi0EEENS7_IiLi1EEENS7_IiLi2EEENS7_IiLi3EEEEEEEEESE_NS0_27random_access_traversal_tagESE_lLb1ELb0EEC2Ev, .-_ZN5boost9iterators6detail20iterator_facade_baseIN3dod7pointerI8particleINS3_6accessIJNS3_6memberIcLi0EEENS7_IiLi0EEENS7_IiLi1EEENS7_IiLi2EEENS7_IiLi3EEEEEEEEESE_NS0_27random_access_traversal_tagESE_lLb1ELb0EEC2Ev
	.weak	_ZN5boost9iterators6detail20iterator_facade_baseIN3dod7pointerI8particleINS3_6accessIINS3_6memberIcLi0EEENS7_IiLi0EEENS7_IiLi1EEENS7_IiLi2EEENS7_IiLi3EEEEEEEEESE_NS0_27random_access_traversal_tagESE_lLb1ELb0EEC2Ev
	.set	_ZN5boost9iterators6detail20iterator_facade_baseIN3dod7pointerI8particleINS3_6accessIINS3_6memberIcLi0EEENS7_IiLi0EEENS7_IiLi1EEENS7_IiLi2EEENS7_IiLi3EEEEEEEEESE_NS0_27random_access_traversal_tagESE_lLb1ELb0EEC2Ev,_ZN5boost9iterators6detail20iterator_facade_baseIN3dod7pointerI8particleINS3_6accessIJNS3_6memberIcLi0EEENS7_IiLi0EEENS7_IiLi1EEENS7_IiLi2EEENS7_IiLi3EEEEEEEEESE_NS0_27random_access_traversal_tagESE_lLb1ELb0EEC2Ev
	.weak	_ZN5boost9iterators6detail20iterator_facade_baseIN3dod7pointerI8particleINS3_6accessIJNS3_6memberIcLi0EEENS7_IiLi0EEENS7_IiLi1EEENS7_IiLi2EEENS7_IiLi3EEEEEEEEESE_NS0_27random_access_traversal_tagESE_lLb1ELb0EEC1Ev
	.set	_ZN5boost9iterators6detail20iterator_facade_baseIN3dod7pointerI8particleINS3_6accessIJNS3_6memberIcLi0EEENS7_IiLi0EEENS7_IiLi1EEENS7_IiLi2EEENS7_IiLi3EEEEEEEEESE_NS0_27random_access_traversal_tagESE_lLb1ELb0EEC1Ev,_ZN5boost9iterators6detail20iterator_facade_baseIN3dod7pointerI8particleINS3_6accessIJNS3_6memberIcLi0EEENS7_IiLi0EEENS7_IiLi1EEENS7_IiLi2EEENS7_IiLi3EEEEEEEEESE_NS0_27random_access_traversal_tagESE_lLb1ELb0EEC2Ev
	.weak	_ZN5boost9iterators6detail20iterator_facade_baseIN3dod7pointerI8particleINS3_6accessIINS3_6memberIcLi0EEENS7_IiLi0EEENS7_IiLi1EEENS7_IiLi2EEENS7_IiLi3EEEEEEEEESE_NS0_27random_access_traversal_tagESE_lLb1ELb0EEC1Ev
	.set	_ZN5boost9iterators6detail20iterator_facade_baseIN3dod7pointerI8particleINS3_6accessIINS3_6memberIcLi0EEENS7_IiLi0EEENS7_IiLi1EEENS7_IiLi2EEENS7_IiLi3EEEEEEEEESE_NS0_27random_access_traversal_tagESE_lLb1ELb0EEC1Ev,_ZN5boost9iterators6detail20iterator_facade_baseIN3dod7pointerI8particleINS3_6accessIJNS3_6memberIcLi0EEENS7_IiLi0EEENS7_IiLi1EEENS7_IiLi2EEENS7_IiLi3EEEEEEEEESE_NS0_27random_access_traversal_tagESE_lLb1ELb0EEC1Ev
	.section	.text._ZN5boost9iterators6detail20iterator_facade_baseIN3dod7pointerI8particleINS3_6accessIJNS3_6memberIcLi0EEENS7_IiLi0EEENS7_IiLi1EEENS7_IiLi2EEENS7_IiLi3EEEEEEEEESE_NS0_27random_access_traversal_tagESE_lLb1ELb1EEC2Ev,"axG",@progbits,_ZN5boost9iterators6detail20iterator_facade_baseIN3dod7pointerI8particleINS3_6accessIJNS3_6memberIcLi0EEENS7_IiLi0EEENS7_IiLi1EEENS7_IiLi2EEENS7_IiLi3EEEEEEEEESE_NS0_27random_access_traversal_tagESE_lLb1ELb1EEC5Ev,comdat
	.align 2
	.weak	_ZN5boost9iterators6detail20iterator_facade_baseIN3dod7pointerI8particleINS3_6accessIJNS3_6memberIcLi0EEENS7_IiLi0EEENS7_IiLi1EEENS7_IiLi2EEENS7_IiLi3EEEEEEEEESE_NS0_27random_access_traversal_tagESE_lLb1ELb1EEC2Ev
	.type	_ZN5boost9iterators6detail20iterator_facade_baseIN3dod7pointerI8particleINS3_6accessIJNS3_6memberIcLi0EEENS7_IiLi0EEENS7_IiLi1EEENS7_IiLi2EEENS7_IiLi3EEEEEEEEESE_NS0_27random_access_traversal_tagESE_lLb1ELb1EEC2Ev, @function
_ZN5boost9iterators6detail20iterator_facade_baseIN3dod7pointerI8particleINS3_6accessIJNS3_6memberIcLi0EEENS7_IiLi0EEENS7_IiLi1EEENS7_IiLi2EEENS7_IiLi3EEEEEEEEESE_NS0_27random_access_traversal_tagESE_lLb1ELb1EEC2Ev:
.LFB7269:
	.loc 8 709 0
	.cfi_startproc
	pushq	%rbp
	.cfi_def_cfa_offset 16
	.cfi_offset 6, -16
	movq	%rsp, %rbp
	.cfi_def_cfa_register 6
	subq	$16, %rsp
	movq	%rdi, -8(%rbp)
.LBB68:
	.loc 8 709 0
	movq	-8(%rbp), %rax
	movq	%rax, %rdi
	call	_ZN5boost9iterators6detail20iterator_facade_baseIN3dod7pointerI8particleINS3_6accessIJNS3_6memberIcLi0EEENS7_IiLi0EEENS7_IiLi1EEENS7_IiLi2EEENS7_IiLi3EEEEEEEEESE_NS0_27random_access_traversal_tagESE_lLb1ELb0EEC2Ev
.LBE68:
	nop
	leave
	.cfi_def_cfa 7, 8
	ret
	.cfi_endproc
.LFE7269:
	.size	_ZN5boost9iterators6detail20iterator_facade_baseIN3dod7pointerI8particleINS3_6accessIJNS3_6memberIcLi0EEENS7_IiLi0EEENS7_IiLi1EEENS7_IiLi2EEENS7_IiLi3EEEEEEEEESE_NS0_27random_access_traversal_tagESE_lLb1ELb1EEC2Ev, .-_ZN5boost9iterators6detail20iterator_facade_baseIN3dod7pointerI8particleINS3_6accessIJNS3_6memberIcLi0EEENS7_IiLi0EEENS7_IiLi1EEENS7_IiLi2EEENS7_IiLi3EEEEEEEEESE_NS0_27random_access_traversal_tagESE_lLb1ELb1EEC2Ev
	.weak	_ZN5boost9iterators6detail20iterator_facade_baseIN3dod7pointerI8particleINS3_6accessIINS3_6memberIcLi0EEENS7_IiLi0EEENS7_IiLi1EEENS7_IiLi2EEENS7_IiLi3EEEEEEEEESE_NS0_27random_access_traversal_tagESE_lLb1ELb1EEC2Ev
	.set	_ZN5boost9iterators6detail20iterator_facade_baseIN3dod7pointerI8particleINS3_6accessIINS3_6memberIcLi0EEENS7_IiLi0EEENS7_IiLi1EEENS7_IiLi2EEENS7_IiLi3EEEEEEEEESE_NS0_27random_access_traversal_tagESE_lLb1ELb1EEC2Ev,_ZN5boost9iterators6detail20iterator_facade_baseIN3dod7pointerI8particleINS3_6accessIJNS3_6memberIcLi0EEENS7_IiLi0EEENS7_IiLi1EEENS7_IiLi2EEENS7_IiLi3EEEEEEEEESE_NS0_27random_access_traversal_tagESE_lLb1ELb1EEC2Ev
	.weak	_ZN5boost9iterators6detail20iterator_facade_baseIN3dod7pointerI8particleINS3_6accessIJNS3_6memberIcLi0EEENS7_IiLi0EEENS7_IiLi1EEENS7_IiLi2EEENS7_IiLi3EEEEEEEEESE_NS0_27random_access_traversal_tagESE_lLb1ELb1EEC1Ev
	.set	_ZN5boost9iterators6detail20iterator_facade_baseIN3dod7pointerI8particleINS3_6accessIJNS3_6memberIcLi0EEENS7_IiLi0EEENS7_IiLi1EEENS7_IiLi2EEENS7_IiLi3EEEEEEEEESE_NS0_27random_access_traversal_tagESE_lLb1ELb1EEC1Ev,_ZN5boost9iterators6detail20iterator_facade_baseIN3dod7pointerI8particleINS3_6accessIJNS3_6memberIcLi0EEENS7_IiLi0EEENS7_IiLi1EEENS7_IiLi2EEENS7_IiLi3EEEEEEEEESE_NS0_27random_access_traversal_tagESE_lLb1ELb1EEC2Ev
	.weak	_ZN5boost9iterators6detail20iterator_facade_baseIN3dod7pointerI8particleINS3_6accessIINS3_6memberIcLi0EEENS7_IiLi0EEENS7_IiLi1EEENS7_IiLi2EEENS7_IiLi3EEEEEEEEESE_NS0_27random_access_traversal_tagESE_lLb1ELb1EEC1Ev
	.set	_ZN5boost9iterators6detail20iterator_facade_baseIN3dod7pointerI8particleINS3_6accessIINS3_6memberIcLi0EEENS7_IiLi0EEENS7_IiLi1EEENS7_IiLi2EEENS7_IiLi3EEEEEEEEESE_NS0_27random_access_traversal_tagESE_lLb1ELb1EEC1Ev,_ZN5boost9iterators6detail20iterator_facade_baseIN3dod7pointerI8particleINS3_6accessIJNS3_6memberIcLi0EEENS7_IiLi0EEENS7_IiLi1EEENS7_IiLi2EEENS7_IiLi3EEEEEEEEESE_NS0_27random_access_traversal_tagESE_lLb1ELb1EEC1Ev
	.section	.text._ZN5boost9iterators15iterator_facadeIN3dod7pointerI8particleINS2_6accessIJNS2_6memberIcLi0EEENS6_IiLi0EEENS6_IiLi1EEENS6_IiLi2EEENS6_IiLi3EEEEEEEEESD_NS0_27random_access_traversal_tagESD_lEC2Ev,"axG",@progbits,_ZN5boost9iterators15iterator_facadeIN3dod7pointerI8particleINS2_6accessIJNS2_6memberIcLi0EEENS6_IiLi0EEENS6_IiLi1EEENS6_IiLi2EEENS6_IiLi3EEEEEEEEESD_NS0_27random_access_traversal_tagESD_lEC5Ev,comdat
	.align 2
	.weak	_ZN5boost9iterators15iterator_facadeIN3dod7pointerI8particleINS2_6accessIJNS2_6memberIcLi0EEENS6_IiLi0EEENS6_IiLi1EEENS6_IiLi2EEENS6_IiLi3EEEEEEEEESD_NS0_27random_access_traversal_tagESD_lEC2Ev
	.type	_ZN5boost9iterators15iterator_facadeIN3dod7pointerI8particleINS2_6accessIJNS2_6memberIcLi0EEENS6_IiLi0EEENS6_IiLi1EEENS6_IiLi2EEENS6_IiLi3EEEEEEEEESD_NS0_27random_access_traversal_tagESD_lEC2Ev, @function
_ZN5boost9iterators15iterator_facadeIN3dod7pointerI8particleINS2_6accessIJNS2_6memberIcLi0EEENS6_IiLi0EEENS6_IiLi1EEENS6_IiLi2EEENS6_IiLi3EEEEEEEEESD_NS0_27random_access_traversal_tagESD_lEC2Ev:
.LFB7271:
	.loc 8 763 0
	.cfi_startproc
	pushq	%rbp
	.cfi_def_cfa_offset 16
	.cfi_offset 6, -16
	movq	%rsp, %rbp
	.cfi_def_cfa_register 6
	subq	$16, %rsp
	movq	%rdi, -8(%rbp)
.LBB69:
	.loc 8 763 0
	movq	-8(%rbp), %rax
	movq	%rax, %rdi
	call	_ZN5boost9iterators6detail20iterator_facade_baseIN3dod7pointerI8particleINS3_6accessIJNS3_6memberIcLi0EEENS7_IiLi0EEENS7_IiLi1EEENS7_IiLi2EEENS7_IiLi3EEEEEEEEESE_NS0_27random_access_traversal_tagESE_lLb1ELb1EEC2Ev
.LBE69:
	nop
	leave
	.cfi_def_cfa 7, 8
	ret
	.cfi_endproc
.LFE7271:
	.size	_ZN5boost9iterators15iterator_facadeIN3dod7pointerI8particleINS2_6accessIJNS2_6memberIcLi0EEENS6_IiLi0EEENS6_IiLi1EEENS6_IiLi2EEENS6_IiLi3EEEEEEEEESD_NS0_27random_access_traversal_tagESD_lEC2Ev, .-_ZN5boost9iterators15iterator_facadeIN3dod7pointerI8particleINS2_6accessIJNS2_6memberIcLi0EEENS6_IiLi0EEENS6_IiLi1EEENS6_IiLi2EEENS6_IiLi3EEEEEEEEESD_NS0_27random_access_traversal_tagESD_lEC2Ev
	.weak	_ZN5boost9iterators15iterator_facadeIN3dod7pointerI8particleINS2_6accessIINS2_6memberIcLi0EEENS6_IiLi0EEENS6_IiLi1EEENS6_IiLi2EEENS6_IiLi3EEEEEEEEESD_NS0_27random_access_traversal_tagESD_lEC2Ev
	.set	_ZN5boost9iterators15iterator_facadeIN3dod7pointerI8particleINS2_6accessIINS2_6memberIcLi0EEENS6_IiLi0EEENS6_IiLi1EEENS6_IiLi2EEENS6_IiLi3EEEEEEEEESD_NS0_27random_access_traversal_tagESD_lEC2Ev,_ZN5boost9iterators15iterator_facadeIN3dod7pointerI8particleINS2_6accessIJNS2_6memberIcLi0EEENS6_IiLi0EEENS6_IiLi1EEENS6_IiLi2EEENS6_IiLi3EEEEEEEEESD_NS0_27random_access_traversal_tagESD_lEC2Ev
	.weak	_ZN5boost9iterators15iterator_facadeIN3dod7pointerI8particleINS2_6accessIJNS2_6memberIcLi0EEENS6_IiLi0EEENS6_IiLi1EEENS6_IiLi2EEENS6_IiLi3EEEEEEEEESD_NS0_27random_access_traversal_tagESD_lEC1Ev
	.set	_ZN5boost9iterators15iterator_facadeIN3dod7pointerI8particleINS2_6accessIJNS2_6memberIcLi0EEENS6_IiLi0EEENS6_IiLi1EEENS6_IiLi2EEENS6_IiLi3EEEEEEEEESD_NS0_27random_access_traversal_tagESD_lEC1Ev,_ZN5boost9iterators15iterator_facadeIN3dod7pointerI8particleINS2_6accessIJNS2_6memberIcLi0EEENS6_IiLi0EEENS6_IiLi1EEENS6_IiLi2EEENS6_IiLi3EEEEEEEEESD_NS0_27random_access_traversal_tagESD_lEC2Ev
	.weak	_ZN5boost9iterators15iterator_facadeIN3dod7pointerI8particleINS2_6accessIINS2_6memberIcLi0EEENS6_IiLi0EEENS6_IiLi1EEENS6_IiLi2EEENS6_IiLi3EEEEEEEEESD_NS0_27random_access_traversal_tagESD_lEC1Ev
	.set	_ZN5boost9iterators15iterator_facadeIN3dod7pointerI8particleINS2_6accessIINS2_6memberIcLi0EEENS6_IiLi0EEENS6_IiLi1EEENS6_IiLi2EEENS6_IiLi3EEEEEEEEESD_NS0_27random_access_traversal_tagESD_lEC1Ev,_ZN5boost9iterators15iterator_facadeIN3dod7pointerI8particleINS2_6accessIJNS2_6memberIcLi0EEENS6_IiLi0EEENS6_IiLi1EEENS6_IiLi2EEENS6_IiLi3EEEEEEEEESD_NS0_27random_access_traversal_tagESD_lEC1Ev
	.section	.text._ZN3dod7pointerI8particleINS_6accessIJNS_6memberIcLi0EEENS3_IiLi0EEENS3_IiLi1EEENS3_IiLi2EEENS3_IiLi3EEEEEEEEC2ERKS9_,"axG",@progbits,_ZN3dod7pointerI8particleINS_6accessIJNS_6memberIcLi0EEENS3_IiLi0EEENS3_IiLi1EEENS3_IiLi2EEENS3_IiLi3EEEEEEEEC5ERKS9_,comdat
	.align 2
	.weak	_ZN3dod7pointerI8particleINS_6accessIJNS_6memberIcLi0EEENS3_IiLi0EEENS3_IiLi1EEENS3_IiLi2EEENS3_IiLi3EEEEEEEEC2ERKS9_
	.type	_ZN3dod7pointerI8particleINS_6accessIJNS_6memberIcLi0EEENS3_IiLi0EEENS3_IiLi1EEENS3_IiLi2EEENS3_IiLi3EEEEEEEEC2ERKS9_, @function
_ZN3dod7pointerI8particleINS_6accessIJNS_6memberIcLi0EEENS3_IiLi0EEENS3_IiLi1EEENS3_IiLi2EEENS3_IiLi3EEEEEEEEC2ERKS9_:
.LFB7273:
	.loc 5 128 0
	.cfi_startproc
	pushq	%rbp
	.cfi_def_cfa_offset 16
	.cfi_offset 6, -16
	movq	%rsp, %rbp
	.cfi_def_cfa_register 6
	subq	$16, %rsp
	movq	%rdi, -8(%rbp)
	movq	%rsi, -16(%rbp)
.LBB70:
	.loc 5 128 0
	movq	-8(%rbp), %rax
	movq	%rax, %rdi
	call	_ZN5boost9iterators15iterator_facadeIN3dod7pointerI8particleINS2_6accessIJNS2_6memberIcLi0EEENS6_IiLi0EEENS6_IiLi1EEENS6_IiLi2EEENS6_IiLi3EEEEEEEEESD_NS0_27random_access_traversal_tagESD_lEC2Ev
	movq	-8(%rbp), %rax
	movq	-16(%rbp), %rdx
	movq	(%rdx), %rcx
	movq	%rcx, (%rax)
	movq	8(%rdx), %rcx
	movq	%rcx, 8(%rax)
	movq	16(%rdx), %rcx
	movq	%rcx, 16(%rax)
	movq	24(%rdx), %rcx
	movq	%rcx, 24(%rax)
	movq	32(%rdx), %rcx
	movq	%rcx, 32(%rax)
	movq	40(%rdx), %rdx
	movq	%rdx, 40(%rax)
.LBE70:
	nop
	leave
	.cfi_def_cfa 7, 8
	ret
	.cfi_endproc
.LFE7273:
	.size	_ZN3dod7pointerI8particleINS_6accessIJNS_6memberIcLi0EEENS3_IiLi0EEENS3_IiLi1EEENS3_IiLi2EEENS3_IiLi3EEEEEEEEC2ERKS9_, .-_ZN3dod7pointerI8particleINS_6accessIJNS_6memberIcLi0EEENS3_IiLi0EEENS3_IiLi1EEENS3_IiLi2EEENS3_IiLi3EEEEEEEEC2ERKS9_
	.weak	_ZN3dod7pointerI8particleINS_6accessIINS_6memberIcLi0EEENS3_IiLi0EEENS3_IiLi1EEENS3_IiLi2EEENS3_IiLi3EEEEEEEEC2ERKS9_
	.set	_ZN3dod7pointerI8particleINS_6accessIINS_6memberIcLi0EEENS3_IiLi0EEENS3_IiLi1EEENS3_IiLi2EEENS3_IiLi3EEEEEEEEC2ERKS9_,_ZN3dod7pointerI8particleINS_6accessIJNS_6memberIcLi0EEENS3_IiLi0EEENS3_IiLi1EEENS3_IiLi2EEENS3_IiLi3EEEEEEEEC2ERKS9_
	.weak	_ZN3dod7pointerI8particleINS_6accessIJNS_6memberIcLi0EEENS3_IiLi0EEENS3_IiLi1EEENS3_IiLi2EEENS3_IiLi3EEEEEEEEC1ERKS9_
	.set	_ZN3dod7pointerI8particleINS_6accessIJNS_6memberIcLi0EEENS3_IiLi0EEENS3_IiLi1EEENS3_IiLi2EEENS3_IiLi3EEEEEEEEC1ERKS9_,_ZN3dod7pointerI8particleINS_6accessIJNS_6memberIcLi0EEENS3_IiLi0EEENS3_IiLi1EEENS3_IiLi2EEENS3_IiLi3EEEEEEEEC2ERKS9_
	.weak	_ZN3dod7pointerI8particleINS_6accessIINS_6memberIcLi0EEENS3_IiLi0EEENS3_IiLi1EEENS3_IiLi2EEENS3_IiLi3EEEEEEEEC1ERKS9_
	.set	_ZN3dod7pointerI8particleINS_6accessIINS_6memberIcLi0EEENS3_IiLi0EEENS3_IiLi1EEENS3_IiLi2EEENS3_IiLi3EEEEEEEEC1ERKS9_,_ZN3dod7pointerI8particleINS_6accessIJNS_6memberIcLi0EEENS3_IiLi0EEENS3_IiLi1EEENS3_IiLi2EEENS3_IiLi3EEEEEEEEC1ERKS9_
	.section	.text._ZN5boost9iterators6detail20iterator_facade_baseIN3dod7pointerI8particleINS3_6accessIJNS3_6memberIcLi0EEENS7_IiLi0EEENS7_IiLi1EEENS7_IiLi2EEENS7_IiLi3EEEEEEEEESE_NS0_27random_access_traversal_tagESE_lLb1ELb1EEpLEl,"axG",@progbits,_ZN5boost9iterators6detail20iterator_facade_baseIN3dod7pointerI8particleINS3_6accessIJNS3_6memberIcLi0EEENS7_IiLi0EEENS7_IiLi1EEENS7_IiLi2EEENS7_IiLi3EEEEEEEEESE_NS0_27random_access_traversal_tagESE_lLb1ELb1EEpLEl,comdat
	.align 2
	.weak	_ZN5boost9iterators6detail20iterator_facade_baseIN3dod7pointerI8particleINS3_6accessIJNS3_6memberIcLi0EEENS7_IiLi0EEENS7_IiLi1EEENS7_IiLi2EEENS7_IiLi3EEEEEEEEESE_NS0_27random_access_traversal_tagESE_lLb1ELb1EEpLEl
	.type	_ZN5boost9iterators6detail20iterator_facade_baseIN3dod7pointerI8particleINS3_6accessIJNS3_6memberIcLi0EEENS7_IiLi0EEENS7_IiLi1EEENS7_IiLi2EEENS7_IiLi3EEEEEEEEESE_NS0_27random_access_traversal_tagESE_lLb1ELb1EEpLEl, @function
_ZN5boost9iterators6detail20iterator_facade_baseIN3dod7pointerI8particleINS3_6accessIJNS3_6memberIcLi0EEENS7_IiLi0EEENS7_IiLi1EEENS7_IiLi2EEENS7_IiLi3EEEEEEEEESE_NS0_27random_access_traversal_tagESE_lLb1ELb1EEpLEl:
.LFB7275:
	.loc 8 731 0
	.cfi_startproc
	pushq	%rbp
	.cfi_def_cfa_offset 16
	.cfi_offset 6, -16
	movq	%rsp, %rbp
	.cfi_def_cfa_register 6
	subq	$16, %rsp
	movq	%rdi, -8(%rbp)
	movq	%rsi, -16(%rbp)
	.loc 8 733 0
	movq	-8(%rbp), %rax
	movq	%rax, %rdi
	call	_ZN5boost9iterators6detail20iterator_facade_baseIN3dod7pointerI8particleINS3_6accessIJNS3_6memberIcLi0EEENS7_IiLi0EEENS7_IiLi1EEENS7_IiLi2EEENS7_IiLi3EEEEEEEEESE_NS0_27random_access_traversal_tagESE_lLb0ELb0EE7derivedEv
	movq	%rax, %rdx
	movq	-16(%rbp), %rax
	movq	%rax, %rsi
	movq	%rdx, %rdi
	call	_ZN5boost9iterators20iterator_core_access7advanceIN3dod7pointerI8particleINS3_6accessIJNS3_6memberIcLi0EEENS7_IiLi0EEENS7_IiLi1EEENS7_IiLi2EEENS7_IiLi3EEEEEEEEEEEvRT_NSG_15difference_typeE
	.loc 8 734 0
	movq	-8(%rbp), %rax
	movq	%rax, %rdi
	call	_ZN5boost9iterators6detail20iterator_facade_baseIN3dod7pointerI8particleINS3_6accessIJNS3_6memberIcLi0EEENS7_IiLi0EEENS7_IiLi1EEENS7_IiLi2EEENS7_IiLi3EEEEEEEEESE_NS0_27random_access_traversal_tagESE_lLb0ELb0EE7derivedEv
	.loc 8 735 0
	leave
	.cfi_def_cfa 7, 8
	ret
	.cfi_endproc
.LFE7275:
	.size	_ZN5boost9iterators6detail20iterator_facade_baseIN3dod7pointerI8particleINS3_6accessIJNS3_6memberIcLi0EEENS7_IiLi0EEENS7_IiLi1EEENS7_IiLi2EEENS7_IiLi3EEEEEEEEESE_NS0_27random_access_traversal_tagESE_lLb1ELb1EEpLEl, .-_ZN5boost9iterators6detail20iterator_facade_baseIN3dod7pointerI8particleINS3_6accessIJNS3_6memberIcLi0EEENS7_IiLi0EEENS7_IiLi1EEENS7_IiLi2EEENS7_IiLi3EEEEEEEEESE_NS0_27random_access_traversal_tagESE_lLb1ELb1EEpLEl
	.weak	_ZN5boost9iterators6detail20iterator_facade_baseIN3dod7pointerI8particleINS3_6accessIINS3_6memberIcLi0EEENS7_IiLi0EEENS7_IiLi1EEENS7_IiLi2EEENS7_IiLi3EEEEEEEEESE_NS0_27random_access_traversal_tagESE_lLb1ELb1EEpLEl
	.set	_ZN5boost9iterators6detail20iterator_facade_baseIN3dod7pointerI8particleINS3_6accessIINS3_6memberIcLi0EEENS7_IiLi0EEENS7_IiLi1EEENS7_IiLi2EEENS7_IiLi3EEEEEEEEESE_NS0_27random_access_traversal_tagESE_lLb1ELb1EEpLEl,_ZN5boost9iterators6detail20iterator_facade_baseIN3dod7pointerI8particleINS3_6accessIJNS3_6memberIcLi0EEENS7_IiLi0EEENS7_IiLi1EEENS7_IiLi2EEENS7_IiLi3EEEEEEEEESE_NS0_27random_access_traversal_tagESE_lLb1ELb1EEpLEl
	.section	.text._ZN3dod6accessIJNS_6memberIiLi0EEENS1_IiLi1EEEEEC2IJPiEEES6_DpOT_,"axG",@progbits,_ZN3dod6accessIJNS_6memberIiLi0EEENS1_IiLi1EEEEEC5IJPiEEES6_DpOT_,comdat
	.align 2
	.weak	_ZN3dod6accessIJNS_6memberIiLi0EEENS1_IiLi1EEEEEC2IJPiEEES6_DpOT_
	.type	_ZN3dod6accessIJNS_6memberIiLi0EEENS1_IiLi1EEEEEC2IJPiEEES6_DpOT_, @function
_ZN3dod6accessIJNS_6memberIiLi0EEENS1_IiLi1EEEEEC2IJPiEEES6_DpOT_:
.LFB7277:
	.loc 5 95 0
	.cfi_startproc
	pushq	%rbp
	.cfi_def_cfa_offset 16
	.cfi_offset 6, -16
	movq	%rsp, %rbp
	.cfi_def_cfa_register 6
	subq	$32, %rsp
	movq	%rdi, -8(%rbp)
	movq	%rsi, -16(%rbp)
	movq	%rdx, -24(%rbp)
.LBB71:
	.loc 5 95 0
	movq	-24(%rbp), %rax
	movq	%rax, %rdi
	call	_ZSt7forwardIPiEOT_RNSt16remove_referenceIS1_E4typeE
	movq	(%rax), %rdx
	movq	-8(%rbp), %rax
	movq	%rdx, %rsi
	movq	%rax, %rdi
	call	_ZN3dod6accessIJNS_6memberIiLi1EEEEEC2IJEEEPiDpOT_
	movq	-8(%rbp), %rax
	movq	-16(%rbp), %rdx
	movq	%rdx, 16(%rax)
.LBE71:
	nop
	leave
	.cfi_def_cfa 7, 8
	ret
	.cfi_endproc
.LFE7277:
	.size	_ZN3dod6accessIJNS_6memberIiLi0EEENS1_IiLi1EEEEEC2IJPiEEES6_DpOT_, .-_ZN3dod6accessIJNS_6memberIiLi0EEENS1_IiLi1EEEEEC2IJPiEEES6_DpOT_
	.weak	_ZN3dod6accessIINS_6memberIiLi0EEENS1_IiLi1EEEEEC2IIPiEEES6_DpOT_
	.set	_ZN3dod6accessIINS_6memberIiLi0EEENS1_IiLi1EEEEEC2IIPiEEES6_DpOT_,_ZN3dod6accessIJNS_6memberIiLi0EEENS1_IiLi1EEEEEC2IJPiEEES6_DpOT_
	.weak	_ZN3dod6accessIJNS_6memberIiLi0EEENS1_IiLi1EEEEEC1IJPiEEES6_DpOT_
	.set	_ZN3dod6accessIJNS_6memberIiLi0EEENS1_IiLi1EEEEEC1IJPiEEES6_DpOT_,_ZN3dod6accessIJNS_6memberIiLi0EEENS1_IiLi1EEEEEC2IJPiEEES6_DpOT_
	.weak	_ZN3dod6accessIINS_6memberIiLi0EEENS1_IiLi1EEEEEC1IIPiEEES6_DpOT_
	.set	_ZN3dod6accessIINS_6memberIiLi0EEENS1_IiLi1EEEEEC1IIPiEEES6_DpOT_,_ZN3dod6accessIJNS_6memberIiLi0EEENS1_IiLi1EEEEEC1IJPiEEES6_DpOT_
	.section	.text._ZN5boost9iterators6detail20iterator_facade_baseIN3dod7pointerI8particleINS3_6accessIJNS3_6memberIcLi0EEENS7_IiLi0EEENS7_IiLi1EEEEEEEEESC_NS0_27random_access_traversal_tagESC_lLb0ELb0EEC2Ev,"axG",@progbits,_ZN5boost9iterators6detail20iterator_facade_baseIN3dod7pointerI8particleINS3_6accessIJNS3_6memberIcLi0EEENS7_IiLi0EEENS7_IiLi1EEEEEEEEESC_NS0_27random_access_traversal_tagESC_lLb0ELb0EEC5Ev,comdat
	.align 2
	.weak	_ZN5boost9iterators6detail20iterator_facade_baseIN3dod7pointerI8particleINS3_6accessIJNS3_6memberIcLi0EEENS7_IiLi0EEENS7_IiLi1EEEEEEEEESC_NS0_27random_access_traversal_tagESC_lLb0ELb0EEC2Ev
	.type	_ZN5boost9iterators6detail20iterator_facade_baseIN3dod7pointerI8particleINS3_6accessIJNS3_6memberIcLi0EEENS7_IiLi0EEENS7_IiLi1EEEEEEEEESC_NS0_27random_access_traversal_tagESC_lLb0ELb0EEC2Ev, @function
_ZN5boost9iterators6detail20iterator_facade_baseIN3dod7pointerI8particleINS3_6accessIJNS3_6memberIcLi0EEENS7_IiLi0EEENS7_IiLi1EEEEEEEEESC_NS0_27random_access_traversal_tagESC_lLb0ELb0EEC2Ev:
.LFB7284:
	.loc 8 616 0
	.cfi_startproc
	pushq	%rbp
	.cfi_def_cfa_offset 16
	.cfi_offset 6, -16
	movq	%rsp, %rbp
	.cfi_def_cfa_register 6
	movq	%rdi, -8(%rbp)
	.loc 8 616 0
	nop
	popq	%rbp
	.cfi_def_cfa 7, 8
	ret
	.cfi_endproc
.LFE7284:
	.size	_ZN5boost9iterators6detail20iterator_facade_baseIN3dod7pointerI8particleINS3_6accessIJNS3_6memberIcLi0EEENS7_IiLi0EEENS7_IiLi1EEEEEEEEESC_NS0_27random_access_traversal_tagESC_lLb0ELb0EEC2Ev, .-_ZN5boost9iterators6detail20iterator_facade_baseIN3dod7pointerI8particleINS3_6accessIJNS3_6memberIcLi0EEENS7_IiLi0EEENS7_IiLi1EEEEEEEEESC_NS0_27random_access_traversal_tagESC_lLb0ELb0EEC2Ev
	.weak	_ZN5boost9iterators6detail20iterator_facade_baseIN3dod7pointerI8particleINS3_6accessIINS3_6memberIcLi0EEENS7_IiLi0EEENS7_IiLi1EEEEEEEEESC_NS0_27random_access_traversal_tagESC_lLb0ELb0EEC2Ev
	.set	_ZN5boost9iterators6detail20iterator_facade_baseIN3dod7pointerI8particleINS3_6accessIINS3_6memberIcLi0EEENS7_IiLi0EEENS7_IiLi1EEEEEEEEESC_NS0_27random_access_traversal_tagESC_lLb0ELb0EEC2Ev,_ZN5boost9iterators6detail20iterator_facade_baseIN3dod7pointerI8particleINS3_6accessIJNS3_6memberIcLi0EEENS7_IiLi0EEENS7_IiLi1EEEEEEEEESC_NS0_27random_access_traversal_tagESC_lLb0ELb0EEC2Ev
	.weak	_ZN5boost9iterators6detail20iterator_facade_baseIN3dod7pointerI8particleINS3_6accessIJNS3_6memberIcLi0EEENS7_IiLi0EEENS7_IiLi1EEEEEEEEESC_NS0_27random_access_traversal_tagESC_lLb0ELb0EEC1Ev
	.set	_ZN5boost9iterators6detail20iterator_facade_baseIN3dod7pointerI8particleINS3_6accessIJNS3_6memberIcLi0EEENS7_IiLi0EEENS7_IiLi1EEEEEEEEESC_NS0_27random_access_traversal_tagESC_lLb0ELb0EEC1Ev,_ZN5boost9iterators6detail20iterator_facade_baseIN3dod7pointerI8particleINS3_6accessIJNS3_6memberIcLi0EEENS7_IiLi0EEENS7_IiLi1EEEEEEEEESC_NS0_27random_access_traversal_tagESC_lLb0ELb0EEC2Ev
	.weak	_ZN5boost9iterators6detail20iterator_facade_baseIN3dod7pointerI8particleINS3_6accessIINS3_6memberIcLi0EEENS7_IiLi0EEENS7_IiLi1EEEEEEEEESC_NS0_27random_access_traversal_tagESC_lLb0ELb0EEC1Ev
	.set	_ZN5boost9iterators6detail20iterator_facade_baseIN3dod7pointerI8particleINS3_6accessIINS3_6memberIcLi0EEENS7_IiLi0EEENS7_IiLi1EEEEEEEEESC_NS0_27random_access_traversal_tagESC_lLb0ELb0EEC1Ev,_ZN5boost9iterators6detail20iterator_facade_baseIN3dod7pointerI8particleINS3_6accessIJNS3_6memberIcLi0EEENS7_IiLi0EEENS7_IiLi1EEEEEEEEESC_NS0_27random_access_traversal_tagESC_lLb0ELb0EEC1Ev
	.section	.text._ZN5boost9iterators6detail20iterator_facade_baseIN3dod7pointerI8particleINS3_6accessIJNS3_6memberIcLi0EEENS7_IiLi0EEENS7_IiLi1EEEEEEEEESC_NS0_27random_access_traversal_tagESC_lLb1ELb0EEC2Ev,"axG",@progbits,_ZN5boost9iterators6detail20iterator_facade_baseIN3dod7pointerI8particleINS3_6accessIJNS3_6memberIcLi0EEENS7_IiLi0EEENS7_IiLi1EEEEEEEEESC_NS0_27random_access_traversal_tagESC_lLb1ELb0EEC5Ev,comdat
	.align 2
	.weak	_ZN5boost9iterators6detail20iterator_facade_baseIN3dod7pointerI8particleINS3_6accessIJNS3_6memberIcLi0EEENS7_IiLi0EEENS7_IiLi1EEEEEEEEESC_NS0_27random_access_traversal_tagESC_lLb1ELb0EEC2Ev
	.type	_ZN5boost9iterators6detail20iterator_facade_baseIN3dod7pointerI8particleINS3_6accessIJNS3_6memberIcLi0EEENS7_IiLi0EEENS7_IiLi1EEEEEEEEESC_NS0_27random_access_traversal_tagESC_lLb1ELb0EEC2Ev, @function
_ZN5boost9iterators6detail20iterator_facade_baseIN3dod7pointerI8particleINS3_6accessIJNS3_6memberIcLi0EEENS7_IiLi0EEENS7_IiLi1EEEEEEEEESC_NS0_27random_access_traversal_tagESC_lLb1ELb0EEC2Ev:
.LFB7286:
	.loc 8 683 0
	.cfi_startproc
	pushq	%rbp
	.cfi_def_cfa_offset 16
	.cfi_offset 6, -16
	movq	%rsp, %rbp
	.cfi_def_cfa_register 6
	subq	$16, %rsp
	movq	%rdi, -8(%rbp)
.LBB72:
	.loc 8 683 0
	movq	-8(%rbp), %rax
	movq	%rax, %rdi
	call	_ZN5boost9iterators6detail20iterator_facade_baseIN3dod7pointerI8particleINS3_6accessIJNS3_6memberIcLi0EEENS7_IiLi0EEENS7_IiLi1EEEEEEEEESC_NS0_27random_access_traversal_tagESC_lLb0ELb0EEC2Ev
.LBE72:
	nop
	leave
	.cfi_def_cfa 7, 8
	ret
	.cfi_endproc
.LFE7286:
	.size	_ZN5boost9iterators6detail20iterator_facade_baseIN3dod7pointerI8particleINS3_6accessIJNS3_6memberIcLi0EEENS7_IiLi0EEENS7_IiLi1EEEEEEEEESC_NS0_27random_access_traversal_tagESC_lLb1ELb0EEC2Ev, .-_ZN5boost9iterators6detail20iterator_facade_baseIN3dod7pointerI8particleINS3_6accessIJNS3_6memberIcLi0EEENS7_IiLi0EEENS7_IiLi1EEEEEEEEESC_NS0_27random_access_traversal_tagESC_lLb1ELb0EEC2Ev
	.weak	_ZN5boost9iterators6detail20iterator_facade_baseIN3dod7pointerI8particleINS3_6accessIINS3_6memberIcLi0EEENS7_IiLi0EEENS7_IiLi1EEEEEEEEESC_NS0_27random_access_traversal_tagESC_lLb1ELb0EEC2Ev
	.set	_ZN5boost9iterators6detail20iterator_facade_baseIN3dod7pointerI8particleINS3_6accessIINS3_6memberIcLi0EEENS7_IiLi0EEENS7_IiLi1EEEEEEEEESC_NS0_27random_access_traversal_tagESC_lLb1ELb0EEC2Ev,_ZN5boost9iterators6detail20iterator_facade_baseIN3dod7pointerI8particleINS3_6accessIJNS3_6memberIcLi0EEENS7_IiLi0EEENS7_IiLi1EEEEEEEEESC_NS0_27random_access_traversal_tagESC_lLb1ELb0EEC2Ev
	.weak	_ZN5boost9iterators6detail20iterator_facade_baseIN3dod7pointerI8particleINS3_6accessIJNS3_6memberIcLi0EEENS7_IiLi0EEENS7_IiLi1EEEEEEEEESC_NS0_27random_access_traversal_tagESC_lLb1ELb0EEC1Ev
	.set	_ZN5boost9iterators6detail20iterator_facade_baseIN3dod7pointerI8particleINS3_6accessIJNS3_6memberIcLi0EEENS7_IiLi0EEENS7_IiLi1EEEEEEEEESC_NS0_27random_access_traversal_tagESC_lLb1ELb0EEC1Ev,_ZN5boost9iterators6detail20iterator_facade_baseIN3dod7pointerI8particleINS3_6accessIJNS3_6memberIcLi0EEENS7_IiLi0EEENS7_IiLi1EEEEEEEEESC_NS0_27random_access_traversal_tagESC_lLb1ELb0EEC2Ev
	.weak	_ZN5boost9iterators6detail20iterator_facade_baseIN3dod7pointerI8particleINS3_6accessIINS3_6memberIcLi0EEENS7_IiLi0EEENS7_IiLi1EEEEEEEEESC_NS0_27random_access_traversal_tagESC_lLb1ELb0EEC1Ev
	.set	_ZN5boost9iterators6detail20iterator_facade_baseIN3dod7pointerI8particleINS3_6accessIINS3_6memberIcLi0EEENS7_IiLi0EEENS7_IiLi1EEEEEEEEESC_NS0_27random_access_traversal_tagESC_lLb1ELb0EEC1Ev,_ZN5boost9iterators6detail20iterator_facade_baseIN3dod7pointerI8particleINS3_6accessIJNS3_6memberIcLi0EEENS7_IiLi0EEENS7_IiLi1EEEEEEEEESC_NS0_27random_access_traversal_tagESC_lLb1ELb0EEC1Ev
	.section	.text._ZN5boost9iterators6detail20iterator_facade_baseIN3dod7pointerI8particleINS3_6accessIJNS3_6memberIcLi0EEENS7_IiLi0EEENS7_IiLi1EEEEEEEEESC_NS0_27random_access_traversal_tagESC_lLb1ELb1EEC2Ev,"axG",@progbits,_ZN5boost9iterators6detail20iterator_facade_baseIN3dod7pointerI8particleINS3_6accessIJNS3_6memberIcLi0EEENS7_IiLi0EEENS7_IiLi1EEEEEEEEESC_NS0_27random_access_traversal_tagESC_lLb1ELb1EEC5Ev,comdat
	.align 2
	.weak	_ZN5boost9iterators6detail20iterator_facade_baseIN3dod7pointerI8particleINS3_6accessIJNS3_6memberIcLi0EEENS7_IiLi0EEENS7_IiLi1EEEEEEEEESC_NS0_27random_access_traversal_tagESC_lLb1ELb1EEC2Ev
	.type	_ZN5boost9iterators6detail20iterator_facade_baseIN3dod7pointerI8particleINS3_6accessIJNS3_6memberIcLi0EEENS7_IiLi0EEENS7_IiLi1EEEEEEEEESC_NS0_27random_access_traversal_tagESC_lLb1ELb1EEC2Ev, @function
_ZN5boost9iterators6detail20iterator_facade_baseIN3dod7pointerI8particleINS3_6accessIJNS3_6memberIcLi0EEENS7_IiLi0EEENS7_IiLi1EEEEEEEEESC_NS0_27random_access_traversal_tagESC_lLb1ELb1EEC2Ev:
.LFB7288:
	.loc 8 709 0
	.cfi_startproc
	pushq	%rbp
	.cfi_def_cfa_offset 16
	.cfi_offset 6, -16
	movq	%rsp, %rbp
	.cfi_def_cfa_register 6
	subq	$16, %rsp
	movq	%rdi, -8(%rbp)
.LBB73:
	.loc 8 709 0
	movq	-8(%rbp), %rax
	movq	%rax, %rdi
	call	_ZN5boost9iterators6detail20iterator_facade_baseIN3dod7pointerI8particleINS3_6accessIJNS3_6memberIcLi0EEENS7_IiLi0EEENS7_IiLi1EEEEEEEEESC_NS0_27random_access_traversal_tagESC_lLb1ELb0EEC2Ev
.LBE73:
	nop
	leave
	.cfi_def_cfa 7, 8
	ret
	.cfi_endproc
.LFE7288:
	.size	_ZN5boost9iterators6detail20iterator_facade_baseIN3dod7pointerI8particleINS3_6accessIJNS3_6memberIcLi0EEENS7_IiLi0EEENS7_IiLi1EEEEEEEEESC_NS0_27random_access_traversal_tagESC_lLb1ELb1EEC2Ev, .-_ZN5boost9iterators6detail20iterator_facade_baseIN3dod7pointerI8particleINS3_6accessIJNS3_6memberIcLi0EEENS7_IiLi0EEENS7_IiLi1EEEEEEEEESC_NS0_27random_access_traversal_tagESC_lLb1ELb1EEC2Ev
	.weak	_ZN5boost9iterators6detail20iterator_facade_baseIN3dod7pointerI8particleINS3_6accessIINS3_6memberIcLi0EEENS7_IiLi0EEENS7_IiLi1EEEEEEEEESC_NS0_27random_access_traversal_tagESC_lLb1ELb1EEC2Ev
	.set	_ZN5boost9iterators6detail20iterator_facade_baseIN3dod7pointerI8particleINS3_6accessIINS3_6memberIcLi0EEENS7_IiLi0EEENS7_IiLi1EEEEEEEEESC_NS0_27random_access_traversal_tagESC_lLb1ELb1EEC2Ev,_ZN5boost9iterators6detail20iterator_facade_baseIN3dod7pointerI8particleINS3_6accessIJNS3_6memberIcLi0EEENS7_IiLi0EEENS7_IiLi1EEEEEEEEESC_NS0_27random_access_traversal_tagESC_lLb1ELb1EEC2Ev
	.weak	_ZN5boost9iterators6detail20iterator_facade_baseIN3dod7pointerI8particleINS3_6accessIJNS3_6memberIcLi0EEENS7_IiLi0EEENS7_IiLi1EEEEEEEEESC_NS0_27random_access_traversal_tagESC_lLb1ELb1EEC1Ev
	.set	_ZN5boost9iterators6detail20iterator_facade_baseIN3dod7pointerI8particleINS3_6accessIJNS3_6memberIcLi0EEENS7_IiLi0EEENS7_IiLi1EEEEEEEEESC_NS0_27random_access_traversal_tagESC_lLb1ELb1EEC1Ev,_ZN5boost9iterators6detail20iterator_facade_baseIN3dod7pointerI8particleINS3_6accessIJNS3_6memberIcLi0EEENS7_IiLi0EEENS7_IiLi1EEEEEEEEESC_NS0_27random_access_traversal_tagESC_lLb1ELb1EEC2Ev
	.weak	_ZN5boost9iterators6detail20iterator_facade_baseIN3dod7pointerI8particleINS3_6accessIINS3_6memberIcLi0EEENS7_IiLi0EEENS7_IiLi1EEEEEEEEESC_NS0_27random_access_traversal_tagESC_lLb1ELb1EEC1Ev
	.set	_ZN5boost9iterators6detail20iterator_facade_baseIN3dod7pointerI8particleINS3_6accessIINS3_6memberIcLi0EEENS7_IiLi0EEENS7_IiLi1EEEEEEEEESC_NS0_27random_access_traversal_tagESC_lLb1ELb1EEC1Ev,_ZN5boost9iterators6detail20iterator_facade_baseIN3dod7pointerI8particleINS3_6accessIJNS3_6memberIcLi0EEENS7_IiLi0EEENS7_IiLi1EEEEEEEEESC_NS0_27random_access_traversal_tagESC_lLb1ELb1EEC1Ev
	.section	.text._ZN5boost9iterators15iterator_facadeIN3dod7pointerI8particleINS2_6accessIJNS2_6memberIcLi0EEENS6_IiLi0EEENS6_IiLi1EEEEEEEEESB_NS0_27random_access_traversal_tagESB_lEC2Ev,"axG",@progbits,_ZN5boost9iterators15iterator_facadeIN3dod7pointerI8particleINS2_6accessIJNS2_6memberIcLi0EEENS6_IiLi0EEENS6_IiLi1EEEEEEEEESB_NS0_27random_access_traversal_tagESB_lEC5Ev,comdat
	.align 2
	.weak	_ZN5boost9iterators15iterator_facadeIN3dod7pointerI8particleINS2_6accessIJNS2_6memberIcLi0EEENS6_IiLi0EEENS6_IiLi1EEEEEEEEESB_NS0_27random_access_traversal_tagESB_lEC2Ev
	.type	_ZN5boost9iterators15iterator_facadeIN3dod7pointerI8particleINS2_6accessIJNS2_6memberIcLi0EEENS6_IiLi0EEENS6_IiLi1EEEEEEEEESB_NS0_27random_access_traversal_tagESB_lEC2Ev, @function
_ZN5boost9iterators15iterator_facadeIN3dod7pointerI8particleINS2_6accessIJNS2_6memberIcLi0EEENS6_IiLi0EEENS6_IiLi1EEEEEEEEESB_NS0_27random_access_traversal_tagESB_lEC2Ev:
.LFB7290:
	.loc 8 763 0
	.cfi_startproc
	pushq	%rbp
	.cfi_def_cfa_offset 16
	.cfi_offset 6, -16
	movq	%rsp, %rbp
	.cfi_def_cfa_register 6
	subq	$16, %rsp
	movq	%rdi, -8(%rbp)
.LBB74:
	.loc 8 763 0
	movq	-8(%rbp), %rax
	movq	%rax, %rdi
	call	_ZN5boost9iterators6detail20iterator_facade_baseIN3dod7pointerI8particleINS3_6accessIJNS3_6memberIcLi0EEENS7_IiLi0EEENS7_IiLi1EEEEEEEEESC_NS0_27random_access_traversal_tagESC_lLb1ELb1EEC2Ev
.LBE74:
	nop
	leave
	.cfi_def_cfa 7, 8
	ret
	.cfi_endproc
.LFE7290:
	.size	_ZN5boost9iterators15iterator_facadeIN3dod7pointerI8particleINS2_6accessIJNS2_6memberIcLi0EEENS6_IiLi0EEENS6_IiLi1EEEEEEEEESB_NS0_27random_access_traversal_tagESB_lEC2Ev, .-_ZN5boost9iterators15iterator_facadeIN3dod7pointerI8particleINS2_6accessIJNS2_6memberIcLi0EEENS6_IiLi0EEENS6_IiLi1EEEEEEEEESB_NS0_27random_access_traversal_tagESB_lEC2Ev
	.weak	_ZN5boost9iterators15iterator_facadeIN3dod7pointerI8particleINS2_6accessIINS2_6memberIcLi0EEENS6_IiLi0EEENS6_IiLi1EEEEEEEEESB_NS0_27random_access_traversal_tagESB_lEC2Ev
	.set	_ZN5boost9iterators15iterator_facadeIN3dod7pointerI8particleINS2_6accessIINS2_6memberIcLi0EEENS6_IiLi0EEENS6_IiLi1EEEEEEEEESB_NS0_27random_access_traversal_tagESB_lEC2Ev,_ZN5boost9iterators15iterator_facadeIN3dod7pointerI8particleINS2_6accessIJNS2_6memberIcLi0EEENS6_IiLi0EEENS6_IiLi1EEEEEEEEESB_NS0_27random_access_traversal_tagESB_lEC2Ev
	.weak	_ZN5boost9iterators15iterator_facadeIN3dod7pointerI8particleINS2_6accessIJNS2_6memberIcLi0EEENS6_IiLi0EEENS6_IiLi1EEEEEEEEESB_NS0_27random_access_traversal_tagESB_lEC1Ev
	.set	_ZN5boost9iterators15iterator_facadeIN3dod7pointerI8particleINS2_6accessIJNS2_6memberIcLi0EEENS6_IiLi0EEENS6_IiLi1EEEEEEEEESB_NS0_27random_access_traversal_tagESB_lEC1Ev,_ZN5boost9iterators15iterator_facadeIN3dod7pointerI8particleINS2_6accessIJNS2_6memberIcLi0EEENS6_IiLi0EEENS6_IiLi1EEEEEEEEESB_NS0_27random_access_traversal_tagESB_lEC2Ev
	.weak	_ZN5boost9iterators15iterator_facadeIN3dod7pointerI8particleINS2_6accessIINS2_6memberIcLi0EEENS6_IiLi0EEENS6_IiLi1EEEEEEEEESB_NS0_27random_access_traversal_tagESB_lEC1Ev
	.set	_ZN5boost9iterators15iterator_facadeIN3dod7pointerI8particleINS2_6accessIINS2_6memberIcLi0EEENS6_IiLi0EEENS6_IiLi1EEEEEEEEESB_NS0_27random_access_traversal_tagESB_lEC1Ev,_ZN5boost9iterators15iterator_facadeIN3dod7pointerI8particleINS2_6accessIJNS2_6memberIcLi0EEENS6_IiLi0EEENS6_IiLi1EEEEEEEEESB_NS0_27random_access_traversal_tagESB_lEC1Ev
	.section	.text._ZN3dod7pointerI8particleINS_6accessIJNS_6memberIcLi0EEENS3_IiLi0EEENS3_IiLi1EEEEEEEEC2ERKS7_,"axG",@progbits,_ZN3dod7pointerI8particleINS_6accessIJNS_6memberIcLi0EEENS3_IiLi0EEENS3_IiLi1EEEEEEEEC5ERKS7_,comdat
	.align 2
	.weak	_ZN3dod7pointerI8particleINS_6accessIJNS_6memberIcLi0EEENS3_IiLi0EEENS3_IiLi1EEEEEEEEC2ERKS7_
	.type	_ZN3dod7pointerI8particleINS_6accessIJNS_6memberIcLi0EEENS3_IiLi0EEENS3_IiLi1EEEEEEEEC2ERKS7_, @function
_ZN3dod7pointerI8particleINS_6accessIJNS_6memberIcLi0EEENS3_IiLi0EEENS3_IiLi1EEEEEEEEC2ERKS7_:
.LFB7292:
	.loc 5 128 0
	.cfi_startproc
	pushq	%rbp
	.cfi_def_cfa_offset 16
	.cfi_offset 6, -16
	movq	%rsp, %rbp
	.cfi_def_cfa_register 6
	subq	$16, %rsp
	movq	%rdi, -8(%rbp)
	movq	%rsi, -16(%rbp)
.LBB75:
	.loc 5 128 0
	movq	-8(%rbp), %rax
	movq	%rax, %rdi
	call	_ZN5boost9iterators15iterator_facadeIN3dod7pointerI8particleINS2_6accessIJNS2_6memberIcLi0EEENS6_IiLi0EEENS6_IiLi1EEEEEEEEESB_NS0_27random_access_traversal_tagESB_lEC2Ev
	movq	-8(%rbp), %rax
	movq	-16(%rbp), %rdx
	movq	(%rdx), %rcx
	movq	%rcx, (%rax)
	movq	8(%rdx), %rcx
	movq	%rcx, 8(%rax)
	movq	16(%rdx), %rcx
	movq	%rcx, 16(%rax)
	movq	24(%rdx), %rdx
	movq	%rdx, 24(%rax)
.LBE75:
	nop
	leave
	.cfi_def_cfa 7, 8
	ret
	.cfi_endproc
.LFE7292:
	.size	_ZN3dod7pointerI8particleINS_6accessIJNS_6memberIcLi0EEENS3_IiLi0EEENS3_IiLi1EEEEEEEEC2ERKS7_, .-_ZN3dod7pointerI8particleINS_6accessIJNS_6memberIcLi0EEENS3_IiLi0EEENS3_IiLi1EEEEEEEEC2ERKS7_
	.weak	_ZN3dod7pointerI8particleINS_6accessIINS_6memberIcLi0EEENS3_IiLi0EEENS3_IiLi1EEEEEEEEC2ERKS7_
	.set	_ZN3dod7pointerI8particleINS_6accessIINS_6memberIcLi0EEENS3_IiLi0EEENS3_IiLi1EEEEEEEEC2ERKS7_,_ZN3dod7pointerI8particleINS_6accessIJNS_6memberIcLi0EEENS3_IiLi0EEENS3_IiLi1EEEEEEEEC2ERKS7_
	.weak	_ZN3dod7pointerI8particleINS_6accessIJNS_6memberIcLi0EEENS3_IiLi0EEENS3_IiLi1EEEEEEEEC1ERKS7_
	.set	_ZN3dod7pointerI8particleINS_6accessIJNS_6memberIcLi0EEENS3_IiLi0EEENS3_IiLi1EEEEEEEEC1ERKS7_,_ZN3dod7pointerI8particleINS_6accessIJNS_6memberIcLi0EEENS3_IiLi0EEENS3_IiLi1EEEEEEEEC2ERKS7_
	.weak	_ZN3dod7pointerI8particleINS_6accessIINS_6memberIcLi0EEENS3_IiLi0EEENS3_IiLi1EEEEEEEEC1ERKS7_
	.set	_ZN3dod7pointerI8particleINS_6accessIINS_6memberIcLi0EEENS3_IiLi0EEENS3_IiLi1EEEEEEEEC1ERKS7_,_ZN3dod7pointerI8particleINS_6accessIJNS_6memberIcLi0EEENS3_IiLi0EEENS3_IiLi1EEEEEEEEC1ERKS7_
	.section	.text._ZN5boost9iterators6detail20iterator_facade_baseIN3dod7pointerI8particleINS3_6accessIJNS3_6memberIcLi0EEENS7_IiLi0EEENS7_IiLi1EEEEEEEEESC_NS0_27random_access_traversal_tagESC_lLb1ELb1EEpLEl,"axG",@progbits,_ZN5boost9iterators6detail20iterator_facade_baseIN3dod7pointerI8particleINS3_6accessIJNS3_6memberIcLi0EEENS7_IiLi0EEENS7_IiLi1EEEEEEEEESC_NS0_27random_access_traversal_tagESC_lLb1ELb1EEpLEl,comdat
	.align 2
	.weak	_ZN5boost9iterators6detail20iterator_facade_baseIN3dod7pointerI8particleINS3_6accessIJNS3_6memberIcLi0EEENS7_IiLi0EEENS7_IiLi1EEEEEEEEESC_NS0_27random_access_traversal_tagESC_lLb1ELb1EEpLEl
	.type	_ZN5boost9iterators6detail20iterator_facade_baseIN3dod7pointerI8particleINS3_6accessIJNS3_6memberIcLi0EEENS7_IiLi0EEENS7_IiLi1EEEEEEEEESC_NS0_27random_access_traversal_tagESC_lLb1ELb1EEpLEl, @function
_ZN5boost9iterators6detail20iterator_facade_baseIN3dod7pointerI8particleINS3_6accessIJNS3_6memberIcLi0EEENS7_IiLi0EEENS7_IiLi1EEEEEEEEESC_NS0_27random_access_traversal_tagESC_lLb1ELb1EEpLEl:
.LFB7294:
	.loc 8 731 0
	.cfi_startproc
	pushq	%rbp
	.cfi_def_cfa_offset 16
	.cfi_offset 6, -16
	movq	%rsp, %rbp
	.cfi_def_cfa_register 6
	subq	$16, %rsp
	movq	%rdi, -8(%rbp)
	movq	%rsi, -16(%rbp)
	.loc 8 733 0
	movq	-8(%rbp), %rax
	movq	%rax, %rdi
	call	_ZN5boost9iterators6detail20iterator_facade_baseIN3dod7pointerI8particleINS3_6accessIJNS3_6memberIcLi0EEENS7_IiLi0EEENS7_IiLi1EEEEEEEEESC_NS0_27random_access_traversal_tagESC_lLb0ELb0EE7derivedEv
	movq	%rax, %rdx
	movq	-16(%rbp), %rax
	movq	%rax, %rsi
	movq	%rdx, %rdi
	call	_ZN5boost9iterators20iterator_core_access7advanceIN3dod7pointerI8particleINS3_6accessIJNS3_6memberIcLi0EEENS7_IiLi0EEENS7_IiLi1EEEEEEEEEEEvRT_NSE_15difference_typeE
	.loc 8 734 0
	movq	-8(%rbp), %rax
	movq	%rax, %rdi
	call	_ZN5boost9iterators6detail20iterator_facade_baseIN3dod7pointerI8particleINS3_6accessIJNS3_6memberIcLi0EEENS7_IiLi0EEENS7_IiLi1EEEEEEEEESC_NS0_27random_access_traversal_tagESC_lLb0ELb0EE7derivedEv
	.loc 8 735 0
	leave
	.cfi_def_cfa 7, 8
	ret
	.cfi_endproc
.LFE7294:
	.size	_ZN5boost9iterators6detail20iterator_facade_baseIN3dod7pointerI8particleINS3_6accessIJNS3_6memberIcLi0EEENS7_IiLi0EEENS7_IiLi1EEEEEEEEESC_NS0_27random_access_traversal_tagESC_lLb1ELb1EEpLEl, .-_ZN5boost9iterators6detail20iterator_facade_baseIN3dod7pointerI8particleINS3_6accessIJNS3_6memberIcLi0EEENS7_IiLi0EEENS7_IiLi1EEEEEEEEESC_NS0_27random_access_traversal_tagESC_lLb1ELb1EEpLEl
	.weak	_ZN5boost9iterators6detail20iterator_facade_baseIN3dod7pointerI8particleINS3_6accessIINS3_6memberIcLi0EEENS7_IiLi0EEENS7_IiLi1EEEEEEEEESC_NS0_27random_access_traversal_tagESC_lLb1ELb1EEpLEl
	.set	_ZN5boost9iterators6detail20iterator_facade_baseIN3dod7pointerI8particleINS3_6accessIINS3_6memberIcLi0EEENS7_IiLi0EEENS7_IiLi1EEEEEEEEESC_NS0_27random_access_traversal_tagESC_lLb1ELb1EEpLEl,_ZN5boost9iterators6detail20iterator_facade_baseIN3dod7pointerI8particleINS3_6accessIJNS3_6memberIcLi0EEENS7_IiLi0EEENS7_IiLi1EEEEEEEEESC_NS0_27random_access_traversal_tagESC_lLb1ELb1EEpLEl
	.section	.text._ZN9__gnu_cxxneIP14plain_particleSt6vectorIS1_SaIS1_EEEEbRKNS_17__normal_iteratorIT_T0_EESB_,"axG",@progbits,_ZN9__gnu_cxxneIP14plain_particleSt6vectorIS1_SaIS1_EEEEbRKNS_17__normal_iteratorIT_T0_EESB_,comdat
	.weak	_ZN9__gnu_cxxneIP14plain_particleSt6vectorIS1_SaIS1_EEEEbRKNS_17__normal_iteratorIT_T0_EESB_
	.type	_ZN9__gnu_cxxneIP14plain_particleSt6vectorIS1_SaIS1_EEEEbRKNS_17__normal_iteratorIT_T0_EESB_, @function
_ZN9__gnu_cxxneIP14plain_particleSt6vectorIS1_SaIS1_EEEEbRKNS_17__normal_iteratorIT_T0_EESB_:
.LFB7295:
	.loc 12 841 0
	.cfi_startproc
	pushq	%rbp
	.cfi_def_cfa_offset 16
	.cfi_offset 6, -16
	movq	%rsp, %rbp
	.cfi_def_cfa_register 6
	pushq	%rbx
	subq	$24, %rsp
	.cfi_offset 3, -24
	movq	%rdi, -24(%rbp)
	movq	%rsi, -32(%rbp)
	.loc 12 844 0
	movq	-24(%rbp), %rax
	movq	%rax, %rdi
	call	_ZNK9__gnu_cxx17__normal_iteratorIP14plain_particleSt6vectorIS1_SaIS1_EEE4baseEv
	movq	(%rax), %rbx
	movq	-32(%rbp), %rax
	movq	%rax, %rdi
	call	_ZNK9__gnu_cxx17__normal_iteratorIP14plain_particleSt6vectorIS1_SaIS1_EEE4baseEv
	movq	(%rax), %rax
	cmpq	%rax, %rbx
	setne	%al
	addq	$24, %rsp
	popq	%rbx
	popq	%rbp
	.cfi_def_cfa 7, 8
	ret
	.cfi_endproc
.LFE7295:
	.size	_ZN9__gnu_cxxneIP14plain_particleSt6vectorIS1_SaIS1_EEEEbRKNS_17__normal_iteratorIT_T0_EESB_, .-_ZN9__gnu_cxxneIP14plain_particleSt6vectorIS1_SaIS1_EEEEbRKNS_17__normal_iteratorIT_T0_EESB_
	.section	.text._ZNK9__gnu_cxx17__normal_iteratorIP14plain_particleSt6vectorIS1_SaIS1_EEEptEv,"axG",@progbits,_ZNK9__gnu_cxx17__normal_iteratorIP14plain_particleSt6vectorIS1_SaIS1_EEEptEv,comdat
	.align 2
	.weak	_ZNK9__gnu_cxx17__normal_iteratorIP14plain_particleSt6vectorIS1_SaIS1_EEEptEv
	.type	_ZNK9__gnu_cxx17__normal_iteratorIP14plain_particleSt6vectorIS1_SaIS1_EEEptEv, @function
_ZNK9__gnu_cxx17__normal_iteratorIP14plain_particleSt6vectorIS1_SaIS1_EEEptEv:
.LFB7296:
	.loc 12 757 0
	.cfi_startproc
	pushq	%rbp
	.cfi_def_cfa_offset 16
	.cfi_offset 6, -16
	movq	%rsp, %rbp
	.cfi_def_cfa_register 6
	movq	%rdi, -8(%rbp)
	.loc 12 758 0
	movq	-8(%rbp), %rax
	movq	(%rax), %rax
	popq	%rbp
	.cfi_def_cfa 7, 8
	ret
	.cfi_endproc
.LFE7296:
	.size	_ZNK9__gnu_cxx17__normal_iteratorIP14plain_particleSt6vectorIS1_SaIS1_EEEptEv, .-_ZNK9__gnu_cxx17__normal_iteratorIP14plain_particleSt6vectorIS1_SaIS1_EEEptEv
	.section	.text._ZN9__gnu_cxx17__normal_iteratorIP14plain_particleSt6vectorIS1_SaIS1_EEEppEv,"axG",@progbits,_ZN9__gnu_cxx17__normal_iteratorIP14plain_particleSt6vectorIS1_SaIS1_EEEppEv,comdat
	.align 2
	.weak	_ZN9__gnu_cxx17__normal_iteratorIP14plain_particleSt6vectorIS1_SaIS1_EEEppEv
	.type	_ZN9__gnu_cxx17__normal_iteratorIP14plain_particleSt6vectorIS1_SaIS1_EEEppEv, @function
_ZN9__gnu_cxx17__normal_iteratorIP14plain_particleSt6vectorIS1_SaIS1_EEEppEv:
.LFB7297:
	.loc 12 761 0
	.cfi_startproc
	pushq	%rbp
	.cfi_def_cfa_offset 16
	.cfi_offset 6, -16
	movq	%rsp, %rbp
	.cfi_def_cfa_register 6
	movq	%rdi, -8(%rbp)
	.loc 12 763 0
	movq	-8(%rbp), %rax
	movq	(%rax), %rax
	leaq	20(%rax), %rdx
	movq	-8(%rbp), %rax
	movq	%rdx, (%rax)
	.loc 12 764 0
	movq	-8(%rbp), %rax
	.loc 12 765 0
	popq	%rbp
	.cfi_def_cfa 7, 8
	ret
	.cfi_endproc
.LFE7297:
	.size	_ZN9__gnu_cxx17__normal_iteratorIP14plain_particleSt6vectorIS1_SaIS1_EEEppEv, .-_ZN9__gnu_cxx17__normal_iteratorIP14plain_particleSt6vectorIS1_SaIS1_EEEppEv
	.section	.text._ZNKSt6chrono8durationIlSt5ratioILl1ELl1000EEE5countEv,"axG",@progbits,_ZNKSt6chrono8durationIlSt5ratioILl1ELl1000EEE5countEv,comdat
	.align 2
	.weak	_ZNKSt6chrono8durationIlSt5ratioILl1ELl1000EEE5countEv
	.type	_ZNKSt6chrono8durationIlSt5ratioILl1ELl1000EEE5countEv, @function
_ZNKSt6chrono8durationIlSt5ratioILl1ELl1000EEE5countEv:
.LFB7306:
	.loc 4 278 0
	.cfi_startproc
	pushq	%rbp
	.cfi_def_cfa_offset 16
	.cfi_offset 6, -16
	movq	%rsp, %rbp
	.cfi_def_cfa_register 6
	movq	%rdi, -8(%rbp)
	.loc 4 279 0
	movq	-8(%rbp), %rax
	movq	(%rax), %rax
	popq	%rbp
	.cfi_def_cfa 7, 8
	ret
	.cfi_endproc
.LFE7306:
	.size	_ZNKSt6chrono8durationIlSt5ratioILl1ELl1000EEE5countEv, .-_ZNKSt6chrono8durationIlSt5ratioILl1ELl1000EEE5countEv
	.section	.text._ZNSt6chrono20__duration_cast_implINS_8durationIlSt5ratioILl1ELl1000000000EEEES2_ILl1000000ELl1EElLb0ELb1EE6__castIlS2_ILl1ELl1000EEEES4_RKNS1_IT_T0_EE,"axG",@progbits,_ZNSt6chrono20__duration_cast_implINS_8durationIlSt5ratioILl1ELl1000000000EEEES2_ILl1000000ELl1EElLb0ELb1EE6__castIlS2_ILl1ELl1000EEEES4_RKNS1_IT_T0_EE,comdat
	.weak	_ZNSt6chrono20__duration_cast_implINS_8durationIlSt5ratioILl1ELl1000000000EEEES2_ILl1000000ELl1EElLb0ELb1EE6__castIlS2_ILl1ELl1000EEEES4_RKNS1_IT_T0_EE
	.type	_ZNSt6chrono20__duration_cast_implINS_8durationIlSt5ratioILl1ELl1000000000EEEES2_ILl1000000ELl1EElLb0ELb1EE6__castIlS2_ILl1ELl1000EEEES4_RKNS1_IT_T0_EE, @function
_ZNSt6chrono20__duration_cast_implINS_8durationIlSt5ratioILl1ELl1000000000EEEES2_ILl1000000ELl1EElLb0ELb1EE6__castIlS2_ILl1ELl1000EEEES4_RKNS1_IT_T0_EE:
.LFB7305:
	.loc 4 172 0
	.cfi_startproc
	pushq	%rbp
	.cfi_def_cfa_offset 16
	.cfi_offset 6, -16
	movq	%rsp, %rbp
	.cfi_def_cfa_register 6
	subq	$32, %rsp
	movq	%rdi, -24(%rbp)
	.loc 4 176 0
	movq	-24(%rbp), %rax
	movq	%rax, %rdi
	call	_ZNKSt6chrono8durationIlSt5ratioILl1ELl1000EEE5countEv
	imulq	$1000000, %rax, %rax
	movq	%rax, -8(%rbp)
	leaq	-8(%rbp), %rdx
	leaq	-16(%rbp), %rax
	movq	%rdx, %rsi
	movq	%rax, %rdi
	call	_ZNSt6chrono8durationIlSt5ratioILl1ELl1000000000EEEC1IlvEERKT_
	movq	-16(%rbp), %rax
	.loc 4 177 0
	leave
	.cfi_def_cfa 7, 8
	ret
	.cfi_endproc
.LFE7305:
	.size	_ZNSt6chrono20__duration_cast_implINS_8durationIlSt5ratioILl1ELl1000000000EEEES2_ILl1000000ELl1EElLb0ELb1EE6__castIlS2_ILl1ELl1000EEEES4_RKNS1_IT_T0_EE, .-_ZNSt6chrono20__duration_cast_implINS_8durationIlSt5ratioILl1ELl1000000000EEEES2_ILl1000000ELl1EElLb0ELb1EE6__castIlS2_ILl1ELl1000EEEES4_RKNS1_IT_T0_EE
	.section	.text._ZNSt6chrono13duration_castINS_8durationIlSt5ratioILl1ELl1000000000EEEElS2_ILl1ELl1000EEEENSt9enable_ifIXsrNS_13__is_durationIT_EE5valueES8_E4typeERKNS1_IT0_T1_EE,"axG",@progbits,_ZNSt6chrono13duration_castINS_8durationIlSt5ratioILl1ELl1000000000EEEElS2_ILl1ELl1000EEEENSt9enable_ifIXsrNS_13__is_durationIT_EE5valueES8_E4typeERKNS1_IT0_T1_EE,comdat
	.weak	_ZNSt6chrono13duration_castINS_8durationIlSt5ratioILl1ELl1000000000EEEElS2_ILl1ELl1000EEEENSt9enable_ifIXsrNS_13__is_durationIT_EE5valueES8_E4typeERKNS1_IT0_T1_EE
	.type	_ZNSt6chrono13duration_castINS_8durationIlSt5ratioILl1ELl1000000000EEEElS2_ILl1ELl1000EEEENSt9enable_ifIXsrNS_13__is_durationIT_EE5valueES8_E4typeERKNS1_IT0_T1_EE, @function
_ZNSt6chrono13duration_castINS_8durationIlSt5ratioILl1ELl1000000000EEEElS2_ILl1ELl1000EEEENSt9enable_ifIXsrNS_13__is_durationIT_EE5valueES8_E4typeERKNS1_IT0_T1_EE:
.LFB7304:
	.loc 4 194 0
	.cfi_startproc
	pushq	%rbp
	.cfi_def_cfa_offset 16
	.cfi_offset 6, -16
	movq	%rsp, %rbp
	.cfi_def_cfa_register 6
	subq	$16, %rsp
	movq	%rdi, -8(%rbp)
	.loc 4 203 0
	movq	-8(%rbp), %rax
	movq	%rax, %rdi
	call	_ZNSt6chrono20__duration_cast_implINS_8durationIlSt5ratioILl1ELl1000000000EEEES2_ILl1000000ELl1EElLb0ELb1EE6__castIlS2_ILl1ELl1000EEEES4_RKNS1_IT_T0_EE
	.loc 4 204 0
	leave
	.cfi_def_cfa 7, 8
	ret
	.cfi_endproc
.LFE7304:
	.size	_ZNSt6chrono13duration_castINS_8durationIlSt5ratioILl1ELl1000000000EEEElS2_ILl1ELl1000EEEENSt9enable_ifIXsrNS_13__is_durationIT_EE5valueES8_E4typeERKNS1_IT0_T1_EE, .-_ZNSt6chrono13duration_castINS_8durationIlSt5ratioILl1ELl1000000000EEEElS2_ILl1ELl1000EEEENSt9enable_ifIXsrNS_13__is_durationIT_EE5valueES8_E4typeERKNS1_IT0_T1_EE
	.section	.text._ZNSt6chrono8durationIlSt5ratioILl1ELl1000000000EEEC2IlS1_ILl1ELl1000EEvEERKNS0_IT_T0_EE,"axG",@progbits,_ZNSt6chrono8durationIlSt5ratioILl1ELl1000000000EEEC5IlS1_ILl1ELl1000EEvEERKNS0_IT_T0_EE,comdat
	.align 2
	.weak	_ZNSt6chrono8durationIlSt5ratioILl1ELl1000000000EEEC2IlS1_ILl1ELl1000EEvEERKNS0_IT_T0_EE
	.type	_ZNSt6chrono8durationIlSt5ratioILl1ELl1000000000EEEC2IlS1_ILl1ELl1000EEvEERKNS0_IT_T0_EE, @function
_ZNSt6chrono8durationIlSt5ratioILl1ELl1000000000EEEC2IlS1_ILl1ELl1000EEvEERKNS0_IT_T0_EE:
.LFB7307:
	.loc 4 270 0
	.cfi_startproc
	pushq	%rbp
	.cfi_def_cfa_offset 16
	.cfi_offset 6, -16
	movq	%rsp, %rbp
	.cfi_def_cfa_register 6
	subq	$32, %rsp
	movq	%rdi, -24(%rbp)
	movq	%rsi, -32(%rbp)
.LBB76:
	.loc 4 271 0
	movq	-32(%rbp), %rax
	movq	%rax, %rdi
	call	_ZNSt6chrono13duration_castINS_8durationIlSt5ratioILl1ELl1000000000EEEElS2_ILl1ELl1000EEEENSt9enable_ifIXsrNS_13__is_durationIT_EE5valueES8_E4typeERKNS1_IT0_T1_EE
	movq	%rax, -16(%rbp)
	leaq	-16(%rbp), %rax
	movq	%rax, %rdi
	call	_ZNKSt6chrono8durationIlSt5ratioILl1ELl1000000000EEE5countEv
	movq	%rax, %rdx
	movq	-24(%rbp), %rax
	movq	%rdx, (%rax)
.LBE76:
	nop
	leave
	.cfi_def_cfa 7, 8
	ret
	.cfi_endproc
.LFE7307:
	.size	_ZNSt6chrono8durationIlSt5ratioILl1ELl1000000000EEEC2IlS1_ILl1ELl1000EEvEERKNS0_IT_T0_EE, .-_ZNSt6chrono8durationIlSt5ratioILl1ELl1000000000EEEC2IlS1_ILl1ELl1000EEvEERKNS0_IT_T0_EE
	.weak	_ZNSt6chrono8durationIlSt5ratioILl1ELl1000000000EEEC1IlS1_ILl1ELl1000EEvEERKNS0_IT_T0_EE
	.set	_ZNSt6chrono8durationIlSt5ratioILl1ELl1000000000EEEC1IlS1_ILl1ELl1000EEvEERKNS0_IT_T0_EE,_ZNSt6chrono8durationIlSt5ratioILl1ELl1000000000EEEC2IlS1_ILl1ELl1000EEvEERKNS0_IT_T0_EE
	.section	.text._ZNSt6chronoltIlSt5ratioILl1ELl1000000000EElS1_ILl1ELl1000EEEEbRKNS_8durationIT_T0_EERKNS4_IT1_T2_EE,"axG",@progbits,_ZNSt6chronoltIlSt5ratioILl1ELl1000000000EElS1_ILl1ELl1000EEEEbRKNS_8durationIT_T0_EERKNS4_IT1_T2_EE,comdat
	.weak	_ZNSt6chronoltIlSt5ratioILl1ELl1000000000EElS1_ILl1ELl1000EEEEbRKNS_8durationIT_T0_EERKNS4_IT1_T2_EE
	.type	_ZNSt6chronoltIlSt5ratioILl1ELl1000000000EElS1_ILl1ELl1000EEEEbRKNS_8durationIT_T0_EERKNS4_IT1_T2_EE, @function
_ZNSt6chronoltIlSt5ratioILl1ELl1000000000EElS1_ILl1ELl1000EEEEbRKNS_8durationIT_T0_EERKNS4_IT1_T2_EE:
.LFB7302:
	.loc 4 489 0
	.cfi_startproc
	pushq	%rbp
	.cfi_def_cfa_offset 16
	.cfi_offset 6, -16
	movq	%rsp, %rbp
	.cfi_def_cfa_register 6
	pushq	%rbx
	subq	$56, %rsp
	.cfi_offset 3, -24
	movq	%rdi, -56(%rbp)
	movq	%rsi, -64(%rbp)
	.loc 4 495 0
	movq	-56(%rbp), %rax
	movq	(%rax), %rax
	movq	%rax, -48(%rbp)
	leaq	-48(%rbp), %rax
	movq	%rax, %rdi
	call	_ZNKSt6chrono8durationIlSt5ratioILl1ELl1000000000EEE5countEv
	movq	%rax, %rbx
	movq	-64(%rbp), %rdx
	leaq	-32(%rbp), %rax
	movq	%rdx, %rsi
	movq	%rax, %rdi
	call	_ZNSt6chrono8durationIlSt5ratioILl1ELl1000000000EEEC1IlS1_ILl1ELl1000EEvEERKNS0_IT_T0_EE
	leaq	-32(%rbp), %rax
	movq	%rax, %rdi
	call	_ZNKSt6chrono8durationIlSt5ratioILl1ELl1000000000EEE5countEv
	cmpq	%rax, %rbx
	setl	%al
	.loc 4 496 0
	addq	$56, %rsp
	popq	%rbx
	popq	%rbp
	.cfi_def_cfa 7, 8
	ret
	.cfi_endproc
.LFE7302:
	.size	_ZNSt6chronoltIlSt5ratioILl1ELl1000000000EElS1_ILl1ELl1000EEEEbRKNS_8durationIT_T0_EERKNS4_IT1_T2_EE, .-_ZNSt6chronoltIlSt5ratioILl1ELl1000000000EElS1_ILl1ELl1000EEEEbRKNS_8durationIT_T0_EERKNS4_IT1_T2_EE
	.section	.text._ZNSt6chrono8durationIdSt5ratioILl1ELl1EEEC2IdvEERKT_,"axG",@progbits,_ZNSt6chrono8durationIdSt5ratioILl1ELl1EEEC5IdvEERKT_,comdat
	.align 2
	.weak	_ZNSt6chrono8durationIdSt5ratioILl1ELl1EEEC2IdvEERKT_
	.type	_ZNSt6chrono8durationIdSt5ratioILl1ELl1EEEC2IdvEERKT_, @function
_ZNSt6chrono8durationIdSt5ratioILl1ELl1EEEC2IdvEERKT_:
.LFB7312:
	.loc 4 263 0
	.cfi_startproc
	pushq	%rbp
	.cfi_def_cfa_offset 16
	.cfi_offset 6, -16
	movq	%rsp, %rbp
	.cfi_def_cfa_register 6
	movq	%rdi, -8(%rbp)
	movq	%rsi, -16(%rbp)
.LBB77:
	.loc 4 264 0
	movq	-16(%rbp), %rax
	movsd	(%rax), %xmm0
	movq	-8(%rbp), %rax
	movsd	%xmm0, (%rax)
.LBE77:
	nop
	popq	%rbp
	.cfi_def_cfa 7, 8
	ret
	.cfi_endproc
.LFE7312:
	.size	_ZNSt6chrono8durationIdSt5ratioILl1ELl1EEEC2IdvEERKT_, .-_ZNSt6chrono8durationIdSt5ratioILl1ELl1EEEC2IdvEERKT_
	.weak	_ZNSt6chrono8durationIdSt5ratioILl1ELl1EEEC1IdvEERKT_
	.set	_ZNSt6chrono8durationIdSt5ratioILl1ELl1EEEC1IdvEERKT_,_ZNSt6chrono8durationIdSt5ratioILl1ELl1EEEC2IdvEERKT_
	.section	.text._ZNSt6chrono20__duration_cast_implINS_8durationIdSt5ratioILl1ELl1EEEES2_ILl1ELl1000000000EEdLb1ELb0EE6__castIlS5_EES4_RKNS1_IT_T0_EE,"axG",@progbits,_ZNSt6chrono20__duration_cast_implINS_8durationIdSt5ratioILl1ELl1EEEES2_ILl1ELl1000000000EEdLb1ELb0EE6__castIlS5_EES4_RKNS1_IT_T0_EE,comdat
	.weak	_ZNSt6chrono20__duration_cast_implINS_8durationIdSt5ratioILl1ELl1EEEES2_ILl1ELl1000000000EEdLb1ELb0EE6__castIlS5_EES4_RKNS1_IT_T0_EE
	.type	_ZNSt6chrono20__duration_cast_implINS_8durationIdSt5ratioILl1ELl1EEEES2_ILl1ELl1000000000EEdLb1ELb0EE6__castIlS5_EES4_RKNS1_IT_T0_EE, @function
_ZNSt6chrono20__duration_cast_implINS_8durationIdSt5ratioILl1ELl1EEEES2_ILl1ELl1000000000EEdLb1ELb0EE6__castIlS5_EES4_RKNS1_IT_T0_EE:
.LFB7310:
	.loc 4 159 0
	.cfi_startproc
	pushq	%rbp
	.cfi_def_cfa_offset 16
	.cfi_offset 6, -16
	movq	%rsp, %rbp
	.cfi_def_cfa_register 6
	subq	$32, %rsp
	movq	%rdi, -24(%rbp)
	.loc 4 163 0
	movq	-24(%rbp), %rax
	movq	%rax, %rdi
	call	_ZNKSt6chrono8durationIlSt5ratioILl1ELl1000000000EEE5countEv
	pxor	%xmm0, %xmm0
	cvtsi2sdq	%rax, %xmm0
	movsd	.LC5(%rip), %xmm1
	divsd	%xmm1, %xmm0
	movsd	%xmm0, -8(%rbp)
	leaq	-8(%rbp), %rdx
	leaq	-16(%rbp), %rax
	movq	%rdx, %rsi
	movq	%rax, %rdi
	call	_ZNSt6chrono8durationIdSt5ratioILl1ELl1EEEC1IdvEERKT_
	movsd	-16(%rbp), %xmm0
	.loc 4 164 0
	leave
	.cfi_def_cfa 7, 8
	ret
	.cfi_endproc
.LFE7310:
	.size	_ZNSt6chrono20__duration_cast_implINS_8durationIdSt5ratioILl1ELl1EEEES2_ILl1ELl1000000000EEdLb1ELb0EE6__castIlS5_EES4_RKNS1_IT_T0_EE, .-_ZNSt6chrono20__duration_cast_implINS_8durationIdSt5ratioILl1ELl1EEEES2_ILl1ELl1000000000EEdLb1ELb0EE6__castIlS5_EES4_RKNS1_IT_T0_EE
	.section	.text._ZNSt6chrono13duration_castINS_8durationIdSt5ratioILl1ELl1EEEElS2_ILl1ELl1000000000EEEENSt9enable_ifIXsrNS_13__is_durationIT_EE5valueES8_E4typeERKNS1_IT0_T1_EE,"axG",@progbits,_ZNSt6chrono13duration_castINS_8durationIdSt5ratioILl1ELl1EEEElS2_ILl1ELl1000000000EEEENSt9enable_ifIXsrNS_13__is_durationIT_EE5valueES8_E4typeERKNS1_IT0_T1_EE,comdat
	.weak	_ZNSt6chrono13duration_castINS_8durationIdSt5ratioILl1ELl1EEEElS2_ILl1ELl1000000000EEEENSt9enable_ifIXsrNS_13__is_durationIT_EE5valueES8_E4typeERKNS1_IT0_T1_EE
	.type	_ZNSt6chrono13duration_castINS_8durationIdSt5ratioILl1ELl1EEEElS2_ILl1ELl1000000000EEEENSt9enable_ifIXsrNS_13__is_durationIT_EE5valueES8_E4typeERKNS1_IT0_T1_EE, @function
_ZNSt6chrono13duration_castINS_8durationIdSt5ratioILl1ELl1EEEElS2_ILl1ELl1000000000EEEENSt9enable_ifIXsrNS_13__is_durationIT_EE5valueES8_E4typeERKNS1_IT0_T1_EE:
.LFB7309:
	.loc 4 194 0
	.cfi_startproc
	pushq	%rbp
	.cfi_def_cfa_offset 16
	.cfi_offset 6, -16
	movq	%rsp, %rbp
	.cfi_def_cfa_register 6
	subq	$16, %rsp
	movq	%rdi, -8(%rbp)
	.loc 4 203 0
	movq	-8(%rbp), %rax
	movq	%rax, %rdi
	call	_ZNSt6chrono20__duration_cast_implINS_8durationIdSt5ratioILl1ELl1EEEES2_ILl1ELl1000000000EEdLb1ELb0EE6__castIlS5_EES4_RKNS1_IT_T0_EE
	movq	%xmm0, %rax
	movq	%rax, -16(%rbp)
	movsd	-16(%rbp), %xmm0
	.loc 4 204 0
	leave
	.cfi_def_cfa 7, 8
	ret
	.cfi_endproc
.LFE7309:
	.size	_ZNSt6chrono13duration_castINS_8durationIdSt5ratioILl1ELl1EEEElS2_ILl1ELl1000000000EEEENSt9enable_ifIXsrNS_13__is_durationIT_EE5valueES8_E4typeERKNS1_IT0_T1_EE, .-_ZNSt6chrono13duration_castINS_8durationIdSt5ratioILl1ELl1EEEElS2_ILl1ELl1000000000EEEENSt9enable_ifIXsrNS_13__is_durationIT_EE5valueES8_E4typeERKNS1_IT0_T1_EE
	.section	.text._ZNKSt6chrono8durationIdSt5ratioILl1ELl1EEE5countEv,"axG",@progbits,_ZNKSt6chrono8durationIdSt5ratioILl1ELl1EEE5countEv,comdat
	.align 2
	.weak	_ZNKSt6chrono8durationIdSt5ratioILl1ELl1EEE5countEv
	.type	_ZNKSt6chrono8durationIdSt5ratioILl1ELl1EEE5countEv, @function
_ZNKSt6chrono8durationIdSt5ratioILl1ELl1EEE5countEv:
.LFB7314:
	.loc 4 278 0
	.cfi_startproc
	pushq	%rbp
	.cfi_def_cfa_offset 16
	.cfi_offset 6, -16
	movq	%rsp, %rbp
	.cfi_def_cfa_register 6
	movq	%rdi, -8(%rbp)
	.loc 4 279 0
	movq	-8(%rbp), %rax
	movsd	(%rax), %xmm0
	popq	%rbp
	.cfi_def_cfa 7, 8
	ret
	.cfi_endproc
.LFE7314:
	.size	_ZNKSt6chrono8durationIdSt5ratioILl1ELl1EEE5countEv, .-_ZNKSt6chrono8durationIdSt5ratioILl1ELl1EEE5countEv
	.section	.text._ZNKSt5arrayIdLm10EE4sizeEv,"axG",@progbits,_ZNKSt5arrayIdLm10EE4sizeEv,comdat
	.align 2
	.weak	_ZNKSt5arrayIdLm10EE4sizeEv
	.type	_ZNKSt5arrayIdLm10EE4sizeEv, @function
_ZNKSt5arrayIdLm10EE4sizeEv:
.LFB7315:
	.file 13 "/usr/include/c++/5.2.0/array"
	.loc 13 170 0
	.cfi_startproc
	pushq	%rbp
	.cfi_def_cfa_offset 16
	.cfi_offset 6, -16
	movq	%rsp, %rbp
	.cfi_def_cfa_register 6
	movq	%rdi, -8(%rbp)
	.loc 13 170 0
	movl	$10, %eax
	popq	%rbp
	.cfi_def_cfa 7, 8
	ret
	.cfi_endproc
.LFE7315:
	.size	_ZNKSt5arrayIdLm10EE4sizeEv, .-_ZNKSt5arrayIdLm10EE4sizeEv
	.text
	.type	_Z7measureIZ4mainEUlvE_EdT_, @function
_Z7measureIZ4mainEUlvE_EdT_:
.LFB7298:
	.loc 5 17 0
	.cfi_startproc
	pushq	%rbp
	.cfi_def_cfa_offset 16
	.cfi_offset 6, -16
	movq	%rsp, %rbp
	.cfi_def_cfa_register 6
	pushq	%rbx
	subq	$184, %rsp
	.cfi_offset 3, -24
	movq	%rdi, %rax
	movq	%rsi, %rcx
	movq	%rcx, %rdx
	movq	%rax, -176(%rbp)
	movq	%rdx, -168(%rbp)
.LBB78:
	.loc 5 26 0
	movl	$0, -20(%rbp)
.L252:
	.loc 5 26 0 is_stmt 0 discriminator 1
	cmpl	$9, -20(%rbp)
	jg	.L249
.LBB79:
	.loc 5 27 0 is_stmt 1
	movl	$0, -24(%rbp)
	.loc 5 28 0
	movq	$0, -160(%rbp)
	.loc 5 30 0
	call	_ZNSt6chrono3_V212system_clock3nowEv
	movq	%rax, measure_start(%rip)
.L251:
	.loc 5 32 0
	leaq	-176(%rbp), %rax
	movq	%rax, %rdi
	call	_ZZ4mainENKUlvE_clEv
	movl	%eax, _ZZ7measureIZ4mainEUlvE_EdT_E3res(%rip)
	.loc 5 33 0
	addl	$1, -24(%rbp)
	.loc 5 34 0
	call	_ZNSt6chrono3_V212system_clock3nowEv
	movq	%rax, -160(%rbp)
	.loc 5 35 0
	leaq	-160(%rbp), %rax
	movl	$measure_start, %esi
	movq	%rax, %rdi
	call	_ZNSt6chronomiINS_3_V212system_clockENS_8durationIlSt5ratioILl1ELl1000000000EEEES6_EENSt11common_typeIJT0_T1_EE4typeERKNS_10time_pointIT_S8_EERKNSC_ISD_S9_EE
	movq	%rax, -64(%rbp)
	.loc 5 31 0
	leaq	-64(%rbp), %rax
	movl	$_ZZ7measureIZ4mainEUlvE_EdT_E18min_time_per_trial, %esi
	movq	%rax, %rdi
	call	_ZNSt6chronoltIlSt5ratioILl1ELl1000000000EElS1_ILl1ELl1000EEEEbRKNS_8durationIT_T0_EERKNS4_IT1_T2_EE
	testb	%al, %al
	je	.L250
	jmp	.L251
.L250:
	.loc 5 36 0 discriminator 2
	movl	-20(%rbp), %eax
	movslq	%eax, %rdx
	leaq	-144(%rbp), %rax
	movq	%rdx, %rsi
	movq	%rax, %rdi
	call	_ZNSt5arrayIdLm10EEixEm
	movq	%rax, %rbx
	leaq	-160(%rbp), %rax
	movl	$measure_start, %esi
	movq	%rax, %rdi
	call	_ZNSt6chronomiINS_3_V212system_clockENS_8durationIlSt5ratioILl1ELl1000000000EEEES6_EENSt11common_typeIJT0_T1_EE4typeERKNS_10time_pointIT_S8_EERKNSC_ISD_S9_EE
	movq	%rax, -32(%rbp)
	leaq	-32(%rbp), %rax
	movq	%rax, %rdi
	call	_ZNSt6chrono13duration_castINS_8durationIdSt5ratioILl1ELl1EEEElS2_ILl1ELl1000000000EEEENSt9enable_ifIXsrNS_13__is_durationIT_EE5valueES8_E4typeERKNS1_IT0_T1_EE
	movq	%xmm0, %rax
	movq	%rax, -184(%rbp)
	movsd	-184(%rbp), %xmm0
	movsd	%xmm0, -48(%rbp)
	leaq	-48(%rbp), %rax
	movq	%rax, %rdi
	call	_ZNKSt6chrono8durationIdSt5ratioILl1ELl1EEE5countEv
	movapd	%xmm0, %xmm1
	pxor	%xmm0, %xmm0
	cvtsi2sd	-24(%rbp), %xmm0
	divsd	%xmm0, %xmm1
	movapd	%xmm1, %xmm0
	movsd	%xmm0, (%rbx)
.LBE79:
	.loc 5 26 0 discriminator 2
	addl	$1, -20(%rbp)
	jmp	.L252
.L249:
.LBE78:
	.loc 5 40 0
	leaq	-144(%rbp), %rax
	movq	%rax, %rdi
	call	_ZNSt5arrayIdLm10EE3endEv
	movq	%rax, %rbx
	leaq	-144(%rbp), %rax
	movq	%rax, %rdi
	call	_ZNSt5arrayIdLm10EE5beginEv
	movq	%rbx, %rsi
	movq	%rax, %rdi
	call	_ZSt4sortIPdEvT_S1_
	.loc 5 42 0
	leaq	-144(%rbp), %rax
	movq	%rax, %rdi
	call	_ZNSt5arrayIdLm10EE3endEv
	.loc 5 41 0
	leaq	-16(%rax), %rbx
	.loc 5 42 0
	leaq	-144(%rbp), %rax
	movq	%rax, %rdi
	call	_ZNSt5arrayIdLm10EE5beginEv
	.loc 5 41 0
	addq	$16, %rax
	pxor	%xmm0, %xmm0
	movq	%rbx, %rsi
	movq	%rax, %rdi
	call	_ZSt10accumulateIPddET0_T_S2_S1_
	movsd	%xmm0, -184(%rbp)
	.loc 5 42 0
	leaq	-144(%rbp), %rax
	movq	%rax, %rdi
	call	_ZNKSt5arrayIdLm10EE4sizeEv
	subq	$4, %rax
	testq	%rax, %rax
	js	.L253
	pxor	%xmm0, %xmm0
	cvtsi2sdq	%rax, %xmm0
	jmp	.L254
.L253:
	movq	%rax, %rdx
	shrq	%rdx
	andl	$1, %eax
	orq	%rax, %rdx
	pxor	%xmm0, %xmm0
	cvtsi2sdq	%rdx, %xmm0
	addsd	%xmm0, %xmm0
.L254:
	movsd	-184(%rbp), %xmm2
	divsd	%xmm0, %xmm2
	movapd	%xmm2, %xmm0
	.loc 5 43 0
	addq	$184, %rsp
	popq	%rbx
	popq	%rbp
	.cfi_def_cfa 7, 8
	ret
	.cfi_endproc
.LFE7298:
	.size	_Z7measureIZ4mainEUlvE_EdT_, .-_Z7measureIZ4mainEUlvE_EdT_
	.type	_Z7measureIZ4mainEUlvE0_EdT_, @function
_Z7measureIZ4mainEUlvE0_EdT_:
.LFB7316:
	.loc 5 17 0
	.cfi_startproc
	pushq	%rbp
	.cfi_def_cfa_offset 16
	.cfi_offset 6, -16
	movq	%rsp, %rbp
	.cfi_def_cfa_register 6
	pushq	%rbx
	subq	$168, %rsp
	.cfi_offset 3, -24
.LBB80:
	.loc 5 26 0
	movl	$0, -20(%rbp)
.L260:
	.loc 5 26 0 is_stmt 0 discriminator 1
	cmpl	$9, -20(%rbp)
	jg	.L257
.LBB81:
	.loc 5 27 0 is_stmt 1
	movl	$0, -24(%rbp)
	.loc 5 28 0
	movq	$0, -160(%rbp)
	.loc 5 30 0
	call	_ZNSt6chrono3_V212system_clock3nowEv
	movq	%rax, measure_start(%rip)
.L259:
	.loc 5 32 0
	leaq	16(%rbp), %rdi
	call	_ZZ4mainENKUlvE0_clEv
	movl	%eax, _ZZ7measureIZ4mainEUlvE0_EdT_E3res(%rip)
	.loc 5 33 0
	addl	$1, -24(%rbp)
	.loc 5 34 0
	call	_ZNSt6chrono3_V212system_clock3nowEv
	movq	%rax, -160(%rbp)
	.loc 5 35 0
	leaq	-160(%rbp), %rax
	movl	$measure_start, %esi
	movq	%rax, %rdi
	call	_ZNSt6chronomiINS_3_V212system_clockENS_8durationIlSt5ratioILl1ELl1000000000EEEES6_EENSt11common_typeIJT0_T1_EE4typeERKNS_10time_pointIT_S8_EERKNSC_ISD_S9_EE
	movq	%rax, -64(%rbp)
	.loc 5 31 0
	leaq	-64(%rbp), %rax
	movl	$_ZZ7measureIZ4mainEUlvE0_EdT_E18min_time_per_trial, %esi
	movq	%rax, %rdi
	call	_ZNSt6chronoltIlSt5ratioILl1ELl1000000000EElS1_ILl1ELl1000EEEEbRKNS_8durationIT_T0_EERKNS4_IT1_T2_EE
	testb	%al, %al
	je	.L258
	jmp	.L259
.L258:
	.loc 5 36 0 discriminator 2
	movl	-20(%rbp), %eax
	movslq	%eax, %rdx
	leaq	-144(%rbp), %rax
	movq	%rdx, %rsi
	movq	%rax, %rdi
	call	_ZNSt5arrayIdLm10EEixEm
	movq	%rax, %rbx
	leaq	-160(%rbp), %rax
	movl	$measure_start, %esi
	movq	%rax, %rdi
	call	_ZNSt6chronomiINS_3_V212system_clockENS_8durationIlSt5ratioILl1ELl1000000000EEEES6_EENSt11common_typeIJT0_T1_EE4typeERKNS_10time_pointIT_S8_EERKNSC_ISD_S9_EE
	movq	%rax, -32(%rbp)
	leaq	-32(%rbp), %rax
	movq	%rax, %rdi
	call	_ZNSt6chrono13duration_castINS_8durationIdSt5ratioILl1ELl1EEEElS2_ILl1ELl1000000000EEEENSt9enable_ifIXsrNS_13__is_durationIT_EE5valueES8_E4typeERKNS1_IT0_T1_EE
	movq	%xmm0, %rax
	movq	%rax, -168(%rbp)
	movsd	-168(%rbp), %xmm0
	movsd	%xmm0, -48(%rbp)
	leaq	-48(%rbp), %rax
	movq	%rax, %rdi
	call	_ZNKSt6chrono8durationIdSt5ratioILl1ELl1EEE5countEv
	movapd	%xmm0, %xmm1
	pxor	%xmm0, %xmm0
	cvtsi2sd	-24(%rbp), %xmm0
	divsd	%xmm0, %xmm1
	movapd	%xmm1, %xmm0
	movsd	%xmm0, (%rbx)
.LBE81:
	.loc 5 26 0 discriminator 2
	addl	$1, -20(%rbp)
	jmp	.L260
.L257:
.LBE80:
	.loc 5 40 0
	leaq	-144(%rbp), %rax
	movq	%rax, %rdi
	call	_ZNSt5arrayIdLm10EE3endEv
	movq	%rax, %rbx
	leaq	-144(%rbp), %rax
	movq	%rax, %rdi
	call	_ZNSt5arrayIdLm10EE5beginEv
	movq	%rbx, %rsi
	movq	%rax, %rdi
	call	_ZSt4sortIPdEvT_S1_
	.loc 5 42 0
	leaq	-144(%rbp), %rax
	movq	%rax, %rdi
	call	_ZNSt5arrayIdLm10EE3endEv
	.loc 5 41 0
	leaq	-16(%rax), %rbx
	.loc 5 42 0
	leaq	-144(%rbp), %rax
	movq	%rax, %rdi
	call	_ZNSt5arrayIdLm10EE5beginEv
	.loc 5 41 0
	addq	$16, %rax
	pxor	%xmm0, %xmm0
	movq	%rbx, %rsi
	movq	%rax, %rdi
	call	_ZSt10accumulateIPddET0_T_S2_S1_
	movsd	%xmm0, -168(%rbp)
	.loc 5 42 0
	leaq	-144(%rbp), %rax
	movq	%rax, %rdi
	call	_ZNKSt5arrayIdLm10EE4sizeEv
	subq	$4, %rax
	testq	%rax, %rax
	js	.L261
	pxor	%xmm0, %xmm0
	cvtsi2sdq	%rax, %xmm0
	jmp	.L262
.L261:
	movq	%rax, %rdx
	shrq	%rdx
	andl	$1, %eax
	orq	%rax, %rdx
	pxor	%xmm0, %xmm0
	cvtsi2sdq	%rdx, %xmm0
	addsd	%xmm0, %xmm0
.L262:
	movsd	-168(%rbp), %xmm2
	divsd	%xmm0, %xmm2
	movapd	%xmm2, %xmm0
	.loc 5 43 0
	addq	$168, %rsp
	popq	%rbx
	popq	%rbp
	.cfi_def_cfa 7, 8
	ret
	.cfi_endproc
.LFE7316:
	.size	_Z7measureIZ4mainEUlvE0_EdT_, .-_Z7measureIZ4mainEUlvE0_EdT_
	.section	.text._ZN5boost9iteratorsneIN3dod7pointerI8particleINS2_6accessIJNS2_6memberIcLi0EEENS6_IiLi0EEENS6_IiLi1EEENS6_IiLi2EEENS6_IiLi3EEEEEEEEESD_NS0_27random_access_traversal_tagESD_lSE_SD_SF_SD_lEENS0_6detail23enable_if_interoperableIT_T4_NS_3mpl6apply2INSG_12always_bool2ESI_SJ_E4typeEE4typeERKNS0_15iterator_facadeISI_T0_T1_T2_T3_EERKNSR_ISJ_T5_T6_T7_T8_EE,"axG",@progbits,_ZN5boost9iteratorsneIN3dod7pointerI8particleINS2_6accessIJNS2_6memberIcLi0EEENS6_IiLi0EEENS6_IiLi1EEENS6_IiLi2EEENS6_IiLi3EEEEEEEEESD_NS0_27random_access_traversal_tagESD_lSE_SD_SF_SD_lEENS0_6detail23enable_if_interoperableIT_T4_NS_3mpl6apply2INSG_12always_bool2ESI_SJ_E4typeEE4typeERKNS0_15iterator_facadeISI_T0_T1_T2_T3_EERKNSR_ISJ_T5_T6_T7_T8_EE,comdat
	.weak	_ZN5boost9iteratorsneIN3dod7pointerI8particleINS2_6accessIJNS2_6memberIcLi0EEENS6_IiLi0EEENS6_IiLi1EEENS6_IiLi2EEENS6_IiLi3EEEEEEEEESD_NS0_27random_access_traversal_tagESD_lSE_SD_SF_SD_lEENS0_6detail23enable_if_interoperableIT_T4_NS_3mpl6apply2INSG_12always_bool2ESI_SJ_E4typeEE4typeERKNS0_15iterator_facadeISI_T0_T1_T2_T3_EERKNSR_ISJ_T5_T6_T7_T8_EE
	.type	_ZN5boost9iteratorsneIN3dod7pointerI8particleINS2_6accessIJNS2_6memberIcLi0EEENS6_IiLi0EEENS6_IiLi1EEENS6_IiLi2EEENS6_IiLi3EEEEEEEEESD_NS0_27random_access_traversal_tagESD_lSE_SD_SF_SD_lEENS0_6detail23enable_if_interoperableIT_T4_NS_3mpl6apply2INSG_12always_bool2ESI_SJ_E4typeEE4typeERKNS0_15iterator_facadeISI_T0_T1_T2_T3_EERKNSR_ISJ_T5_T6_T7_T8_EE, @function
_ZN5boost9iteratorsneIN3dod7pointerI8particleINS2_6accessIJNS2_6memberIcLi0EEENS6_IiLi0EEENS6_IiLi1EEENS6_IiLi2EEENS6_IiLi3EEEEEEEEESD_NS0_27random_access_traversal_tagESD_lSE_SD_SF_SD_lEENS0_6detail23enable_if_interoperableIT_T4_NS_3mpl6apply2INSG_12always_bool2ESI_SJ_E4typeEE4typeERKNS0_15iterator_facadeISI_T0_T1_T2_T3_EERKNSR_ISJ_T5_T6_T7_T8_EE:
.LFB7317:
	.loc 8 891 0
	.cfi_startproc
	pushq	%rbp
	.cfi_def_cfa_offset 16
	.cfi_offset 6, -16
	movq	%rsp, %rbp
	.cfi_def_cfa_register 6
	subq	$32, %rsp
	movq	%rdi, -24(%rbp)
	movq	%rsi, -32(%rbp)
	.loc 8 891 0
	subq	$8, %rsp
	movq	-32(%rbp), %rdx
	movq	-24(%rbp), %rax
	pushq	%rcx
	movq	%rdx, %rsi
	movq	%rax, %rdi
	call	_ZN5boost9iterators20iterator_core_access5equalIN3dod7pointerI8particleINS3_6accessIJNS3_6memberIcLi0EEENS7_IiLi0EEENS7_IiLi1EEENS7_IiLi2EEENS7_IiLi3EEEEEEEEESF_EEbRKT_RKT0_N4mpl_5bool_ILb1EEE
	addq	$16, %rsp
	xorl	$1, %eax
	leave
	.cfi_def_cfa 7, 8
	ret
	.cfi_endproc
.LFE7317:
	.size	_ZN5boost9iteratorsneIN3dod7pointerI8particleINS2_6accessIJNS2_6memberIcLi0EEENS6_IiLi0EEENS6_IiLi1EEENS6_IiLi2EEENS6_IiLi3EEEEEEEEESD_NS0_27random_access_traversal_tagESD_lSE_SD_SF_SD_lEENS0_6detail23enable_if_interoperableIT_T4_NS_3mpl6apply2INSG_12always_bool2ESI_SJ_E4typeEE4typeERKNS0_15iterator_facadeISI_T0_T1_T2_T3_EERKNSR_ISJ_T5_T6_T7_T8_EE, .-_ZN5boost9iteratorsneIN3dod7pointerI8particleINS2_6accessIJNS2_6memberIcLi0EEENS6_IiLi0EEENS6_IiLi1EEENS6_IiLi2EEENS6_IiLi3EEEEEEEEESD_NS0_27random_access_traversal_tagESD_lSE_SD_SF_SD_lEENS0_6detail23enable_if_interoperableIT_T4_NS_3mpl6apply2INSG_12always_bool2ESI_SJ_E4typeEE4typeERKNS0_15iterator_facadeISI_T0_T1_T2_T3_EERKNSR_ISJ_T5_T6_T7_T8_EE
	.weak	_ZN5boost9iteratorsneIN3dod7pointerI8particleINS2_6accessIINS2_6memberIcLi0EEENS6_IiLi0EEENS6_IiLi1EEENS6_IiLi2EEENS6_IiLi3EEEEEEEEESD_NS0_27random_access_traversal_tagESD_lSE_SD_SF_SD_lEENS0_6detail23enable_if_interoperableIT_T4_NS_3mpl6apply2INSG_12always_bool2ESI_SJ_E4typeEE4typeERKNS0_15iterator_facadeISI_T0_T1_T2_T3_EERKNSR_ISJ_T5_T6_T7_T8_EE
	.set	_ZN5boost9iteratorsneIN3dod7pointerI8particleINS2_6accessIINS2_6memberIcLi0EEENS6_IiLi0EEENS6_IiLi1EEENS6_IiLi2EEENS6_IiLi3EEEEEEEEESD_NS0_27random_access_traversal_tagESD_lSE_SD_SF_SD_lEENS0_6detail23enable_if_interoperableIT_T4_NS_3mpl6apply2INSG_12always_bool2ESI_SJ_E4typeEE4typeERKNS0_15iterator_facadeISI_T0_T1_T2_T3_EERKNSR_ISJ_T5_T6_T7_T8_EE,_ZN5boost9iteratorsneIN3dod7pointerI8particleINS2_6accessIJNS2_6memberIcLi0EEENS6_IiLi0EEENS6_IiLi1EEENS6_IiLi2EEENS6_IiLi3EEEEEEEEESD_NS0_27random_access_traversal_tagESD_lSE_SD_SF_SD_lEENS0_6detail23enable_if_interoperableIT_T4_NS_3mpl6apply2INSG_12always_bool2ESI_SJ_E4typeEE4typeERKNS0_15iterator_facadeISI_T0_T1_T2_T3_EERKNSR_ISJ_T5_T6_T7_T8_EE
	.section	.text._ZNK5boost9iterators6detail20iterator_facade_baseIN3dod7pointerI8particleINS3_6accessIJNS3_6memberIcLi0EEENS7_IiLi0EEENS7_IiLi1EEENS7_IiLi2EEENS7_IiLi3EEEEEEEEESE_NS0_27random_access_traversal_tagESE_lLb0ELb0EEptEv,"axG",@progbits,_ZNK5boost9iterators6detail20iterator_facade_baseIN3dod7pointerI8particleINS3_6accessIJNS3_6memberIcLi0EEENS7_IiLi0EEENS7_IiLi1EEENS7_IiLi2EEENS7_IiLi3EEEEEEEEESE_NS0_27random_access_traversal_tagESE_lLb0ELb0EEptEv,comdat
	.align 2
	.weak	_ZNK5boost9iterators6detail20iterator_facade_baseIN3dod7pointerI8particleINS3_6accessIJNS3_6memberIcLi0EEENS7_IiLi0EEENS7_IiLi1EEENS7_IiLi2EEENS7_IiLi3EEEEEEEEESE_NS0_27random_access_traversal_tagESE_lLb0ELb0EEptEv
	.type	_ZNK5boost9iterators6detail20iterator_facade_baseIN3dod7pointerI8particleINS3_6accessIJNS3_6memberIcLi0EEENS7_IiLi0EEENS7_IiLi1EEENS7_IiLi2EEENS7_IiLi3EEEEEEEEESE_NS0_27random_access_traversal_tagESE_lLb0ELb0EEptEv, @function
_ZNK5boost9iterators6detail20iterator_facade_baseIN3dod7pointerI8particleINS3_6accessIJNS3_6memberIcLi0EEENS7_IiLi0EEENS7_IiLi1EEENS7_IiLi2EEENS7_IiLi3EEEEEEEEESE_NS0_27random_access_traversal_tagESE_lLb0ELb0EEptEv:
.LFB7318:
	.loc 8 649 0
	.cfi_startproc
	pushq	%rbp
	.cfi_def_cfa_offset 16
	.cfi_offset 6, -16
	movq	%rsp, %rbp
	.cfi_def_cfa_register 6
	subq	$64, %rsp
	movq	%rdi, -56(%rbp)
	movq	%rsi, -64(%rbp)
	.loc 8 651 0
	movq	-64(%rbp), %rax
	movq	%rax, %rdi
	call	_ZNK5boost9iterators6detail20iterator_facade_baseIN3dod7pointerI8particleINS3_6accessIJNS3_6memberIcLi0EEENS7_IiLi0EEENS7_IiLi1EEENS7_IiLi2EEENS7_IiLi3EEEEEEEEESE_NS0_27random_access_traversal_tagESE_lLb0ELb0EE7derivedEv
	movq	%rax, %rdx
	leaq	-48(%rbp), %rax
	movq	%rdx, %rsi
	movq	%rax, %rdi
	call	_ZNK5boost9iterators6detail20iterator_facade_baseIN3dod7pointerI8particleINS3_6accessIJNS3_6memberIcLi0EEENS7_IiLi0EEENS7_IiLi1EEENS7_IiLi2EEENS7_IiLi3EEEEEEEEESE_NS0_27random_access_traversal_tagESE_lLb0ELb0EEdeEv
	movq	-56(%rbp), %rax
	leaq	-48(%rbp), %rdx
	movq	%rdx, %rsi
	movq	%rax, %rdi
	call	_ZN5boost9iterators6detail23operator_arrow_dispatchI8particleIN3dod6accessIJNS4_6memberIcLi0EEENS6_IiLi0EEENS6_IiLi1EEENS6_IiLi2EEENS6_IiLi3EEEEEEEPSD_E5applyERKSD_
	.loc 8 652 0
	movq	-56(%rbp), %rax
	leave
	.cfi_def_cfa 7, 8
	ret
	.cfi_endproc
.LFE7318:
	.size	_ZNK5boost9iterators6detail20iterator_facade_baseIN3dod7pointerI8particleINS3_6accessIJNS3_6memberIcLi0EEENS7_IiLi0EEENS7_IiLi1EEENS7_IiLi2EEENS7_IiLi3EEEEEEEEESE_NS0_27random_access_traversal_tagESE_lLb0ELb0EEptEv, .-_ZNK5boost9iterators6detail20iterator_facade_baseIN3dod7pointerI8particleINS3_6accessIJNS3_6memberIcLi0EEENS7_IiLi0EEENS7_IiLi1EEENS7_IiLi2EEENS7_IiLi3EEEEEEEEESE_NS0_27random_access_traversal_tagESE_lLb0ELb0EEptEv
	.weak	_ZNK5boost9iterators6detail20iterator_facade_baseIN3dod7pointerI8particleINS3_6accessIINS3_6memberIcLi0EEENS7_IiLi0EEENS7_IiLi1EEENS7_IiLi2EEENS7_IiLi3EEEEEEEEESE_NS0_27random_access_traversal_tagESE_lLb0ELb0EEptEv
	.set	_ZNK5boost9iterators6detail20iterator_facade_baseIN3dod7pointerI8particleINS3_6accessIINS3_6memberIcLi0EEENS7_IiLi0EEENS7_IiLi1EEENS7_IiLi2EEENS7_IiLi3EEEEEEEEESE_NS0_27random_access_traversal_tagESE_lLb0ELb0EEptEv,_ZNK5boost9iterators6detail20iterator_facade_baseIN3dod7pointerI8particleINS3_6accessIJNS3_6memberIcLi0EEENS7_IiLi0EEENS7_IiLi1EEENS7_IiLi2EEENS7_IiLi3EEEEEEEEESE_NS0_27random_access_traversal_tagESE_lLb0ELb0EEptEv
	.section	.text._ZN5boost9iterators6detail23operator_arrow_dispatchI8particleIN3dod6accessIJNS4_6memberIcLi0EEENS6_IiLi0EEENS6_IiLi1EEENS6_IiLi2EEENS6_IiLi3EEEEEEEPSD_E5proxyptEv,"axG",@progbits,_ZN5boost9iterators6detail23operator_arrow_dispatchI8particleIN3dod6accessIJNS4_6memberIcLi0EEENS6_IiLi0EEENS6_IiLi1EEENS6_IiLi2EEENS6_IiLi3EEEEEEEPSD_E5proxyptEv,comdat
	.align 2
	.weak	_ZN5boost9iterators6detail23operator_arrow_dispatchI8particleIN3dod6accessIJNS4_6memberIcLi0EEENS6_IiLi0EEENS6_IiLi1EEENS6_IiLi2EEENS6_IiLi3EEEEEEEPSD_E5proxyptEv
	.type	_ZN5boost9iterators6detail23operator_arrow_dispatchI8particleIN3dod6accessIJNS4_6memberIcLi0EEENS6_IiLi0EEENS6_IiLi1EEENS6_IiLi2EEENS6_IiLi3EEEEEEEPSD_E5proxyptEv, @function
_ZN5boost9iterators6detail23operator_arrow_dispatchI8particleIN3dod6accessIJNS4_6memberIcLi0EEENS6_IiLi0EEENS6_IiLi1EEENS6_IiLi2EEENS6_IiLi3EEEEEEEPSD_E5proxyptEv:
.LFB7319:
	.loc 8 317 0
	.cfi_startproc
	pushq	%rbp
	.cfi_def_cfa_offset 16
	.cfi_offset 6, -16
	movq	%rsp, %rbp
	.cfi_def_cfa_register 6
	movq	%rdi, -56(%rbp)
	.loc 8 317 0
	movq	-56(%rbp), %rax
	movq	%rax, -8(%rbp)
	movq	-8(%rbp), %rax
	movq	%rax, -16(%rbp)
.LBB82:
.LBB83:
.LBB84:
.LBB85:
.LBB86:
	.file 14 "/usr/include/boost/core/addressof.hpp"
	.loc 14 29 0
	movq	-16(%rbp), %rax
	movq	%rax, -48(%rbp)
.LBE86:
.LBE85:
.LBE84:
.LBB87:
.LBB88:
	.loc 14 30 0
	movq	-48(%rbp), %rax
	movq	%rax, -24(%rbp)
	movq	$0, -32(%rbp)
.LBE88:
.LBE87:
.LBB89:
.LBB90:
	.loc 14 41 0
	movq	-24(%rbp), %rax
.LBE90:
.LBE89:
.LBE83:
.LBE82:
	.loc 8 317 0
	nop
	popq	%rbp
	.cfi_def_cfa 7, 8
	ret
	.cfi_endproc
.LFE7319:
	.size	_ZN5boost9iterators6detail23operator_arrow_dispatchI8particleIN3dod6accessIJNS4_6memberIcLi0EEENS6_IiLi0EEENS6_IiLi1EEENS6_IiLi2EEENS6_IiLi3EEEEEEEPSD_E5proxyptEv, .-_ZN5boost9iterators6detail23operator_arrow_dispatchI8particleIN3dod6accessIJNS4_6memberIcLi0EEENS6_IiLi0EEENS6_IiLi1EEENS6_IiLi2EEENS6_IiLi3EEEEEEEPSD_E5proxyptEv
	.weak	_ZN5boost9iterators6detail23operator_arrow_dispatchI8particleIN3dod6accessIINS4_6memberIcLi0EEENS6_IiLi0EEENS6_IiLi1EEENS6_IiLi2EEENS6_IiLi3EEEEEEEPSD_E5proxyptEv
	.set	_ZN5boost9iterators6detail23operator_arrow_dispatchI8particleIN3dod6accessIINS4_6memberIcLi0EEENS6_IiLi0EEENS6_IiLi1EEENS6_IiLi2EEENS6_IiLi3EEEEEEEPSD_E5proxyptEv,_ZN5boost9iterators6detail23operator_arrow_dispatchI8particleIN3dod6accessIJNS4_6memberIcLi0EEENS6_IiLi0EEENS6_IiLi1EEENS6_IiLi2EEENS6_IiLi3EEEEEEEPSD_E5proxyptEv
	.section	.text._ZNK8particleIN3dod6accessIJNS0_6memberIcLi0EEENS2_IiLi0EEENS2_IiLi1EEENS2_IiLi2EEENS2_IiLi3EEEEEEE6renderEv,"axG",@progbits,_ZNK8particleIN3dod6accessIJNS0_6memberIcLi0EEENS2_IiLi0EEENS2_IiLi1EEENS2_IiLi2EEENS2_IiLi3EEEEEEE6renderEv,comdat
	.align 2
	.weak	_ZNK8particleIN3dod6accessIJNS0_6memberIcLi0EEENS2_IiLi0EEENS2_IiLi1EEENS2_IiLi2EEENS2_IiLi3EEEEEEE6renderEv
	.type	_ZNK8particleIN3dod6accessIJNS0_6memberIcLi0EEENS2_IiLi0EEENS2_IiLi1EEENS2_IiLi2EEENS2_IiLi3EEEEEEE6renderEv, @function
_ZNK8particleIN3dod6accessIJNS0_6memberIcLi0EEENS2_IiLi0EEENS2_IiLi1EEENS2_IiLi2EEENS2_IiLi3EEEEEEE6renderEv:
.LFB7320:
	.loc 5 231 0
	.cfi_startproc
	pushq	%rbp
	.cfi_def_cfa_offset 16
	.cfi_offset 6, -16
	movq	%rsp, %rbp
	.cfi_def_cfa_register 6
	pushq	%r13
	pushq	%r12
	pushq	%rbx
	subq	$40, %rsp
	.cfi_offset 13, -24
	.cfi_offset 12, -32
	.cfi_offset 3, -40
	movq	%rdi, -56(%rbp)
	.loc 5 233 0
	movq	-56(%rbp), %rax
	subq	$8, %rsp
	pushq	%rdx
	movq	%rax, %rdi
	call	_ZNK3dod6accessIJNS_6memberIcLi0EEENS1_IiLi0EEENS1_IiLi1EEENS1_IiLi2EEENS1_IiLi3EEEEE3getES2_
	addq	$16, %rsp
	movzbl	(%rax), %eax
	movsbl	%al, %r12d
	movq	-56(%rbp), %rax
	subq	$8, %rsp
	pushq	%rbx
	movq	%rax, %rdi
	call	_ZNK3dod6accessIJNS_6memberIiLi1EEENS1_IiLi2EEENS1_IiLi3EEEEE3getES2_
	addq	$16, %rsp
	movl	(%rax), %ebx
	movq	-56(%rbp), %rax
	subq	$8, %rsp
	pushq	%r13
	movq	%rax, %rdi
	call	_ZNK3dod6accessIJNS_6memberIiLi0EEENS1_IiLi1EEENS1_IiLi2EEENS1_IiLi3EEEEE3getES2_
	addq	$16, %rsp
	movl	(%rax), %eax
	movl	%r12d, %edx
	movl	%ebx, %esi
	movl	%eax, %edi
	call	_Z9do_renderiic
	.loc 5 234 0
	nop
	leaq	-24(%rbp), %rsp
	popq	%rbx
	popq	%r12
	popq	%r13
	popq	%rbp
	.cfi_def_cfa 7, 8
	ret
	.cfi_endproc
.LFE7320:
	.size	_ZNK8particleIN3dod6accessIJNS0_6memberIcLi0EEENS2_IiLi0EEENS2_IiLi1EEENS2_IiLi2EEENS2_IiLi3EEEEEEE6renderEv, .-_ZNK8particleIN3dod6accessIJNS0_6memberIcLi0EEENS2_IiLi0EEENS2_IiLi1EEENS2_IiLi2EEENS2_IiLi3EEEEEEE6renderEv
	.weak	_ZNK8particleIN3dod6accessIINS0_6memberIcLi0EEENS2_IiLi0EEENS2_IiLi1EEENS2_IiLi2EEENS2_IiLi3EEEEEEE6renderEv
	.set	_ZNK8particleIN3dod6accessIINS0_6memberIcLi0EEENS2_IiLi0EEENS2_IiLi1EEENS2_IiLi2EEENS2_IiLi3EEEEEEE6renderEv,_ZNK8particleIN3dod6accessIJNS0_6memberIcLi0EEENS2_IiLi0EEENS2_IiLi1EEENS2_IiLi2EEENS2_IiLi3EEEEEEE6renderEv
	.section	.text._ZN5boost9iterators6detail20iterator_facade_baseIN3dod7pointerI8particleINS3_6accessIJNS3_6memberIcLi0EEENS7_IiLi0EEENS7_IiLi1EEENS7_IiLi2EEENS7_IiLi3EEEEEEEEESE_NS0_27random_access_traversal_tagESE_lLb0ELb0EEppEv,"axG",@progbits,_ZN5boost9iterators6detail20iterator_facade_baseIN3dod7pointerI8particleINS3_6accessIJNS3_6memberIcLi0EEENS7_IiLi0EEENS7_IiLi1EEENS7_IiLi2EEENS7_IiLi3EEEEEEEEESE_NS0_27random_access_traversal_tagESE_lLb0ELb0EEppEv,comdat
	.align 2
	.weak	_ZN5boost9iterators6detail20iterator_facade_baseIN3dod7pointerI8particleINS3_6accessIJNS3_6memberIcLi0EEENS7_IiLi0EEENS7_IiLi1EEENS7_IiLi2EEENS7_IiLi3EEEEEEEEESE_NS0_27random_access_traversal_tagESE_lLb0ELb0EEppEv
	.type	_ZN5boost9iterators6detail20iterator_facade_baseIN3dod7pointerI8particleINS3_6accessIJNS3_6memberIcLi0EEENS7_IiLi0EEENS7_IiLi1EEENS7_IiLi2EEENS7_IiLi3EEEEEEEEESE_NS0_27random_access_traversal_tagESE_lLb0ELb0EEppEv, @function
_ZN5boost9iterators6detail20iterator_facade_baseIN3dod7pointerI8particleINS3_6accessIJNS3_6memberIcLi0EEENS7_IiLi0EEENS7_IiLi1EEENS7_IiLi2EEENS7_IiLi3EEEEEEEEESE_NS0_27random_access_traversal_tagESE_lLb0ELb0EEppEv:
.LFB7321:
	.loc 8 654 0
	.cfi_startproc
	pushq	%rbp
	.cfi_def_cfa_offset 16
	.cfi_offset 6, -16
	movq	%rsp, %rbp
	.cfi_def_cfa_register 6
	subq	$16, %rsp
	movq	%rdi, -8(%rbp)
	.loc 8 656 0
	movq	-8(%rbp), %rax
	movq	%rax, %rdi
	call	_ZN5boost9iterators6detail20iterator_facade_baseIN3dod7pointerI8particleINS3_6accessIJNS3_6memberIcLi0EEENS7_IiLi0EEENS7_IiLi1EEENS7_IiLi2EEENS7_IiLi3EEEEEEEEESE_NS0_27random_access_traversal_tagESE_lLb0ELb0EE7derivedEv
	movq	%rax, %rdi
	call	_ZN5boost9iterators20iterator_core_access9incrementIN3dod7pointerI8particleINS3_6accessIJNS3_6memberIcLi0EEENS7_IiLi0EEENS7_IiLi1EEENS7_IiLi2EEENS7_IiLi3EEEEEEEEEEEvRT_
	.loc 8 657 0
	movq	-8(%rbp), %rax
	movq	%rax, %rdi
	call	_ZN5boost9iterators6detail20iterator_facade_baseIN3dod7pointerI8particleINS3_6accessIJNS3_6memberIcLi0EEENS7_IiLi0EEENS7_IiLi1EEENS7_IiLi2EEENS7_IiLi3EEEEEEEEESE_NS0_27random_access_traversal_tagESE_lLb0ELb0EE7derivedEv
	.loc 8 658 0
	leave
	.cfi_def_cfa 7, 8
	ret
	.cfi_endproc
.LFE7321:
	.size	_ZN5boost9iterators6detail20iterator_facade_baseIN3dod7pointerI8particleINS3_6accessIJNS3_6memberIcLi0EEENS7_IiLi0EEENS7_IiLi1EEENS7_IiLi2EEENS7_IiLi3EEEEEEEEESE_NS0_27random_access_traversal_tagESE_lLb0ELb0EEppEv, .-_ZN5boost9iterators6detail20iterator_facade_baseIN3dod7pointerI8particleINS3_6accessIJNS3_6memberIcLi0EEENS7_IiLi0EEENS7_IiLi1EEENS7_IiLi2EEENS7_IiLi3EEEEEEEEESE_NS0_27random_access_traversal_tagESE_lLb0ELb0EEppEv
	.weak	_ZN5boost9iterators6detail20iterator_facade_baseIN3dod7pointerI8particleINS3_6accessIINS3_6memberIcLi0EEENS7_IiLi0EEENS7_IiLi1EEENS7_IiLi2EEENS7_IiLi3EEEEEEEEESE_NS0_27random_access_traversal_tagESE_lLb0ELb0EEppEv
	.set	_ZN5boost9iterators6detail20iterator_facade_baseIN3dod7pointerI8particleINS3_6accessIINS3_6memberIcLi0EEENS7_IiLi0EEENS7_IiLi1EEENS7_IiLi2EEENS7_IiLi3EEEEEEEEESE_NS0_27random_access_traversal_tagESE_lLb0ELb0EEppEv,_ZN5boost9iterators6detail20iterator_facade_baseIN3dod7pointerI8particleINS3_6accessIJNS3_6memberIcLi0EEENS7_IiLi0EEENS7_IiLi1EEENS7_IiLi2EEENS7_IiLi3EEEEEEEEESE_NS0_27random_access_traversal_tagESE_lLb0ELb0EEppEv
	.text
	.type	_Z7measureIZ4mainEUlvE1_EdT_, @function
_Z7measureIZ4mainEUlvE1_EdT_:
.LFB7322:
	.loc 5 17 0
	.cfi_startproc
	pushq	%rbp
	.cfi_def_cfa_offset 16
	.cfi_offset 6, -16
	movq	%rsp, %rbp
	.cfi_def_cfa_register 6
	pushq	%rbx
	subq	$168, %rsp
	.cfi_offset 3, -24
.LBB91:
	.loc 5 26 0
	movl	$0, -20(%rbp)
.L280:
	.loc 5 26 0 is_stmt 0 discriminator 1
	cmpl	$9, -20(%rbp)
	jg	.L277
.LBB92:
	.loc 5 27 0 is_stmt 1
	movl	$0, -24(%rbp)
	.loc 5 28 0
	movq	$0, -160(%rbp)
	.loc 5 30 0
	call	_ZNSt6chrono3_V212system_clock3nowEv
	movq	%rax, measure_start(%rip)
.L279:
	.loc 5 32 0
	leaq	16(%rbp), %rdi
	call	_ZZ4mainENKUlvE1_clEv
	movl	%eax, _ZZ7measureIZ4mainEUlvE1_EdT_E3res(%rip)
	.loc 5 33 0
	addl	$1, -24(%rbp)
	.loc 5 34 0
	call	_ZNSt6chrono3_V212system_clock3nowEv
	movq	%rax, -160(%rbp)
	.loc 5 35 0
	leaq	-160(%rbp), %rax
	movl	$measure_start, %esi
	movq	%rax, %rdi
	call	_ZNSt6chronomiINS_3_V212system_clockENS_8durationIlSt5ratioILl1ELl1000000000EEEES6_EENSt11common_typeIJT0_T1_EE4typeERKNS_10time_pointIT_S8_EERKNSC_ISD_S9_EE
	movq	%rax, -64(%rbp)
	.loc 5 31 0
	leaq	-64(%rbp), %rax
	movl	$_ZZ7measureIZ4mainEUlvE1_EdT_E18min_time_per_trial, %esi
	movq	%rax, %rdi
	call	_ZNSt6chronoltIlSt5ratioILl1ELl1000000000EElS1_ILl1ELl1000EEEEbRKNS_8durationIT_T0_EERKNS4_IT1_T2_EE
	testb	%al, %al
	je	.L278
	jmp	.L279
.L278:
	.loc 5 36 0 discriminator 2
	movl	-20(%rbp), %eax
	movslq	%eax, %rdx
	leaq	-144(%rbp), %rax
	movq	%rdx, %rsi
	movq	%rax, %rdi
	call	_ZNSt5arrayIdLm10EEixEm
	movq	%rax, %rbx
	leaq	-160(%rbp), %rax
	movl	$measure_start, %esi
	movq	%rax, %rdi
	call	_ZNSt6chronomiINS_3_V212system_clockENS_8durationIlSt5ratioILl1ELl1000000000EEEES6_EENSt11common_typeIJT0_T1_EE4typeERKNS_10time_pointIT_S8_EERKNSC_ISD_S9_EE
	movq	%rax, -32(%rbp)
	leaq	-32(%rbp), %rax
	movq	%rax, %rdi
	call	_ZNSt6chrono13duration_castINS_8durationIdSt5ratioILl1ELl1EEEElS2_ILl1ELl1000000000EEEENSt9enable_ifIXsrNS_13__is_durationIT_EE5valueES8_E4typeERKNS1_IT0_T1_EE
	movq	%xmm0, %rax
	movq	%rax, -168(%rbp)
	movsd	-168(%rbp), %xmm0
	movsd	%xmm0, -48(%rbp)
	leaq	-48(%rbp), %rax
	movq	%rax, %rdi
	call	_ZNKSt6chrono8durationIdSt5ratioILl1ELl1EEE5countEv
	movapd	%xmm0, %xmm1
	pxor	%xmm0, %xmm0
	cvtsi2sd	-24(%rbp), %xmm0
	divsd	%xmm0, %xmm1
	movapd	%xmm1, %xmm0
	movsd	%xmm0, (%rbx)
.LBE92:
	.loc 5 26 0 discriminator 2
	addl	$1, -20(%rbp)
	jmp	.L280
.L277:
.LBE91:
	.loc 5 40 0
	leaq	-144(%rbp), %rax
	movq	%rax, %rdi
	call	_ZNSt5arrayIdLm10EE3endEv
	movq	%rax, %rbx
	leaq	-144(%rbp), %rax
	movq	%rax, %rdi
	call	_ZNSt5arrayIdLm10EE5beginEv
	movq	%rbx, %rsi
	movq	%rax, %rdi
	call	_ZSt4sortIPdEvT_S1_
	.loc 5 42 0
	leaq	-144(%rbp), %rax
	movq	%rax, %rdi
	call	_ZNSt5arrayIdLm10EE3endEv
	.loc 5 41 0
	leaq	-16(%rax), %rbx
	.loc 5 42 0
	leaq	-144(%rbp), %rax
	movq	%rax, %rdi
	call	_ZNSt5arrayIdLm10EE5beginEv
	.loc 5 41 0
	addq	$16, %rax
	pxor	%xmm0, %xmm0
	movq	%rbx, %rsi
	movq	%rax, %rdi
	call	_ZSt10accumulateIPddET0_T_S2_S1_
	movsd	%xmm0, -168(%rbp)
	.loc 5 42 0
	leaq	-144(%rbp), %rax
	movq	%rax, %rdi
	call	_ZNKSt5arrayIdLm10EE4sizeEv
	subq	$4, %rax
	testq	%rax, %rax
	js	.L281
	pxor	%xmm0, %xmm0
	cvtsi2sdq	%rax, %xmm0
	jmp	.L282
.L281:
	movq	%rax, %rdx
	shrq	%rdx
	andl	$1, %eax
	orq	%rax, %rdx
	pxor	%xmm0, %xmm0
	cvtsi2sdq	%rdx, %xmm0
	addsd	%xmm0, %xmm0
.L282:
	movsd	-168(%rbp), %xmm2
	divsd	%xmm0, %xmm2
	movapd	%xmm2, %xmm0
	.loc 5 43 0
	addq	$168, %rsp
	popq	%rbx
	popq	%rbp
	.cfi_def_cfa 7, 8
	ret
	.cfi_endproc
.LFE7322:
	.size	_Z7measureIZ4mainEUlvE1_EdT_, .-_Z7measureIZ4mainEUlvE1_EdT_
	.section	.text._ZN5boost9iteratorsneIN3dod7pointerI8particleINS2_6accessIJNS2_6memberIcLi0EEENS6_IiLi0EEENS6_IiLi1EEEEEEEEESB_NS0_27random_access_traversal_tagESB_lSC_SB_SD_SB_lEENS0_6detail23enable_if_interoperableIT_T4_NS_3mpl6apply2INSE_12always_bool2ESG_SH_E4typeEE4typeERKNS0_15iterator_facadeISG_T0_T1_T2_T3_EERKNSP_ISH_T5_T6_T7_T8_EE,"axG",@progbits,_ZN5boost9iteratorsneIN3dod7pointerI8particleINS2_6accessIJNS2_6memberIcLi0EEENS6_IiLi0EEENS6_IiLi1EEEEEEEEESB_NS0_27random_access_traversal_tagESB_lSC_SB_SD_SB_lEENS0_6detail23enable_if_interoperableIT_T4_NS_3mpl6apply2INSE_12always_bool2ESG_SH_E4typeEE4typeERKNS0_15iterator_facadeISG_T0_T1_T2_T3_EERKNSP_ISH_T5_T6_T7_T8_EE,comdat
	.weak	_ZN5boost9iteratorsneIN3dod7pointerI8particleINS2_6accessIJNS2_6memberIcLi0EEENS6_IiLi0EEENS6_IiLi1EEEEEEEEESB_NS0_27random_access_traversal_tagESB_lSC_SB_SD_SB_lEENS0_6detail23enable_if_interoperableIT_T4_NS_3mpl6apply2INSE_12always_bool2ESG_SH_E4typeEE4typeERKNS0_15iterator_facadeISG_T0_T1_T2_T3_EERKNSP_ISH_T5_T6_T7_T8_EE
	.type	_ZN5boost9iteratorsneIN3dod7pointerI8particleINS2_6accessIJNS2_6memberIcLi0EEENS6_IiLi0EEENS6_IiLi1EEEEEEEEESB_NS0_27random_access_traversal_tagESB_lSC_SB_SD_SB_lEENS0_6detail23enable_if_interoperableIT_T4_NS_3mpl6apply2INSE_12always_bool2ESG_SH_E4typeEE4typeERKNS0_15iterator_facadeISG_T0_T1_T2_T3_EERKNSP_ISH_T5_T6_T7_T8_EE, @function
_ZN5boost9iteratorsneIN3dod7pointerI8particleINS2_6accessIJNS2_6memberIcLi0EEENS6_IiLi0EEENS6_IiLi1EEEEEEEEESB_NS0_27random_access_traversal_tagESB_lSC_SB_SD_SB_lEENS0_6detail23enable_if_interoperableIT_T4_NS_3mpl6apply2INSE_12always_bool2ESG_SH_E4typeEE4typeERKNS0_15iterator_facadeISG_T0_T1_T2_T3_EERKNSP_ISH_T5_T6_T7_T8_EE:
.LFB7323:
	.loc 8 891 0
	.cfi_startproc
	pushq	%rbp
	.cfi_def_cfa_offset 16
	.cfi_offset 6, -16
	movq	%rsp, %rbp
	.cfi_def_cfa_register 6
	subq	$32, %rsp
	movq	%rdi, -24(%rbp)
	movq	%rsi, -32(%rbp)
	.loc 8 891 0
	subq	$8, %rsp
	movq	-32(%rbp), %rdx
	movq	-24(%rbp), %rax
	pushq	%rcx
	movq	%rdx, %rsi
	movq	%rax, %rdi
	call	_ZN5boost9iterators20iterator_core_access5equalIN3dod7pointerI8particleINS3_6accessIJNS3_6memberIcLi0EEENS7_IiLi0EEENS7_IiLi1EEEEEEEEESD_EEbRKT_RKT0_N4mpl_5bool_ILb1EEE
	addq	$16, %rsp
	xorl	$1, %eax
	leave
	.cfi_def_cfa 7, 8
	ret
	.cfi_endproc
.LFE7323:
	.size	_ZN5boost9iteratorsneIN3dod7pointerI8particleINS2_6accessIJNS2_6memberIcLi0EEENS6_IiLi0EEENS6_IiLi1EEEEEEEEESB_NS0_27random_access_traversal_tagESB_lSC_SB_SD_SB_lEENS0_6detail23enable_if_interoperableIT_T4_NS_3mpl6apply2INSE_12always_bool2ESG_SH_E4typeEE4typeERKNS0_15iterator_facadeISG_T0_T1_T2_T3_EERKNSP_ISH_T5_T6_T7_T8_EE, .-_ZN5boost9iteratorsneIN3dod7pointerI8particleINS2_6accessIJNS2_6memberIcLi0EEENS6_IiLi0EEENS6_IiLi1EEEEEEEEESB_NS0_27random_access_traversal_tagESB_lSC_SB_SD_SB_lEENS0_6detail23enable_if_interoperableIT_T4_NS_3mpl6apply2INSE_12always_bool2ESG_SH_E4typeEE4typeERKNS0_15iterator_facadeISG_T0_T1_T2_T3_EERKNSP_ISH_T5_T6_T7_T8_EE
	.weak	_ZN5boost9iteratorsneIN3dod7pointerI8particleINS2_6accessIINS2_6memberIcLi0EEENS6_IiLi0EEENS6_IiLi1EEEEEEEEESB_NS0_27random_access_traversal_tagESB_lSC_SB_SD_SB_lEENS0_6detail23enable_if_interoperableIT_T4_NS_3mpl6apply2INSE_12always_bool2ESG_SH_E4typeEE4typeERKNS0_15iterator_facadeISG_T0_T1_T2_T3_EERKNSP_ISH_T5_T6_T7_T8_EE
	.set	_ZN5boost9iteratorsneIN3dod7pointerI8particleINS2_6accessIINS2_6memberIcLi0EEENS6_IiLi0EEENS6_IiLi1EEEEEEEEESB_NS0_27random_access_traversal_tagESB_lSC_SB_SD_SB_lEENS0_6detail23enable_if_interoperableIT_T4_NS_3mpl6apply2INSE_12always_bool2ESG_SH_E4typeEE4typeERKNS0_15iterator_facadeISG_T0_T1_T2_T3_EERKNSP_ISH_T5_T6_T7_T8_EE,_ZN5boost9iteratorsneIN3dod7pointerI8particleINS2_6accessIJNS2_6memberIcLi0EEENS6_IiLi0EEENS6_IiLi1EEEEEEEEESB_NS0_27random_access_traversal_tagESB_lSC_SB_SD_SB_lEENS0_6detail23enable_if_interoperableIT_T4_NS_3mpl6apply2INSE_12always_bool2ESG_SH_E4typeEE4typeERKNS0_15iterator_facadeISG_T0_T1_T2_T3_EERKNSP_ISH_T5_T6_T7_T8_EE
	.section	.text._ZNK5boost9iterators6detail20iterator_facade_baseIN3dod7pointerI8particleINS3_6accessIJNS3_6memberIcLi0EEENS7_IiLi0EEENS7_IiLi1EEEEEEEEESC_NS0_27random_access_traversal_tagESC_lLb0ELb0EEptEv,"axG",@progbits,_ZNK5boost9iterators6detail20iterator_facade_baseIN3dod7pointerI8particleINS3_6accessIJNS3_6memberIcLi0EEENS7_IiLi0EEENS7_IiLi1EEEEEEEEESC_NS0_27random_access_traversal_tagESC_lLb0ELb0EEptEv,comdat
	.align 2
	.weak	_ZNK5boost9iterators6detail20iterator_facade_baseIN3dod7pointerI8particleINS3_6accessIJNS3_6memberIcLi0EEENS7_IiLi0EEENS7_IiLi1EEEEEEEEESC_NS0_27random_access_traversal_tagESC_lLb0ELb0EEptEv
	.type	_ZNK5boost9iterators6detail20iterator_facade_baseIN3dod7pointerI8particleINS3_6accessIJNS3_6memberIcLi0EEENS7_IiLi0EEENS7_IiLi1EEEEEEEEESC_NS0_27random_access_traversal_tagESC_lLb0ELb0EEptEv, @function
_ZNK5boost9iterators6detail20iterator_facade_baseIN3dod7pointerI8particleINS3_6accessIJNS3_6memberIcLi0EEENS7_IiLi0EEENS7_IiLi1EEEEEEEEESC_NS0_27random_access_traversal_tagESC_lLb0ELb0EEptEv:
.LFB7324:
	.loc 8 649 0
	.cfi_startproc
	pushq	%rbp
	.cfi_def_cfa_offset 16
	.cfi_offset 6, -16
	movq	%rsp, %rbp
	.cfi_def_cfa_register 6
	subq	$48, %rsp
	movq	%rdi, -40(%rbp)
	movq	%rsi, -48(%rbp)
	.loc 8 651 0
	movq	-48(%rbp), %rax
	movq	%rax, %rdi
	call	_ZNK5boost9iterators6detail20iterator_facade_baseIN3dod7pointerI8particleINS3_6accessIJNS3_6memberIcLi0EEENS7_IiLi0EEENS7_IiLi1EEEEEEEEESC_NS0_27random_access_traversal_tagESC_lLb0ELb0EE7derivedEv
	movq	%rax, %rdx
	leaq	-32(%rbp), %rax
	movq	%rdx, %rsi
	movq	%rax, %rdi
	call	_ZNK5boost9iterators6detail20iterator_facade_baseIN3dod7pointerI8particleINS3_6accessIJNS3_6memberIcLi0EEENS7_IiLi0EEENS7_IiLi1EEEEEEEEESC_NS0_27random_access_traversal_tagESC_lLb0ELb0EEdeEv
	movq	-40(%rbp), %rax
	leaq	-32(%rbp), %rdx
	movq	%rdx, %rsi
	movq	%rax, %rdi
	call	_ZN5boost9iterators6detail23operator_arrow_dispatchI8particleIN3dod6accessIJNS4_6memberIcLi0EEENS6_IiLi0EEENS6_IiLi1EEEEEEEPSB_E5applyERKSB_
	.loc 8 652 0
	movq	-40(%rbp), %rax
	leave
	.cfi_def_cfa 7, 8
	ret
	.cfi_endproc
.LFE7324:
	.size	_ZNK5boost9iterators6detail20iterator_facade_baseIN3dod7pointerI8particleINS3_6accessIJNS3_6memberIcLi0EEENS7_IiLi0EEENS7_IiLi1EEEEEEEEESC_NS0_27random_access_traversal_tagESC_lLb0ELb0EEptEv, .-_ZNK5boost9iterators6detail20iterator_facade_baseIN3dod7pointerI8particleINS3_6accessIJNS3_6memberIcLi0EEENS7_IiLi0EEENS7_IiLi1EEEEEEEEESC_NS0_27random_access_traversal_tagESC_lLb0ELb0EEptEv
	.weak	_ZNK5boost9iterators6detail20iterator_facade_baseIN3dod7pointerI8particleINS3_6accessIINS3_6memberIcLi0EEENS7_IiLi0EEENS7_IiLi1EEEEEEEEESC_NS0_27random_access_traversal_tagESC_lLb0ELb0EEptEv
	.set	_ZNK5boost9iterators6detail20iterator_facade_baseIN3dod7pointerI8particleINS3_6accessIINS3_6memberIcLi0EEENS7_IiLi0EEENS7_IiLi1EEEEEEEEESC_NS0_27random_access_traversal_tagESC_lLb0ELb0EEptEv,_ZNK5boost9iterators6detail20iterator_facade_baseIN3dod7pointerI8particleINS3_6accessIJNS3_6memberIcLi0EEENS7_IiLi0EEENS7_IiLi1EEEEEEEEESC_NS0_27random_access_traversal_tagESC_lLb0ELb0EEptEv
	.section	.text._ZN5boost9iterators6detail23operator_arrow_dispatchI8particleIN3dod6accessIJNS4_6memberIcLi0EEENS6_IiLi0EEENS6_IiLi1EEEEEEEPSB_E5proxyptEv,"axG",@progbits,_ZN5boost9iterators6detail23operator_arrow_dispatchI8particleIN3dod6accessIJNS4_6memberIcLi0EEENS6_IiLi0EEENS6_IiLi1EEEEEEEPSB_E5proxyptEv,comdat
	.align 2
	.weak	_ZN5boost9iterators6detail23operator_arrow_dispatchI8particleIN3dod6accessIJNS4_6memberIcLi0EEENS6_IiLi0EEENS6_IiLi1EEEEEEEPSB_E5proxyptEv
	.type	_ZN5boost9iterators6detail23operator_arrow_dispatchI8particleIN3dod6accessIJNS4_6memberIcLi0EEENS6_IiLi0EEENS6_IiLi1EEEEEEEPSB_E5proxyptEv, @function
_ZN5boost9iterators6detail23operator_arrow_dispatchI8particleIN3dod6accessIJNS4_6memberIcLi0EEENS6_IiLi0EEENS6_IiLi1EEEEEEEPSB_E5proxyptEv:
.LFB7325:
	.loc 8 317 0
	.cfi_startproc
	pushq	%rbp
	.cfi_def_cfa_offset 16
	.cfi_offset 6, -16
	movq	%rsp, %rbp
	.cfi_def_cfa_register 6
	movq	%rdi, -56(%rbp)
	.loc 8 317 0
	movq	-56(%rbp), %rax
	movq	%rax, -8(%rbp)
	movq	-8(%rbp), %rax
	movq	%rax, -16(%rbp)
.LBB93:
.LBB94:
.LBB95:
.LBB96:
.LBB97:
	.loc 14 29 0
	movq	-16(%rbp), %rax
	movq	%rax, -48(%rbp)
.LBE97:
.LBE96:
.LBE95:
.LBB98:
.LBB99:
	.loc 14 30 0
	movq	-48(%rbp), %rax
	movq	%rax, -24(%rbp)
	movq	$0, -32(%rbp)
.LBE99:
.LBE98:
.LBB100:
.LBB101:
	.loc 14 41 0
	movq	-24(%rbp), %rax
.LBE101:
.LBE100:
.LBE94:
.LBE93:
	.loc 8 317 0
	nop
	popq	%rbp
	.cfi_def_cfa 7, 8
	ret
	.cfi_endproc
.LFE7325:
	.size	_ZN5boost9iterators6detail23operator_arrow_dispatchI8particleIN3dod6accessIJNS4_6memberIcLi0EEENS6_IiLi0EEENS6_IiLi1EEEEEEEPSB_E5proxyptEv, .-_ZN5boost9iterators6detail23operator_arrow_dispatchI8particleIN3dod6accessIJNS4_6memberIcLi0EEENS6_IiLi0EEENS6_IiLi1EEEEEEEPSB_E5proxyptEv
	.weak	_ZN5boost9iterators6detail23operator_arrow_dispatchI8particleIN3dod6accessIINS4_6memberIcLi0EEENS6_IiLi0EEENS6_IiLi1EEEEEEEPSB_E5proxyptEv
	.set	_ZN5boost9iterators6detail23operator_arrow_dispatchI8particleIN3dod6accessIINS4_6memberIcLi0EEENS6_IiLi0EEENS6_IiLi1EEEEEEEPSB_E5proxyptEv,_ZN5boost9iterators6detail23operator_arrow_dispatchI8particleIN3dod6accessIJNS4_6memberIcLi0EEENS6_IiLi0EEENS6_IiLi1EEEEEEEPSB_E5proxyptEv
	.section	.text._ZNK8particleIN3dod6accessIJNS0_6memberIcLi0EEENS2_IiLi0EEENS2_IiLi1EEEEEEE6renderEv,"axG",@progbits,_ZNK8particleIN3dod6accessIJNS0_6memberIcLi0EEENS2_IiLi0EEENS2_IiLi1EEEEEEE6renderEv,comdat
	.align 2
	.weak	_ZNK8particleIN3dod6accessIJNS0_6memberIcLi0EEENS2_IiLi0EEENS2_IiLi1EEEEEEE6renderEv
	.type	_ZNK8particleIN3dod6accessIJNS0_6memberIcLi0EEENS2_IiLi0EEENS2_IiLi1EEEEEEE6renderEv, @function
_ZNK8particleIN3dod6accessIJNS0_6memberIcLi0EEENS2_IiLi0EEENS2_IiLi1EEEEEEE6renderEv:
.LFB7326:
	.loc 5 231 0
	.cfi_startproc
	pushq	%rbp
	.cfi_def_cfa_offset 16
	.cfi_offset 6, -16
	movq	%rsp, %rbp
	.cfi_def_cfa_register 6
	pushq	%r13
	pushq	%r12
	pushq	%rbx
	subq	$40, %rsp
	.cfi_offset 13, -24
	.cfi_offset 12, -32
	.cfi_offset 3, -40
	movq	%rdi, -56(%rbp)
	.loc 5 233 0
	movq	-56(%rbp), %rax
	subq	$8, %rsp
	pushq	%rdx
	movq	%rax, %rdi
	call	_ZNK3dod6accessIJNS_6memberIcLi0EEENS1_IiLi0EEENS1_IiLi1EEEEE3getES2_
	addq	$16, %rsp
	movzbl	(%rax), %eax
	movsbl	%al, %r12d
	movq	-56(%rbp), %rax
	subq	$8, %rsp
	pushq	%rbx
	movq	%rax, %rdi
	call	_ZNK3dod6accessIJNS_6memberIiLi1EEEEE3getES2_
	addq	$16, %rsp
	movl	(%rax), %ebx
	movq	-56(%rbp), %rax
	subq	$8, %rsp
	pushq	%r13
	movq	%rax, %rdi
	call	_ZNK3dod6accessIJNS_6memberIiLi0EEENS1_IiLi1EEEEE3getES2_
	addq	$16, %rsp
	movl	(%rax), %eax
	movl	%r12d, %edx
	movl	%ebx, %esi
	movl	%eax, %edi
	call	_Z9do_renderiic
	.loc 5 234 0
	nop
	leaq	-24(%rbp), %rsp
	popq	%rbx
	popq	%r12
	popq	%r13
	popq	%rbp
	.cfi_def_cfa 7, 8
	ret
	.cfi_endproc
.LFE7326:
	.size	_ZNK8particleIN3dod6accessIJNS0_6memberIcLi0EEENS2_IiLi0EEENS2_IiLi1EEEEEEE6renderEv, .-_ZNK8particleIN3dod6accessIJNS0_6memberIcLi0EEENS2_IiLi0EEENS2_IiLi1EEEEEEE6renderEv
	.weak	_ZNK8particleIN3dod6accessIINS0_6memberIcLi0EEENS2_IiLi0EEENS2_IiLi1EEEEEEE6renderEv
	.set	_ZNK8particleIN3dod6accessIINS0_6memberIcLi0EEENS2_IiLi0EEENS2_IiLi1EEEEEEE6renderEv,_ZNK8particleIN3dod6accessIJNS0_6memberIcLi0EEENS2_IiLi0EEENS2_IiLi1EEEEEEE6renderEv
	.section	.text._ZN5boost9iterators6detail20iterator_facade_baseIN3dod7pointerI8particleINS3_6accessIJNS3_6memberIcLi0EEENS7_IiLi0EEENS7_IiLi1EEEEEEEEESC_NS0_27random_access_traversal_tagESC_lLb0ELb0EEppEv,"axG",@progbits,_ZN5boost9iterators6detail20iterator_facade_baseIN3dod7pointerI8particleINS3_6accessIJNS3_6memberIcLi0EEENS7_IiLi0EEENS7_IiLi1EEEEEEEEESC_NS0_27random_access_traversal_tagESC_lLb0ELb0EEppEv,comdat
	.align 2
	.weak	_ZN5boost9iterators6detail20iterator_facade_baseIN3dod7pointerI8particleINS3_6accessIJNS3_6memberIcLi0EEENS7_IiLi0EEENS7_IiLi1EEEEEEEEESC_NS0_27random_access_traversal_tagESC_lLb0ELb0EEppEv
	.type	_ZN5boost9iterators6detail20iterator_facade_baseIN3dod7pointerI8particleINS3_6accessIJNS3_6memberIcLi0EEENS7_IiLi0EEENS7_IiLi1EEEEEEEEESC_NS0_27random_access_traversal_tagESC_lLb0ELb0EEppEv, @function
_ZN5boost9iterators6detail20iterator_facade_baseIN3dod7pointerI8particleINS3_6accessIJNS3_6memberIcLi0EEENS7_IiLi0EEENS7_IiLi1EEEEEEEEESC_NS0_27random_access_traversal_tagESC_lLb0ELb0EEppEv:
.LFB7327:
	.loc 8 654 0
	.cfi_startproc
	pushq	%rbp
	.cfi_def_cfa_offset 16
	.cfi_offset 6, -16
	movq	%rsp, %rbp
	.cfi_def_cfa_register 6
	subq	$16, %rsp
	movq	%rdi, -8(%rbp)
	.loc 8 656 0
	movq	-8(%rbp), %rax
	movq	%rax, %rdi
	call	_ZN5boost9iterators6detail20iterator_facade_baseIN3dod7pointerI8particleINS3_6accessIJNS3_6memberIcLi0EEENS7_IiLi0EEENS7_IiLi1EEEEEEEEESC_NS0_27random_access_traversal_tagESC_lLb0ELb0EE7derivedEv
	movq	%rax, %rdi
	call	_ZN5boost9iterators20iterator_core_access9incrementIN3dod7pointerI8particleINS3_6accessIJNS3_6memberIcLi0EEENS7_IiLi0EEENS7_IiLi1EEEEEEEEEEEvRT_
	.loc 8 657 0
	movq	-8(%rbp), %rax
	movq	%rax, %rdi
	call	_ZN5boost9iterators6detail20iterator_facade_baseIN3dod7pointerI8particleINS3_6accessIJNS3_6memberIcLi0EEENS7_IiLi0EEENS7_IiLi1EEEEEEEEESC_NS0_27random_access_traversal_tagESC_lLb0ELb0EE7derivedEv
	.loc 8 658 0
	leave
	.cfi_def_cfa 7, 8
	ret
	.cfi_endproc
.LFE7327:
	.size	_ZN5boost9iterators6detail20iterator_facade_baseIN3dod7pointerI8particleINS3_6accessIJNS3_6memberIcLi0EEENS7_IiLi0EEENS7_IiLi1EEEEEEEEESC_NS0_27random_access_traversal_tagESC_lLb0ELb0EEppEv, .-_ZN5boost9iterators6detail20iterator_facade_baseIN3dod7pointerI8particleINS3_6accessIJNS3_6memberIcLi0EEENS7_IiLi0EEENS7_IiLi1EEEEEEEEESC_NS0_27random_access_traversal_tagESC_lLb0ELb0EEppEv
	.weak	_ZN5boost9iterators6detail20iterator_facade_baseIN3dod7pointerI8particleINS3_6accessIINS3_6memberIcLi0EEENS7_IiLi0EEENS7_IiLi1EEEEEEEEESC_NS0_27random_access_traversal_tagESC_lLb0ELb0EEppEv
	.set	_ZN5boost9iterators6detail20iterator_facade_baseIN3dod7pointerI8particleINS3_6accessIINS3_6memberIcLi0EEENS7_IiLi0EEENS7_IiLi1EEEEEEEEESC_NS0_27random_access_traversal_tagESC_lLb0ELb0EEppEv,_ZN5boost9iterators6detail20iterator_facade_baseIN3dod7pointerI8particleINS3_6accessIJNS3_6memberIcLi0EEENS7_IiLi0EEENS7_IiLi1EEEEEEEEESC_NS0_27random_access_traversal_tagESC_lLb0ELb0EEppEv
	.text
	.type	_Z7measureIZ4mainEUlvE2_EdT_, @function
_Z7measureIZ4mainEUlvE2_EdT_:
.LFB7328:
	.loc 5 17 0
	.cfi_startproc
	pushq	%rbp
	.cfi_def_cfa_offset 16
	.cfi_offset 6, -16
	movq	%rsp, %rbp
	.cfi_def_cfa_register 6
	pushq	%rbx
	subq	$168, %rsp
	.cfi_offset 3, -24
.LBB102:
	.loc 5 26 0
	movl	$0, -20(%rbp)
.L300:
	.loc 5 26 0 is_stmt 0 discriminator 1
	cmpl	$9, -20(%rbp)
	jg	.L297
.LBB103:
	.loc 5 27 0 is_stmt 1
	movl	$0, -24(%rbp)
	.loc 5 28 0
	movq	$0, -160(%rbp)
	.loc 5 30 0
	call	_ZNSt6chrono3_V212system_clock3nowEv
	movq	%rax, measure_start(%rip)
.L299:
	.loc 5 32 0
	leaq	16(%rbp), %rdi
	call	_ZZ4mainENKUlvE2_clEv
	movl	%eax, _ZZ7measureIZ4mainEUlvE2_EdT_E3res(%rip)
	.loc 5 33 0
	addl	$1, -24(%rbp)
	.loc 5 34 0
	call	_ZNSt6chrono3_V212system_clock3nowEv
	movq	%rax, -160(%rbp)
	.loc 5 35 0
	leaq	-160(%rbp), %rax
	movl	$measure_start, %esi
	movq	%rax, %rdi
	call	_ZNSt6chronomiINS_3_V212system_clockENS_8durationIlSt5ratioILl1ELl1000000000EEEES6_EENSt11common_typeIJT0_T1_EE4typeERKNS_10time_pointIT_S8_EERKNSC_ISD_S9_EE
	movq	%rax, -64(%rbp)
	.loc 5 31 0
	leaq	-64(%rbp), %rax
	movl	$_ZZ7measureIZ4mainEUlvE2_EdT_E18min_time_per_trial, %esi
	movq	%rax, %rdi
	call	_ZNSt6chronoltIlSt5ratioILl1ELl1000000000EElS1_ILl1ELl1000EEEEbRKNS_8durationIT_T0_EERKNS4_IT1_T2_EE
	testb	%al, %al
	je	.L298
	jmp	.L299
.L298:
	.loc 5 36 0 discriminator 2
	movl	-20(%rbp), %eax
	movslq	%eax, %rdx
	leaq	-144(%rbp), %rax
	movq	%rdx, %rsi
	movq	%rax, %rdi
	call	_ZNSt5arrayIdLm10EEixEm
	movq	%rax, %rbx
	leaq	-160(%rbp), %rax
	movl	$measure_start, %esi
	movq	%rax, %rdi
	call	_ZNSt6chronomiINS_3_V212system_clockENS_8durationIlSt5ratioILl1ELl1000000000EEEES6_EENSt11common_typeIJT0_T1_EE4typeERKNS_10time_pointIT_S8_EERKNSC_ISD_S9_EE
	movq	%rax, -32(%rbp)
	leaq	-32(%rbp), %rax
	movq	%rax, %rdi
	call	_ZNSt6chrono13duration_castINS_8durationIdSt5ratioILl1ELl1EEEElS2_ILl1ELl1000000000EEEENSt9enable_ifIXsrNS_13__is_durationIT_EE5valueES8_E4typeERKNS1_IT0_T1_EE
	movq	%xmm0, %rax
	movq	%rax, -168(%rbp)
	movsd	-168(%rbp), %xmm0
	movsd	%xmm0, -48(%rbp)
	leaq	-48(%rbp), %rax
	movq	%rax, %rdi
	call	_ZNKSt6chrono8durationIdSt5ratioILl1ELl1EEE5countEv
	movapd	%xmm0, %xmm1
	pxor	%xmm0, %xmm0
	cvtsi2sd	-24(%rbp), %xmm0
	divsd	%xmm0, %xmm1
	movapd	%xmm1, %xmm0
	movsd	%xmm0, (%rbx)
.LBE103:
	.loc 5 26 0 discriminator 2
	addl	$1, -20(%rbp)
	jmp	.L300
.L297:
.LBE102:
	.loc 5 40 0
	leaq	-144(%rbp), %rax
	movq	%rax, %rdi
	call	_ZNSt5arrayIdLm10EE3endEv
	movq	%rax, %rbx
	leaq	-144(%rbp), %rax
	movq	%rax, %rdi
	call	_ZNSt5arrayIdLm10EE5beginEv
	movq	%rbx, %rsi
	movq	%rax, %rdi
	call	_ZSt4sortIPdEvT_S1_
	.loc 5 42 0
	leaq	-144(%rbp), %rax
	movq	%rax, %rdi
	call	_ZNSt5arrayIdLm10EE3endEv
	.loc 5 41 0
	leaq	-16(%rax), %rbx
	.loc 5 42 0
	leaq	-144(%rbp), %rax
	movq	%rax, %rdi
	call	_ZNSt5arrayIdLm10EE5beginEv
	.loc 5 41 0
	addq	$16, %rax
	pxor	%xmm0, %xmm0
	movq	%rbx, %rsi
	movq	%rax, %rdi
	call	_ZSt10accumulateIPddET0_T_S2_S1_
	movsd	%xmm0, -168(%rbp)
	.loc 5 42 0
	leaq	-144(%rbp), %rax
	movq	%rax, %rdi
	call	_ZNKSt5arrayIdLm10EE4sizeEv
	subq	$4, %rax
	testq	%rax, %rax
	js	.L301
	pxor	%xmm0, %xmm0
	cvtsi2sdq	%rax, %xmm0
	jmp	.L302
.L301:
	movq	%rax, %rdx
	shrq	%rdx
	andl	$1, %eax
	orq	%rax, %rdx
	pxor	%xmm0, %xmm0
	cvtsi2sdq	%rdx, %xmm0
	addsd	%xmm0, %xmm0
.L302:
	movsd	-168(%rbp), %xmm2
	divsd	%xmm0, %xmm2
	movapd	%xmm2, %xmm0
	.loc 5 43 0
	addq	$168, %rsp
	popq	%rbx
	popq	%rbp
	.cfi_def_cfa 7, 8
	ret
	.cfi_endproc
.LFE7328:
	.size	_Z7measureIZ4mainEUlvE2_EdT_, .-_Z7measureIZ4mainEUlvE2_EdT_
	.section	.text._ZNK9__gnu_cxx17__normal_iteratorIP14plain_particleSt6vectorIS1_SaIS1_EEEixEl,"axG",@progbits,_ZNK9__gnu_cxx17__normal_iteratorIP14plain_particleSt6vectorIS1_SaIS1_EEEixEl,comdat
	.align 2
	.weak	_ZNK9__gnu_cxx17__normal_iteratorIP14plain_particleSt6vectorIS1_SaIS1_EEEixEl
	.type	_ZNK9__gnu_cxx17__normal_iteratorIP14plain_particleSt6vectorIS1_SaIS1_EEEixEl, @function
_ZNK9__gnu_cxx17__normal_iteratorIP14plain_particleSt6vectorIS1_SaIS1_EEEixEl:
.LFB7329:
	.loc 12 785 0
	.cfi_startproc
	pushq	%rbp
	.cfi_def_cfa_offset 16
	.cfi_offset 6, -16
	movq	%rsp, %rbp
	.cfi_def_cfa_register 6
	movq	%rdi, -8(%rbp)
	movq	%rsi, -16(%rbp)
	.loc 12 786 0
	movq	-8(%rbp), %rax
	movq	(%rax), %rcx
	movq	-16(%rbp), %rdx
	movq	%rdx, %rax
	salq	$2, %rax
	addq	%rdx, %rax
	salq	$2, %rax
	addq	%rcx, %rax
	popq	%rbp
	.cfi_def_cfa 7, 8
	ret
	.cfi_endproc
.LFE7329:
	.size	_ZNK9__gnu_cxx17__normal_iteratorIP14plain_particleSt6vectorIS1_SaIS1_EEEixEl, .-_ZNK9__gnu_cxx17__normal_iteratorIP14plain_particleSt6vectorIS1_SaIS1_EEEixEl
	.text
	.type	_Z7measureIZ4mainEUlvE3_EdT_, @function
_Z7measureIZ4mainEUlvE3_EdT_:
.LFB7330:
	.loc 5 17 0
	.cfi_startproc
	pushq	%rbp
	.cfi_def_cfa_offset 16
	.cfi_offset 6, -16
	movq	%rsp, %rbp
	.cfi_def_cfa_register 6
	pushq	%rbx
	subq	$184, %rsp
	.cfi_offset 3, -24
	movq	%rdi, %rax
	movq	%rsi, %rcx
	movq	%rcx, %rdx
	movq	%rax, -176(%rbp)
	movq	%rdx, -168(%rbp)
.LBB104:
	.loc 5 26 0
	movl	$0, -20(%rbp)
.L310:
	.loc 5 26 0 is_stmt 0 discriminator 1
	cmpl	$9, -20(%rbp)
	jg	.L307
.LBB105:
	.loc 5 27 0 is_stmt 1
	movl	$0, -24(%rbp)
	.loc 5 28 0
	movq	$0, -160(%rbp)
	.loc 5 30 0
	call	_ZNSt6chrono3_V212system_clock3nowEv
	movq	%rax, measure_start(%rip)
.L309:
	.loc 5 32 0
	leaq	-176(%rbp), %rax
	movq	%rax, %rdi
	call	_ZZ4mainENKUlvE3_clEv
	movl	%eax, _ZZ7measureIZ4mainEUlvE3_EdT_E3res(%rip)
	.loc 5 33 0
	addl	$1, -24(%rbp)
	.loc 5 34 0
	call	_ZNSt6chrono3_V212system_clock3nowEv
	movq	%rax, -160(%rbp)
	.loc 5 35 0
	leaq	-160(%rbp), %rax
	movl	$measure_start, %esi
	movq	%rax, %rdi
	call	_ZNSt6chronomiINS_3_V212system_clockENS_8durationIlSt5ratioILl1ELl1000000000EEEES6_EENSt11common_typeIJT0_T1_EE4typeERKNS_10time_pointIT_S8_EERKNSC_ISD_S9_EE
	movq	%rax, -64(%rbp)
	.loc 5 31 0
	leaq	-64(%rbp), %rax
	movl	$_ZZ7measureIZ4mainEUlvE3_EdT_E18min_time_per_trial, %esi
	movq	%rax, %rdi
	call	_ZNSt6chronoltIlSt5ratioILl1ELl1000000000EElS1_ILl1ELl1000EEEEbRKNS_8durationIT_T0_EERKNS4_IT1_T2_EE
	testb	%al, %al
	je	.L308
	jmp	.L309
.L308:
	.loc 5 36 0 discriminator 2
	movl	-20(%rbp), %eax
	movslq	%eax, %rdx
	leaq	-144(%rbp), %rax
	movq	%rdx, %rsi
	movq	%rax, %rdi
	call	_ZNSt5arrayIdLm10EEixEm
	movq	%rax, %rbx
	leaq	-160(%rbp), %rax
	movl	$measure_start, %esi
	movq	%rax, %rdi
	call	_ZNSt6chronomiINS_3_V212system_clockENS_8durationIlSt5ratioILl1ELl1000000000EEEES6_EENSt11common_typeIJT0_T1_EE4typeERKNS_10time_pointIT_S8_EERKNSC_ISD_S9_EE
	movq	%rax, -32(%rbp)
	leaq	-32(%rbp), %rax
	movq	%rax, %rdi
	call	_ZNSt6chrono13duration_castINS_8durationIdSt5ratioILl1ELl1EEEElS2_ILl1ELl1000000000EEEENSt9enable_ifIXsrNS_13__is_durationIT_EE5valueES8_E4typeERKNS1_IT0_T1_EE
	movq	%xmm0, %rax
	movq	%rax, -184(%rbp)
	movsd	-184(%rbp), %xmm0
	movsd	%xmm0, -48(%rbp)
	leaq	-48(%rbp), %rax
	movq	%rax, %rdi
	call	_ZNKSt6chrono8durationIdSt5ratioILl1ELl1EEE5countEv
	movapd	%xmm0, %xmm1
	pxor	%xmm0, %xmm0
	cvtsi2sd	-24(%rbp), %xmm0
	divsd	%xmm0, %xmm1
	movapd	%xmm1, %xmm0
	movsd	%xmm0, (%rbx)
.LBE105:
	.loc 5 26 0 discriminator 2
	addl	$1, -20(%rbp)
	jmp	.L310
.L307:
.LBE104:
	.loc 5 40 0
	leaq	-144(%rbp), %rax
	movq	%rax, %rdi
	call	_ZNSt5arrayIdLm10EE3endEv
	movq	%rax, %rbx
	leaq	-144(%rbp), %rax
	movq	%rax, %rdi
	call	_ZNSt5arrayIdLm10EE5beginEv
	movq	%rbx, %rsi
	movq	%rax, %rdi
	call	_ZSt4sortIPdEvT_S1_
	.loc 5 42 0
	leaq	-144(%rbp), %rax
	movq	%rax, %rdi
	call	_ZNSt5arrayIdLm10EE3endEv
	.loc 5 41 0
	leaq	-16(%rax), %rbx
	.loc 5 42 0
	leaq	-144(%rbp), %rax
	movq	%rax, %rdi
	call	_ZNSt5arrayIdLm10EE5beginEv
	.loc 5 41 0
	addq	$16, %rax
	pxor	%xmm0, %xmm0
	movq	%rbx, %rsi
	movq	%rax, %rdi
	call	_ZSt10accumulateIPddET0_T_S2_S1_
	movsd	%xmm0, -184(%rbp)
	.loc 5 42 0
	leaq	-144(%rbp), %rax
	movq	%rax, %rdi
	call	_ZNKSt5arrayIdLm10EE4sizeEv
	subq	$4, %rax
	testq	%rax, %rax
	js	.L311
	pxor	%xmm0, %xmm0
	cvtsi2sdq	%rax, %xmm0
	jmp	.L312
.L311:
	movq	%rax, %rdx
	shrq	%rdx
	andl	$1, %eax
	orq	%rax, %rdx
	pxor	%xmm0, %xmm0
	cvtsi2sdq	%rdx, %xmm0
	addsd	%xmm0, %xmm0
.L312:
	movsd	-184(%rbp), %xmm2
	divsd	%xmm0, %xmm2
	movapd	%xmm2, %xmm0
	.loc 5 43 0
	addq	$184, %rsp
	popq	%rbx
	popq	%rbp
	.cfi_def_cfa 7, 8
	ret
	.cfi_endproc
.LFE7330:
	.size	_Z7measureIZ4mainEUlvE3_EdT_, .-_Z7measureIZ4mainEUlvE3_EdT_
	.type	_Z7measureIZ4mainEUlvE4_EdT_, @function
_Z7measureIZ4mainEUlvE4_EdT_:
.LFB7331:
	.loc 5 17 0
	.cfi_startproc
	pushq	%rbp
	.cfi_def_cfa_offset 16
	.cfi_offset 6, -16
	movq	%rsp, %rbp
	.cfi_def_cfa_register 6
	pushq	%rbx
	subq	$168, %rsp
	.cfi_offset 3, -24
.LBB106:
	.loc 5 26 0
	movl	$0, -20(%rbp)
.L318:
	.loc 5 26 0 is_stmt 0 discriminator 1
	cmpl	$9, -20(%rbp)
	jg	.L315
.LBB107:
	.loc 5 27 0 is_stmt 1
	movl	$0, -24(%rbp)
	.loc 5 28 0
	movq	$0, -160(%rbp)
	.loc 5 30 0
	call	_ZNSt6chrono3_V212system_clock3nowEv
	movq	%rax, measure_start(%rip)
.L317:
	.loc 5 32 0
	leaq	16(%rbp), %rdi
	call	_ZZ4mainENKUlvE4_clEv
	movl	%eax, _ZZ7measureIZ4mainEUlvE4_EdT_E3res(%rip)
	.loc 5 33 0
	addl	$1, -24(%rbp)
	.loc 5 34 0
	call	_ZNSt6chrono3_V212system_clock3nowEv
	movq	%rax, -160(%rbp)
	.loc 5 35 0
	leaq	-160(%rbp), %rax
	movl	$measure_start, %esi
	movq	%rax, %rdi
	call	_ZNSt6chronomiINS_3_V212system_clockENS_8durationIlSt5ratioILl1ELl1000000000EEEES6_EENSt11common_typeIJT0_T1_EE4typeERKNS_10time_pointIT_S8_EERKNSC_ISD_S9_EE
	movq	%rax, -64(%rbp)
	.loc 5 31 0
	leaq	-64(%rbp), %rax
	movl	$_ZZ7measureIZ4mainEUlvE4_EdT_E18min_time_per_trial, %esi
	movq	%rax, %rdi
	call	_ZNSt6chronoltIlSt5ratioILl1ELl1000000000EElS1_ILl1ELl1000EEEEbRKNS_8durationIT_T0_EERKNS4_IT1_T2_EE
	testb	%al, %al
	je	.L316
	jmp	.L317
.L316:
	.loc 5 36 0 discriminator 2
	movl	-20(%rbp), %eax
	movslq	%eax, %rdx
	leaq	-144(%rbp), %rax
	movq	%rdx, %rsi
	movq	%rax, %rdi
	call	_ZNSt5arrayIdLm10EEixEm
	movq	%rax, %rbx
	leaq	-160(%rbp), %rax
	movl	$measure_start, %esi
	movq	%rax, %rdi
	call	_ZNSt6chronomiINS_3_V212system_clockENS_8durationIlSt5ratioILl1ELl1000000000EEEES6_EENSt11common_typeIJT0_T1_EE4typeERKNS_10time_pointIT_S8_EERKNSC_ISD_S9_EE
	movq	%rax, -32(%rbp)
	leaq	-32(%rbp), %rax
	movq	%rax, %rdi
	call	_ZNSt6chrono13duration_castINS_8durationIdSt5ratioILl1ELl1EEEElS2_ILl1ELl1000000000EEEENSt9enable_ifIXsrNS_13__is_durationIT_EE5valueES8_E4typeERKNS1_IT0_T1_EE
	movq	%xmm0, %rax
	movq	%rax, -168(%rbp)
	movsd	-168(%rbp), %xmm0
	movsd	%xmm0, -48(%rbp)
	leaq	-48(%rbp), %rax
	movq	%rax, %rdi
	call	_ZNKSt6chrono8durationIdSt5ratioILl1ELl1EEE5countEv
	movapd	%xmm0, %xmm1
	pxor	%xmm0, %xmm0
	cvtsi2sd	-24(%rbp), %xmm0
	divsd	%xmm0, %xmm1
	movapd	%xmm1, %xmm0
	movsd	%xmm0, (%rbx)
.LBE107:
	.loc 5 26 0 discriminator 2
	addl	$1, -20(%rbp)
	jmp	.L318
.L315:
.LBE106:
	.loc 5 40 0
	leaq	-144(%rbp), %rax
	movq	%rax, %rdi
	call	_ZNSt5arrayIdLm10EE3endEv
	movq	%rax, %rbx
	leaq	-144(%rbp), %rax
	movq	%rax, %rdi
	call	_ZNSt5arrayIdLm10EE5beginEv
	movq	%rbx, %rsi
	movq	%rax, %rdi
	call	_ZSt4sortIPdEvT_S1_
	.loc 5 42 0
	leaq	-144(%rbp), %rax
	movq	%rax, %rdi
	call	_ZNSt5arrayIdLm10EE3endEv
	.loc 5 41 0
	leaq	-16(%rax), %rbx
	.loc 5 42 0
	leaq	-144(%rbp), %rax
	movq	%rax, %rdi
	call	_ZNSt5arrayIdLm10EE5beginEv
	.loc 5 41 0
	addq	$16, %rax
	pxor	%xmm0, %xmm0
	movq	%rbx, %rsi
	movq	%rax, %rdi
	call	_ZSt10accumulateIPddET0_T_S2_S1_
	movsd	%xmm0, -168(%rbp)
	.loc 5 42 0
	leaq	-144(%rbp), %rax
	movq	%rax, %rdi
	call	_ZNKSt5arrayIdLm10EE4sizeEv
	subq	$4, %rax
	testq	%rax, %rax
	js	.L319
	pxor	%xmm0, %xmm0
	cvtsi2sdq	%rax, %xmm0
	jmp	.L320
.L319:
	movq	%rax, %rdx
	shrq	%rdx
	andl	$1, %eax
	orq	%rax, %rdx
	pxor	%xmm0, %xmm0
	cvtsi2sdq	%rdx, %xmm0
	addsd	%xmm0, %xmm0
.L320:
	movsd	-168(%rbp), %xmm2
	divsd	%xmm0, %xmm2
	movapd	%xmm2, %xmm0
	.loc 5 43 0
	addq	$168, %rsp
	popq	%rbx
	popq	%rbp
	.cfi_def_cfa 7, 8
	ret
	.cfi_endproc
.LFE7331:
	.size	_Z7measureIZ4mainEUlvE4_EdT_, .-_Z7measureIZ4mainEUlvE4_EdT_
	.section	.text._ZNK3dod7pointerI8particleINS_6accessIJNS_6memberIcLi0EEENS3_IiLi0EEENS3_IiLi1EEENS3_IiLi2EEENS3_IiLi3EEEEEEEEixEl,"axG",@progbits,_ZNK3dod7pointerI8particleINS_6accessIJNS_6memberIcLi0EEENS3_IiLi0EEENS3_IiLi1EEENS3_IiLi2EEENS3_IiLi3EEEEEEEEixEl,comdat
	.align 2
	.weak	_ZNK3dod7pointerI8particleINS_6accessIJNS_6memberIcLi0EEENS3_IiLi0EEENS3_IiLi1EEENS3_IiLi2EEENS3_IiLi3EEEEEEEEixEl
	.type	_ZNK3dod7pointerI8particleINS_6accessIJNS_6memberIcLi0EEENS3_IiLi0EEENS3_IiLi1EEENS3_IiLi2EEENS3_IiLi3EEEEEEEEixEl, @function
_ZNK3dod7pointerI8particleINS_6accessIJNS_6memberIcLi0EEENS3_IiLi0EEENS3_IiLi1EEENS3_IiLi2EEENS3_IiLi3EEEEEEEEixEl:
.LFB7332:
	.loc 5 130 0
	.cfi_startproc
	pushq	%rbp
	.cfi_def_cfa_offset 16
	.cfi_offset 6, -16
	movq	%rsp, %rbp
	.cfi_def_cfa_register 6
	subq	$80, %rsp
	movq	%rdi, -56(%rbp)
	movq	%rsi, -64(%rbp)
	movq	%rdx, -72(%rbp)
	.loc 5 132 0
	movq	-64(%rbp), %rcx
	movq	-72(%rbp), %rdx
	leaq	-48(%rbp), %rax
	movq	%rcx, %rsi
	movq	%rax, %rdi
	call	_ZN3dod6accessIJNS_6memberIcLi0EEENS1_IiLi0EEENS1_IiLi1EEENS1_IiLi2EEENS1_IiLi3EEEEEC1ERKS7_l
	leaq	-48(%rbp), %rdx
	movq	-56(%rbp), %rax
	movq	%rdx, %rsi
	movq	%rax, %rdi
	call	_ZN8particleIN3dod6accessIJNS0_6memberIcLi0EEENS2_IiLi0EEENS2_IiLi1EEENS2_IiLi2EEENS2_IiLi3EEEEEEEC1ERKS8_
	.loc 5 133 0
	movq	-56(%rbp), %rax
	leave
	.cfi_def_cfa 7, 8
	ret
	.cfi_endproc
.LFE7332:
	.size	_ZNK3dod7pointerI8particleINS_6accessIJNS_6memberIcLi0EEENS3_IiLi0EEENS3_IiLi1EEENS3_IiLi2EEENS3_IiLi3EEEEEEEEixEl, .-_ZNK3dod7pointerI8particleINS_6accessIJNS_6memberIcLi0EEENS3_IiLi0EEENS3_IiLi1EEENS3_IiLi2EEENS3_IiLi3EEEEEEEEixEl
	.weak	_ZNK3dod7pointerI8particleINS_6accessIINS_6memberIcLi0EEENS3_IiLi0EEENS3_IiLi1EEENS3_IiLi2EEENS3_IiLi3EEEEEEEEixEl
	.set	_ZNK3dod7pointerI8particleINS_6accessIINS_6memberIcLi0EEENS3_IiLi0EEENS3_IiLi1EEENS3_IiLi2EEENS3_IiLi3EEEEEEEEixEl,_ZNK3dod7pointerI8particleINS_6accessIJNS_6memberIcLi0EEENS3_IiLi0EEENS3_IiLi1EEENS3_IiLi2EEENS3_IiLi3EEEEEEEEixEl
	.text
	.type	_Z7measureIZ4mainEUlvE5_EdT_, @function
_Z7measureIZ4mainEUlvE5_EdT_:
.LFB7333:
	.loc 5 17 0
	.cfi_startproc
	pushq	%rbp
	.cfi_def_cfa_offset 16
	.cfi_offset 6, -16
	movq	%rsp, %rbp
	.cfi_def_cfa_register 6
	pushq	%rbx
	subq	$168, %rsp
	.cfi_offset 3, -24
.LBB108:
	.loc 5 26 0
	movl	$0, -20(%rbp)
.L328:
	.loc 5 26 0 is_stmt 0 discriminator 1
	cmpl	$9, -20(%rbp)
	jg	.L325
.LBB109:
	.loc 5 27 0 is_stmt 1
	movl	$0, -24(%rbp)
	.loc 5 28 0
	movq	$0, -160(%rbp)
	.loc 5 30 0
	call	_ZNSt6chrono3_V212system_clock3nowEv
	movq	%rax, measure_start(%rip)
.L327:
	.loc 5 32 0
	leaq	16(%rbp), %rdi
	call	_ZZ4mainENKUlvE5_clEv
	movl	%eax, _ZZ7measureIZ4mainEUlvE5_EdT_E3res(%rip)
	.loc 5 33 0
	addl	$1, -24(%rbp)
	.loc 5 34 0
	call	_ZNSt6chrono3_V212system_clock3nowEv
	movq	%rax, -160(%rbp)
	.loc 5 35 0
	leaq	-160(%rbp), %rax
	movl	$measure_start, %esi
	movq	%rax, %rdi
	call	_ZNSt6chronomiINS_3_V212system_clockENS_8durationIlSt5ratioILl1ELl1000000000EEEES6_EENSt11common_typeIJT0_T1_EE4typeERKNS_10time_pointIT_S8_EERKNSC_ISD_S9_EE
	movq	%rax, -64(%rbp)
	.loc 5 31 0
	leaq	-64(%rbp), %rax
	movl	$_ZZ7measureIZ4mainEUlvE5_EdT_E18min_time_per_trial, %esi
	movq	%rax, %rdi
	call	_ZNSt6chronoltIlSt5ratioILl1ELl1000000000EElS1_ILl1ELl1000EEEEbRKNS_8durationIT_T0_EERKNS4_IT1_T2_EE
	testb	%al, %al
	je	.L326
	jmp	.L327
.L326:
	.loc 5 36 0 discriminator 2
	movl	-20(%rbp), %eax
	movslq	%eax, %rdx
	leaq	-144(%rbp), %rax
	movq	%rdx, %rsi
	movq	%rax, %rdi
	call	_ZNSt5arrayIdLm10EEixEm
	movq	%rax, %rbx
	leaq	-160(%rbp), %rax
	movl	$measure_start, %esi
	movq	%rax, %rdi
	call	_ZNSt6chronomiINS_3_V212system_clockENS_8durationIlSt5ratioILl1ELl1000000000EEEES6_EENSt11common_typeIJT0_T1_EE4typeERKNS_10time_pointIT_S8_EERKNSC_ISD_S9_EE
	movq	%rax, -32(%rbp)
	leaq	-32(%rbp), %rax
	movq	%rax, %rdi
	call	_ZNSt6chrono13duration_castINS_8durationIdSt5ratioILl1ELl1EEEElS2_ILl1ELl1000000000EEEENSt9enable_ifIXsrNS_13__is_durationIT_EE5valueES8_E4typeERKNS1_IT0_T1_EE
	movq	%xmm0, %rax
	movq	%rax, -168(%rbp)
	movsd	-168(%rbp), %xmm0
	movsd	%xmm0, -48(%rbp)
	leaq	-48(%rbp), %rax
	movq	%rax, %rdi
	call	_ZNKSt6chrono8durationIdSt5ratioILl1ELl1EEE5countEv
	movapd	%xmm0, %xmm1
	pxor	%xmm0, %xmm0
	cvtsi2sd	-24(%rbp), %xmm0
	divsd	%xmm0, %xmm1
	movapd	%xmm1, %xmm0
	movsd	%xmm0, (%rbx)
.LBE109:
	.loc 5 26 0 discriminator 2
	addl	$1, -20(%rbp)
	jmp	.L328
.L325:
.LBE108:
	.loc 5 40 0
	leaq	-144(%rbp), %rax
	movq	%rax, %rdi
	call	_ZNSt5arrayIdLm10EE3endEv
	movq	%rax, %rbx
	leaq	-144(%rbp), %rax
	movq	%rax, %rdi
	call	_ZNSt5arrayIdLm10EE5beginEv
	movq	%rbx, %rsi
	movq	%rax, %rdi
	call	_ZSt4sortIPdEvT_S1_
	.loc 5 42 0
	leaq	-144(%rbp), %rax
	movq	%rax, %rdi
	call	_ZNSt5arrayIdLm10EE3endEv
	.loc 5 41 0
	leaq	-16(%rax), %rbx
	.loc 5 42 0
	leaq	-144(%rbp), %rax
	movq	%rax, %rdi
	call	_ZNSt5arrayIdLm10EE5beginEv
	.loc 5 41 0
	addq	$16, %rax
	pxor	%xmm0, %xmm0
	movq	%rbx, %rsi
	movq	%rax, %rdi
	call	_ZSt10accumulateIPddET0_T_S2_S1_
	movsd	%xmm0, -168(%rbp)
	.loc 5 42 0
	leaq	-144(%rbp), %rax
	movq	%rax, %rdi
	call	_ZNKSt5arrayIdLm10EE4sizeEv
	subq	$4, %rax
	testq	%rax, %rax
	js	.L329
	pxor	%xmm0, %xmm0
	cvtsi2sdq	%rax, %xmm0
	jmp	.L330
.L329:
	movq	%rax, %rdx
	shrq	%rdx
	andl	$1, %eax
	orq	%rax, %rdx
	pxor	%xmm0, %xmm0
	cvtsi2sdq	%rdx, %xmm0
	addsd	%xmm0, %xmm0
.L330:
	movsd	-168(%rbp), %xmm2
	divsd	%xmm0, %xmm2
	movapd	%xmm2, %xmm0
	.loc 5 43 0
	addq	$168, %rsp
	popq	%rbx
	popq	%rbp
	.cfi_def_cfa 7, 8
	ret
	.cfi_endproc
.LFE7333:
	.size	_Z7measureIZ4mainEUlvE5_EdT_, .-_Z7measureIZ4mainEUlvE5_EdT_
	.section	.text._ZNK3dod7pointerI8particleINS_6accessIJNS_6memberIcLi0EEENS3_IiLi0EEENS3_IiLi1EEEEEEEEixEl,"axG",@progbits,_ZNK3dod7pointerI8particleINS_6accessIJNS_6memberIcLi0EEENS3_IiLi0EEENS3_IiLi1EEEEEEEEixEl,comdat
	.align 2
	.weak	_ZNK3dod7pointerI8particleINS_6accessIJNS_6memberIcLi0EEENS3_IiLi0EEENS3_IiLi1EEEEEEEEixEl
	.type	_ZNK3dod7pointerI8particleINS_6accessIJNS_6memberIcLi0EEENS3_IiLi0EEENS3_IiLi1EEEEEEEEixEl, @function
_ZNK3dod7pointerI8particleINS_6accessIJNS_6memberIcLi0EEENS3_IiLi0EEENS3_IiLi1EEEEEEEEixEl:
.LFB7334:
	.loc 5 130 0
	.cfi_startproc
	pushq	%rbp
	.cfi_def_cfa_offset 16
	.cfi_offset 6, -16
	movq	%rsp, %rbp
	.cfi_def_cfa_register 6
	subq	$64, %rsp
	movq	%rdi, -40(%rbp)
	movq	%rsi, -48(%rbp)
	movq	%rdx, -56(%rbp)
	.loc 5 132 0
	movq	-48(%rbp), %rcx
	movq	-56(%rbp), %rdx
	leaq	-32(%rbp), %rax
	movq	%rcx, %rsi
	movq	%rax, %rdi
	call	_ZN3dod6accessIJNS_6memberIcLi0EEENS1_IiLi0EEENS1_IiLi1EEEEEC1ERKS5_l
	leaq	-32(%rbp), %rdx
	movq	-40(%rbp), %rax
	movq	%rdx, %rsi
	movq	%rax, %rdi
	call	_ZN8particleIN3dod6accessIJNS0_6memberIcLi0EEENS2_IiLi0EEENS2_IiLi1EEEEEEEC1ERKS6_
