; Listing generated by Microsoft (R) Optimizing Compiler Version 19.00.23026.0 

	TITLE	C:\Users\Manu343726\Documents\joaquin-dod\dod_perf.cpp
	.686P
	.XMM
	include listing.inc
	.model	flat

INCLUDELIB MSVCRT
INCLUDELIB OLDNAMES

PUBLIC	?allocate@?$allocator@D@std@@QAEPADI@Z		; std::allocator<char>::allocate
PUBLIC	?deallocate@?$_Wrap_alloc@V?$allocator@D@std@@@std@@QAEXPADI@Z ; std::_Wrap_alloc<std::allocator<char> >::deallocate
PUBLIC	?now@steady_clock@chrono@std@@SA?AV?$time_point@Usteady_clock@chrono@std@@V?$duration@_JU?$ratio@$00$0DLJKMKAA@@std@@@23@@23@XZ ; std::chrono::steady_clock::now
PUBLIC	?pause_timing@@YAXXZ				; pause_timing
PUBLIC	?resume_timing@@YAXXZ				; resume_timing
PUBLIC	?do_render@@YAXHHD@Z				; do_render
PUBLIC	?render@@YAHPAD0PAH1@Z				; render
PUBLIC	?render@@YAHPADPAH1I@Z				; render
PUBLIC	_main
PUBLIC	??$?6U?$char_traits@D@std@@@std@@YAAAV?$basic_ostream@DU?$char_traits@D@std@@@0@AAV10@PBD@Z ; std::operator<<<std::char_traits<char> >
PUBLIC	??$endl@DU?$char_traits@D@std@@@std@@YAAAV?$basic_ostream@DU?$char_traits@D@std@@@0@AAV10@@Z ; std::endl<char,std::char_traits<char> >
PUBLIC	??1?$vector@DV?$allocator@D@std@@@std@@QAE@XZ	; std::vector<char,std::allocator<char> >::~vector<char,std::allocator<char> >
PUBLIC	?_Reallocate@?$vector@DV?$allocator@D@std@@@std@@IAEXI@Z ; std::vector<char,std::allocator<char> >::_Reallocate
PUBLIC	?allocate@?$allocator@H@std@@QAEPAHI@Z		; std::allocator<int>::allocate
PUBLIC	??1?$vector@HV?$allocator@H@std@@@std@@QAE@XZ	; std::vector<int,std::allocator<int> >::~vector<int,std::allocator<int> >
PUBLIC	?push_back@?$vector@HV?$allocator@H@std@@@std@@QAEXABH@Z ; std::vector<int,std::allocator<int> >::push_back
PUBLIC	?_Reallocate@?$vector@HV?$allocator@H@std@@@std@@IAEXI@Z ; std::vector<int,std::allocator<int> >::_Reallocate
PUBLIC	?_Reserve@?$vector@HV?$allocator@H@std@@@std@@IAEXI@Z ; std::vector<int,std::allocator<int> >::_Reserve
PUBLIC	?allocate@?$allocator@Vplain_particle@@@std@@QAEPAVplain_particle@@I@Z ; std::allocator<plain_particle>::allocate
PUBLIC	??1?$vector@Vplain_particle@@V?$allocator@Vplain_particle@@@std@@@std@@QAE@XZ ; std::vector<plain_particle,std::allocator<plain_particle> >::~vector<plain_particle,std::allocator<plain_particle> >
PUBLIC	?_Reallocate@?$vector@Vplain_particle@@V?$allocator@Vplain_particle@@@std@@@std@@IAEXI@Z ; std::vector<plain_particle,std::allocator<plain_particle> >::_Reallocate
PUBLIC	?_Reserve@?$vector@Vplain_particle@@V?$allocator@Vplain_particle@@@std@@@std@@IAEXI@Z ; std::vector<plain_particle,std::allocator<plain_particle> >::_Reserve
PUBLIC	??$make_pointer@Vparticle@@V?$access@U?$member@D$0A@@dod@@U?$member@H$0A@@2@U?$member@H$00@2@U?$member@H$01@2@U?$member@H$02@2@@dod@@@dod@@YA?AV?$pointer@V?$particle@V?$access@U?$member@D$0A@@dod@@U?$member@H$0A@@2@U?$member@H$00@2@U?$member@H$01@2@U?$member@H$02@2@@dod@@@@@0@ABV?$access@U?$member@D$0A@@dod@@U?$member@H$0A@@2@U?$member@H$00@2@U?$member@H$01@2@U?$member@H$02@2@@0@@Z ; dod::make_pointer<particle,dod::access<dod::member<char,0>,dod::member<int,0>,dod::member<int,1>,dod::member<int,2>,dod::member<int,3> > >
PUBLIC	??$make_pointer@Vparticle@@V?$access@U?$member@D$0A@@dod@@U?$member@H$0A@@2@U?$member@H$00@2@@dod@@@dod@@YA?AV?$pointer@V?$particle@V?$access@U?$member@D$0A@@dod@@U?$member@H$0A@@2@U?$member@H$00@2@@dod@@@@@0@ABV?$access@U?$member@D$0A@@dod@@U?$member@H$0A@@2@U?$member@H$00@2@@0@@Z ; dod::make_pointer<particle,dod::access<dod::member<char,0>,dod::member<int,0>,dod::member<int,1> > >
PUBLIC	??$render@V?$_Vector_iterator@V?$_Vector_val@U?$_Simple_types@Vplain_particle@@@std@@@std@@@std@@@@YAHV?$_Vector_iterator@V?$_Vector_val@U?$_Simple_types@Vplain_particle@@@std@@@std@@@std@@0@Z ; render<std::_Vector_iterator<std::_Vector_val<std::_Simple_types<plain_particle> > > >
PUBLIC	??$measure@V<lambda_3c38aff788b9781cf78ca5a917f16ae4>@@@@YANV<lambda_3c38aff788b9781cf78ca5a917f16ae4>@@I@Z ; measure<<lambda_3c38aff788b9781cf78ca5a917f16ae4> >
PUBLIC	??$measure@V<lambda_0e8cd367240c9f8b6afbbc7d85139419>@@@@YANV<lambda_0e8cd367240c9f8b6afbbc7d85139419>@@I@Z ; measure<<lambda_0e8cd367240c9f8b6afbbc7d85139419> >
PUBLIC	??$render@V?$pointer@V?$particle@V?$access@U?$member@D$0A@@dod@@U?$member@H$0A@@2@U?$member@H$00@2@U?$member@H$01@2@U?$member@H$02@2@@dod@@@@@dod@@@@YAHV?$pointer@V?$particle@V?$access@U?$member@D$0A@@dod@@U?$member@H$0A@@2@U?$member@H$00@2@U?$member@H$01@2@U?$member@H$02@2@@dod@@@@@dod@@0@Z ; render<dod::pointer<particle<dod::access<dod::member<char,0>,dod::member<int,0>,dod::member<int,1>,dod::member<int,2>,dod::member<int,3> > > > >
PUBLIC	??$measure@V<lambda_4bb02fb8e2d5361150321278473362ff>@@@@YANV<lambda_4bb02fb8e2d5361150321278473362ff>@@I@Z ; measure<<lambda_4bb02fb8e2d5361150321278473362ff> >
PUBLIC	??$render@V?$pointer@V?$particle@V?$access@U?$member@D$0A@@dod@@U?$member@H$0A@@2@U?$member@H$00@2@@dod@@@@@dod@@@@YAHV?$pointer@V?$particle@V?$access@U?$member@D$0A@@dod@@U?$member@H$0A@@2@U?$member@H$00@2@@dod@@@@@dod@@0@Z ; render<dod::pointer<particle<dod::access<dod::member<char,0>,dod::member<int,0>,dod::member<int,1> > > > >
PUBLIC	??$measure@V<lambda_fe4b9e6fc2b2fbcfeea78297fbfefccb>@@@@YANV<lambda_fe4b9e6fc2b2fbcfeea78297fbfefccb>@@I@Z ; measure<<lambda_fe4b9e6fc2b2fbcfeea78297fbfefccb> >
PUBLIC	??$render@V?$_Vector_iterator@V?$_Vector_val@U?$_Simple_types@Vplain_particle@@@std@@@std@@@std@@I@@YAHV?$_Vector_iterator@V?$_Vector_val@U?$_Simple_types@Vplain_particle@@@std@@@std@@@std@@I@Z ; render<std::_Vector_iterator<std::_Vector_val<std::_Simple_types<plain_particle> > >,unsigned int>
PUBLIC	??$measure@V<lambda_ce14b79be95f650ececed4b3079e7cf8>@@@@YANV<lambda_ce14b79be95f650ececed4b3079e7cf8>@@I@Z ; measure<<lambda_ce14b79be95f650ececed4b3079e7cf8> >
PUBLIC	??$measure@V<lambda_a29049cf6153b725a6a331d7121b9876>@@@@YANV<lambda_a29049cf6153b725a6a331d7121b9876>@@I@Z ; measure<<lambda_a29049cf6153b725a6a331d7121b9876> >
PUBLIC	??$render@V?$pointer@V?$particle@V?$access@U?$member@D$0A@@dod@@U?$member@H$0A@@2@U?$member@H$00@2@U?$member@H$01@2@U?$member@H$02@2@@dod@@@@@dod@@I@@YAHV?$pointer@V?$particle@V?$access@U?$member@D$0A@@dod@@U?$member@H$0A@@2@U?$member@H$00@2@U?$member@H$01@2@U?$member@H$02@2@@dod@@@@@dod@@I@Z ; render<dod::pointer<particle<dod::access<dod::member<char,0>,dod::member<int,0>,dod::member<int,1>,dod::member<int,2>,dod::member<int,3> > > >,unsigned int>
PUBLIC	??$measure@V<lambda_668201fb256ca3039b30842ebf04ef83>@@@@YANV<lambda_668201fb256ca3039b30842ebf04ef83>@@I@Z ; measure<<lambda_668201fb256ca3039b30842ebf04ef83> >
PUBLIC	??$render@V?$pointer@V?$particle@V?$access@U?$member@D$0A@@dod@@U?$member@H$0A@@2@U?$member@H$00@2@@dod@@@@@dod@@I@@YAHV?$pointer@V?$particle@V?$access@U?$member@D$0A@@dod@@U?$member@H$0A@@2@U?$member@H$00@2@@dod@@@@@dod@@I@Z ; render<dod::pointer<particle<dod::access<dod::member<char,0>,dod::member<int,0>,dod::member<int,1> > > >,unsigned int>
PUBLIC	??$measure@V<lambda_4c02ba5ef62215ee51f4e58ccd3418c3>@@@@YANV<lambda_4c02ba5ef62215ee51f4e58ccd3418c3>@@I@Z ; measure<<lambda_4c02ba5ef62215ee51f4e58ccd3418c3> >
PUBLIC	??1_Sentry_base@?$basic_ostream@DU?$char_traits@D@std@@@std@@QAE@XZ ; std::basic_ostream<char,std::char_traits<char> >::_Sentry_base::~_Sentry_base
PUBLIC	??1sentry@?$basic_ostream@DU?$char_traits@D@std@@@std@@QAE@XZ ; std::basic_ostream<char,std::char_traits<char> >::sentry::~sentry
PUBLIC	??$_Deallocate@Vplain_particle@@@std@@YAXPAVplain_particle@@I@Z ; std::_Deallocate<plain_particle>
PUBLIC	??$_Deallocate@H@std@@YAXPAHI@Z			; std::_Deallocate<int>
PUBLIC	??$measure@V<lambda_3c38aff788b9781cf78ca5a917f16ae4>@@@@YANV<lambda_3c38aff788b9781cf78ca5a917f16ae4>@@@Z ; measure<<lambda_3c38aff788b9781cf78ca5a917f16ae4> >
PUBLIC	??$measure@V<lambda_0e8cd367240c9f8b6afbbc7d85139419>@@@@YANV<lambda_0e8cd367240c9f8b6afbbc7d85139419>@@@Z ; measure<<lambda_0e8cd367240c9f8b6afbbc7d85139419> >
PUBLIC	??$measure@V<lambda_4bb02fb8e2d5361150321278473362ff>@@@@YANV<lambda_4bb02fb8e2d5361150321278473362ff>@@@Z ; measure<<lambda_4bb02fb8e2d5361150321278473362ff> >
PUBLIC	??$measure@V<lambda_fe4b9e6fc2b2fbcfeea78297fbfefccb>@@@@YANV<lambda_fe4b9e6fc2b2fbcfeea78297fbfefccb>@@@Z ; measure<<lambda_fe4b9e6fc2b2fbcfeea78297fbfefccb> >
PUBLIC	??$measure@V<lambda_ce14b79be95f650ececed4b3079e7cf8>@@@@YANV<lambda_ce14b79be95f650ececed4b3079e7cf8>@@@Z ; measure<<lambda_ce14b79be95f650ececed4b3079e7cf8> >
PUBLIC	??$measure@V<lambda_a29049cf6153b725a6a331d7121b9876>@@@@YANV<lambda_a29049cf6153b725a6a331d7121b9876>@@@Z ; measure<<lambda_a29049cf6153b725a6a331d7121b9876> >
PUBLIC	??$measure@V<lambda_668201fb256ca3039b30842ebf04ef83>@@@@YANV<lambda_668201fb256ca3039b30842ebf04ef83>@@@Z ; measure<<lambda_668201fb256ca3039b30842ebf04ef83> >
PUBLIC	??$measure@V<lambda_4c02ba5ef62215ee51f4e58ccd3418c3>@@@@YANV<lambda_4c02ba5ef62215ee51f4e58ccd3418c3>@@@Z ; measure<<lambda_4c02ba5ef62215ee51f4e58ccd3418c3> >
PUBLIC	??$_Uninit_move@PAVplain_particle@@PAV1@V?$allocator@Vplain_particle@@@std@@V1@@std@@YAPAVplain_particle@@PAV1@00AAU?$_Wrap_alloc@V?$allocator@Vplain_particle@@@std@@@0@0U_Nonscalar_ptr_iterator_tag@0@@Z ; std::_Uninit_move<plain_particle *,plain_particle *,std::allocator<plain_particle>,plain_particle>
PUBLIC	??$_Sort@PANHU?$less@X@std@@@std@@YAXPAN0HU?$less@X@0@@Z ; std::_Sort<double *,int,std::less<void> >
PUBLIC	??$_Unguarded_partition@PANU?$less@X@std@@@std@@YA?AU?$pair@PANPAN@0@PAN0U?$less@X@0@@Z ; std::_Unguarded_partition<double *,std::less<void> >
PUBLIC	??$_Median@PANU?$less@X@std@@@std@@YAXPAN00U?$less@X@0@@Z ; std::_Median<double *,std::less<void> >
PUBLIC	??$_Make_heap@PANHNU?$less@X@std@@@std@@YAXPAN0U?$less@X@0@PAH0@Z ; std::_Make_heap<double *,int,double,std::less<void> >
PUBLIC	??$_Sort_heap@PANU?$less@X@std@@@std@@YAXPAN0U?$less@X@0@@Z ; std::_Sort_heap<double *,std::less<void> >
PUBLIC	??$_Insertion_sort1@PANU?$less@X@std@@N@std@@YAXPAN0U?$less@X@0@0@Z ; std::_Insertion_sort1<double *,std::less<void>,double>
PUBLIC	??$_Adjust_heap@PANHNU?$less@X@std@@@std@@YAXPANHH$$QANU?$less@X@0@@Z ; std::_Adjust_heap<double *,int,double,std::less<void> >
PUBLIC	?_Freq@?1??now@steady_clock@chrono@std@@SA?AV?$time_point@Usteady_clock@chrono@std@@V?$duration@_JU?$ratio@$00$0DLJKMKAA@@std@@@23@@34@XZ@4_JB ; `std::chrono::steady_clock::now'::`2'::_Freq
PUBLIC	?$TSS0@?1??now@steady_clock@chrono@std@@SA?AV?$time_point@Usteady_clock@chrono@std@@V?$duration@_JU?$ratio@$00$0DLJKMKAA@@std@@@23@@34@XZ@4HA ; TSS0<`template-parameter-2',std::chrono::steady_clock::ow,std::chrono::Usteady_clock::me_point,chrono::steady_clock::duration<__int64,std::ratio<1,1000000000> > >
PUBLIC	?measure_start@@3V?$time_point@Usteady_clock@chrono@std@@V?$duration@_JU?$ratio@$00$0DLJKMKAA@@std@@@23@@chrono@std@@A ; measure_start
PUBLIC	?measure_pause@@3V?$time_point@Usteady_clock@chrono@std@@V?$duration@_JU?$ratio@$00$0DLJKMKAA@@std@@@23@@chrono@std@@A ; measure_pause
PUBLIC	??_C@_07INEOAPOI@render?3?$AA@			; `string'
PUBLIC	??_C@_0DM@HCPGPFHC@n?$DLoop?$DLraw?$DLdod?$DLrender_dod?$DLoop?$FLi?$FN?$DL@ ; `string'
PUBLIC	??_C@_01ICJEACDI@?$DL?$AA@			; `string'
PUBLIC	??_C@_0BD@OLBABOEK@vector?$DMT?$DO?5too?5long?$AA@ ; `string'
PUBLIC	?min_time_per_trial@?1???$measure@V<lambda_3c38aff788b9781cf78ca5a917f16ae4>@@@@YANV<lambda_3c38aff788b9781cf78ca5a917f16ae4>@@@Z@4V?$duration@_JU?$ratio@$00$0DOI@@std@@@chrono@std@@B ; `measure<<lambda_3c38aff788b9781cf78ca5a917f16ae4> >'::`2'::min_time_per_trial
PUBLIC	?$TSS0@?1???$measure@V<lambda_3c38aff788b9781cf78ca5a917f16ae4>@@@@YANV<lambda_3c38aff788b9781cf78ca5a917f16ae4>@@@Z@4HA ; TSS0<`template-parameter-2',V<lambda_3c38aff788b9781cf78ca5a917f16ae4>::asure>
PUBLIC	?res@?1???$measure@V<lambda_3c38aff788b9781cf78ca5a917f16ae4>@@@@YANV<lambda_3c38aff788b9781cf78ca5a917f16ae4>@@@Z@4HA ; `measure<<lambda_3c38aff788b9781cf78ca5a917f16ae4> >'::`2'::res
PUBLIC	?min_time_per_trial@?1???$measure@V<lambda_0e8cd367240c9f8b6afbbc7d85139419>@@@@YANV<lambda_0e8cd367240c9f8b6afbbc7d85139419>@@@Z@4V?$duration@_JU?$ratio@$00$0DOI@@std@@@chrono@std@@B ; `measure<<lambda_0e8cd367240c9f8b6afbbc7d85139419> >'::`2'::min_time_per_trial
PUBLIC	?$TSS0@?1???$measure@V<lambda_0e8cd367240c9f8b6afbbc7d85139419>@@@@YANV<lambda_0e8cd367240c9f8b6afbbc7d85139419>@@@Z@4HA ; TSS0<`template-parameter-2',V<lambda_0e8cd367240c9f8b6afbbc7d85139419>::asure>
PUBLIC	?res@?1???$measure@V<lambda_0e8cd367240c9f8b6afbbc7d85139419>@@@@YANV<lambda_0e8cd367240c9f8b6afbbc7d85139419>@@@Z@4HA ; `measure<<lambda_0e8cd367240c9f8b6afbbc7d85139419> >'::`2'::res
PUBLIC	?min_time_per_trial@?1???$measure@V<lambda_4bb02fb8e2d5361150321278473362ff>@@@@YANV<lambda_4bb02fb8e2d5361150321278473362ff>@@@Z@4V?$duration@_JU?$ratio@$00$0DOI@@std@@@chrono@std@@B ; `measure<<lambda_4bb02fb8e2d5361150321278473362ff> >'::`2'::min_time_per_trial
PUBLIC	?$TSS0@?1???$measure@V<lambda_4bb02fb8e2d5361150321278473362ff>@@@@YANV<lambda_4bb02fb8e2d5361150321278473362ff>@@@Z@4HA ; TSS0<`template-parameter-2',V<lambda_4bb02fb8e2d5361150321278473362ff>::asure>
PUBLIC	?res@?1???$measure@V<lambda_4bb02fb8e2d5361150321278473362ff>@@@@YANV<lambda_4bb02fb8e2d5361150321278473362ff>@@@Z@4HA ; `measure<<lambda_4bb02fb8e2d5361150321278473362ff> >'::`2'::res
PUBLIC	?min_time_per_trial@?1???$measure@V<lambda_fe4b9e6fc2b2fbcfeea78297fbfefccb>@@@@YANV<lambda_fe4b9e6fc2b2fbcfeea78297fbfefccb>@@@Z@4V?$duration@_JU?$ratio@$00$0DOI@@std@@@chrono@std@@B ; `measure<<lambda_fe4b9e6fc2b2fbcfeea78297fbfefccb> >'::`2'::min_time_per_trial
PUBLIC	?$TSS0@?1???$measure@V<lambda_fe4b9e6fc2b2fbcfeea78297fbfefccb>@@@@YANV<lambda_fe4b9e6fc2b2fbcfeea78297fbfefccb>@@@Z@4HA ; TSS0<`template-parameter-2',V<lambda_fe4b9e6fc2b2fbcfeea78297fbfefccb>::asure>
PUBLIC	?res@?1???$measure@V<lambda_fe4b9e6fc2b2fbcfeea78297fbfefccb>@@@@YANV<lambda_fe4b9e6fc2b2fbcfeea78297fbfefccb>@@@Z@4HA ; `measure<<lambda_fe4b9e6fc2b2fbcfeea78297fbfefccb> >'::`2'::res
PUBLIC	?min_time_per_trial@?1???$measure@V<lambda_ce14b79be95f650ececed4b3079e7cf8>@@@@YANV<lambda_ce14b79be95f650ececed4b3079e7cf8>@@@Z@4V?$duration@_JU?$ratio@$00$0DOI@@std@@@chrono@std@@B ; `measure<<lambda_ce14b79be95f650ececed4b3079e7cf8> >'::`2'::min_time_per_trial
PUBLIC	?$TSS0@?1???$measure@V<lambda_ce14b79be95f650ececed4b3079e7cf8>@@@@YANV<lambda_ce14b79be95f650ececed4b3079e7cf8>@@@Z@4HA ; TSS0<`template-parameter-2',V<lambda_ce14b79be95f650ececed4b3079e7cf8>::asure>
PUBLIC	?res@?1???$measure@V<lambda_ce14b79be95f650ececed4b3079e7cf8>@@@@YANV<lambda_ce14b79be95f650ececed4b3079e7cf8>@@@Z@4HA ; `measure<<lambda_ce14b79be95f650ececed4b3079e7cf8> >'::`2'::res
PUBLIC	?min_time_per_trial@?1???$measure@V<lambda_a29049cf6153b725a6a331d7121b9876>@@@@YANV<lambda_a29049cf6153b725a6a331d7121b9876>@@@Z@4V?$duration@_JU?$ratio@$00$0DOI@@std@@@chrono@std@@B ; `measure<<lambda_a29049cf6153b725a6a331d7121b9876> >'::`2'::min_time_per_trial
PUBLIC	?$TSS0@?1???$measure@V<lambda_a29049cf6153b725a6a331d7121b9876>@@@@YANV<lambda_a29049cf6153b725a6a331d7121b9876>@@@Z@4HA ; TSS0<`template-parameter-2',V<lambda_a29049cf6153b725a6a331d7121b9876>::asure>
PUBLIC	?res@?1???$measure@V<lambda_a29049cf6153b725a6a331d7121b9876>@@@@YANV<lambda_a29049cf6153b725a6a331d7121b9876>@@@Z@4HA ; `measure<<lambda_a29049cf6153b725a6a331d7121b9876> >'::`2'::res
PUBLIC	?min_time_per_trial@?1???$measure@V<lambda_668201fb256ca3039b30842ebf04ef83>@@@@YANV<lambda_668201fb256ca3039b30842ebf04ef83>@@@Z@4V?$duration@_JU?$ratio@$00$0DOI@@std@@@chrono@std@@B ; `measure<<lambda_668201fb256ca3039b30842ebf04ef83> >'::`2'::min_time_per_trial
PUBLIC	?$TSS0@?1???$measure@V<lambda_668201fb256ca3039b30842ebf04ef83>@@@@YANV<lambda_668201fb256ca3039b30842ebf04ef83>@@@Z@4HA ; TSS0<`template-parameter-2',V<lambda_668201fb256ca3039b30842ebf04ef83>::asure>
PUBLIC	?res@?1???$measure@V<lambda_668201fb256ca3039b30842ebf04ef83>@@@@YANV<lambda_668201fb256ca3039b30842ebf04ef83>@@@Z@4HA ; `measure<<lambda_668201fb256ca3039b30842ebf04ef83> >'::`2'::res
PUBLIC	?min_time_per_trial@?1???$measure@V<lambda_4c02ba5ef62215ee51f4e58ccd3418c3>@@@@YANV<lambda_4c02ba5ef62215ee51f4e58ccd3418c3>@@@Z@4V?$duration@_JU?$ratio@$00$0DOI@@std@@@chrono@std@@B ; `measure<<lambda_4c02ba5ef62215ee51f4e58ccd3418c3> >'::`2'::min_time_per_trial
PUBLIC	?$TSS0@?1???$measure@V<lambda_4c02ba5ef62215ee51f4e58ccd3418c3>@@@@YANV<lambda_4c02ba5ef62215ee51f4e58ccd3418c3>@@@Z@4HA ; TSS0<`template-parameter-2',V<lambda_4c02ba5ef62215ee51f4e58ccd3418c3>::asure>
PUBLIC	?res@?1???$measure@V<lambda_4c02ba5ef62215ee51f4e58ccd3418c3>@@@@YANV<lambda_4c02ba5ef62215ee51f4e58ccd3418c3>@@@Z@4HA ; `measure<<lambda_4c02ba5ef62215ee51f4e58ccd3418c3> >'::`2'::res
PUBLIC	__real@4018000000000000
PUBLIC	__real@416312d000000000
PUBLIC	__xmm@41f00000000000000000000000000000
EXTRN	??2@YAPAXI@Z:PROC				; operator new
EXTRN	??3@YAXPAX@Z:PROC				; operator delete
EXTRN	__Init_thread_header:PROC
EXTRN	__Init_thread_footer:PROC
EXTRN	___std_terminate:PROC
EXTRN	__imp___invalid_parameter_noinfo_noreturn:PROC
EXTRN	__imp__memmove:PROC
EXTRN	__imp_?uncaught_exception@std@@YA_NXZ:PROC
EXTRN	__imp_?_Xbad_alloc@std@@YAXXZ:PROC
EXTRN	__imp_?_Xlength_error@std@@YAXPBD@Z:PROC
EXTRN	__imp_?sputc@?$basic_streambuf@DU?$char_traits@D@std@@@std@@QAEHD@Z:PROC
EXTRN	__imp_?sputn@?$basic_streambuf@DU?$char_traits@D@std@@@std@@QAE_JPBD_J@Z:PROC
EXTRN	__imp_?setstate@?$basic_ios@DU?$char_traits@D@std@@@std@@QAEXH_N@Z:PROC
EXTRN	__imp_?widen@?$basic_ios@DU?$char_traits@D@std@@@std@@QBEDD@Z:PROC
EXTRN	__imp_?_Osfx@?$basic_ostream@DU?$char_traits@D@std@@@std@@QAEXXZ:PROC
EXTRN	__imp_??6?$basic_ostream@DU?$char_traits@D@std@@@std@@QAEAAV01@P6AAAV01@AAV01@@Z@Z:PROC
EXTRN	__imp_??6?$basic_ostream@DU?$char_traits@D@std@@@std@@QAEAAV01@I@Z:PROC
EXTRN	__imp_??6?$basic_ostream@DU?$char_traits@D@std@@@std@@QAEAAV01@N@Z:PROC
EXTRN	__imp_?put@?$basic_ostream@DU?$char_traits@D@std@@@std@@QAEAAV12@D@Z:PROC
EXTRN	__imp_?flush@?$basic_ostream@DU?$char_traits@D@std@@@std@@QAEAAV12@XZ:PROC
EXTRN	__imp___Query_perf_counter:PROC
EXTRN	__imp___Query_perf_frequency:PROC
EXTRN	@__security_check_cookie@4:PROC
EXTRN	__CxxThrowException@8:PROC
EXTRN	___CxxFrameHandler3:PROC
EXTRN	__alldiv:PROC
EXTRN	__alldvrm:PROC
EXTRN	__allmul:PROC
EXTRN	__ltod3:PROC
EXTRN	__Init_thread_epoch:DWORD
EXTRN	__imp_?cout@std@@3V?$basic_ostream@DU?$char_traits@D@std@@@1@A:BYTE
EXTRN	___security_cookie:DWORD
EXTRN	__fltused:DWORD
EXTRN	__tls_array:DWORD
EXTRN	__tls_index:DWORD
;	COMDAT ?_Freq@?1??now@steady_clock@chrono@std@@SA?AV?$time_point@Usteady_clock@chrono@std@@V?$duration@_JU?$ratio@$00$0DLJKMKAA@@std@@@23@@34@XZ@4_JB
_BSS	SEGMENT
?_Freq@?1??now@steady_clock@chrono@std@@SA?AV?$time_point@Usteady_clock@chrono@std@@V?$duration@_JU?$ratio@$00$0DLJKMKAA@@std@@@23@@34@XZ@4_JB DQ 01H DUP (?) ; `std::chrono::steady_clock::now'::`2'::_Freq
_BSS	ENDS
;	COMDAT ?$TSS0@?1??now@steady_clock@chrono@std@@SA?AV?$time_point@Usteady_clock@chrono@std@@V?$duration@_JU?$ratio@$00$0DLJKMKAA@@std@@@23@@34@XZ@4HA
_BSS	SEGMENT
?$TSS0@?1??now@steady_clock@chrono@std@@SA?AV?$time_point@Usteady_clock@chrono@std@@V?$duration@_JU?$ratio@$00$0DLJKMKAA@@std@@@23@@34@XZ@4HA DD 01H DUP (?) ; TSS0<`template-parameter-2',std::chrono::steady_clock::ow,std::chrono::Usteady_clock::me_point,chrono::steady_clock::duration<__int64,std::ratio<1,1000000000> > >
_BSS	ENDS
_BSS	SEGMENT
?measure_start@@3V?$time_point@Usteady_clock@chrono@std@@V?$duration@_JU?$ratio@$00$0DLJKMKAA@@std@@@23@@chrono@std@@A DQ 01H DUP (?) ; measure_start
?measure_pause@@3V?$time_point@Usteady_clock@chrono@std@@V?$duration@_JU?$ratio@$00$0DLJKMKAA@@std@@@23@@chrono@std@@A DQ 01H DUP (?) ; measure_pause
?render_output@@3HA DD 01H DUP (?)			; render_output
_BSS	ENDS
;	COMDAT ?min_time_per_trial@?1???$measure@V<lambda_3c38aff788b9781cf78ca5a917f16ae4>@@@@YANV<lambda_3c38aff788b9781cf78ca5a917f16ae4>@@@Z@4V?$duration@_JU?$ratio@$00$0DOI@@std@@@chrono@std@@B
_BSS	SEGMENT
?min_time_per_trial@?1???$measure@V<lambda_3c38aff788b9781cf78ca5a917f16ae4>@@@@YANV<lambda_3c38aff788b9781cf78ca5a917f16ae4>@@@Z@4V?$duration@_JU?$ratio@$00$0DOI@@std@@@chrono@std@@B DQ 01H DUP (?) ; `measure<<lambda_3c38aff788b9781cf78ca5a917f16ae4> >'::`2'::min_time_per_trial
_BSS	ENDS
;	COMDAT ?$TSS0@?1???$measure@V<lambda_3c38aff788b9781cf78ca5a917f16ae4>@@@@YANV<lambda_3c38aff788b9781cf78ca5a917f16ae4>@@@Z@4HA
_BSS	SEGMENT
?$TSS0@?1???$measure@V<lambda_3c38aff788b9781cf78ca5a917f16ae4>@@@@YANV<lambda_3c38aff788b9781cf78ca5a917f16ae4>@@@Z@4HA DD 01H DUP (?) ; TSS0<`template-parameter-2',V<lambda_3c38aff788b9781cf78ca5a917f16ae4>::asure>
_BSS	ENDS
;	COMDAT ?res@?1???$measure@V<lambda_3c38aff788b9781cf78ca5a917f16ae4>@@@@YANV<lambda_3c38aff788b9781cf78ca5a917f16ae4>@@@Z@4HA
_BSS	SEGMENT
?res@?1???$measure@V<lambda_3c38aff788b9781cf78ca5a917f16ae4>@@@@YANV<lambda_3c38aff788b9781cf78ca5a917f16ae4>@@@Z@4HA DD 01H DUP (?) ; `measure<<lambda_3c38aff788b9781cf78ca5a917f16ae4> >'::`2'::res
_BSS	ENDS
;	COMDAT ?min_time_per_trial@?1???$measure@V<lambda_0e8cd367240c9f8b6afbbc7d85139419>@@@@YANV<lambda_0e8cd367240c9f8b6afbbc7d85139419>@@@Z@4V?$duration@_JU?$ratio@$00$0DOI@@std@@@chrono@std@@B
_BSS	SEGMENT
?min_time_per_trial@?1???$measure@V<lambda_0e8cd367240c9f8b6afbbc7d85139419>@@@@YANV<lambda_0e8cd367240c9f8b6afbbc7d85139419>@@@Z@4V?$duration@_JU?$ratio@$00$0DOI@@std@@@chrono@std@@B DQ 01H DUP (?) ; `measure<<lambda_0e8cd367240c9f8b6afbbc7d85139419> >'::`2'::min_time_per_trial
_BSS	ENDS
;	COMDAT ?$TSS0@?1???$measure@V<lambda_0e8cd367240c9f8b6afbbc7d85139419>@@@@YANV<lambda_0e8cd367240c9f8b6afbbc7d85139419>@@@Z@4HA
_BSS	SEGMENT
?$TSS0@?1???$measure@V<lambda_0e8cd367240c9f8b6afbbc7d85139419>@@@@YANV<lambda_0e8cd367240c9f8b6afbbc7d85139419>@@@Z@4HA DD 01H DUP (?) ; TSS0<`template-parameter-2',V<lambda_0e8cd367240c9f8b6afbbc7d85139419>::asure>
_BSS	ENDS
;	COMDAT ?res@?1???$measure@V<lambda_0e8cd367240c9f8b6afbbc7d85139419>@@@@YANV<lambda_0e8cd367240c9f8b6afbbc7d85139419>@@@Z@4HA
_BSS	SEGMENT
?res@?1???$measure@V<lambda_0e8cd367240c9f8b6afbbc7d85139419>@@@@YANV<lambda_0e8cd367240c9f8b6afbbc7d85139419>@@@Z@4HA DD 01H DUP (?) ; `measure<<lambda_0e8cd367240c9f8b6afbbc7d85139419> >'::`2'::res
_BSS	ENDS
;	COMDAT ?min_time_per_trial@?1???$measure@V<lambda_4bb02fb8e2d5361150321278473362ff>@@@@YANV<lambda_4bb02fb8e2d5361150321278473362ff>@@@Z@4V?$duration@_JU?$ratio@$00$0DOI@@std@@@chrono@std@@B
_BSS	SEGMENT
?min_time_per_trial@?1???$measure@V<lambda_4bb02fb8e2d5361150321278473362ff>@@@@YANV<lambda_4bb02fb8e2d5361150321278473362ff>@@@Z@4V?$duration@_JU?$ratio@$00$0DOI@@std@@@chrono@std@@B DQ 01H DUP (?) ; `measure<<lambda_4bb02fb8e2d5361150321278473362ff> >'::`2'::min_time_per_trial
_BSS	ENDS
;	COMDAT ?$TSS0@?1???$measure@V<lambda_4bb02fb8e2d5361150321278473362ff>@@@@YANV<lambda_4bb02fb8e2d5361150321278473362ff>@@@Z@4HA
_BSS	SEGMENT
?$TSS0@?1???$measure@V<lambda_4bb02fb8e2d5361150321278473362ff>@@@@YANV<lambda_4bb02fb8e2d5361150321278473362ff>@@@Z@4HA DD 01H DUP (?) ; TSS0<`template-parameter-2',V<lambda_4bb02fb8e2d5361150321278473362ff>::asure>
_BSS	ENDS
;	COMDAT ?res@?1???$measure@V<lambda_4bb02fb8e2d5361150321278473362ff>@@@@YANV<lambda_4bb02fb8e2d5361150321278473362ff>@@@Z@4HA
_BSS	SEGMENT
?res@?1???$measure@V<lambda_4bb02fb8e2d5361150321278473362ff>@@@@YANV<lambda_4bb02fb8e2d5361150321278473362ff>@@@Z@4HA DD 01H DUP (?) ; `measure<<lambda_4bb02fb8e2d5361150321278473362ff> >'::`2'::res
_BSS	ENDS
;	COMDAT ?min_time_per_trial@?1???$measure@V<lambda_fe4b9e6fc2b2fbcfeea78297fbfefccb>@@@@YANV<lambda_fe4b9e6fc2b2fbcfeea78297fbfefccb>@@@Z@4V?$duration@_JU?$ratio@$00$0DOI@@std@@@chrono@std@@B
_BSS	SEGMENT
?min_time_per_trial@?1???$measure@V<lambda_fe4b9e6fc2b2fbcfeea78297fbfefccb>@@@@YANV<lambda_fe4b9e6fc2b2fbcfeea78297fbfefccb>@@@Z@4V?$duration@_JU?$ratio@$00$0DOI@@std@@@chrono@std@@B DQ 01H DUP (?) ; `measure<<lambda_fe4b9e6fc2b2fbcfeea78297fbfefccb> >'::`2'::min_time_per_trial
_BSS	ENDS
;	COMDAT ?$TSS0@?1???$measure@V<lambda_fe4b9e6fc2b2fbcfeea78297fbfefccb>@@@@YANV<lambda_fe4b9e6fc2b2fbcfeea78297fbfefccb>@@@Z@4HA
_BSS	SEGMENT
?$TSS0@?1???$measure@V<lambda_fe4b9e6fc2b2fbcfeea78297fbfefccb>@@@@YANV<lambda_fe4b9e6fc2b2fbcfeea78297fbfefccb>@@@Z@4HA DD 01H DUP (?) ; TSS0<`template-parameter-2',V<lambda_fe4b9e6fc2b2fbcfeea78297fbfefccb>::asure>
_BSS	ENDS
;	COMDAT ?res@?1???$measure@V<lambda_fe4b9e6fc2b2fbcfeea78297fbfefccb>@@@@YANV<lambda_fe4b9e6fc2b2fbcfeea78297fbfefccb>@@@Z@4HA
_BSS	SEGMENT
?res@?1???$measure@V<lambda_fe4b9e6fc2b2fbcfeea78297fbfefccb>@@@@YANV<lambda_fe4b9e6fc2b2fbcfeea78297fbfefccb>@@@Z@4HA DD 01H DUP (?) ; `measure<<lambda_fe4b9e6fc2b2fbcfeea78297fbfefccb> >'::`2'::res
_BSS	ENDS
;	COMDAT ?min_time_per_trial@?1???$measure@V<lambda_ce14b79be95f650ececed4b3079e7cf8>@@@@YANV<lambda_ce14b79be95f650ececed4b3079e7cf8>@@@Z@4V?$duration@_JU?$ratio@$00$0DOI@@std@@@chrono@std@@B
_BSS	SEGMENT
?min_time_per_trial@?1???$measure@V<lambda_ce14b79be95f650ececed4b3079e7cf8>@@@@YANV<lambda_ce14b79be95f650ececed4b3079e7cf8>@@@Z@4V?$duration@_JU?$ratio@$00$0DOI@@std@@@chrono@std@@B DQ 01H DUP (?) ; `measure<<lambda_ce14b79be95f650ececed4b3079e7cf8> >'::`2'::min_time_per_trial
_BSS	ENDS
;	COMDAT ?$TSS0@?1???$measure@V<lambda_ce14b79be95f650ececed4b3079e7cf8>@@@@YANV<lambda_ce14b79be95f650ececed4b3079e7cf8>@@@Z@4HA
_BSS	SEGMENT
?$TSS0@?1???$measure@V<lambda_ce14b79be95f650ececed4b3079e7cf8>@@@@YANV<lambda_ce14b79be95f650ececed4b3079e7cf8>@@@Z@4HA DD 01H DUP (?) ; TSS0<`template-parameter-2',V<lambda_ce14b79be95f650ececed4b3079e7cf8>::asure>
_BSS	ENDS
;	COMDAT ?res@?1???$measure@V<lambda_ce14b79be95f650ececed4b3079e7cf8>@@@@YANV<lambda_ce14b79be95f650ececed4b3079e7cf8>@@@Z@4HA
_BSS	SEGMENT
?res@?1???$measure@V<lambda_ce14b79be95f650ececed4b3079e7cf8>@@@@YANV<lambda_ce14b79be95f650ececed4b3079e7cf8>@@@Z@4HA DD 01H DUP (?) ; `measure<<lambda_ce14b79be95f650ececed4b3079e7cf8> >'::`2'::res
_BSS	ENDS
;	COMDAT ?min_time_per_trial@?1???$measure@V<lambda_a29049cf6153b725a6a331d7121b9876>@@@@YANV<lambda_a29049cf6153b725a6a331d7121b9876>@@@Z@4V?$duration@_JU?$ratio@$00$0DOI@@std@@@chrono@std@@B
_BSS	SEGMENT
?min_time_per_trial@?1???$measure@V<lambda_a29049cf6153b725a6a331d7121b9876>@@@@YANV<lambda_a29049cf6153b725a6a331d7121b9876>@@@Z@4V?$duration@_JU?$ratio@$00$0DOI@@std@@@chrono@std@@B DQ 01H DUP (?) ; `measure<<lambda_a29049cf6153b725a6a331d7121b9876> >'::`2'::min_time_per_trial
_BSS	ENDS
;	COMDAT ?$TSS0@?1???$measure@V<lambda_a29049cf6153b725a6a331d7121b9876>@@@@YANV<lambda_a29049cf6153b725a6a331d7121b9876>@@@Z@4HA
_BSS	SEGMENT
?$TSS0@?1???$measure@V<lambda_a29049cf6153b725a6a331d7121b9876>@@@@YANV<lambda_a29049cf6153b725a6a331d7121b9876>@@@Z@4HA DD 01H DUP (?) ; TSS0<`template-parameter-2',V<lambda_a29049cf6153b725a6a331d7121b9876>::asure>
_BSS	ENDS
;	COMDAT ?res@?1???$measure@V<lambda_a29049cf6153b725a6a331d7121b9876>@@@@YANV<lambda_a29049cf6153b725a6a331d7121b9876>@@@Z@4HA
_BSS	SEGMENT
?res@?1???$measure@V<lambda_a29049cf6153b725a6a331d7121b9876>@@@@YANV<lambda_a29049cf6153b725a6a331d7121b9876>@@@Z@4HA DD 01H DUP (?) ; `measure<<lambda_a29049cf6153b725a6a331d7121b9876> >'::`2'::res
_BSS	ENDS
;	COMDAT ?min_time_per_trial@?1???$measure@V<lambda_668201fb256ca3039b30842ebf04ef83>@@@@YANV<lambda_668201fb256ca3039b30842ebf04ef83>@@@Z@4V?$duration@_JU?$ratio@$00$0DOI@@std@@@chrono@std@@B
_BSS	SEGMENT
?min_time_per_trial@?1???$measure@V<lambda_668201fb256ca3039b30842ebf04ef83>@@@@YANV<lambda_668201fb256ca3039b30842ebf04ef83>@@@Z@4V?$duration@_JU?$ratio@$00$0DOI@@std@@@chrono@std@@B DQ 01H DUP (?) ; `measure<<lambda_668201fb256ca3039b30842ebf04ef83> >'::`2'::min_time_per_trial
_BSS	ENDS
;	COMDAT ?$TSS0@?1???$measure@V<lambda_668201fb256ca3039b30842ebf04ef83>@@@@YANV<lambda_668201fb256ca3039b30842ebf04ef83>@@@Z@4HA
_BSS	SEGMENT
?$TSS0@?1???$measure@V<lambda_668201fb256ca3039b30842ebf04ef83>@@@@YANV<lambda_668201fb256ca3039b30842ebf04ef83>@@@Z@4HA DD 01H DUP (?) ; TSS0<`template-parameter-2',V<lambda_668201fb256ca3039b30842ebf04ef83>::asure>
_BSS	ENDS
;	COMDAT ?res@?1???$measure@V<lambda_668201fb256ca3039b30842ebf04ef83>@@@@YANV<lambda_668201fb256ca3039b30842ebf04ef83>@@@Z@4HA
_BSS	SEGMENT
?res@?1???$measure@V<lambda_668201fb256ca3039b30842ebf04ef83>@@@@YANV<lambda_668201fb256ca3039b30842ebf04ef83>@@@Z@4HA DD 01H DUP (?) ; `measure<<lambda_668201fb256ca3039b30842ebf04ef83> >'::`2'::res
_BSS	ENDS
;	COMDAT ?min_time_per_trial@?1???$measure@V<lambda_4c02ba5ef62215ee51f4e58ccd3418c3>@@@@YANV<lambda_4c02ba5ef62215ee51f4e58ccd3418c3>@@@Z@4V?$duration@_JU?$ratio@$00$0DOI@@std@@@chrono@std@@B
_BSS	SEGMENT
?min_time_per_trial@?1???$measure@V<lambda_4c02ba5ef62215ee51f4e58ccd3418c3>@@@@YANV<lambda_4c02ba5ef62215ee51f4e58ccd3418c3>@@@Z@4V?$duration@_JU?$ratio@$00$0DOI@@std@@@chrono@std@@B DQ 01H DUP (?) ; `measure<<lambda_4c02ba5ef62215ee51f4e58ccd3418c3> >'::`2'::min_time_per_trial
_BSS	ENDS
;	COMDAT ?$TSS0@?1???$measure@V<lambda_4c02ba5ef62215ee51f4e58ccd3418c3>@@@@YANV<lambda_4c02ba5ef62215ee51f4e58ccd3418c3>@@@Z@4HA
_BSS	SEGMENT
?$TSS0@?1???$measure@V<lambda_4c02ba5ef62215ee51f4e58ccd3418c3>@@@@YANV<lambda_4c02ba5ef62215ee51f4e58ccd3418c3>@@@Z@4HA DD 01H DUP (?) ; TSS0<`template-parameter-2',V<lambda_4c02ba5ef62215ee51f4e58ccd3418c3>::asure>
_BSS	ENDS
;	COMDAT ?res@?1???$measure@V<lambda_4c02ba5ef62215ee51f4e58ccd3418c3>@@@@YANV<lambda_4c02ba5ef62215ee51f4e58ccd3418c3>@@@Z@4HA
_BSS	SEGMENT
?res@?1???$measure@V<lambda_4c02ba5ef62215ee51f4e58ccd3418c3>@@@@YANV<lambda_4c02ba5ef62215ee51f4e58ccd3418c3>@@@Z@4HA DD 01H DUP (?) ; `measure<<lambda_4c02ba5ef62215ee51f4e58ccd3418c3> >'::`2'::res
_BSS	ENDS
;	COMDAT __xmm@41f00000000000000000000000000000
CONST	SEGMENT
__xmm@41f00000000000000000000000000000 DB 00H, 00H, 00H, 00H, 00H, 00H, 00H
	DB	00H, 00H, 00H, 00H, 00H, 00H, 00H, 0f0H, 'A'
CONST	ENDS
;	COMDAT __real@416312d000000000
CONST	SEGMENT
__real@416312d000000000 DQ 0416312d000000000r	; 1e+07
CONST	ENDS
;	COMDAT __real@4018000000000000
CONST	SEGMENT
__real@4018000000000000 DQ 04018000000000000r	; 6
CONST	ENDS
;	COMDAT ??_C@_0BD@OLBABOEK@vector?$DMT?$DO?5too?5long?$AA@
CONST	SEGMENT
??_C@_0BD@OLBABOEK@vector?$DMT?$DO?5too?5long?$AA@ DB 'vector<T> too long'
	DB	00H						; `string'
CONST	ENDS
;	COMDAT ??_C@_01ICJEACDI@?$DL?$AA@
CONST	SEGMENT
??_C@_01ICJEACDI@?$DL?$AA@ DB ';', 00H			; `string'
CONST	ENDS
;	COMDAT ??_C@_0DM@HCPGPFHC@n?$DLoop?$DLraw?$DLdod?$DLrender_dod?$DLoop?$FLi?$FN?$DL@
CONST	SEGMENT
??_C@_0DM@HCPGPFHC@n?$DLoop?$DLraw?$DLdod?$DLrender_dod?$DLoop?$FLi?$FN?$DL@ DB 'n'
	DB	';oop;raw;dod;render_dod;oop[i];raw[i];dod[i];render_dod[i]', 00H ; `string'
CONST	ENDS
;	COMDAT ??_C@_07INEOAPOI@render?3?$AA@
CONST	SEGMENT
??_C@_07INEOAPOI@render?3?$AA@ DB 'render:', 00H	; `string'
CONST	ENDS
;	COMDAT xdata$x
xdata$x	SEGMENT
__unwindtable$??1sentry@?$basic_ostream@DU?$char_traits@D@std@@@std@@QAE@XZ DD 0ffffffffH
	DD	FLAT:__unwindfunclet$??1sentry@?$basic_ostream@DU?$char_traits@D@std@@@std@@QAE@XZ$0
__ehfuncinfo$??1sentry@?$basic_ostream@DU?$char_traits@D@std@@@std@@QAE@XZ DD 019930522H
	DD	01H
	DD	FLAT:__unwindtable$??1sentry@?$basic_ostream@DU?$char_traits@D@std@@@std@@QAE@XZ
	DD	2 DUP(00H)
	DD	2 DUP(00H)
	DD	00H
	DD	05H
xdata$x	ENDS
;	COMDAT xdata$x
xdata$x	SEGMENT
__unwindtable$??0sentry@?$basic_ostream@DU?$char_traits@D@std@@@std@@QAE@AAV12@@Z DD 0ffffffffH
	DD	FLAT:__unwindfunclet$??0sentry@?$basic_ostream@DU?$char_traits@D@std@@@std@@QAE@AAV12@@Z$0
__ehfuncinfo$??0sentry@?$basic_ostream@DU?$char_traits@D@std@@@std@@QAE@AAV12@@Z DD 019930522H
	DD	01H
	DD	FLAT:__unwindtable$??0sentry@?$basic_ostream@DU?$char_traits@D@std@@@std@@QAE@AAV12@@Z
	DD	2 DUP(00H)
	DD	2 DUP(00H)
	DD	00H
	DD	01H
xdata$x	ENDS
;	COMDAT xdata$x
xdata$x	SEGMENT
__ehfuncinfo$??1_Sentry_base@?$basic_ostream@DU?$char_traits@D@std@@@std@@QAE@XZ DD 019930522H
	DD	00H
	DD	00H
	DD	2 DUP(00H)
	DD	2 DUP(00H)
	DD	00H
	DD	05H
xdata$x	ENDS
;	COMDAT xdata$x
xdata$x	SEGMENT
__catchsym$?_Reallocate@?$vector@Vplain_particle@@V?$allocator@Vplain_particle@@@std@@@std@@IAEXI@Z$50 DD 040H
	DD	00H
	DD	00H
	DD	FLAT:__catch$?_Reallocate@?$vector@Vplain_particle@@V?$allocator@Vplain_particle@@@std@@@std@@IAEXI@Z$0
__unwindtable$?_Reallocate@?$vector@Vplain_particle@@V?$allocator@Vplain_particle@@@std@@@std@@IAEXI@Z DD 0ffffffffH
	DD	00H
	DD	0ffffffffH
	DD	00H
__tryblocktable$?_Reallocate@?$vector@Vplain_particle@@V?$allocator@Vplain_particle@@@std@@@std@@IAEXI@Z DD 00H
	DD	00H
	DD	01H
	DD	01H
	DD	FLAT:__catchsym$?_Reallocate@?$vector@Vplain_particle@@V?$allocator@Vplain_particle@@@std@@@std@@IAEXI@Z$50
__ehfuncinfo$?_Reallocate@?$vector@Vplain_particle@@V?$allocator@Vplain_particle@@@std@@@std@@IAEXI@Z DD 019930522H
	DD	02H
	DD	FLAT:__unwindtable$?_Reallocate@?$vector@Vplain_particle@@V?$allocator@Vplain_particle@@@std@@@std@@IAEXI@Z
	DD	01H
	DD	FLAT:__tryblocktable$?_Reallocate@?$vector@Vplain_particle@@V?$allocator@Vplain_particle@@@std@@@std@@IAEXI@Z
	DD	2 DUP(00H)
	DD	00H
	DD	01H
xdata$x	ENDS
;	COMDAT xdata$x
xdata$x	SEGMENT
__catchsym$??$?6U?$char_traits@D@std@@@std@@YAAAV?$basic_ostream@DU?$char_traits@D@std@@@0@AAV10@PBD@Z$10 DD 040H
	DD	00H
	DD	00H
	DD	FLAT:__catch$??$?6U?$char_traits@D@std@@@std@@YAAAV?$basic_ostream@DU?$char_traits@D@std@@@0@AAV10@PBD@Z$0
__tryblocktable$??$?6U?$char_traits@D@std@@@std@@YAAAV?$basic_ostream@DU?$char_traits@D@std@@@0@AAV10@PBD@Z DD 02H
	DD	02H
	DD	03H
	DD	01H
	DD	FLAT:__catchsym$??$?6U?$char_traits@D@std@@@std@@YAAAV?$basic_ostream@DU?$char_traits@D@std@@@0@AAV10@PBD@Z$10
__ehfuncinfo$??$?6U?$char_traits@D@std@@@std@@YAAAV?$basic_ostream@DU?$char_traits@D@std@@@0@AAV10@PBD@Z DD 019930522H
	DD	06H
	DD	FLAT:__unwindtable$??$?6U?$char_traits@D@std@@@std@@YAAAV?$basic_ostream@DU?$char_traits@D@std@@@0@AAV10@PBD@Z
	DD	01H
	DD	FLAT:__tryblocktable$??$?6U?$char_traits@D@std@@@std@@YAAAV?$basic_ostream@DU?$char_traits@D@std@@@0@AAV10@PBD@Z
	DD	2 DUP(00H)
	DD	00H
	DD	01H
__unwindtable$??$?6U?$char_traits@D@std@@@std@@YAAAV?$basic_ostream@DU?$char_traits@D@std@@@0@AAV10@PBD@Z DD 0ffffffffH
	DD	FLAT:__unwindfunclet$??$?6U?$char_traits@D@std@@@std@@YAAAV?$basic_ostream@DU?$char_traits@D@std@@@0@AAV10@PBD@Z$3
	DD	0ffffffffH
	DD	FLAT:__unwindfunclet$??$?6U?$char_traits@D@std@@@std@@YAAAV?$basic_ostream@DU?$char_traits@D@std@@@0@AAV10@PBD@Z$2
	DD	01H
	DD	00H
	DD	01H
	DD	00H
	DD	0ffffffffH
	DD	FLAT:__unwindfunclet$??$?6U?$char_traits@D@std@@@std@@YAAAV?$basic_ostream@DU?$char_traits@D@std@@@0@AAV10@PBD@Z$8
	DD	04H
	DD	FLAT:__unwindfunclet$??$?6U?$char_traits@D@std@@@std@@YAAAV?$basic_ostream@DU?$char_traits@D@std@@@0@AAV10@PBD@Z$9
xdata$x	ENDS
;	COMDAT xdata$x
xdata$x	SEGMENT
__ehfuncinfo$_main DD 019930522H
	DD	06H
	DD	FLAT:__unwindtable$_main
	DD	2 DUP(00H)
	DD	2 DUP(00H)
	DD	00H
	DD	01H
__unwindtable$_main DD 0ffffffffH
	DD	FLAT:__unwindfunclet$_main$0
	DD	00H
	DD	FLAT:__unwindfunclet$_main$1
	DD	01H
	DD	FLAT:__unwindfunclet$_main$2
	DD	02H
	DD	FLAT:__unwindfunclet$_main$3
	DD	03H
	DD	FLAT:__unwindfunclet$_main$4
	DD	04H
	DD	FLAT:__unwindfunclet$_main$5
xdata$x	ENDS
; Function compile flags: /Ogtpy
;	COMDAT ??$_Pop_heap@PANHNU?$less@X@std@@@std@@YAXPAN00$$QANU?$less@X@0@PAH@Z
_TEXT	SEGMENT
__First$ = 8						; size = 4
__Last$ = 12						; size = 4
__Dest$ = 16						; size = 4
__Val$ = 20						; size = 4
__Pred$ = 24						; size = 1
___formal$ = 28						; size = 4
??$_Pop_heap@PANHNU?$less@X@std@@@std@@YAXPAN00$$QANU?$less@X@0@PAH@Z PROC ; std::_Pop_heap<double *,int,double,std::less<void> >, COMDAT
; File c:\program files (x86)\microsoft visual studio 14.0\vc\include\algorithm
; Line 2442
	mov	ecx, DWORD PTR __First$[esp-4]
	mov	eax, DWORD PTR __Dest$[esp-4]
; Line 2443
	push	DWORD PTR __Pred$[esp-4]
	movsd	xmm0, QWORD PTR [ecx]
	push	DWORD PTR __Val$[esp]
	movsd	QWORD PTR [eax], xmm0
	mov	eax, DWORD PTR __Last$[esp+4]
	sub	eax, ecx
	sar	eax, 3
	push	eax
	push	0
	push	ecx
	call	??$_Adjust_heap@PANHNU?$less@X@std@@@std@@YAXPANHH$$QANU?$less@X@0@@Z ; std::_Adjust_heap<double *,int,double,std::less<void> >
	add	esp, 20					; 00000014H
; Line 2445
	ret	0
??$_Pop_heap@PANHNU?$less@X@std@@@std@@YAXPAN00$$QANU?$less@X@0@PAH@Z ENDP ; std::_Pop_heap<double *,int,double,std::less<void> >
_TEXT	ENDS
; Function compile flags: /Ogtpy
;	COMDAT ??$_Move_backward@PANPAN@std@@YAPANPAN00U_Scalar_ptr_iterator_tag@0@@Z
_TEXT	SEGMENT
__First$ = 8						; size = 4
__Last$ = 12						; size = 4
__Dest$ = 16						; size = 4
___formal$ = 20						; size = 1
??$_Move_backward@PANPAN@std@@YAPANPAN00U_Scalar_ptr_iterator_tag@0@@Z PROC ; std::_Move_backward<double *,double *>, COMDAT
; File c:\program files (x86)\microsoft visual studio 14.0\vc\include\xutility
; Line 2633
	mov	eax, DWORD PTR __First$[esp-4]
	mov	ecx, DWORD PTR __Last$[esp-4]
	push	esi
; Line 2634
	mov	esi, DWORD PTR __Dest$[esp]
	sub	ecx, eax
	and	ecx, -8					; fffffff8H
	push	ecx
	sub	esi, ecx
	push	eax
	push	esi
	call	DWORD PTR __imp__memmove
	add	esp, 12					; 0000000cH
; Line 2636
	mov	eax, esi
	pop	esi
; Line 2637
	ret	0
??$_Move_backward@PANPAN@std@@YAPANPAN00U_Scalar_ptr_iterator_tag@0@@Z ENDP ; std::_Move_backward<double *,double *>
_TEXT	ENDS
; Function compile flags: /Ogtpy
;	COMDAT ??$_Ptr_cat@NN@std@@YA?AU_Scalar_ptr_iterator_tag@0@PAN0@Z
_TEXT	SEGMENT
__Cat$ = -1						; size = 1
___formal$ = 8						; size = 4
___formal$ = 12						; size = 4
??$_Ptr_cat@NN@std@@YA?AU_Scalar_ptr_iterator_tag@0@PAN0@Z PROC ; std::_Ptr_cat<double,double>, COMDAT
; File c:\program files (x86)\microsoft visual studio 14.0\vc\include\xutility
; Line 640
	push	ecx
; Line 642
	mov	al, BYTE PTR __Cat$[esp+4]
; Line 643
	pop	ecx
	ret	0
??$_Ptr_cat@NN@std@@YA?AU_Scalar_ptr_iterator_tag@0@PAN0@Z ENDP ; std::_Ptr_cat<double,double>
_TEXT	ENDS
; Function compile flags: /Ogtpy
;	COMDAT ??$_Pop_heap_0@PANNU?$less@X@std@@@std@@YAXPAN0U?$less@X@0@0@Z
_TEXT	SEGMENT
__Val$ = -8						; size = 8
__First$ = 8						; size = 4
__Last$ = 12						; size = 4
__Pred$ = 16						; size = 1
___formal$ = 20						; size = 4
??$_Pop_heap_0@PANNU?$less@X@std@@@std@@YAXPAN0U?$less@X@0@0@Z PROC ; std::_Pop_heap_0<double *,double,std::less<void> >, COMDAT
; File c:\program files (x86)\microsoft visual studio 14.0\vc\include\algorithm
; Line 2451
	sub	esp, 8
; Line 2452
	mov	ecx, DWORD PTR __Last$[esp+4]
; Line 2453
	lea	edx, DWORD PTR __Val$[esp+8]
	mov	eax, DWORD PTR __First$[esp+4]
	push	DWORD PTR __Pred$[esp+4]
	movsd	xmm0, QWORD PTR [ecx-8]
	movsd	QWORD PTR __Val$[esp+12], xmm0
	movsd	xmm0, QWORD PTR [eax]
	movsd	QWORD PTR [ecx-8], xmm0
	sub	ecx, eax
	push	edx
	sub	ecx, 8
	sar	ecx, 3
	push	ecx
	push	0
	push	eax
	call	??$_Adjust_heap@PANHNU?$less@X@std@@@std@@YAXPANHH$$QANU?$less@X@0@@Z ; std::_Adjust_heap<double *,int,double,std::less<void> >
; Line 2455
	add	esp, 28					; 0000001cH
	ret	0
??$_Pop_heap_0@PANNU?$less@X@std@@@std@@YAXPAN0U?$less@X@0@0@Z ENDP ; std::_Pop_heap_0<double *,double,std::less<void> >
_TEXT	ENDS
; Function compile flags: /Ogtpy
;	COMDAT ??$_Push_heap@PANHNU?$less@X@std@@@std@@YAXPANHH$$QANU?$less@X@0@@Z
_TEXT	SEGMENT
__First$ = 8						; size = 4
__Hole$ = 12						; size = 4
__Top$ = 16						; size = 4
__Val$ = 20						; size = 4
__Pred$ = 24						; size = 1
??$_Push_heap@PANHNU?$less@X@std@@@std@@YAXPANHH$$QANU?$less@X@0@@Z PROC ; std::_Push_heap<double *,int,double,std::less<void> >, COMDAT
; File c:\program files (x86)\microsoft visual studio 14.0\vc\include\algorithm
; Line 2362
	mov	ecx, DWORD PTR __Hole$[esp-4]
	push	ebx
; Line 2363
	mov	ebx, DWORD PTR __Top$[esp]
	lea	eax, DWORD PTR [ecx-1]
	cdq
	sub	eax, edx
	sar	eax, 1
	cmp	ebx, ecx
	jge	SHORT $LN18@Push_heap
	push	esi
	mov	esi, DWORD PTR __First$[esp+4]
	push	edi
	mov	edi, DWORD PTR __Val$[esp+8]
	npad	1
$LL4@Push_heap:
	movsd	xmm1, QWORD PTR [esi+eax*8]
	movsd	xmm0, QWORD PTR [edi]
	comisd	xmm0, xmm1
	jbe	SHORT $LN19@Push_heap
; Line 2366
	movsd	QWORD PTR [esi+ecx*8], xmm1
; Line 2367
	mov	ecx, eax
	dec	eax
	cdq
	sub	eax, edx
	sar	eax, 1
	cmp	ebx, ecx
	jl	SHORT $LL4@Push_heap
$LN19@Push_heap:
; Line 2370
	movsd	xmm0, QWORD PTR [edi]
	pop	edi
	movsd	QWORD PTR [esi+ecx*8], xmm0
	pop	esi
	pop	ebx
; Line 2371
	ret	0
$LN18@Push_heap:
; Line 2370
	mov	eax, DWORD PTR __Val$[esp]
	pop	ebx
	movsd	xmm0, QWORD PTR [eax]
	mov	eax, DWORD PTR __First$[esp-4]
	movsd	QWORD PTR [eax+ecx*8], xmm0
; Line 2371
	ret	0
??$_Push_heap@PANHNU?$less@X@std@@@std@@YAXPANHH$$QANU?$less@X@0@@Z ENDP ; std::_Push_heap<double *,int,double,std::less<void> >
_TEXT	ENDS
; Function compile flags: /Ogtpy
;	COMDAT ??$_Move_backward@PANPAN@std@@YAPANPAN00@Z
_TEXT	SEGMENT
__First$ = 8						; size = 4
__Last$ = 12						; size = 4
__Dest$ = 16						; size = 4
??$_Move_backward@PANPAN@std@@YAPANPAN00@Z PROC		; std::_Move_backward<double *,double *>, COMDAT
; File c:\program files (x86)\microsoft visual studio 14.0\vc\include\xutility
; Line 2644
	mov	eax, DWORD PTR __First$[esp-4]
	mov	ecx, DWORD PTR __Last$[esp-4]
	push	esi
	mov	esi, DWORD PTR __Dest$[esp]
	sub	ecx, eax
	and	ecx, -8					; fffffff8H
	push	ecx
	sub	esi, ecx
	push	eax
	push	esi
	call	DWORD PTR __imp__memmove
	add	esp, 12					; 0000000cH
	mov	eax, esi
	pop	esi
; Line 2646
	ret	0
??$_Move_backward@PANPAN@std@@YAPANPAN00@Z ENDP		; std::_Move_backward<double *,double *>
_TEXT	ENDS
; Function compile flags: /Ogtpy
;	COMDAT ??$_Pop_heap@PANU?$less@X@std@@@std@@YAXPAN0U?$less@X@0@@Z
_TEXT	SEGMENT
__Val$1 = -8						; size = 8
__First$ = 8						; size = 4
__Last$ = 12						; size = 4
__Pred$ = 16						; size = 1
??$_Pop_heap@PANU?$less@X@std@@@std@@YAXPAN0U?$less@X@0@@Z PROC ; std::_Pop_heap<double *,std::less<void> >, COMDAT
; File c:\program files (x86)\microsoft visual studio 14.0\vc\include\algorithm
; Line 2460
	sub	esp, 8
; Line 2461
	mov	ecx, DWORD PTR __Last$[esp+4]
	lea	edx, DWORD PTR __Val$1[esp+8]
	mov	eax, DWORD PTR __First$[esp+4]
	push	DWORD PTR __Pred$[esp+4]
	movsd	xmm0, QWORD PTR [ecx-8]
	movsd	QWORD PTR __Val$1[esp+12], xmm0
	movsd	xmm0, QWORD PTR [eax]
	movsd	QWORD PTR [ecx-8], xmm0
	sub	ecx, eax
	push	edx
	sub	ecx, 8
	sar	ecx, 3
	push	ecx
	push	0
	push	eax
	call	??$_Adjust_heap@PANHNU?$less@X@std@@@std@@YAXPANHH$$QANU?$less@X@0@@Z ; std::_Adjust_heap<double *,int,double,std::less<void> >
; Line 2463
	add	esp, 28					; 0000001cH
	ret	0
??$_Pop_heap@PANU?$less@X@std@@@std@@YAXPAN0U?$less@X@0@@Z ENDP ; std::_Pop_heap<double *,std::less<void> >
_TEXT	ENDS
; Function compile flags: /Ogtpy
;	COMDAT ??$_Adjust_heap@PANHNU?$less@X@std@@@std@@YAXPANHH$$QANU?$less@X@0@@Z
_TEXT	SEGMENT
__First$ = 8						; size = 4
__Hole$ = 12						; size = 4
__Bottom$ = 16						; size = 4
__Val$ = 20						; size = 4
__Pred$ = 24						; size = 1
??$_Adjust_heap@PANHNU?$less@X@std@@@std@@YAXPANHH$$QANU?$less@X@0@@Z PROC ; std::_Adjust_heap<double *,int,double,std::less<void> >, COMDAT
; File c:\program files (x86)\microsoft visual studio 14.0\vc\include\algorithm
; Line 2419
	mov	edx, DWORD PTR __Bottom$[esp-4]
	mov	ecx, DWORD PTR __First$[esp-4]
	push	ebx
	push	esi
	mov	esi, DWORD PTR __Hole$[esp+4]
	mov	ebx, esi
	lea	eax, DWORD PTR [esi*2+2]
	cmp	eax, edx
	jge	SHORT $LN43@Adjust_hea
	npad	5
$LL4@Adjust_hea:
; Line 2421
	movsd	xmm0, QWORD PTR [ecx+eax*8-8]
	comisd	xmm0, QWORD PTR [ecx+eax*8]
	jbe	SHORT $LN5@Adjust_hea
; Line 2422
	dec	eax
$LN5@Adjust_hea:
; Line 2423
	movsd	xmm0, QWORD PTR [ecx+eax*8]
	movsd	QWORD PTR [ecx+esi*8], xmm0
; Line 2424
	mov	esi, eax
	lea	eax, DWORD PTR [eax*2+2]
	cmp	eax, edx
	jl	SHORT $LL4@Adjust_hea
$LN43@Adjust_hea:
; Line 2427
	jne	SHORT $LN6@Adjust_hea
; Line 2429
	movsd	xmm0, QWORD PTR [ecx+edx*8-8]
	movsd	QWORD PTR [ecx+esi*8], xmm0
; Line 2430
	lea	esi, DWORD PTR [edx-1]
$LN6@Adjust_hea:
; Line 2432
	lea	eax, DWORD PTR [esi-1]
	cdq
	sub	eax, edx
	sar	eax, 1
	cmp	ebx, esi
	jge	SHORT $LN40@Adjust_hea
	push	edi
	mov	edi, DWORD PTR __Val$[esp+8]
	npad	10
$LL22@Adjust_hea:
	movsd	xmm1, QWORD PTR [ecx+eax*8]
	movsd	xmm0, QWORD PTR [edi]
	comisd	xmm0, xmm1
	jbe	SHORT $LN41@Adjust_hea
	movsd	QWORD PTR [ecx+esi*8], xmm1
	mov	esi, eax
	dec	eax
	cdq
	sub	eax, edx
	sar	eax, 1
	cmp	ebx, esi
	jl	SHORT $LL22@Adjust_hea
$LN41@Adjust_hea:
	movsd	xmm0, QWORD PTR [edi]
	pop	edi
	movsd	QWORD PTR [ecx+esi*8], xmm0
	pop	esi
	pop	ebx
; Line 2433
	ret	0
$LN40@Adjust_hea:
; Line 2432
	mov	eax, DWORD PTR __Val$[esp+4]
	movsd	xmm0, QWORD PTR [eax]
	movsd	QWORD PTR [ecx+esi*8], xmm0
	pop	esi
	pop	ebx
; Line 2433
	ret	0
??$_Adjust_heap@PANHNU?$less@X@std@@@std@@YAXPANHH$$QANU?$less@X@0@@Z ENDP ; std::_Adjust_heap<double *,int,double,std::less<void> >
_TEXT	ENDS
; Function compile flags: /Ogtpy
;	COMDAT ??$_Move@AAN@std@@YA$$QANAAN@Z
_TEXT	SEGMENT
__Arg$ = 8						; size = 4
??$_Move@AAN@std@@YA$$QANAAN@Z PROC			; std::_Move<double &>, COMDAT
; File c:\program files (x86)\microsoft visual studio 14.0\vc\include\type_traits
; Line 1318
	mov	eax, DWORD PTR __Arg$[esp-4]
; Line 1319
	ret	0
??$_Move@AAN@std@@YA$$QANAAN@Z ENDP			; std::_Move<double &>
_TEXT	ENDS
; Function compile flags: /Ogtpy
;	COMDAT ??$forward@AAPAN@std@@YAAAPANAAPAN@Z
_TEXT	SEGMENT
__Arg$ = 8						; size = 4
??$forward@AAPAN@std@@YAAAPANAAPAN@Z PROC		; std::forward<double * &>, COMDAT
; File c:\program files (x86)\microsoft visual studio 14.0\vc\include\type_traits
; Line 1294
	mov	eax, DWORD PTR __Arg$[esp-4]
; Line 1295
	ret	0
??$forward@AAPAN@std@@YAAAPANAAPAN@Z ENDP		; std::forward<double * &>
_TEXT	ENDS
; Function compile flags: /Ogtpy
;	COMDAT ??$swap@N@std@@YAXAAN0@Z
_TEXT	SEGMENT
__Left$ = 8						; size = 4
__Right$ = 12						; size = 4
??$swap@N@std@@YAXAAN0@Z PROC				; std::swap<double>, COMDAT
; File c:\program files (x86)\microsoft visual studio 14.0\vc\include\utility
; Line 53
	mov	eax, DWORD PTR __Right$[esp-4]
	mov	ecx, DWORD PTR __Left$[esp-4]
	movsd	xmm0, QWORD PTR [eax]
	movsd	xmm1, QWORD PTR [ecx]
	movsd	QWORD PTR [ecx], xmm0
; Line 54
	movsd	QWORD PTR [eax], xmm1
; Line 55
	ret	0
??$swap@N@std@@YAXAAN0@Z ENDP				; std::swap<double>
_TEXT	ENDS
; Function compile flags: /Ogtpy
;	COMDAT ??$_Med3@PANU?$less@X@std@@@std@@YAXPAN00U?$less@X@0@@Z
_TEXT	SEGMENT
__First$ = 8						; size = 4
__Mid$ = 12						; size = 4
__Last$ = 16						; size = 4
__Pred$ = 20						; size = 1
??$_Med3@PANU?$less@X@std@@@std@@YAXPAN00U?$less@X@0@@Z PROC ; std::_Med3<double *,std::less<void> >, COMDAT
; File c:\program files (x86)\microsoft visual studio 14.0\vc\include\algorithm
; Line 3080
	mov	eax, DWORD PTR __Mid$[esp-4]
	mov	ecx, DWORD PTR __First$[esp-4]
	movsd	xmm0, QWORD PTR [eax]
	movsd	xmm1, QWORD PTR [ecx]
	comisd	xmm1, xmm0
	jbe	SHORT $LN11@Med3
; Line 3081
	movsd	QWORD PTR [eax], xmm1
	movsd	QWORD PTR [ecx], xmm0
$LN11@Med3:
; Line 3082
	mov	edx, DWORD PTR __Last$[esp-4]
	movsd	xmm0, QWORD PTR [eax]
	movsd	xmm1, QWORD PTR [edx]
	comisd	xmm0, xmm1
	jbe	SHORT $LN43@Med3
; Line 3084
	movsd	QWORD PTR [edx], xmm0
	movsd	QWORD PTR [eax], xmm1
; Line 3085
	movsd	xmm0, QWORD PTR [ecx]
	comisd	xmm0, xmm1
	jbe	SHORT $LN43@Med3
; Line 3086
	movsd	QWORD PTR [eax], xmm0
	movsd	QWORD PTR [ecx], xmm1
$LN43@Med3:
; Line 3088
	ret	0
??$_Med3@PANU?$less@X@std@@@std@@YAXPAN00U?$less@X@0@@Z ENDP ; std::_Med3<double *,std::less<void> >
_TEXT	ENDS
; Function compile flags: /Ogtpy
;	COMDAT ??$_Insertion_sort1@PANU?$less@X@std@@N@std@@YAXPAN0U?$less@X@0@0@Z
_TEXT	SEGMENT
tv248 = -12						; size = 4
__Val$1$ = -8						; size = 8
__First$ = 8						; size = 4
__Last$ = 12						; size = 4
__Pred$ = 16						; size = 1
___formal$ = 20						; size = 4
??$_Insertion_sort1@PANU?$less@X@std@@N@std@@YAXPAN0U?$less@X@0@0@Z PROC ; std::_Insertion_sort1<double *,std::less<void>,double>, COMDAT
; File c:\program files (x86)\microsoft visual studio 14.0\vc\include\algorithm
; Line 3046
	push	ebp
	mov	ebp, esp
	and	esp, -8					; fffffff8H
	sub	esp, 12					; 0000000cH
	push	ebx
; Line 3047
	mov	ebx, DWORD PTR __Last$[ebp]
	push	esi
	push	edi
	mov	edi, DWORD PTR __First$[ebp]
	cmp	edi, ebx
	je	$LN3@Insertion_
; Line 3048
	lea	esi, DWORD PTR [edi+8]
	cmp	esi, ebx
	je	$LN3@Insertion_
	mov	eax, 8
	sub	eax, edi
	mov	DWORD PTR tv248[esp+24], eax
$LL2@Insertion_:
; Line 3051
	movsd	xmm1, QWORD PTR [esi]
	mov	ecx, esi
; Line 3053
	movsd	xmm0, QWORD PTR [edi]
	comisd	xmm0, xmm1
	movsd	QWORD PTR __Val$1$[esp+24], xmm1
	jbe	SHORT $LN9@Insertion_
; Line 3055
	add	eax, -8					; fffffff8H
	add	eax, esi
	sar	eax, 3
	lea	ecx, DWORD PTR [eax*8]
	mov	eax, esi
	push	ecx
	sub	eax, ecx
	add	eax, 8
	push	edi
	push	eax
	call	DWORD PTR __imp__memmove
; Line 3056
	movsd	xmm0, QWORD PTR __Val$1$[esp+36]
	add	esp, 12					; 0000000cH
	movsd	QWORD PTR [edi], xmm0
; Line 3058
	jmp	SHORT $LN10@Insertion_
$LN9@Insertion_:
; Line 3061
	movsd	xmm0, QWORD PTR [esi-8]
	lea	eax, DWORD PTR [esi-8]
	comisd	xmm0, xmm1
	jbe	SHORT $LN6@Insertion_
$LL7@Insertion_:
; Line 3063
	movsd	QWORD PTR [ecx], xmm0
	mov	ecx, eax
	movsd	xmm0, QWORD PTR [eax-8]
	sub	eax, 8
	comisd	xmm0, xmm1
	ja	SHORT $LL7@Insertion_
$LN6@Insertion_:
; Line 3064
	movsd	QWORD PTR [ecx], xmm1
$LN10@Insertion_:
; Line 3048
	mov	eax, DWORD PTR tv248[esp+24]
	add	esi, 8
	cmp	esi, ebx
	jne	SHORT $LL2@Insertion_
$LN3@Insertion_:
; Line 3067
	pop	edi
	pop	esi
	pop	ebx
	mov	esp, ebp
	pop	ebp
	ret	0
??$_Insertion_sort1@PANU?$less@X@std@@N@std@@YAXPAN0U?$less@X@0@0@Z ENDP ; std::_Insertion_sort1<double *,std::less<void>,double>
_TEXT	ENDS
; Function compile flags: /Ogtpy
;	COMDAT ??$_Sort_heap@PANU?$less@X@std@@@std@@YAXPAN0U?$less@X@0@@Z
_TEXT	SEGMENT
__Val$1 = -8						; size = 8
__First$ = 8						; size = 4
__Last$ = 12						; size = 4
__Pred$ = 16						; size = 1
??$_Sort_heap@PANU?$less@X@std@@@std@@YAXPAN0U?$less@X@0@@Z PROC ; std::_Sort_heap<double *,std::less<void> >, COMDAT
; File c:\program files (x86)\microsoft visual studio 14.0\vc\include\algorithm
; Line 2523
	push	ebp
	mov	ebp, esp
	and	esp, -8					; fffffff8H
	sub	esp, 12					; 0000000cH
	push	ebx
	push	esi
; Line 2524
	mov	esi, DWORD PTR __Last$[ebp]
	push	edi
	mov	edi, DWORD PTR __First$[ebp]
	sub	esi, edi
	mov	eax, esi
	and	eax, -8					; fffffff8H
	cmp	eax, 16					; 00000010H
	jl	SHORT $LN3@Sort_heap
	mov	ebx, DWORD PTR __Pred$[ebp]
	npad	15
$LL4@Sort_heap:
; Line 2525
	movsd	xmm0, QWORD PTR [edi+esi-8]
	lea	eax, DWORD PTR __Val$1[esp+24]
	movsd	QWORD PTR __Val$1[esp+24], xmm0
	movsd	xmm0, QWORD PTR [edi]
	push	ebx
	push	eax
	movsd	QWORD PTR [edi+esi-8], xmm0
	add	esi, -8					; fffffff8H
	mov	eax, esi
	sar	eax, 3
	push	eax
	push	0
	push	edi
	call	??$_Adjust_heap@PANHNU?$less@X@std@@@std@@YAXPANHH$$QANU?$less@X@0@@Z ; std::_Adjust_heap<double *,int,double,std::less<void> >
	mov	eax, esi
	add	esp, 20					; 00000014H
	and	eax, -8					; fffffff8H
	cmp	eax, 16					; 00000010H
	jge	SHORT $LL4@Sort_heap
$LN3@Sort_heap:
; Line 2526
	pop	edi
	pop	esi
	pop	ebx
	mov	esp, ebp
	pop	ebp
	ret	0
??$_Sort_heap@PANU?$less@X@std@@@std@@YAXPAN0U?$less@X@0@@Z ENDP ; std::_Sort_heap<double *,std::less<void> >
_TEXT	ENDS
; Function compile flags: /Ogtpy
;	COMDAT ??$_Make_heap@PANHNU?$less@X@std@@@std@@YAXPAN0U?$less@X@0@PAH0@Z
_TEXT	SEGMENT
tv290 = -4						; size = 4
__First$ = 8						; size = 4
__Last$ = 12						; size = 4
__Pred$ = 16						; size = 1
___formal$ = 20						; size = 4
___formal$ = 24						; size = 4
??$_Make_heap@PANHNU?$less@X@std@@@std@@YAXPAN0U?$less@X@0@PAH0@Z PROC ; std::_Make_heap<double *,int,double,std::less<void> >, COMDAT
; File c:\program files (x86)\microsoft visual studio 14.0\vc\include\algorithm
; Line 2488
	push	ebp
	mov	ebp, esp
	and	esp, -8					; fffffff8H
	push	ecx
; Line 2489
	mov	ecx, DWORD PTR __First$[ebp]
	push	ebx
	push	esi
	push	edi
	mov	edi, DWORD PTR __Last$[ebp]
	sub	edi, ecx
	sar	edi, 3
; Line 2490
	mov	eax, edi
	cdq
	sub	eax, edx
	mov	ebx, eax
	sar	ebx, 1
	test	ebx, ebx
	jle	$LN3@Make_heap
; Line 2489
	lea	edx, DWORD PTR [ebx*2+2]
	npad	3
$LL2@Make_heap:
; Line 2493
	movsd	xmm1, QWORD PTR [ecx+ebx*8-8]
	dec	ebx
	sub	edx, 2
; Line 2494
	mov	esi, ebx
	mov	DWORD PTR tv290[esp+16], edx
	mov	eax, edx
	cmp	edx, edi
	jge	SHORT $LN14@Make_heap
	npad	10
$LL15@Make_heap:
	movsd	xmm0, QWORD PTR [ecx+eax*8-8]
	comisd	xmm0, QWORD PTR [ecx+eax*8]
	jbe	SHORT $LN16@Make_heap
	dec	eax
$LN16@Make_heap:
	movsd	xmm0, QWORD PTR [ecx+eax*8]
	movsd	QWORD PTR [ecx+esi*8], xmm0
	mov	esi, eax
	lea	eax, DWORD PTR [eax*2+2]
	cmp	eax, edi
	jl	SHORT $LL15@Make_heap
$LN14@Make_heap:
	cmp	eax, edi
	jne	SHORT $LN17@Make_heap
	movsd	xmm0, QWORD PTR [ecx+edi*8-8]
	movsd	QWORD PTR [ecx+esi*8], xmm0
	lea	esi, DWORD PTR [edi-1]
$LN17@Make_heap:
	lea	eax, DWORD PTR [esi-1]
	cdq
	sub	eax, edx
	sar	eax, 1
	cmp	ebx, esi
	jge	SHORT $LN55@Make_heap
$LL33@Make_heap:
	movsd	xmm0, QWORD PTR [ecx+eax*8]
	comisd	xmm1, xmm0
	jbe	SHORT $LN55@Make_heap
	movsd	QWORD PTR [ecx+esi*8], xmm0
	mov	esi, eax
	dec	eax
	cdq
	sub	eax, edx
	sar	eax, 1
	cmp	ebx, esi
	jl	SHORT $LL33@Make_heap
$LN55@Make_heap:
; Line 2490
	mov	edx, DWORD PTR tv290[esp+16]
; Line 2494
	movsd	QWORD PTR [ecx+esi*8], xmm1
	test	ebx, ebx
	jg	$LL2@Make_heap
$LN3@Make_heap:
; Line 2497
	pop	edi
	pop	esi
	pop	ebx
	mov	esp, ebp
	pop	ebp
	ret	0
??$_Make_heap@PANHNU?$less@X@std@@@std@@YAXPAN0U?$less@X@0@PAH0@Z ENDP ; std::_Make_heap<double *,int,double,std::less<void> >
_TEXT	ENDS
; Function compile flags: /Ogtpy
;	COMDAT ??$_Val_type@PAN@std@@YAPANPAN@Z
_TEXT	SEGMENT
___formal$ = 8						; size = 4
??$_Val_type@PAN@std@@YAPANPAN@Z PROC			; std::_Val_type<double *>, COMDAT
; File c:\program files (x86)\microsoft visual studio 14.0\vc\include\xutility
; Line 875
	xor	eax, eax
; Line 876
	ret	0
??$_Val_type@PAN@std@@YAPANPAN@Z ENDP			; std::_Val_type<double *>
_TEXT	ENDS
; Function compile flags: /Ogtpy
;	COMDAT ??$_Dist_type@PAN@std@@YAPAHPAN@Z
_TEXT	SEGMENT
___formal$ = 8						; size = 4
??$_Dist_type@PAN@std@@YAPAHPAN@Z PROC			; std::_Dist_type<double *>, COMDAT
; File c:\program files (x86)\microsoft visual studio 14.0\vc\include\xutility
; Line 935
	xor	eax, eax
; Line 936
	ret	0
??$_Dist_type@PAN@std@@YAPAHPAN@Z ENDP			; std::_Dist_type<double *>
_TEXT	ENDS
; Function compile flags: /Ogtpy
;	COMDAT ??$_Unchecked@PAN@std@@YAPANPAN@Z
_TEXT	SEGMENT
__Src$ = 8						; size = 4
??$_Unchecked@PAN@std@@YAPANPAN@Z PROC			; std::_Unchecked<double *>, COMDAT
; File c:\program files (x86)\microsoft visual studio 14.0\vc\include\xutility
; Line 439
	mov	eax, DWORD PTR __Src$[esp-4]
; Line 440
	ret	0
??$_Unchecked@PAN@std@@YAPANPAN@Z ENDP			; std::_Unchecked<double *>
_TEXT	ENDS
; Function compile flags: /Ogtpy
;	COMDAT ??$?0AAPANAAPANX@?$pair@PANPAN@std@@QAE@AAPAN0@Z
_TEXT	SEGMENT
__Val1$ = 8						; size = 4
__Val2$ = 12						; size = 4
??$?0AAPANAAPANX@?$pair@PANPAN@std@@QAE@AAPAN0@Z PROC	; std::pair<double *,double *>::pair<double *,double *><double * &,double * &,void>, COMDAT
; _this$ = ecx
; File c:\program files (x86)\microsoft visual studio 14.0\vc\include\utility
; Line 143
	mov	eax, DWORD PTR __Val1$[esp-4]
	mov	eax, DWORD PTR [eax]
	mov	DWORD PTR [ecx], eax
; Line 144
	mov	eax, DWORD PTR __Val2$[esp-4]
	mov	eax, DWORD PTR [eax]
	mov	DWORD PTR [ecx+4], eax
; Line 146
	mov	eax, ecx
	ret	8
??$?0AAPANAAPANX@?$pair@PANPAN@std@@QAE@AAPAN0@Z ENDP	; std::pair<double *,double *>::pair<double *,double *><double * &,double * &,void>
_TEXT	ENDS
; Function compile flags: /Ogtpy
;	COMDAT ??$iter_swap@PANPAN@std@@YAXPAN0@Z
_TEXT	SEGMENT
__Left$ = 8						; size = 4
__Right$ = 12						; size = 4
??$iter_swap@PANPAN@std@@YAXPAN0@Z PROC			; std::iter_swap<double *,double *>, COMDAT
; File c:\program files (x86)\microsoft visual studio 14.0\vc\include\utility
; Line 28
	mov	eax, DWORD PTR __Right$[esp-4]
	mov	ecx, DWORD PTR __Left$[esp-4]
	movsd	xmm0, QWORD PTR [eax]
	movsd	xmm1, QWORD PTR [ecx]
	movsd	QWORD PTR [ecx], xmm0
	movsd	QWORD PTR [eax], xmm1
; Line 29
	ret	0
??$iter_swap@PANPAN@std@@YAXPAN0@Z ENDP			; std::iter_swap<double *,double *>
_TEXT	ENDS
; Function compile flags: /Ogtpy
;	COMDAT ??$?RAANAAN@?$less@X@std@@QBE_NAAN0@Z
_TEXT	SEGMENT
__Left$ = 8						; size = 4
__Right$ = 12						; size = 4
??$?RAANAAN@?$less@X@std@@QBE_NAAN0@Z PROC		; std::less<void>::operator()<double &,double &>, COMDAT
; _this$ = ecx
; File c:\program files (x86)\microsoft visual studio 14.0\vc\include\xstddef
; Line 327
	mov	eax, DWORD PTR __Right$[esp-4]
	mov	ecx, DWORD PTR __Left$[esp-4]
	movsd	xmm0, QWORD PTR [eax]
	xor	eax, eax
	comisd	xmm0, QWORD PTR [ecx]
	seta	al
; Line 329
	ret	8
??$?RAANAAN@?$less@X@std@@QBE_NAAN0@Z ENDP		; std::less<void>::operator()<double &,double &>
_TEXT	ENDS
; Function compile flags: /Ogtpy
;	COMDAT ??$_Median@PANU?$less@X@std@@@std@@YAXPAN00U?$less@X@0@@Z
_TEXT	SEGMENT
tv488 = -4						; size = 4
__First$ = 8						; size = 4
__Mid$ = 12						; size = 4
__Last$ = 16						; size = 4
__Pred$ = 20						; size = 1
??$_Median@PANU?$less@X@std@@@std@@YAXPAN00U?$less@X@0@@Z PROC ; std::_Median<double *,std::less<void> >, COMDAT
; File c:\program files (x86)\microsoft visual studio 14.0\vc\include\algorithm
; Line 3093
	push	ebp
	mov	ebp, esp
	and	esp, -8					; fffffff8H
	push	ecx
; Line 3094
	mov	ecx, DWORD PTR __First$[ebp]
	push	ebx
	push	esi
	push	edi
	mov	edi, DWORD PTR __Last$[ebp]
	mov	eax, edi
; Line 3097
	movsd	xmm1, QWORD PTR [ecx]
	sub	eax, ecx
	sar	eax, 3
	cmp	eax, 40					; 00000028H
	jle	$LN2@Median
; Line 3096
	inc	eax
	cdq
	and	edx, 7
	add	eax, edx
	sar	eax, 3
; Line 3097
	mov	ebx, eax
	shl	ebx, 4
	mov	DWORD PTR tv488[esp+16], ebx
	lea	edx, DWORD PTR [eax*8]
	movsd	xmm0, QWORD PTR [edx+ecx]
	comisd	xmm1, xmm0
	jbe	SHORT $LN15@Median
	movsd	QWORD PTR [edx+ecx], xmm1
	movsd	QWORD PTR [ecx], xmm0
$LN15@Median:
	movsd	xmm1, QWORD PTR [ebx+ecx]
	movsd	xmm0, QWORD PTR [edx+ecx]
	comisd	xmm0, xmm1
	jbe	SHORT $LN47@Median
	movsd	QWORD PTR [ebx+ecx], xmm0
	movsd	QWORD PTR [edx+ecx], xmm1
	movsd	xmm0, QWORD PTR [ecx]
	comisd	xmm0, xmm1
	jbe	SHORT $LN47@Median
	movsd	QWORD PTR [edx+ecx], xmm0
	movsd	QWORD PTR [ecx], xmm1
$LN47@Median:
; Line 3098
	mov	eax, DWORD PTR __Mid$[ebp]
	mov	esi, eax
	sub	esi, edx
	movsd	xmm0, QWORD PTR [eax]
	movsd	xmm1, QWORD PTR [esi]
	comisd	xmm1, xmm0
	jbe	SHORT $LN68@Median
	movsd	QWORD PTR [eax], xmm1
	movsd	QWORD PTR [esi], xmm0
$LN68@Median:
	movsd	xmm1, QWORD PTR [edx+eax]
	movsd	xmm0, QWORD PTR [eax]
	comisd	xmm0, xmm1
	jbe	SHORT $LN100@Median
	movsd	QWORD PTR [edx+eax], xmm0
	movsd	QWORD PTR [eax], xmm1
	movsd	xmm0, QWORD PTR [esi]
	comisd	xmm0, xmm1
	jbe	SHORT $LN100@Median
	movsd	QWORD PTR [eax], xmm0
	movsd	QWORD PTR [esi], xmm1
$LN100@Median:
; Line 3099
	mov	esi, edi
	mov	ebx, edi
	sub	ebx, DWORD PTR tv488[esp+16]
	sub	esi, edx
	movsd	xmm0, QWORD PTR [esi]
	movsd	xmm1, QWORD PTR [ebx]
	comisd	xmm1, xmm0
	jbe	SHORT $LN121@Median
	movsd	QWORD PTR [esi], xmm1
	movsd	QWORD PTR [ebx], xmm0
$LN121@Median:
	movsd	xmm1, QWORD PTR [edi]
	movsd	xmm0, QWORD PTR [esi]
	comisd	xmm0, xmm1
	jbe	SHORT $LN153@Median
	movsd	QWORD PTR [edi], xmm0
	movsd	QWORD PTR [esi], xmm1
	movsd	xmm0, QWORD PTR [ebx]
	comisd	xmm0, xmm1
	jbe	SHORT $LN153@Median
	movsd	QWORD PTR [esi], xmm0
	movsd	QWORD PTR [ebx], xmm1
$LN153@Median:
; Line 3100
	movsd	xmm0, QWORD PTR [eax]
	movsd	xmm1, QWORD PTR [edx+ecx]
	comisd	xmm1, xmm0
	jbe	SHORT $LN174@Median
	movsd	QWORD PTR [eax], xmm1
	movsd	QWORD PTR [edx+ecx], xmm0
$LN174@Median:
	movsd	xmm1, QWORD PTR [esi]
	movsd	xmm0, QWORD PTR [eax]
	comisd	xmm0, xmm1
	jbe	SHORT $LN259@Median
	movsd	QWORD PTR [esi], xmm0
	movsd	QWORD PTR [eax], xmm1
	movsd	xmm0, QWORD PTR [edx+ecx]
	comisd	xmm0, xmm1
	jbe	SHORT $LN259@Median
	movsd	QWORD PTR [eax], xmm0
	movsd	QWORD PTR [edx+ecx], xmm1
; Line 3104
	pop	edi
	pop	esi
	pop	ebx
	mov	esp, ebp
	pop	ebp
	ret	0
$LN2@Median:
; Line 3103
	mov	eax, DWORD PTR __Mid$[ebp]
	movsd	xmm0, QWORD PTR [eax]
	comisd	xmm1, xmm0
	jbe	SHORT $LN227@Median
	movsd	QWORD PTR [eax], xmm1
	movsd	QWORD PTR [ecx], xmm0
$LN227@Median:
	movsd	xmm1, QWORD PTR [edi]
	movsd	xmm0, QWORD PTR [eax]
	comisd	xmm0, xmm1
	jbe	SHORT $LN259@Median
	movsd	QWORD PTR [edi], xmm0
	movsd	QWORD PTR [eax], xmm1
	movsd	xmm0, QWORD PTR [ecx]
	comisd	xmm0, xmm1
	jbe	SHORT $LN259@Median
	movsd	QWORD PTR [eax], xmm0
	movsd	QWORD PTR [ecx], xmm1
$LN259@Median:
; Line 3104
	pop	edi
	pop	esi
	pop	ebx
	mov	esp, ebp
	pop	ebp
	ret	0
??$_Median@PANU?$less@X@std@@@std@@YAXPAN00U?$less@X@0@@Z ENDP ; std::_Median<double *,std::less<void> >
_TEXT	ENDS
; Function compile flags: /Ogtpy
;	COMDAT ??$?RAANAAN@?$plus@X@std@@QBENAAN0@Z
_TEXT	SEGMENT
__Left$ = 8						; size = 4
__Right$ = 12						; size = 4
??$?RAANAAN@?$plus@X@std@@QBENAAN0@Z PROC		; std::plus<void>::operator()<double &,double &>, COMDAT
; _this$ = ecx
; File c:\program files (x86)\microsoft visual studio 14.0\vc\include\xstddef
; Line 259
	mov	eax, DWORD PTR __Left$[esp-4]
	fld	QWORD PTR [eax]
	mov	eax, DWORD PTR __Right$[esp-4]
	fadd	QWORD PTR [eax]
; Line 261
	ret	8
??$?RAANAAN@?$plus@X@std@@QBENAAN0@Z ENDP		; std::plus<void>::operator()<double &,double &>
_TEXT	ENDS
; Function compile flags: /Ogtpy
;	COMDAT ??$_Insertion_sort@PANU?$less@X@std@@@std@@YAXPAN0U?$less@X@0@@Z
_TEXT	SEGMENT
__First$ = 8						; size = 4
__Last$ = 12						; size = 4
__Pred$ = 16						; size = 1
??$_Insertion_sort@PANU?$less@X@std@@@std@@YAXPAN0U?$less@X@0@@Z PROC ; std::_Insertion_sort<double *,std::less<void> >, COMDAT
; File c:\program files (x86)\microsoft visual studio 14.0\vc\include\algorithm
; Line 3073
	push	0
	push	DWORD PTR __Pred$[esp]
	push	DWORD PTR __Last$[esp+4]
	push	DWORD PTR __First$[esp+8]
	call	??$_Insertion_sort1@PANU?$less@X@std@@N@std@@YAXPAN0U?$less@X@0@0@Z ; std::_Insertion_sort1<double *,std::less<void>,double>
	add	esp, 16					; 00000010H
; Line 3074
	ret	0
??$_Insertion_sort@PANU?$less@X@std@@@std@@YAXPAN0U?$less@X@0@@Z ENDP ; std::_Insertion_sort<double *,std::less<void> >
_TEXT	ENDS
; Function compile flags: /Ogtpy
;	COMDAT ??$sort_heap@PANU?$less@X@std@@@std@@YAXPAN0U?$less@X@0@@Z
_TEXT	SEGMENT
__First$ = 8						; size = 4
__Last$ = 12						; size = 4
__Pred$ = 16						; size = 1
??$sort_heap@PANU?$less@X@std@@@std@@YAXPAN0U?$less@X@0@@Z PROC ; std::sort_heap<double *,std::less<void> >, COMDAT
; File c:\program files (x86)\microsoft visual studio 14.0\vc\include\algorithm
; Line 2535
	push	DWORD PTR __Pred$[esp-4]
	push	DWORD PTR __Last$[esp]
	push	DWORD PTR __First$[esp+4]
	call	??$_Sort_heap@PANU?$less@X@std@@@std@@YAXPAN0U?$less@X@0@@Z ; std::_Sort_heap<double *,std::less<void> >
	add	esp, 12					; 0000000cH
; Line 2536
	ret	0
??$sort_heap@PANU?$less@X@std@@@std@@YAXPAN0U?$less@X@0@@Z ENDP ; std::sort_heap<double *,std::less<void> >
_TEXT	ENDS
; Function compile flags: /Ogtpy
;	COMDAT ??$make_heap@PANU?$less@X@std@@@std@@YAXPAN0U?$less@X@0@@Z
_TEXT	SEGMENT
__First$ = 8						; size = 4
__Last$ = 12						; size = 4
__Pred$ = 16						; size = 1
??$make_heap@PANU?$less@X@std@@@std@@YAXPAN0U?$less@X@0@@Z PROC ; std::make_heap<double *,std::less<void> >, COMDAT
; File c:\program files (x86)\microsoft visual studio 14.0\vc\include\algorithm
; Line 2504
	mov	ecx, DWORD PTR __Last$[esp-4]
	mov	eax, ecx
	mov	edx, DWORD PTR __First$[esp-4]
	sub	eax, edx
	and	eax, -8					; fffffff8H
	cmp	eax, 16					; 00000010H
	jl	SHORT $LN2@make_heap
; Line 2507
	push	0
	push	0
	push	DWORD PTR __Pred$[esp+4]
	push	ecx
	push	edx
	call	??$_Make_heap@PANHNU?$less@X@std@@@std@@YAXPAN0U?$less@X@0@PAH0@Z ; std::_Make_heap<double *,int,double,std::less<void> >
	add	esp, 20					; 00000014H
$LN2@make_heap:
; Line 2510
	ret	0
??$make_heap@PANU?$less@X@std@@@std@@YAXPAN0U?$less@X@0@@Z ENDP ; std::make_heap<double *,std::less<void> >
_TEXT	ENDS
; Function compile flags: /Ogtpy
;	COMDAT ??$_Unguarded_partition@PANU?$less@X@std@@@std@@YA?AU?$pair@PANPAN@0@PAN0U?$less@X@0@@Z
_TEXT	SEGMENT
___$ReturnUdt$ = 8					; size = 4
__First$ = 12						; size = 4
__Last$ = 16						; size = 4
__Pred$ = 20						; size = 1
??$_Unguarded_partition@PANU?$less@X@std@@@std@@YA?AU?$pair@PANPAN@0@PAN0U?$less@X@0@@Z PROC ; std::_Unguarded_partition<double *,std::less<void> >, COMDAT
; File c:\program files (x86)\microsoft visual studio 14.0\vc\include\algorithm
; Line 3111
	mov	ecx, DWORD PTR __Last$[esp-4]
	mov	eax, ecx
	push	ebx
	mov	ebx, DWORD PTR __First$[esp]
	sub	eax, ebx
	sar	eax, 3
	cdq
	push	esi
	sub	eax, edx
	sar	eax, 1
	push	edi
; Line 3112
	push	DWORD PTR __Pred$[esp+8]
	lea	esi, DWORD PTR [ebx+eax*8]
	lea	eax, DWORD PTR [ecx-8]
	push	eax
	push	esi
	push	ebx
	call	??$_Median@PANU?$less@X@std@@@std@@YAXPAN00U?$less@X@0@@Z ; std::_Median<double *,std::less<void> >
	add	esp, 16					; 00000010H
; Line 3114
	lea	edi, DWORD PTR [esi+8]
; Line 3118
	cmp	ebx, esi
	jae	SHORT $LN181@Unguarded_
$LL2@Unguarded_:
	movsd	xmm1, QWORD PTR [esi-8]
	movsd	xmm0, QWORD PTR [esi]
	comisd	xmm0, xmm1
	ja	SHORT $LN181@Unguarded_
	comisd	xmm1, xmm0
	ja	SHORT $LN181@Unguarded_
; Line 3119
	add	esi, -8					; fffffff8H
	cmp	ebx, esi
	jb	SHORT $LL2@Unguarded_
$LN181@Unguarded_:
; Line 3122
	mov	ecx, DWORD PTR __Last$[esp+8]
	cmp	edi, ecx
	jae	SHORT $LN182@Unguarded_
	movsd	xmm1, QWORD PTR [esi]
	npad	5
$LL4@Unguarded_:
	movsd	xmm0, QWORD PTR [edi]
	comisd	xmm1, xmm0
	ja	SHORT $LN182@Unguarded_
	comisd	xmm0, xmm1
	ja	SHORT $LN182@Unguarded_
; Line 3123
	add	edi, 8
	cmp	edi, ecx
	jb	SHORT $LL4@Unguarded_
$LN182@Unguarded_:
; Line 3125
	mov	edx, edi
; Line 3126
	mov	ebx, esi
$LN186@Unguarded_:
	mov	eax, DWORD PTR __First$[esp+8]
	npad	1
$LL6@Unguarded_:
; Line 3130
	cmp	edx, ecx
	jae	SHORT $LN162@Unguarded_
$LL11@Unguarded_:
; Line 3131
	movsd	xmm0, QWORD PTR [esi]
	movsd	xmm1, QWORD PTR [edx]
	comisd	xmm1, xmm0
	ja	SHORT $LN9@Unguarded_
; Line 3133
	comisd	xmm0, xmm1
	ja	SHORT $LN183@Unguarded_
; Line 3135
	mov	eax, edi
	add	edi, 8
	cmp	eax, edx
	je	SHORT $LN9@Unguarded_
; Line 3136
	movsd	xmm0, QWORD PTR [edi-8]
	movsd	QWORD PTR [edi-8], xmm1
	movsd	QWORD PTR [edx], xmm0
$LN9@Unguarded_:
; Line 3130
	add	edx, 8
	cmp	edx, ecx
	jb	SHORT $LL11@Unguarded_
$LN183@Unguarded_:
	mov	eax, DWORD PTR __First$[esp+8]
$LN162@Unguarded_:
; Line 3137
	cmp	ebx, eax
	jbe	SHORT $LN185@Unguarded_
	lea	eax, DWORD PTR [ebx-8]
$LL14@Unguarded_:
; Line 3138
	movsd	xmm1, QWORD PTR [eax]
	movsd	xmm0, QWORD PTR [esi]
	comisd	xmm0, xmm1
	ja	SHORT $LN12@Unguarded_
; Line 3140
	comisd	xmm1, xmm0
	ja	SHORT $LN184@Unguarded_
; Line 3142
	sub	esi, 8
	cmp	esi, eax
	je	SHORT $LN12@Unguarded_
; Line 3143
	movsd	xmm0, QWORD PTR [esi]
	movsd	QWORD PTR [esi], xmm1
	movsd	QWORD PTR [eax], xmm0
$LN12@Unguarded_:
; Line 3137
	sub	ebx, 8
	sub	eax, 8
	cmp	DWORD PTR __First$[esp+8], ebx
	jb	SHORT $LL14@Unguarded_
$LN184@Unguarded_:
	mov	eax, DWORD PTR __First$[esp+8]
; Line 3144
	cmp	ebx, eax
$LN185@Unguarded_:
	jne	SHORT $LN26@Unguarded_
	cmp	edx, ecx
	je	$LN164@Unguarded_
; Line 3149
	cmp	edi, edx
	je	SHORT $LN89@Unguarded_
; Line 3150
	movsd	xmm0, QWORD PTR [edi]
	movsd	xmm1, QWORD PTR [esi]
	movsd	QWORD PTR [esi], xmm0
	movsd	QWORD PTR [edi], xmm1
$LN89@Unguarded_:
; Line 3152
	mov	ecx, edx
	mov	eax, esi
	add	edi, 8
	add	esi, 8
	add	edx, 8
	movsd	xmm0, QWORD PTR [ecx]
	movsd	xmm1, QWORD PTR [eax]
	movsd	QWORD PTR [eax], xmm0
	movsd	QWORD PTR [ecx], xmm1
	mov	ecx, DWORD PTR __Last$[esp+8]
	jmp	$LN186@Unguarded_
$LN26@Unguarded_:
; Line 3156
	sub	ebx, 8
	cmp	edx, ecx
	jne	SHORT $LN29@Unguarded_
	sub	esi, 8
	cmp	ebx, esi
	je	SHORT $LN117@Unguarded_
; Line 3157
	movsd	xmm0, QWORD PTR [esi]
	movsd	xmm1, QWORD PTR [ebx]
	movsd	QWORD PTR [ebx], xmm0
	movsd	QWORD PTR [esi], xmm1
$LN117@Unguarded_:
; Line 3158
	movsd	xmm0, QWORD PTR [edi-8]
	sub	edi, 8
	movsd	xmm1, QWORD PTR [esi]
	movsd	QWORD PTR [esi], xmm0
	movsd	QWORD PTR [edi], xmm1
; Line 3160
	jmp	$LL6@Unguarded_
$LN29@Unguarded_:
; Line 3161
	movsd	xmm1, QWORD PTR [edx]
	movsd	xmm0, QWORD PTR [ebx]
	movsd	QWORD PTR [edx], xmm0
	add	edx, 8
	movsd	QWORD PTR [ebx], xmm1
; Line 3162
	jmp	$LL6@Unguarded_
$LN164@Unguarded_:
; Line 3145
	mov	eax, DWORD PTR ___$ReturnUdt$[esp+8]
	mov	DWORD PTR [eax+4], edi
	pop	edi
	mov	DWORD PTR [eax], esi
	pop	esi
	pop	ebx
; Line 3163
	ret	0
??$_Unguarded_partition@PANU?$less@X@std@@@std@@YA?AU?$pair@PANPAN@0@PAN0U?$less@X@0@@Z ENDP ; std::_Unguarded_partition<double *,std::less<void> >
_TEXT	ENDS
; Function compile flags: /Ogtpy
;	COMDAT ??$destroy@Vplain_particle@@@?$allocator@Vplain_particle@@@std@@QAEXPAVplain_particle@@@Z
_TEXT	SEGMENT
__Ptr$ = 8						; size = 4
??$destroy@Vplain_particle@@@?$allocator@Vplain_particle@@@std@@QAEXPAVplain_particle@@@Z PROC ; std::allocator<plain_particle>::destroy<plain_particle>, COMDAT
; _this$ = ecx
; File c:\program files (x86)\microsoft visual studio 14.0\vc\include\xmemory0
; Line 665
	ret	4
??$destroy@Vplain_particle@@@?$allocator@Vplain_particle@@@std@@QAEXPAVplain_particle@@@Z ENDP ; std::allocator<plain_particle>::destroy<plain_particle>
_TEXT	ENDS
; Function compile flags: /Ogtpy
;	COMDAT ??$_Accumulate@PANNU?$plus@X@std@@@std@@YANPAN0NU?$plus@X@0@@Z
_TEXT	SEGMENT
__First$ = 8						; size = 4
__Last$ = 12						; size = 4
__Val$ = 16						; size = 8
__Func$ = 24						; size = 1
??$_Accumulate@PANNU?$plus@X@std@@@std@@YANPAN0NU?$plus@X@0@@Z PROC ; std::_Accumulate<double *,double,std::plus<void> >, COMDAT
; File c:\program files (x86)\microsoft visual studio 14.0\vc\include\numeric
; Line 18
	mov	ecx, DWORD PTR __First$[esp-4]
	xor	edx, edx
	push	esi
	mov	esi, DWORD PTR __Last$[esp]
	sub	esi, ecx
	add	esi, 7
	shr	esi, 3
	push	edi
	xor	edi, edi
	cmp	ecx, DWORD PTR __Last$[esp+4]
	cmova	esi, edi
; Line 19
	test	esi, esi
	je	SHORT $LN14@Accumulate
	movsd	xmm1, QWORD PTR __Val$[esp+4]
$LL10@Accumulate:
; Line 20
	addsd	xmm1, QWORD PTR [ecx]
	inc	edx
	add	ecx, 8
	cmp	edx, esi
	jne	SHORT $LL10@Accumulate
	movsd	QWORD PTR __Val$[esp+4], xmm1
$LN14@Accumulate:
; Line 21
	fld	QWORD PTR __Val$[esp+4]
	pop	edi
	pop	esi
; Line 22
	ret	0
??$_Accumulate@PANNU?$plus@X@std@@@std@@YANPAN0NU?$plus@X@0@@Z ENDP ; std::_Accumulate<double *,double,std::plus<void> >
_TEXT	ENDS
; Function compile flags: /Ogtpy
;	COMDAT ??$_Sort@PANHU?$less@X@std@@@std@@YAXPAN0HU?$less@X@0@@Z
_TEXT	SEGMENT
__Mid$1 = -8						; size = 8
__First$ = 8						; size = 4
__Last$ = 12						; size = 4
__Ideal$ = 16						; size = 4
__Pred$ = 20						; size = 1
??$_Sort@PANHU?$less@X@std@@@std@@YAXPAN0HU?$less@X@0@@Z PROC ; std::_Sort<double *,int,std::less<void> >, COMDAT
; File c:\program files (x86)\microsoft visual studio 14.0\vc\include\algorithm
; Line 3169
	sub	esp, 8
	push	ebx
	push	ebp
	push	esi
; Line 3171
	mov	esi, DWORD PTR __Last$[esp+16]
	mov	eax, esi
	push	edi
	mov	edi, DWORD PTR __First$[esp+20]
	sub	eax, edi
	sar	eax, 3
	cmp	eax, 32					; 00000020H
	jle	SHORT $LN7@Sort
	mov	ebx, DWORD PTR __Ideal$[esp+20]
	npad	1
$LL2@Sort:
	test	ebx, ebx
	jle	$LN3@Sort
; Line 3174
	push	DWORD PTR __Pred$[esp+20]
	lea	eax, DWORD PTR __Mid$1[esp+28]
	push	esi
	push	edi
	push	eax
	call	??$_Unguarded_partition@PANU?$less@X@std@@@std@@YA?AU?$pair@PANPAN@0@PAN0U?$less@X@0@@Z ; std::_Unguarded_partition<double *,std::less<void> >
; Line 3177
	mov	ebp, DWORD PTR __Mid$1[esp+44]
	mov	eax, ebx
	cdq
	add	esp, 16					; 00000010H
	sub	eax, edx
	mov	ecx, esi
	mov	ebx, eax
	sub	ecx, ebp
	sar	ebx, 1
	and	ecx, -8					; fffffff8H
; Line 3179
	push	DWORD PTR __Pred$[esp+20]
	mov	eax, ebx
	cdq
	sub	eax, edx
	mov	edx, DWORD PTR __Mid$1[esp+28]
	sar	eax, 1
	add	ebx, eax
	mov	eax, edx
	sub	eax, edi
	and	eax, -8					; fffffff8H
	push	ebx
	cmp	eax, ecx
	jge	SHORT $LN5@Sort
	push	edx
	push	edi
	call	??$_Sort@PANHU?$less@X@std@@@std@@YAXPAN0HU?$less@X@0@@Z ; std::_Sort<double *,int,std::less<void> >
; Line 3180
	mov	edi, ebp
; Line 3182
	jmp	SHORT $LN35@Sort
$LN5@Sort:
; Line 3184
	push	esi
	push	ebp
	call	??$_Sort@PANHU?$less@X@std@@@std@@YAXPAN0HU?$less@X@0@@Z ; std::_Sort<double *,int,std::less<void> >
; Line 3185
	mov	esi, DWORD PTR __Mid$1[esp+40]
$LN35@Sort:
; Line 3184
	mov	eax, esi
	add	esp, 16					; 00000010H
	sub	eax, edi
	sar	eax, 3
	cmp	eax, 32					; 00000020H
	jg	SHORT $LL2@Sort
$LN7@Sort:
; Line 3194
	cmp	eax, 2
	jl	SHORT $LN9@Sort
; Line 3195
	push	0
	push	DWORD PTR __Pred$[esp+24]
	push	esi
	push	edi
	call	??$_Insertion_sort1@PANU?$less@X@std@@N@std@@YAXPAN0U?$less@X@0@0@Z ; std::_Insertion_sort1<double *,std::less<void>,double>
	add	esp, 16					; 00000010H
$LN9@Sort:
	pop	edi
	pop	esi
	pop	ebp
	pop	ebx
; Line 3196
	add	esp, 8
	ret	0
$LN3@Sort:
; Line 3189
	cmp	eax, 32					; 00000020H
	jle	SHORT $LN7@Sort
; Line 3191
	mov	eax, esi
	sub	eax, edi
	and	eax, -8					; fffffff8H
	cmp	eax, 16					; 00000010H
	jl	SHORT $LN12@Sort
	push	0
	push	0
	push	DWORD PTR __Pred$[esp+28]
	push	esi
	push	edi
	call	??$_Make_heap@PANHNU?$less@X@std@@@std@@YAXPAN0U?$less@X@0@PAH0@Z ; std::_Make_heap<double *,int,double,std::less<void> >
	add	esp, 20					; 00000014H
$LN12@Sort:
; Line 3192
	push	DWORD PTR __Pred$[esp+20]
	push	esi
	push	edi
	call	??$_Sort_heap@PANU?$less@X@std@@@std@@YAXPAN0U?$less@X@0@@Z ; std::_Sort_heap<double *,std::less<void> >
	add	esp, 12					; 0000000cH
	pop	edi
	pop	esi
	pop	ebp
	pop	ebx
; Line 3196
	add	esp, 8
	ret	0
??$_Sort@PANHU?$less@X@std@@@std@@YAXPAN0HU?$less@X@0@@Z ENDP ; std::_Sort<double *,int,std::less<void> >
_TEXT	ENDS
; Function compile flags: /Ogtpy
;	COMDAT ??$_Unchecked@N$09@std@@YAPANV?$_Array_iterator@N$09@0@@Z
_TEXT	SEGMENT
__Iter$ = 8						; size = 4
??$_Unchecked@N$09@std@@YAPANV?$_Array_iterator@N$09@0@@Z PROC ; std::_Unchecked<double,10>, COMDAT
; File c:\program files (x86)\microsoft visual studio 14.0\vc\include\xutility
; Line 1902
	mov	eax, DWORD PTR __Iter$[esp-4]
; Line 1903
	ret	0
??$_Unchecked@N$09@std@@YAPANV?$_Array_iterator@N$09@0@@Z ENDP ; std::_Unchecked<double,10>
_TEXT	ENDS
; Function compile flags: /Ogtpy
;	COMDAT ??$duration_cast@V?$duration@_JU?$ratio@$00$0DLJKMKAA@@std@@@chrono@std@@_JU?$ratio@$00$0DOI@@3@@chrono@std@@YA?AV?$duration@_JU?$ratio@$00$0DLJKMKAA@@std@@@01@ABV?$duration@_JU?$ratio@$00$0DOI@@std@@@01@@Z
_TEXT	SEGMENT
___$ReturnUdt$ = 8					; size = 4
__Dur$ = 12						; size = 4
??$duration_cast@V?$duration@_JU?$ratio@$00$0DLJKMKAA@@std@@@chrono@std@@_JU?$ratio@$00$0DOI@@3@@chrono@std@@YA?AV?$duration@_JU?$ratio@$00$0DLJKMKAA@@std@@@01@ABV?$duration@_JU?$ratio@$00$0DOI@@std@@@01@@Z PROC ; std::chrono::duration_cast<std::chrono::duration<__int64,std::ratio<1,1000000000> >,__int64,std::ratio<1,1000> >, COMDAT
; File c:\program files (x86)\microsoft visual studio 14.0\vc\include\chrono
; Line 553
	mov	eax, DWORD PTR __Dur$[esp-4]
	push	0
	push	1000000					; 000f4240H
	push	DWORD PTR [eax+4]
	push	DWORD PTR [eax]
	call	__allmul
	mov	ecx, DWORD PTR ___$ReturnUdt$[esp-4]
	mov	DWORD PTR [ecx], eax
	mov	eax, ecx
	mov	DWORD PTR [ecx+4], edx
; Line 566
	ret	0
??$duration_cast@V?$duration@_JU?$ratio@$00$0DLJKMKAA@@std@@@chrono@std@@_JU?$ratio@$00$0DOI@@3@@chrono@std@@YA?AV?$duration@_JU?$ratio@$00$0DLJKMKAA@@std@@@01@ABV?$duration@_JU?$ratio@$00$0DOI@@std@@@01@@Z ENDP ; std::chrono::duration_cast<std::chrono::duration<__int64,std::ratio<1,1000000000> >,__int64,std::ratio<1,1000> >
_TEXT	ENDS
; Function compile flags: /Ogtpy
;	COMDAT ??$_Addressof@N@std@@YAPANAANU?$integral_constant@_N$0A@@0@@Z
_TEXT	SEGMENT
__Val$ = 8						; size = 4
___formal$ = 12						; size = 1
??$_Addressof@N@std@@YAPANAANU?$integral_constant@_N$0A@@0@@Z PROC ; std::_Addressof<double>, COMDAT
; File c:\program files (x86)\microsoft visual studio 14.0\vc\include\xstddef
; Line 692
	mov	eax, DWORD PTR __Val$[esp-4]
; Line 695
	ret	0
??$_Addressof@N@std@@YAPANAANU?$integral_constant@_N$0A@@0@@Z ENDP ; std::_Addressof<double>
_TEXT	ENDS
; Function compile flags: /Ogtpy
;	COMDAT ??$_Uninit_move@DDD@std@@YAPADPAD00AAU?$_Wrap_alloc@V?$allocator@D@std@@@0@0U_Scalar_ptr_iterator_tag@0@@Z
_TEXT	SEGMENT
__First$ = 8						; size = 4
__Last$ = 12						; size = 4
__Dest$ = 16						; size = 4
___formal$ = 20						; size = 4
___formal$ = 24						; size = 4
___formal$ = 28						; size = 1
??$_Uninit_move@DDD@std@@YAPADPAD00AAU?$_Wrap_alloc@V?$allocator@D@std@@@0@0U_Scalar_ptr_iterator_tag@0@@Z PROC ; std::_Uninit_move<char,char,char>, COMDAT
; File c:\program files (x86)\microsoft visual studio 14.0\vc\include\xmemory
; Line 470
	mov	eax, DWORD PTR __First$[esp-4]
	push	esi
	mov	esi, DWORD PTR __Last$[esp]
	sub	esi, eax
; Line 471
	push	esi
	push	eax
	push	DWORD PTR __Dest$[esp+8]
	call	DWORD PTR __imp__memmove
	add	esp, 12					; 0000000cH
	add	eax, esi
	pop	esi
; Line 473
	ret	0
??$_Uninit_move@DDD@std@@YAPADPAD00AAU?$_Wrap_alloc@V?$allocator@D@std@@@0@0U_Scalar_ptr_iterator_tag@0@@Z ENDP ; std::_Uninit_move<char,char,char>
_TEXT	ENDS
; Function compile flags: /Ogtpy
;	COMDAT ??$_Val_type@PAD@std@@YAPADPAD@Z
_TEXT	SEGMENT
___formal$ = 8						; size = 4
??$_Val_type@PAD@std@@YAPADPAD@Z PROC			; std::_Val_type<char *>, COMDAT
; File c:\program files (x86)\microsoft visual studio 14.0\vc\include\xutility
; Line 875
	xor	eax, eax
; Line 876
	ret	0
??$_Val_type@PAD@std@@YAPADPAD@Z ENDP			; std::_Val_type<char *>
_TEXT	ENDS
; Function compile flags: /Ogtpy
;	COMDAT ??$_Uninit_move@HHH@std@@YAPAHPAH00AAU?$_Wrap_alloc@V?$allocator@H@std@@@0@0U_Scalar_ptr_iterator_tag@0@@Z
_TEXT	SEGMENT
__First$ = 8						; size = 4
__Last$ = 12						; size = 4
__Dest$ = 16						; size = 4
___formal$ = 20						; size = 4
___formal$ = 24						; size = 4
___formal$ = 28						; size = 1
??$_Uninit_move@HHH@std@@YAPAHPAH00AAU?$_Wrap_alloc@V?$allocator@H@std@@@0@0U_Scalar_ptr_iterator_tag@0@@Z PROC ; std::_Uninit_move<int,int,int>, COMDAT
; File c:\program files (x86)\microsoft visual studio 14.0\vc\include\xmemory
; Line 470
	mov	ecx, DWORD PTR __First$[esp-4]
	mov	eax, DWORD PTR __Last$[esp-4]
	sub	eax, ecx
	sar	eax, 2
	push	esi
; Line 471
	lea	esi, DWORD PTR [eax*4]
	push	esi
	push	ecx
	push	DWORD PTR __Dest$[esp+8]
	call	DWORD PTR __imp__memmove
	add	esp, 12					; 0000000cH
	add	eax, esi
	pop	esi
; Line 473
	ret	0
??$_Uninit_move@HHH@std@@YAPAHPAH00AAU?$_Wrap_alloc@V?$allocator@H@std@@@0@0U_Scalar_ptr_iterator_tag@0@@Z ENDP ; std::_Uninit_move<int,int,int>
_TEXT	ENDS
; Function compile flags: /Ogtpy
;	COMDAT ??$_Val_type@PAH@std@@YAPAHPAH@Z
_TEXT	SEGMENT
___formal$ = 8						; size = 4
??$_Val_type@PAH@std@@YAPAHPAH@Z PROC			; std::_Val_type<int *>, COMDAT
; File c:\program files (x86)\microsoft visual studio 14.0\vc\include\xutility
; Line 875
	xor	eax, eax
; Line 876
	ret	0
??$_Val_type@PAH@std@@YAPAHPAH@Z ENDP			; std::_Val_type<int *>
_TEXT	ENDS
; Function compile flags: /Ogtpy
;	COMDAT ??$destroy@Vplain_particle@@@?$allocator_traits@V?$allocator@Vplain_particle@@@std@@@std@@SAXAAV?$allocator@Vplain_particle@@@1@PAVplain_particle@@@Z
_TEXT	SEGMENT
__Al$ = 8						; size = 4
__Ptr$ = 12						; size = 4
??$destroy@Vplain_particle@@@?$allocator_traits@V?$allocator@Vplain_particle@@@std@@@std@@SAXAAV?$allocator@Vplain_particle@@@1@PAVplain_particle@@@Z PROC ; std::allocator_traits<std::allocator<plain_particle> >::destroy<plain_particle>, COMDAT
; File c:\program files (x86)\microsoft visual studio 14.0\vc\include\xmemory0
; Line 783
	ret	0
??$destroy@Vplain_particle@@@?$allocator_traits@V?$allocator@Vplain_particle@@@std@@@std@@SAXAAV?$allocator@Vplain_particle@@@1@PAVplain_particle@@@Z ENDP ; std::allocator_traits<std::allocator<plain_particle> >::destroy<plain_particle>
_TEXT	ENDS
; Function compile flags: /Ogtpy
;	COMDAT ??$_Uninit_move@PAVplain_particle@@PAV1@V?$allocator@Vplain_particle@@@std@@V1@@std@@YAPAVplain_particle@@PAV1@00AAU?$_Wrap_alloc@V?$allocator@Vplain_particle@@@std@@@0@0U_Nonscalar_ptr_iterator_tag@0@@Z
_TEXT	SEGMENT
__First$ = 8						; size = 4
__Last$ = 12						; size = 4
__Dest$ = 16						; size = 4
__Al$ = 20						; size = 4
___formal$ = 24						; size = 4
___formal$ = 28						; size = 1
??$_Uninit_move@PAVplain_particle@@PAV1@V?$allocator@Vplain_particle@@@std@@V1@@std@@YAPAVplain_particle@@PAV1@00AAU?$_Wrap_alloc@V?$allocator@Vplain_particle@@@std@@@0@0U_Nonscalar_ptr_iterator_tag@0@@Z PROC ; std::_Uninit_move<plain_particle *,plain_particle *,std::allocator<plain_particle>,plain_particle>, COMDAT
; File c:\program files (x86)\microsoft visual studio 14.0\vc\include\xmemory
; Line 442
	mov	ecx, DWORD PTR __First$[esp-4]
	mov	eax, DWORD PTR __Dest$[esp-4]
	push	esi
	mov	esi, DWORD PTR __Last$[esp]
	cmp	ecx, esi
	je	SHORT $LN3@Uninit_mov
$LL4@Uninit_mov:
; Line 443
	test	eax, eax
	je	SHORT $LN2@Uninit_mov
	movups	xmm0, XMMWORD PTR [ecx]
	movups	XMMWORD PTR [eax], xmm0
	mov	edx, DWORD PTR [ecx+16]
	mov	DWORD PTR [eax+16], edx
$LN2@Uninit_mov:
; Line 442
	add	ecx, 20					; 00000014H
	add	eax, 20					; 00000014H
	cmp	ecx, esi
	jne	SHORT $LL4@Uninit_mov
$LN3@Uninit_mov:
	pop	esi
; Line 450
	ret	0
??$_Uninit_move@PAVplain_particle@@PAV1@V?$allocator@Vplain_particle@@@std@@V1@@std@@YAPAVplain_particle@@PAV1@00AAU?$_Wrap_alloc@V?$allocator@Vplain_particle@@@std@@@0@0U_Nonscalar_ptr_iterator_tag@0@@Z ENDP ; std::_Uninit_move<plain_particle *,plain_particle *,std::allocator<plain_particle>,plain_particle>
_TEXT	ENDS
; Function compile flags: /Ogtpy
;	COMDAT ??$_Val_type@PAVplain_particle@@@std@@YAPAVplain_particle@@PAV1@@Z
_TEXT	SEGMENT
___formal$ = 8						; size = 4
??$_Val_type@PAVplain_particle@@@std@@YAPAVplain_particle@@PAV1@@Z PROC ; std::_Val_type<plain_particle *>, COMDAT
; File c:\program files (x86)\microsoft visual studio 14.0\vc\include\xutility
; Line 875
	xor	eax, eax
; Line 876
	ret	0
??$_Val_type@PAVplain_particle@@@std@@YAPAVplain_particle@@PAV1@@Z ENDP ; std::_Val_type<plain_particle *>
_TEXT	ENDS
; Function compile flags: /Ogtpy
;	COMDAT ??$accumulate@V?$_Array_iterator@N$09@std@@NU?$plus@X@2@@std@@YANV?$_Array_iterator@N$09@0@0NU?$plus@X@0@@Z
_TEXT	SEGMENT
__Val$ = -8						; size = 8
__First$ = 8						; size = 4
__Last$ = 12						; size = 4
__Val$ = 16						; size = 8
__Func$ = 24						; size = 1
??$accumulate@V?$_Array_iterator@N$09@std@@NU?$plus@X@2@@std@@YANV?$_Array_iterator@N$09@0@0NU?$plus@X@0@@Z PROC ; std::accumulate<std::_Array_iterator<double,10>,double,std::plus<void> >, COMDAT
; File c:\program files (x86)\microsoft visual studio 14.0\vc\include\numeric
; Line 28
	push	ebp
	mov	ebp, esp
	and	esp, -8					; fffffff8H
	sub	esp, 8
; Line 30
	mov	ecx, DWORD PTR __First$[ebp]
	xor	edx, edx
	movsd	xmm1, QWORD PTR __Val$[ebp]
	push	esi
	mov	esi, DWORD PTR __Last$[ebp]
	sub	esi, ecx
	movsd	QWORD PTR __Val$[esp+12], xmm1
	add	esi, 7
	shr	esi, 3
	push	edi
	xor	edi, edi
	cmp	ecx, DWORD PTR __Last$[ebp]
	cmova	esi, edi
	test	esi, esi
	je	SHORT $LN28@accumulate
$LL24@accumulate:
	addsd	xmm1, QWORD PTR [ecx]
	inc	edx
	add	ecx, 8
	cmp	edx, esi
	jne	SHORT $LL24@accumulate
	movsd	QWORD PTR __Val$[esp+16], xmm1
$LN28@accumulate:
	fld	QWORD PTR __Val$[esp+16]
; Line 31
	pop	edi
	pop	esi
	mov	esp, ebp
	pop	ebp
	ret	0
??$accumulate@V?$_Array_iterator@N$09@std@@NU?$plus@X@2@@std@@YANV?$_Array_iterator@N$09@0@0NU?$plus@X@0@@Z ENDP ; std::accumulate<std::_Array_iterator<double,10>,double,std::plus<void> >
_TEXT	ENDS
; Function compile flags: /Ogtpy
;	COMDAT ??$sort@V?$_Array_iterator@N$09@std@@U?$less@X@2@@std@@YAXV?$_Array_iterator@N$09@0@0U?$less@X@0@@Z
_TEXT	SEGMENT
__First$ = 8						; size = 4
__Last$ = 12						; size = 4
__Pred$ = 16						; size = 1
??$sort@V?$_Array_iterator@N$09@std@@U?$less@X@2@@std@@YAXV?$_Array_iterator@N$09@0@0U?$less@X@0@@Z PROC ; std::sort<std::_Array_iterator<double,10>,std::less<void> >, COMDAT
; File c:\program files (x86)\microsoft visual studio 14.0\vc\include\algorithm
; Line 3204
	mov	ecx, DWORD PTR __Last$[esp-4]
	mov	edx, ecx
	mov	eax, DWORD PTR __First$[esp-4]
	sub	edx, eax
	push	DWORD PTR __Pred$[esp-4]
	sar	edx, 3
	push	edx
	push	ecx
	push	eax
	call	??$_Sort@PANHU?$less@X@std@@@std@@YAXPAN0HU?$less@X@0@@Z ; std::_Sort<double *,int,std::less<void> >
	add	esp, 16					; 00000010H
; Line 3205
	ret	0
??$sort@V?$_Array_iterator@N$09@std@@U?$less@X@2@@std@@YAXV?$_Array_iterator@N$09@0@0U?$less@X@0@@Z ENDP ; std::sort<std::_Array_iterator<double,10>,std::less<void> >
_TEXT	ENDS
; Function compile flags: /Ogtpy
;	COMDAT ??$?0NX@?$duration@NU?$ratio@$00$00@std@@@chrono@std@@QAE@ABN@Z
_TEXT	SEGMENT
__Val$ = 8						; size = 4
??$?0NX@?$duration@NU?$ratio@$00$00@std@@@chrono@std@@QAE@ABN@Z PROC ; std::chrono::duration<double,std::ratio<1,1> >::duration<double,std::ratio<1,1> ><double,void>, COMDAT
; _this$ = ecx
; File c:\program files (x86)\microsoft visual studio 14.0\vc\include\chrono
; Line 112
	mov	eax, DWORD PTR __Val$[esp-4]
	movsd	xmm0, QWORD PTR [eax]
; Line 114
	mov	eax, ecx
	movsd	QWORD PTR [ecx], xmm0
	ret	4
??$?0NX@?$duration@NU?$ratio@$00$00@std@@@chrono@std@@QAE@ABN@Z ENDP ; std::chrono::duration<double,std::ratio<1,1> >::duration<double,std::ratio<1,1> ><double,void>
_TEXT	ENDS
; Function compile flags: /Ogtpy
;	COMDAT ??$?0_JU?$ratio@$00$0DOI@@std@@X@?$duration@_JU?$ratio@$00$0DLJKMKAA@@std@@@chrono@std@@QAE@ABV?$duration@_JU?$ratio@$00$0DOI@@std@@@12@@Z
_TEXT	SEGMENT
__Dur$ = 8						; size = 4
??$?0_JU?$ratio@$00$0DOI@@std@@X@?$duration@_JU?$ratio@$00$0DLJKMKAA@@std@@@chrono@std@@QAE@ABV?$duration@_JU?$ratio@$00$0DOI@@std@@@12@@Z PROC ; std::chrono::duration<__int64,std::ratio<1,1000000000> >::duration<__int64,std::ratio<1,1000000000> ><__int64,std::ratio<1,1000>,void>, COMDAT
; _this$ = ecx
; File c:\program files (x86)\microsoft visual studio 14.0\vc\include\chrono
; Line 125
	mov	eax, DWORD PTR __Dur$[esp-4]
	push	esi
	push	0
	push	1000000					; 000f4240H
	push	DWORD PTR [eax+4]
; Line 126
	mov	esi, ecx
	push	DWORD PTR [eax]
	call	__allmul
	mov	DWORD PTR [esi], eax
; Line 127
	mov	eax, esi
	mov	DWORD PTR [esi+4], edx
	pop	esi
	ret	4
??$?0_JU?$ratio@$00$0DOI@@std@@X@?$duration@_JU?$ratio@$00$0DLJKMKAA@@std@@@chrono@std@@QAE@ABV?$duration@_JU?$ratio@$00$0DOI@@std@@@12@@Z ENDP ; std::chrono::duration<__int64,std::ratio<1,1000000000> >::duration<__int64,std::ratio<1,1000000000> ><__int64,std::ratio<1,1000>,void>
_TEXT	ENDS
; Function compile flags: /Ogtpy
;	COMDAT ??$?0PAHPAH@?$access@U?$member@H$01@dod@@U?$member@H$02@2@@dod@@QAE@$$QAPAH0@Z
_TEXT	SEGMENT
_arg0$ = 8						; size = 4
_<args_0>$ = 12						; size = 4
??$?0PAHPAH@?$access@U?$member@H$01@dod@@U?$member@H$02@2@@dod@@QAE@$$QAPAH0@Z PROC ; dod::access<dod::member<int,2>,dod::member<int,3> >::access<dod::member<int,2>,dod::member<int,3> ><int *,int *>, COMDAT
; _this$ = ecx
; File c:\users\manu343726\documents\joaquin-dod\dod_perf.cpp
; Line 99
	mov	eax, DWORD PTR _arg0$[esp-4]
	mov	eax, DWORD PTR [eax]
	mov	DWORD PTR [ecx], eax
; Line 100
	mov	eax, DWORD PTR _<args_0>$[esp-4]
	mov	eax, DWORD PTR [eax]
	mov	DWORD PTR [ecx+4], eax
; Line 101
	mov	eax, ecx
	ret	8
??$?0PAHPAH@?$access@U?$member@H$01@dod@@U?$member@H$02@2@@dod@@QAE@$$QAPAH0@Z ENDP ; dod::access<dod::member<int,2>,dod::member<int,3> >::access<dod::member<int,2>,dod::member<int,3> ><int *,int *>
_TEXT	ENDS
; Function compile flags: /Ogtpy
;	COMDAT ??$increment@V?$pointer@V?$particle@V?$access@U?$member@D$0A@@dod@@U?$member@H$0A@@2@U?$member@H$00@2@U?$member@H$01@2@U?$member@H$02@2@@dod@@@@@dod@@@iterator_core_access@iterators@boost@@CAXAAV?$pointer@V?$particle@V?$access@U?$member@D$0A@@dod@@U?$member@H$0A@@2@U?$member@H$00@2@U?$member@H$01@2@U?$member@H$02@2@@dod@@@@@dod@@@Z
_TEXT	SEGMENT
_f$ = 8							; size = 4
??$increment@V?$pointer@V?$particle@V?$access@U?$member@D$0A@@dod@@U?$member@H$0A@@2@U?$member@H$00@2@U?$member@H$01@2@U?$member@H$02@2@@dod@@@@@dod@@@iterator_core_access@iterators@boost@@CAXAAV?$pointer@V?$particle@V?$access@U?$member@D$0A@@dod@@U?$member@H$0A@@2@U?$member@H$00@2@U?$member@H$01@2@U?$member@H$02@2@@dod@@@@@dod@@@Z PROC ; boost::iterators::iterator_core_access::increment<dod::pointer<particle<dod::access<dod::member<char,0>,dod::member<int,0>,dod::member<int,1>,dod::member<int,2>,dod::member<int,3> > > > >, COMDAT
; File c:\mingw\include\boost\iterator\iterator_facade.hpp
; Line 546
	mov	eax, DWORD PTR _f$[esp-4]
	inc	DWORD PTR [eax]
	add	DWORD PTR [eax+4], 4
	add	DWORD PTR [eax+8], 4
	add	DWORD PTR [eax+12], 4
	add	DWORD PTR [eax+16], 4
; Line 547
	ret	0
??$increment@V?$pointer@V?$particle@V?$access@U?$member@D$0A@@dod@@U?$member@H$0A@@2@U?$member@H$00@2@U?$member@H$01@2@U?$member@H$02@2@@dod@@@@@dod@@@iterator_core_access@iterators@boost@@CAXAAV?$pointer@V?$particle@V?$access@U?$member@D$0A@@dod@@U?$member@H$0A@@2@U?$member@H$00@2@U?$member@H$01@2@U?$member@H$02@2@@dod@@@@@dod@@@Z ENDP ; boost::iterators::iterator_core_access::increment<dod::pointer<particle<dod::access<dod::member<char,0>,dod::member<int,0>,dod::member<int,1>,dod::member<int,2>,dod::member<int,3> > > > >
_TEXT	ENDS
; Function compile flags: /Ogtpy
;	COMDAT ??$increment@V?$pointer@V?$particle@V?$access@U?$member@D$0A@@dod@@U?$member@H$0A@@2@U?$member@H$00@2@@dod@@@@@dod@@@iterator_core_access@iterators@boost@@CAXAAV?$pointer@V?$particle@V?$access@U?$member@D$0A@@dod@@U?$member@H$0A@@2@U?$member@H$00@2@@dod@@@@@dod@@@Z
_TEXT	SEGMENT
_f$ = 8							; size = 4
??$increment@V?$pointer@V?$particle@V?$access@U?$member@D$0A@@dod@@U?$member@H$0A@@2@U?$member@H$00@2@@dod@@@@@dod@@@iterator_core_access@iterators@boost@@CAXAAV?$pointer@V?$particle@V?$access@U?$member@D$0A@@dod@@U?$member@H$0A@@2@U?$member@H$00@2@@dod@@@@@dod@@@Z PROC ; boost::iterators::iterator_core_access::increment<dod::pointer<particle<dod::access<dod::member<char,0>,dod::member<int,0>,dod::member<int,1> > > > >, COMDAT
; File c:\mingw\include\boost\iterator\iterator_facade.hpp
; Line 546
	mov	eax, DWORD PTR _f$[esp-4]
	inc	DWORD PTR [eax]
	add	DWORD PTR [eax+4], 4
	add	DWORD PTR [eax+8], 4
; Line 547
	ret	0
??$increment@V?$pointer@V?$particle@V?$access@U?$member@D$0A@@dod@@U?$member@H$0A@@2@U?$member@H$00@2@@dod@@@@@dod@@@iterator_core_access@iterators@boost@@CAXAAV?$pointer@V?$particle@V?$access@U?$member@D$0A@@dod@@U?$member@H$0A@@2@U?$member@H$00@2@@dod@@@@@dod@@@Z ENDP ; boost::iterators::iterator_core_access::increment<dod::pointer<particle<dod::access<dod::member<char,0>,dod::member<int,0>,dod::member<int,1> > > > >
_TEXT	ENDS
; Function compile flags: /Ogtpy
;	COMDAT ??$addressof@N@std@@YAPANAAN@Z
_TEXT	SEGMENT
__Val$ = 8						; size = 4
??$addressof@N@std@@YAPANAAN@Z PROC			; std::addressof<double>, COMDAT
; File c:\program files (x86)\microsoft visual studio 14.0\vc\include\xstddef
; Line 700
	mov	eax, DWORD PTR __Val$[esp-4]
; Line 701
	ret	0
??$addressof@N@std@@YAPANAAN@Z ENDP			; std::addressof<double>
_TEXT	ENDS
; Function compile flags: /Ogtpy
;	COMDAT ??B?$addr_impl_ref@V?$particle@V?$access@U?$member@D$0A@@dod@@U?$member@H$0A@@2@U?$member@H$00@2@U?$member@H$01@2@U?$member@H$02@2@@dod@@@@@detail@boost@@QBEAAV?$particle@V?$access@U?$member@D$0A@@dod@@U?$member@H$0A@@2@U?$member@H$00@2@U?$member@H$01@2@U?$member@H$02@2@@dod@@@@XZ
_TEXT	SEGMENT
??B?$addr_impl_ref@V?$particle@V?$access@U?$member@D$0A@@dod@@U?$member@H$0A@@2@U?$member@H$00@2@U?$member@H$01@2@U?$member@H$02@2@@dod@@@@@detail@boost@@QBEAAV?$particle@V?$access@U?$member@D$0A@@dod@@U?$member@H$0A@@2@U?$member@H$00@2@U?$member@H$01@2@U?$member@H$02@2@@dod@@@@XZ PROC ; boost::detail::addr_impl_ref<particle<dod::access<dod::member<char,0>,dod::member<int,0>,dod::member<int,1>,dod::member<int,2>,dod::member<int,3> > > >::operator particle<dod::access<dod::member<char,0>,dod::member<int,0>,dod::member<int,1>,dod::member<int,2>,dod::member<int,3> > > &, COMDAT
; _this$ = ecx
; File c:\mingw\include\boost\core\addressof.hpp
; Line 30
	mov	eax, DWORD PTR [ecx]
	ret	0
??B?$addr_impl_ref@V?$particle@V?$access@U?$member@D$0A@@dod@@U?$member@H$0A@@2@U?$member@H$00@2@U?$member@H$01@2@U?$member@H$02@2@@dod@@@@@detail@boost@@QBEAAV?$particle@V?$access@U?$member@D$0A@@dod@@U?$member@H$0A@@2@U?$member@H$00@2@U?$member@H$01@2@U?$member@H$02@2@@dod@@@@XZ ENDP ; boost::detail::addr_impl_ref<particle<dod::access<dod::member<char,0>,dod::member<int,0>,dod::member<int,1>,dod::member<int,2>,dod::member<int,3> > > >::operator particle<dod::access<dod::member<char,0>,dod::member<int,0>,dod::member<int,1>,dod::member<int,2>,dod::member<int,3> > > &
_TEXT	ENDS
; Function compile flags: /Ogtpy
;	COMDAT ??0?$addr_impl_ref@V?$particle@V?$access@U?$member@D$0A@@dod@@U?$member@H$0A@@2@U?$member@H$00@2@U?$member@H$01@2@U?$member@H$02@2@@dod@@@@@detail@boost@@QAE@AAV?$particle@V?$access@U?$member@D$0A@@dod@@U?$member@H$0A@@2@U?$member@H$00@2@U?$member@H$01@2@U?$member@H$02@2@@dod@@@@@Z
_TEXT	SEGMENT
_v$ = 8							; size = 4
??0?$addr_impl_ref@V?$particle@V?$access@U?$member@D$0A@@dod@@U?$member@H$0A@@2@U?$member@H$00@2@U?$member@H$01@2@U?$member@H$02@2@@dod@@@@@detail@boost@@QAE@AAV?$particle@V?$access@U?$member@D$0A@@dod@@U?$member@H$0A@@2@U?$member@H$00@2@U?$member@H$01@2@U?$member@H$02@2@@dod@@@@@Z PROC ; boost::detail::addr_impl_ref<particle<dod::access<dod::member<char,0>,dod::member<int,0>,dod::member<int,1>,dod::member<int,2>,dod::member<int,3> > > >::addr_impl_ref<particle<dod::access<dod::member<char,0>,dod::member<int,0>,dod::member<int,1>,dod::member<int,2>,dod::member<int,3> > > >, COMDAT
; _this$ = ecx
; File c:\mingw\include\boost\core\addressof.hpp
; Line 29
	mov	eax, DWORD PTR _v$[esp-4]
	mov	DWORD PTR [ecx], eax
	mov	eax, ecx
	ret	4
??0?$addr_impl_ref@V?$particle@V?$access@U?$member@D$0A@@dod@@U?$member@H$0A@@2@U?$member@H$00@2@U?$member@H$01@2@U?$member@H$02@2@@dod@@@@@detail@boost@@QAE@AAV?$particle@V?$access@U?$member@D$0A@@dod@@U?$member@H$0A@@2@U?$member@H$00@2@U?$member@H$01@2@U?$member@H$02@2@@dod@@@@@Z ENDP ; boost::detail::addr_impl_ref<particle<dod::access<dod::member<char,0>,dod::member<int,0>,dod::member<int,1>,dod::member<int,2>,dod::member<int,3> > > >::addr_impl_ref<particle<dod::access<dod::member<char,0>,dod::member<int,0>,dod::member<int,1>,dod::member<int,2>,dod::member<int,3> > > >
_TEXT	ENDS
; Function compile flags: /Ogtpy
;	COMDAT ?f@?$addressof_impl@V?$particle@V?$access@U?$member@D$0A@@dod@@U?$member@H$0A@@2@U?$member@H$00@2@U?$member@H$01@2@U?$member@H$02@2@@dod@@@@@detail@boost@@SAPAV?$particle@V?$access@U?$member@D$0A@@dod@@U?$member@H$0A@@2@U?$member@H$00@2@U?$member@H$01@2@U?$member@H$02@2@@dod@@@@AAV4@J@Z
_TEXT	SEGMENT
_v$ = 8							; size = 4
___formal$ = 12						; size = 4
?f@?$addressof_impl@V?$particle@V?$access@U?$member@D$0A@@dod@@U?$member@H$0A@@2@U?$member@H$00@2@U?$member@H$01@2@U?$member@H$02@2@@dod@@@@@detail@boost@@SAPAV?$particle@V?$access@U?$member@D$0A@@dod@@U?$member@H$0A@@2@U?$member@H$00@2@U?$member@H$01@2@U?$member@H$02@2@@dod@@@@AAV4@J@Z PROC ; boost::detail::addressof_impl<particle<dod::access<dod::member<char,0>,dod::member<int,0>,dod::member<int,1>,dod::member<int,2>,dod::member<int,3> > > >::f, COMDAT
; File c:\mingw\include\boost\core\addressof.hpp
; Line 40
	mov	eax, DWORD PTR _v$[esp-4]
; Line 42
	ret	0
?f@?$addressof_impl@V?$particle@V?$access@U?$member@D$0A@@dod@@U?$member@H$0A@@2@U?$member@H$00@2@U?$member@H$01@2@U?$member@H$02@2@@dod@@@@@detail@boost@@SAPAV?$particle@V?$access@U?$member@D$0A@@dod@@U?$member@H$0A@@2@U?$member@H$00@2@U?$member@H$01@2@U?$member@H$02@2@@dod@@@@AAV4@J@Z ENDP ; boost::detail::addressof_impl<particle<dod::access<dod::member<char,0>,dod::member<int,0>,dod::member<int,1>,dod::member<int,2>,dod::member<int,3> > > >::f
_TEXT	ENDS
; Function compile flags: /Ogtpy
;	COMDAT ??B?$addr_impl_ref@V?$particle@V?$access@U?$member@D$0A@@dod@@U?$member@H$0A@@2@U?$member@H$00@2@@dod@@@@@detail@boost@@QBEAAV?$particle@V?$access@U?$member@D$0A@@dod@@U?$member@H$0A@@2@U?$member@H$00@2@@dod@@@@XZ
_TEXT	SEGMENT
??B?$addr_impl_ref@V?$particle@V?$access@U?$member@D$0A@@dod@@U?$member@H$0A@@2@U?$member@H$00@2@@dod@@@@@detail@boost@@QBEAAV?$particle@V?$access@U?$member@D$0A@@dod@@U?$member@H$0A@@2@U?$member@H$00@2@@dod@@@@XZ PROC ; boost::detail::addr_impl_ref<particle<dod::access<dod::member<char,0>,dod::member<int,0>,dod::member<int,1> > > >::operator particle<dod::access<dod::member<char,0>,dod::member<int,0>,dod::member<int,1> > > &, COMDAT
; _this$ = ecx
; File c:\mingw\include\boost\core\addressof.hpp
; Line 30
	mov	eax, DWORD PTR [ecx]
	ret	0
??B?$addr_impl_ref@V?$particle@V?$access@U?$member@D$0A@@dod@@U?$member@H$0A@@2@U?$member@H$00@2@@dod@@@@@detail@boost@@QBEAAV?$particle@V?$access@U?$member@D$0A@@dod@@U?$member@H$0A@@2@U?$member@H$00@2@@dod@@@@XZ ENDP ; boost::detail::addr_impl_ref<particle<dod::access<dod::member<char,0>,dod::member<int,0>,dod::member<int,1> > > >::operator particle<dod::access<dod::member<char,0>,dod::member<int,0>,dod::member<int,1> > > &
_TEXT	ENDS
; Function compile flags: /Ogtpy
;	COMDAT ??0?$addr_impl_ref@V?$particle@V?$access@U?$member@D$0A@@dod@@U?$member@H$0A@@2@U?$member@H$00@2@@dod@@@@@detail@boost@@QAE@AAV?$particle@V?$access@U?$member@D$0A@@dod@@U?$member@H$0A@@2@U?$member@H$00@2@@dod@@@@@Z
_TEXT	SEGMENT
_v$ = 8							; size = 4
??0?$addr_impl_ref@V?$particle@V?$access@U?$member@D$0A@@dod@@U?$member@H$0A@@2@U?$member@H$00@2@@dod@@@@@detail@boost@@QAE@AAV?$particle@V?$access@U?$member@D$0A@@dod@@U?$member@H$0A@@2@U?$member@H$00@2@@dod@@@@@Z PROC ; boost::detail::addr_impl_ref<particle<dod::access<dod::member<char,0>,dod::member<int,0>,dod::member<int,1> > > >::addr_impl_ref<particle<dod::access<dod::member<char,0>,dod::member<int,0>,dod::member<int,1> > > >, COMDAT
; _this$ = ecx
; File c:\mingw\include\boost\core\addressof.hpp
; Line 29
	mov	eax, DWORD PTR _v$[esp-4]
	mov	DWORD PTR [ecx], eax
	mov	eax, ecx
	ret	4
??0?$addr_impl_ref@V?$particle@V?$access@U?$member@D$0A@@dod@@U?$member@H$0A@@2@U?$member@H$00@2@@dod@@@@@detail@boost@@QAE@AAV?$particle@V?$access@U?$member@D$0A@@dod@@U?$member@H$0A@@2@U?$member@H$00@2@@dod@@@@@Z ENDP ; boost::detail::addr_impl_ref<particle<dod::access<dod::member<char,0>,dod::member<int,0>,dod::member<int,1> > > >::addr_impl_ref<particle<dod::access<dod::member<char,0>,dod::member<int,0>,dod::member<int,1> > > >
_TEXT	ENDS
; Function compile flags: /Ogtpy
;	COMDAT ?f@?$addressof_impl@V?$particle@V?$access@U?$member@D$0A@@dod@@U?$member@H$0A@@2@U?$member@H$00@2@@dod@@@@@detail@boost@@SAPAV?$particle@V?$access@U?$member@D$0A@@dod@@U?$member@H$0A@@2@U?$member@H$00@2@@dod@@@@AAV4@J@Z
_TEXT	SEGMENT
_v$ = 8							; size = 4
___formal$ = 12						; size = 4
?f@?$addressof_impl@V?$particle@V?$access@U?$member@D$0A@@dod@@U?$member@H$0A@@2@U?$member@H$00@2@@dod@@@@@detail@boost@@SAPAV?$particle@V?$access@U?$member@D$0A@@dod@@U?$member@H$0A@@2@U?$member@H$00@2@@dod@@@@AAV4@J@Z PROC ; boost::detail::addressof_impl<particle<dod::access<dod::member<char,0>,dod::member<int,0>,dod::member<int,1> > > >::f, COMDAT
; File c:\mingw\include\boost\core\addressof.hpp
; Line 40
	mov	eax, DWORD PTR _v$[esp-4]
; Line 42
	ret	0
?f@?$addressof_impl@V?$particle@V?$access@U?$member@D$0A@@dod@@U?$member@H$0A@@2@U?$member@H$00@2@@dod@@@@@detail@boost@@SAPAV?$particle@V?$access@U?$member@D$0A@@dod@@U?$member@H$0A@@2@U?$member@H$00@2@@dod@@@@AAV4@J@Z ENDP ; boost::detail::addressof_impl<particle<dod::access<dod::member<char,0>,dod::member<int,0>,dod::member<int,1> > > >::f
_TEXT	ENDS
; Function compile flags: /Ogtpy
;	COMDAT ??$_Rechecked@PADPAD@std@@YAAAPADAAPADPAD@Z
_TEXT	SEGMENT
__Dest$ = 8						; size = 4
__Src$ = 12						; size = 4
??$_Rechecked@PADPAD@std@@YAAAPADAAPADPAD@Z PROC	; std::_Rechecked<char *,char *>, COMDAT
; File c:\program files (x86)\microsoft visual studio 14.0\vc\include\xutility
; Line 447
	mov	eax, DWORD PTR __Dest$[esp-4]
	mov	ecx, DWORD PTR __Src$[esp-4]
	mov	DWORD PTR [eax], ecx
; Line 449
	ret	0
??$_Rechecked@PADPAD@std@@YAAAPADAAPADPAD@Z ENDP	; std::_Rechecked<char *,char *>
_TEXT	ENDS
; Function compile flags: /Ogtpy
;	COMDAT ??$_Uninit_move@PADPADU?$_Wrap_alloc@V?$allocator@D@std@@@std@@@std@@YAPADPAD00AAU?$_Wrap_alloc@V?$allocator@D@std@@@0@@Z
_TEXT	SEGMENT
__First$ = 8						; size = 4
__Last$ = 12						; size = 4
__Dest$ = 16						; size = 4
__Al$ = 20						; size = 4
??$_Uninit_move@PADPADU?$_Wrap_alloc@V?$allocator@D@std@@@std@@@std@@YAPADPAD00AAU?$_Wrap_alloc@V?$allocator@D@std@@@0@@Z PROC ; std::_Uninit_move<char *,char *,std::_Wrap_alloc<std::allocator<char> > >, COMDAT
; File c:\program files (x86)\microsoft visual studio 14.0\vc\include\xmemory
; Line 481
	mov	eax, DWORD PTR __First$[esp-4]
	push	esi
	mov	esi, DWORD PTR __Last$[esp]
	sub	esi, eax
	push	esi
	push	eax
	push	DWORD PTR __Dest$[esp+8]
	call	DWORD PTR __imp__memmove
	add	esp, 12					; 0000000cH
	add	eax, esi
	pop	esi
; Line 483
	ret	0
??$_Uninit_move@PADPADU?$_Wrap_alloc@V?$allocator@D@std@@@std@@@std@@YAPADPAD00AAU?$_Wrap_alloc@V?$allocator@D@std@@@0@@Z ENDP ; std::_Uninit_move<char *,char *,std::_Wrap_alloc<std::allocator<char> > >
_TEXT	ENDS
; Function compile flags: /Ogtpy
;	COMDAT ??$_Unchecked@PAD@std@@YAPADPAD@Z
_TEXT	SEGMENT
__Src$ = 8						; size = 4
??$_Unchecked@PAD@std@@YAPADPAD@Z PROC			; std::_Unchecked<char *>, COMDAT
; File c:\program files (x86)\microsoft visual studio 14.0\vc\include\xutility
; Line 439
	mov	eax, DWORD PTR __Src$[esp-4]
; Line 440
	ret	0
??$_Unchecked@PAD@std@@YAPADPAD@Z ENDP			; std::_Unchecked<char *>
_TEXT	ENDS
; Function compile flags: /Ogtpy
;	COMDAT ??$_Rechecked@PAHPAH@std@@YAAAPAHAAPAHPAH@Z
_TEXT	SEGMENT
__Dest$ = 8						; size = 4
__Src$ = 12						; size = 4
??$_Rechecked@PAHPAH@std@@YAAAPAHAAPAHPAH@Z PROC	; std::_Rechecked<int *,int *>, COMDAT
; File c:\program files (x86)\microsoft visual studio 14.0\vc\include\xutility
; Line 447
	mov	eax, DWORD PTR __Dest$[esp-4]
	mov	ecx, DWORD PTR __Src$[esp-4]
	mov	DWORD PTR [eax], ecx
; Line 449
	ret	0
??$_Rechecked@PAHPAH@std@@YAAAPAHAAPAHPAH@Z ENDP	; std::_Rechecked<int *,int *>
_TEXT	ENDS
; Function compile flags: /Ogtpy
;	COMDAT ??$_Uninit_move@PAHPAHU?$_Wrap_alloc@V?$allocator@H@std@@@std@@@std@@YAPAHPAH00AAU?$_Wrap_alloc@V?$allocator@H@std@@@0@@Z
_TEXT	SEGMENT
__First$ = 8						; size = 4
__Last$ = 12						; size = 4
__Dest$ = 16						; size = 4
__Al$ = 20						; size = 4
??$_Uninit_move@PAHPAHU?$_Wrap_alloc@V?$allocator@H@std@@@std@@@std@@YAPAHPAH00AAU?$_Wrap_alloc@V?$allocator@H@std@@@0@@Z PROC ; std::_Uninit_move<int *,int *,std::_Wrap_alloc<std::allocator<int> > >, COMDAT
; File c:\program files (x86)\microsoft visual studio 14.0\vc\include\xmemory
; Line 481
	mov	ecx, DWORD PTR __First$[esp-4]
	mov	eax, DWORD PTR __Last$[esp-4]
	sub	eax, ecx
	sar	eax, 2
	push	esi
	lea	esi, DWORD PTR [eax*4]
	push	esi
	push	ecx
	push	DWORD PTR __Dest$[esp+8]
	call	DWORD PTR __imp__memmove
	add	esp, 12					; 0000000cH
	add	eax, esi
	pop	esi
; Line 483
	ret	0
??$_Uninit_move@PAHPAHU?$_Wrap_alloc@V?$allocator@H@std@@@std@@@std@@YAPAHPAH00AAU?$_Wrap_alloc@V?$allocator@H@std@@@0@@Z ENDP ; std::_Uninit_move<int *,int *,std::_Wrap_alloc<std::allocator<int> > >
_TEXT	ENDS
; Function compile flags: /Ogtpy
;	COMDAT ??$_Unchecked@PAH@std@@YAPAHPAH@Z
_TEXT	SEGMENT
__Src$ = 8						; size = 4
??$_Unchecked@PAH@std@@YAPAHPAH@Z PROC			; std::_Unchecked<int *>, COMDAT
; File c:\program files (x86)\microsoft visual studio 14.0\vc\include\xutility
; Line 439
	mov	eax, DWORD PTR __Src$[esp-4]
; Line 440
	ret	0
??$_Unchecked@PAH@std@@YAPAHPAH@Z ENDP			; std::_Unchecked<int *>
_TEXT	ENDS
; Function compile flags: /Ogtpy
;	COMDAT ??$destroy@Vplain_particle@@@?$_Wrap_alloc@V?$allocator@Vplain_particle@@@std@@@std@@QAEXPAVplain_particle@@@Z
_TEXT	SEGMENT
__Ptr$ = 8						; size = 4
??$destroy@Vplain_particle@@@?$_Wrap_alloc@V?$allocator@Vplain_particle@@@std@@@std@@QAEXPAVplain_particle@@@Z PROC ; std::_Wrap_alloc<std::allocator<plain_particle> >::destroy<plain_particle>, COMDAT
; _this$ = ecx
; File c:\program files (x86)\microsoft visual studio 14.0\vc\include\xmemory0
; Line 928
	ret	4
??$destroy@Vplain_particle@@@?$_Wrap_alloc@V?$allocator@Vplain_particle@@@std@@@std@@QAEXPAVplain_particle@@@Z ENDP ; std::_Wrap_alloc<std::allocator<plain_particle> >::destroy<plain_particle>
_TEXT	ENDS
; Function compile flags: /Ogtpy
;	COMDAT ??$_Rechecked@PAVplain_particle@@PAV1@@std@@YAAAPAVplain_particle@@AAPAV1@PAV1@@Z
_TEXT	SEGMENT
__Dest$ = 8						; size = 4
__Src$ = 12						; size = 4
??$_Rechecked@PAVplain_particle@@PAV1@@std@@YAAAPAVplain_particle@@AAPAV1@PAV1@@Z PROC ; std::_Rechecked<plain_particle *,plain_particle *>, COMDAT
; File c:\program files (x86)\microsoft visual studio 14.0\vc\include\xutility
; Line 447
	mov	eax, DWORD PTR __Dest$[esp-4]
	mov	ecx, DWORD PTR __Src$[esp-4]
	mov	DWORD PTR [eax], ecx
; Line 449
	ret	0
??$_Rechecked@PAVplain_particle@@PAV1@@std@@YAAAPAVplain_particle@@AAPAV1@PAV1@@Z ENDP ; std::_Rechecked<plain_particle *,plain_particle *>
_TEXT	ENDS
; Function compile flags: /Ogtpy
;	COMDAT ??$_Uninit_move@PAVplain_particle@@PAV1@U?$_Wrap_alloc@V?$allocator@Vplain_particle@@@std@@@std@@@std@@YAPAVplain_particle@@PAV1@00AAU?$_Wrap_alloc@V?$allocator@Vplain_particle@@@std@@@0@@Z
_TEXT	SEGMENT
__Cat$1 = -4						; size = 1
__First$ = 8						; size = 4
__Last$ = 12						; size = 4
__Dest$ = 16						; size = 4
__Al$ = 20						; size = 4
??$_Uninit_move@PAVplain_particle@@PAV1@U?$_Wrap_alloc@V?$allocator@Vplain_particle@@@std@@@std@@@std@@YAPAVplain_particle@@PAV1@00AAU?$_Wrap_alloc@V?$allocator@Vplain_particle@@@std@@@0@@Z PROC ; std::_Uninit_move<plain_particle *,plain_particle *,std::_Wrap_alloc<std::allocator<plain_particle> > >, COMDAT
; File c:\program files (x86)\microsoft visual studio 14.0\vc\include\xmemory
; Line 480
	push	ecx
; Line 481
	push	DWORD PTR __Cat$1[esp+4]
	push	0
	push	DWORD PTR __Al$[esp+8]
	push	DWORD PTR __Dest$[esp+12]
	push	DWORD PTR __Last$[esp+16]
	push	DWORD PTR __First$[esp+20]
	call	??$_Uninit_move@PAVplain_particle@@PAV1@V?$allocator@Vplain_particle@@@std@@V1@@std@@YAPAVplain_particle@@PAV1@00AAU?$_Wrap_alloc@V?$allocator@Vplain_particle@@@std@@@0@0U_Nonscalar_ptr_iterator_tag@0@@Z ; std::_Uninit_move<plain_particle *,plain_particle *,std::allocator<plain_particle>,plain_particle>
; Line 483
	add	esp, 28					; 0000001cH
	ret	0
??$_Uninit_move@PAVplain_particle@@PAV1@U?$_Wrap_alloc@V?$allocator@Vplain_particle@@@std@@@std@@@std@@YAPAVplain_particle@@PAV1@00AAU?$_Wrap_alloc@V?$allocator@Vplain_particle@@@std@@@0@@Z ENDP ; std::_Uninit_move<plain_particle *,plain_particle *,std::_Wrap_alloc<std::allocator<plain_particle> > >
_TEXT	ENDS
; Function compile flags: /Ogtpy
;	COMDAT ??$_Unchecked@PAVplain_particle@@@std@@YAPAVplain_particle@@PAV1@@Z
_TEXT	SEGMENT
__Src$ = 8						; size = 4
??$_Unchecked@PAVplain_particle@@@std@@YAPAVplain_particle@@PAV1@@Z PROC ; std::_Unchecked<plain_particle *>, COMDAT
; File c:\program files (x86)\microsoft visual studio 14.0\vc\include\xutility
; Line 439
	mov	eax, DWORD PTR __Src$[esp-4]
; Line 440
	ret	0
??$_Unchecked@PAVplain_particle@@@std@@YAPAVplain_particle@@PAV1@@Z ENDP ; std::_Unchecked<plain_particle *>
_TEXT	ENDS
; Function compile flags: /Ogtpy
;	COMDAT ??$construct@DABD@?$allocator@D@std@@QAEXPADABD@Z
_TEXT	SEGMENT
__Ptr$ = 8						; size = 4
_<_Args_0>$ = 12					; size = 4
??$construct@DABD@?$allocator@D@std@@QAEXPADABD@Z PROC	; std::allocator<char>::construct<char,char const &>, COMDAT
; _this$ = ecx
; File c:\program files (x86)\microsoft visual studio 14.0\vc\include\xmemory0
; Line 657
	mov	ecx, DWORD PTR __Ptr$[esp-4]
	test	ecx, ecx
	je	SHORT $LN3@construct
	mov	eax, DWORD PTR _<_Args_0>$[esp-4]
	mov	al, BYTE PTR [eax]
	mov	BYTE PTR [ecx], al
$LN3@construct:
; Line 658
	ret	8
??$construct@DABD@?$allocator@D@std@@QAEXPADABD@Z ENDP	; std::allocator<char>::construct<char,char const &>
_TEXT	ENDS
; Function compile flags: /Ogtpy
;	COMDAT ??$construct@DAAD@?$allocator@D@std@@QAEXPADAAD@Z
_TEXT	SEGMENT
__Ptr$ = 8						; size = 4
_<_Args_0>$ = 12					; size = 4
??$construct@DAAD@?$allocator@D@std@@QAEXPADAAD@Z PROC	; std::allocator<char>::construct<char,char &>, COMDAT
; _this$ = ecx
; File c:\program files (x86)\microsoft visual studio 14.0\vc\include\xmemory0
; Line 657
	mov	ecx, DWORD PTR __Ptr$[esp-4]
	test	ecx, ecx
	je	SHORT $LN3@construct
	mov	eax, DWORD PTR _<_Args_0>$[esp-4]
	mov	al, BYTE PTR [eax]
	mov	BYTE PTR [ecx], al
$LN3@construct:
; Line 658
	ret	8
??$construct@DAAD@?$allocator@D@std@@QAEXPADAAD@Z ENDP	; std::allocator<char>::construct<char,char &>
_TEXT	ENDS
; Function compile flags: /Ogtpy
;	COMDAT ??$construct@HABH@?$allocator@H@std@@QAEXPAHABH@Z
_TEXT	SEGMENT
__Ptr$ = 8						; size = 4
_<_Args_0>$ = 12					; size = 4
??$construct@HABH@?$allocator@H@std@@QAEXPAHABH@Z PROC	; std::allocator<int>::construct<int,int const &>, COMDAT
; _this$ = ecx
; File c:\program files (x86)\microsoft visual studio 14.0\vc\include\xmemory0
; Line 657
	mov	ecx, DWORD PTR __Ptr$[esp-4]
	test	ecx, ecx
	je	SHORT $LN3@construct
	mov	eax, DWORD PTR _<_Args_0>$[esp-4]
	mov	eax, DWORD PTR [eax]
	mov	DWORD PTR [ecx], eax
$LN3@construct:
; Line 658
	ret	8
??$construct@HABH@?$allocator@H@std@@QAEXPAHABH@Z ENDP	; std::allocator<int>::construct<int,int const &>
_TEXT	ENDS
; Function compile flags: /Ogtpy
;	COMDAT ??$construct@HAAH@?$allocator@H@std@@QAEXPAHAAH@Z
_TEXT	SEGMENT
__Ptr$ = 8						; size = 4
_<_Args_0>$ = 12					; size = 4
??$construct@HAAH@?$allocator@H@std@@QAEXPAHAAH@Z PROC	; std::allocator<int>::construct<int,int &>, COMDAT
; _this$ = ecx
; File c:\program files (x86)\microsoft visual studio 14.0\vc\include\xmemory0
; Line 657
	mov	ecx, DWORD PTR __Ptr$[esp-4]
	test	ecx, ecx
	je	SHORT $LN3@construct
	mov	eax, DWORD PTR _<_Args_0>$[esp-4]
	mov	eax, DWORD PTR [eax]
	mov	DWORD PTR [ecx], eax
$LN3@construct:
; Line 658
	ret	8
??$construct@HAAH@?$allocator@H@std@@QAEXPAHAAH@Z ENDP	; std::allocator<int>::construct<int,int &>
_TEXT	ENDS
; Function compile flags: /Ogtpy
;	COMDAT ??$construct@Vplain_particle@@V1@@?$allocator@Vplain_particle@@@std@@QAEXPAVplain_particle@@$$QAV2@@Z
_TEXT	SEGMENT
__Ptr$ = 8						; size = 4
_<_Args_0>$ = 12					; size = 4
??$construct@Vplain_particle@@V1@@?$allocator@Vplain_particle@@@std@@QAEXPAVplain_particle@@$$QAV2@@Z PROC ; std::allocator<plain_particle>::construct<plain_particle,plain_particle>, COMDAT
; _this$ = ecx
; File c:\program files (x86)\microsoft visual studio 14.0\vc\include\xmemory0
; Line 657
	mov	ecx, DWORD PTR __Ptr$[esp-4]
	test	ecx, ecx
	je	SHORT $LN3@construct
	mov	eax, DWORD PTR _<_Args_0>$[esp-4]
	movups	xmm0, XMMWORD PTR [eax]
	movups	XMMWORD PTR [ecx], xmm0
	mov	eax, DWORD PTR [eax+16]
	mov	DWORD PTR [ecx+16], eax
$LN3@construct:
; Line 658
	ret	8
??$construct@Vplain_particle@@V1@@?$allocator@Vplain_particle@@@std@@QAEXPAVplain_particle@@$$QAV2@@Z ENDP ; std::allocator<plain_particle>::construct<plain_particle,plain_particle>
_TEXT	ENDS
; Function compile flags: /Ogtpy
;	COMDAT ??$equal@V?$pointer@V?$particle@V?$access@U?$member@D$0A@@dod@@U?$member@H$0A@@2@U?$member@H$00@2@@dod@@@@@dod@@V12@@iterator_core_access@iterators@boost@@CA_NABV?$pointer@V?$particle@V?$access@U?$member@D$0A@@dod@@U?$member@H$0A@@2@U?$member@H$00@2@@dod@@@@@dod@@0U?$bool_@$00@mpl@2@@Z
_TEXT	SEGMENT
_f1$ = 8						; size = 4
_f2$ = 12						; size = 4
___formal$ = 16						; size = 1
??$equal@V?$pointer@V?$particle@V?$access@U?$member@D$0A@@dod@@U?$member@H$0A@@2@U?$member@H$00@2@@dod@@@@@dod@@V12@@iterator_core_access@iterators@boost@@CA_NABV?$pointer@V?$particle@V?$access@U?$member@D$0A@@dod@@U?$member@H$0A@@2@U?$member@H$00@2@@dod@@@@@dod@@0U?$bool_@$00@mpl@2@@Z PROC ; boost::iterators::iterator_core_access::equal<dod::pointer<particle<dod::access<dod::member<char,0>,dod::member<int,0>,dod::member<int,1> > > >,dod::pointer<particle<dod::access<dod::member<char,0>,dod::member<int,0>,dod::member<int,1> > > > >, COMDAT
; File c:\mingw\include\boost\iterator\iterator_facade.hpp
; Line 558
	mov	eax, DWORD PTR _f1$[esp-4]
	mov	ecx, DWORD PTR _f2$[esp-4]
	mov	edx, DWORD PTR [eax]
	xor	eax, eax
	cmp	edx, DWORD PTR [ecx]
	sete	al
; Line 559
	ret	0
??$equal@V?$pointer@V?$particle@V?$access@U?$member@D$0A@@dod@@U?$member@H$0A@@2@U?$member@H$00@2@@dod@@@@@dod@@V12@@iterator_core_access@iterators@boost@@CA_NABV?$pointer@V?$particle@V?$access@U?$member@D$0A@@dod@@U?$member@H$0A@@2@U?$member@H$00@2@@dod@@@@@dod@@0U?$bool_@$00@mpl@2@@Z ENDP ; boost::iterators::iterator_core_access::equal<dod::pointer<particle<dod::access<dod::member<char,0>,dod::member<int,0>,dod::member<int,1> > > >,dod::pointer<particle<dod::access<dod::member<char,0>,dod::member<int,0>,dod::member<int,1> > > > >
_TEXT	ENDS
; Function compile flags: /Ogtpy
;	COMDAT ??$equal@V?$pointer@V?$particle@V?$access@U?$member@D$0A@@dod@@U?$member@H$0A@@2@U?$member@H$00@2@U?$member@H$01@2@U?$member@H$02@2@@dod@@@@@dod@@V12@@iterator_core_access@iterators@boost@@CA_NABV?$pointer@V?$particle@V?$access@U?$member@D$0A@@dod@@U?$member@H$0A@@2@U?$member@H$00@2@U?$member@H$01@2@U?$member@H$02@2@@dod@@@@@dod@@0U?$bool_@$00@mpl@2@@Z
_TEXT	SEGMENT
_f1$ = 8						; size = 4
_f2$ = 12						; size = 4
___formal$ = 16						; size = 1
??$equal@V?$pointer@V?$particle@V?$access@U?$member@D$0A@@dod@@U?$member@H$0A@@2@U?$member@H$00@2@U?$member@H$01@2@U?$member@H$02@2@@dod@@@@@dod@@V12@@iterator_core_access@iterators@boost@@CA_NABV?$pointer@V?$particle@V?$access@U?$member@D$0A@@dod@@U?$member@H$0A@@2@U?$member@H$00@2@U?$member@H$01@2@U?$member@H$02@2@@dod@@@@@dod@@0U?$bool_@$00@mpl@2@@Z PROC ; boost::iterators::iterator_core_access::equal<dod::pointer<particle<dod::access<dod::member<char,0>,dod::member<int,0>,dod::member<int,1>,dod::member<int,2>,dod::member<int,3> > > >,dod::pointer<particle<dod::access<dod::member<char,0>,dod::member<int,0>,dod::member<int,1>,dod::member<int,2>,dod::member<int,3> > > > >, COMDAT
; File c:\mingw\include\boost\iterator\iterator_facade.hpp
; Line 558
	mov	eax, DWORD PTR _f1$[esp-4]
	mov	ecx, DWORD PTR _f2$[esp-4]
	mov	edx, DWORD PTR [eax]
	xor	eax, eax
	cmp	edx, DWORD PTR [ecx]
	sete	al
; Line 559
	ret	0
??$equal@V?$pointer@V?$particle@V?$access@U?$member@D$0A@@dod@@U?$member@H$0A@@2@U?$member@H$00@2@U?$member@H$01@2@U?$member@H$02@2@@dod@@@@@dod@@V12@@iterator_core_access@iterators@boost@@CA_NABV?$pointer@V?$particle@V?$access@U?$member@D$0A@@dod@@U?$member@H$0A@@2@U?$member@H$00@2@U?$member@H$01@2@U?$member@H$02@2@@dod@@@@@dod@@0U?$bool_@$00@mpl@2@@Z ENDP ; boost::iterators::iterator_core_access::equal<dod::pointer<particle<dod::access<dod::member<char,0>,dod::member<int,0>,dod::member<int,1>,dod::member<int,2>,dod::member<int,3> > > >,dod::pointer<particle<dod::access<dod::member<char,0>,dod::member<int,0>,dod::member<int,1>,dod::member<int,2>,dod::member<int,3> > > > >
_TEXT	ENDS
; Function compile flags: /Ogtpy
;	COMDAT ??$accumulate@V?$_Array_iterator@N$09@std@@N@std@@YANV?$_Array_iterator@N$09@0@0N@Z
_TEXT	SEGMENT
__Val$ = -8						; size = 8
__First$ = 8						; size = 4
__Last$ = 12						; size = 4
__Val$ = 16						; size = 8
??$accumulate@V?$_Array_iterator@N$09@std@@N@std@@YANV?$_Array_iterator@N$09@0@0N@Z PROC ; std::accumulate<std::_Array_iterator<double,10>,double>, COMDAT
; File c:\program files (x86)\microsoft visual studio 14.0\vc\include\numeric
; Line 37
	push	ebp
	mov	ebp, esp
	and	esp, -8					; fffffff8H
	sub	esp, 8
; Line 38
	mov	ecx, DWORD PTR __First$[ebp]
	xor	edx, edx
	movsd	xmm0, QWORD PTR __Val$[ebp]
	push	esi
	mov	esi, DWORD PTR __Last$[ebp]
	sub	esi, ecx
	movsd	QWORD PTR __Val$[esp+12], xmm0
	add	esi, 7
	shr	esi, 3
	push	edi
	xor	edi, edi
	cmp	ecx, DWORD PTR __Last$[ebp]
	cmova	esi, edi
	test	esi, esi
	je	SHORT $LN30@accumulate
$LL26@accumulate:
	addsd	xmm0, QWORD PTR [ecx]
	inc	edx
	add	ecx, 8
	cmp	edx, esi
	jne	SHORT $LL26@accumulate
	movsd	QWORD PTR __Val$[esp+16], xmm0
$LN30@accumulate:
	fld	QWORD PTR __Val$[esp+16]
; Line 39
	pop	edi
	pop	esi
	mov	esp, ebp
	pop	ebp
	ret	0
??$accumulate@V?$_Array_iterator@N$09@std@@N@std@@YANV?$_Array_iterator@N$09@0@0N@Z ENDP ; std::accumulate<std::_Array_iterator<double,10>,double>
_TEXT	ENDS
; Function compile flags: /Ogtpy
;	COMDAT ??$sort@V?$_Array_iterator@N$09@std@@@std@@YAXV?$_Array_iterator@N$09@0@0@Z
_TEXT	SEGMENT
__First$ = 8						; size = 4
$T1 = 12						; size = 1
__Last$ = 12						; size = 4
??$sort@V?$_Array_iterator@N$09@std@@@std@@YAXV?$_Array_iterator@N$09@0@0@Z PROC ; std::sort<std::_Array_iterator<double,10> >, COMDAT
; File c:\program files (x86)\microsoft visual studio 14.0\vc\include\algorithm
; Line 3211
	mov	ecx, DWORD PTR __Last$[esp-4]
	mov	edx, ecx
	mov	eax, DWORD PTR __First$[esp-4]
	sub	edx, eax
	push	DWORD PTR $T1[esp-4]
	sar	edx, 3
	push	edx
	push	ecx
	push	eax
	call	??$_Sort@PANHU?$less@X@std@@@std@@YAXPAN0HU?$less@X@0@@Z ; std::_Sort<double *,int,std::less<void> >
	add	esp, 16					; 00000010H
; Line 3212
	ret	0
??$sort@V?$_Array_iterator@N$09@std@@@std@@YAXV?$_Array_iterator@N$09@0@0@Z ENDP ; std::sort<std::_Array_iterator<double,10> >
_TEXT	ENDS
; Function compile flags: /Ogtpy
;	COMDAT ??G?$_Array_iterator@N$09@std@@QBEHABV?$_Array_const_iterator@N$09@1@@Z
_TEXT	SEGMENT
__Right$ = 8						; size = 4
??G?$_Array_iterator@N$09@std@@QBEHABV?$_Array_const_iterator@N$09@1@@Z PROC ; std::_Array_iterator<double,10>::operator-, COMDAT
; _this$ = ecx
; File c:\program files (x86)\microsoft visual studio 14.0\vc\include\xutility
; Line 1888
	mov	eax, DWORD PTR [ecx]
	mov	ecx, DWORD PTR __Right$[esp-4]
	sub	eax, DWORD PTR [ecx]
	sar	eax, 3
; Line 1889
	ret	4
??G?$_Array_iterator@N$09@std@@QBEHABV?$_Array_const_iterator@N$09@1@@Z ENDP ; std::_Array_iterator<double,10>::operator-
_TEXT	ENDS
; Function compile flags: /Ogtpy
;	COMDAT ??G?$_Array_iterator@N$09@std@@QBE?AV01@H@Z
_TEXT	SEGMENT
___$ReturnUdt$ = 8					; size = 4
__Off$ = 12						; size = 4
??G?$_Array_iterator@N$09@std@@QBE?AV01@H@Z PROC	; std::_Array_iterator<double,10>::operator-, COMDAT
; _this$ = ecx
; File c:\program files (x86)\microsoft visual studio 14.0\vc\include\xutility
; Line 1883
	mov	eax, DWORD PTR __Off$[esp-4]
	mov	ecx, DWORD PTR [ecx]
	shl	eax, 3
	sub	ecx, eax
	mov	eax, DWORD PTR ___$ReturnUdt$[esp-4]
	mov	DWORD PTR [eax], ecx
; Line 1884
	ret	8
??G?$_Array_iterator@N$09@std@@QBE?AV01@H@Z ENDP	; std::_Array_iterator<double,10>::operator-
_TEXT	ENDS
; Function compile flags: /Ogtpy
;	COMDAT ??Z?$_Array_iterator@N$09@std@@QAEAAV01@H@Z
_TEXT	SEGMENT
__Off$ = 8						; size = 4
??Z?$_Array_iterator@N$09@std@@QAEAAV01@H@Z PROC	; std::_Array_iterator<double,10>::operator-=, COMDAT
; _this$ = ecx
; File c:\program files (x86)\microsoft visual studio 14.0\vc\include\xutility
; Line 1877
	mov	eax, DWORD PTR __Off$[esp-4]
	neg	eax
	shl	eax, 3
	add	DWORD PTR [ecx], eax
	mov	eax, ecx
; Line 1878
	ret	4
??Z?$_Array_iterator@N$09@std@@QAEAAV01@H@Z ENDP	; std::_Array_iterator<double,10>::operator-=
_TEXT	ENDS
; Function compile flags: /Ogtpy
;	COMDAT ??H?$_Array_iterator@N$09@std@@QBE?AV01@H@Z
_TEXT	SEGMENT
___$ReturnUdt$ = 8					; size = 4
__Off$ = 12						; size = 4
??H?$_Array_iterator@N$09@std@@QBE?AV01@H@Z PROC	; std::_Array_iterator<double,10>::operator+, COMDAT
; _this$ = ecx
; File c:\program files (x86)\microsoft visual studio 14.0\vc\include\xutility
; Line 1872
	mov	eax, DWORD PTR __Off$[esp-4]
	mov	ecx, DWORD PTR [ecx]
	lea	ecx, DWORD PTR [ecx+eax*8]
	mov	eax, DWORD PTR ___$ReturnUdt$[esp-4]
	mov	DWORD PTR [eax], ecx
; Line 1873
	ret	8
??H?$_Array_iterator@N$09@std@@QBE?AV01@H@Z ENDP	; std::_Array_iterator<double,10>::operator+
_TEXT	ENDS
; Function compile flags: /Ogtpy
;	COMDAT ??Y?$_Array_iterator@N$09@std@@QAEAAV01@H@Z
_TEXT	SEGMENT
__Off$ = 8						; size = 4
??Y?$_Array_iterator@N$09@std@@QAEAAV01@H@Z PROC	; std::_Array_iterator<double,10>::operator+=, COMDAT
; _this$ = ecx
; File c:\program files (x86)\microsoft visual studio 14.0\vc\include\xutility
; Line 1865
	mov	eax, DWORD PTR __Off$[esp-4]
	shl	eax, 3
	add	DWORD PTR [ecx], eax
; Line 1866
	mov	eax, ecx
; Line 1867
	ret	4
??Y?$_Array_iterator@N$09@std@@QAEAAV01@H@Z ENDP	; std::_Array_iterator<double,10>::operator+=
_TEXT	ENDS
; Function compile flags: /Ogtpy
;	COMDAT ?_Unchecked@?$_Array_iterator@N$09@std@@QBEPANXZ
_TEXT	SEGMENT
?_Unchecked@?$_Array_iterator@N$09@std@@QBEPANXZ PROC	; std::_Array_iterator<double,10>::_Unchecked, COMDAT
; _this$ = ecx
; File c:\program files (x86)\microsoft visual studio 14.0\vc\include\xutility
; Line 1824
	mov	eax, DWORD PTR [ecx]
; Line 1825
	ret	0
?_Unchecked@?$_Array_iterator@N$09@std@@QBEPANXZ ENDP	; std::_Array_iterator<double,10>::_Unchecked
_TEXT	ENDS
; Function compile flags: /Ogtpy
;	COMDAT ??0?$_Array_iterator@N$09@std@@QAE@PANI@Z
_TEXT	SEGMENT
__Parg$ = 8						; size = 4
__Off$ = 12						; size = 4
??0?$_Array_iterator@N$09@std@@QAE@PANI@Z PROC		; std::_Array_iterator<double,10>::_Array_iterator<double,10>, COMDAT
; _this$ = ecx
; File c:\program files (x86)\microsoft visual studio 14.0\vc\include\xutility
; Line 1810
	mov	edx, DWORD PTR __Off$[esp-4]
	mov	eax, DWORD PTR __Parg$[esp-4]
	lea	eax, DWORD PTR [eax+edx*8]
	mov	DWORD PTR [ecx], eax
; Line 1812
	mov	eax, ecx
	ret	8
??0?$_Array_iterator@N$09@std@@QAE@PANI@Z ENDP		; std::_Array_iterator<double,10>::_Array_iterator<double,10>
_TEXT	ENDS
; Function compile flags: /Ogtpy
;	COMDAT ??G?$_Array_const_iterator@N$09@std@@QBEHABV01@@Z
_TEXT	SEGMENT
__Right$ = 8						; size = 4
??G?$_Array_const_iterator@N$09@std@@QBEHABV01@@Z PROC	; std::_Array_const_iterator<double,10>::operator-, COMDAT
; _this$ = ecx
; File c:\program files (x86)\microsoft visual studio 14.0\vc\include\xutility
; Line 1517
	mov	eax, DWORD PTR [ecx]
	mov	ecx, DWORD PTR __Right$[esp-4]
	sub	eax, DWORD PTR [ecx]
	sar	eax, 3
; Line 1518
	ret	4
??G?$_Array_const_iterator@N$09@std@@QBEHABV01@@Z ENDP	; std::_Array_const_iterator<double,10>::operator-
_TEXT	ENDS
; Function compile flags: /Ogtpy
;	COMDAT ??Y?$_Array_const_iterator@N$09@std@@QAEAAV01@H@Z
_TEXT	SEGMENT
__Off$ = 8						; size = 4
??Y?$_Array_const_iterator@N$09@std@@QAEAAV01@H@Z PROC	; std::_Array_const_iterator<double,10>::operator+=, COMDAT
; _this$ = ecx
; File c:\program files (x86)\microsoft visual studio 14.0\vc\include\xutility
; Line 1494
	mov	eax, DWORD PTR __Off$[esp-4]
	shl	eax, 3
	add	DWORD PTR [ecx], eax
; Line 1495
	mov	eax, ecx
; Line 1496
	ret	4
??Y?$_Array_const_iterator@N$09@std@@QAEAAV01@H@Z ENDP	; std::_Array_const_iterator<double,10>::operator+=
_TEXT	ENDS
; Function compile flags: /Ogtpy
;	COMDAT ?_Unchecked@?$_Array_const_iterator@N$09@std@@QBEPBNXZ
_TEXT	SEGMENT
?_Unchecked@?$_Array_const_iterator@N$09@std@@QBEPBNXZ PROC ; std::_Array_const_iterator<double,10>::_Unchecked, COMDAT
; _this$ = ecx
; File c:\program files (x86)\microsoft visual studio 14.0\vc\include\xutility
; Line 1453
	mov	eax, DWORD PTR [ecx]
; Line 1454
	ret	0
?_Unchecked@?$_Array_const_iterator@N$09@std@@QBEPBNXZ ENDP ; std::_Array_const_iterator<double,10>::_Unchecked
_TEXT	ENDS
; Function compile flags: /Ogtpy
;	COMDAT ??0?$_Array_const_iterator@N$09@std@@QAE@PBNI@Z
_TEXT	SEGMENT
__Parg$ = 8						; size = 4
__Off$ = 12						; size = 4
??0?$_Array_const_iterator@N$09@std@@QAE@PBNI@Z PROC	; std::_Array_const_iterator<double,10>::_Array_const_iterator<double,10>, COMDAT
; _this$ = ecx
; File c:\program files (x86)\microsoft visual studio 14.0\vc\include\xutility
; Line 1440
	mov	edx, DWORD PTR __Off$[esp-4]
	mov	eax, DWORD PTR __Parg$[esp-4]
	lea	eax, DWORD PTR [eax+edx*8]
	mov	DWORD PTR [ecx], eax
; Line 1441
	mov	eax, ecx
	ret	8
??0?$_Array_const_iterator@N$09@std@@QAE@PBNI@Z ENDP	; std::_Array_const_iterator<double,10>::_Array_const_iterator<double,10>
_TEXT	ENDS
; Function compile flags: /Ogtpy
;	COMDAT ??$duration_cast@V?$duration@NU?$ratio@$00$00@std@@@chrono@std@@_JU?$ratio@$00$0DLJKMKAA@@3@@chrono@std@@YA?AV?$duration@NU?$ratio@$00$00@std@@@01@ABV?$duration@_JU?$ratio@$00$0DLJKMKAA@@std@@@01@@Z
_TEXT	SEGMENT
tv174 = -8						; size = 8
___$ReturnUdt$ = 8					; size = 4
__Dur$ = 12						; size = 4
??$duration_cast@V?$duration@NU?$ratio@$00$00@std@@@chrono@std@@_JU?$ratio@$00$0DLJKMKAA@@3@@chrono@std@@YA?AV?$duration@NU?$ratio@$00$00@std@@@01@ABV?$duration@_JU?$ratio@$00$0DLJKMKAA@@std@@@01@@Z PROC ; std::chrono::duration_cast<std::chrono::duration<double,std::ratio<1,1> >,__int64,std::ratio<1,1000000000> >, COMDAT
; File c:\program files (x86)\microsoft visual studio 14.0\vc\include\chrono
; Line 548
	sub	esp, 8
; Line 553
	mov	ecx, DWORD PTR __Dur$[esp+4]
	mov	edx, DWORD PTR [ecx+4]
	mov	ecx, DWORD PTR [ecx]
	call	__ltod3
	xor	edx, edx
	movsd	QWORD PTR tv174[esp+8], xmm0
	mov	ecx, 1000000000				; 3b9aca00H
	call	__ltod3
	movsd	xmm1, QWORD PTR tv174[esp+8]
	divsd	xmm1, xmm0
	mov	eax, DWORD PTR ___$ReturnUdt$[esp+4]
	movsd	QWORD PTR [eax], xmm1
; Line 566
	add	esp, 8
	ret	0
??$duration_cast@V?$duration@NU?$ratio@$00$00@std@@@chrono@std@@_JU?$ratio@$00$0DLJKMKAA@@3@@chrono@std@@YA?AV?$duration@NU?$ratio@$00$00@std@@@01@ABV?$duration@_JU?$ratio@$00$0DLJKMKAA@@std@@@01@@Z ENDP ; std::chrono::duration_cast<std::chrono::duration<double,std::ratio<1,1> >,__int64,std::ratio<1,1000000000> >
_TEXT	ENDS
; Function compile flags: /Ogtpy
;	COMDAT ??$?M_JU?$ratio@$00$0DLJKMKAA@@std@@_JU?$ratio@$00$0DOI@@1@@chrono@std@@YA_NABV?$duration@_JU?$ratio@$00$0DLJKMKAA@@std@@@01@ABV?$duration@_JU?$ratio@$00$0DOI@@std@@@01@@Z
_TEXT	SEGMENT
__Left$ = 8						; size = 4
__Right$ = 12						; size = 4
??$?M_JU?$ratio@$00$0DLJKMKAA@@std@@_JU?$ratio@$00$0DOI@@1@@chrono@std@@YA_NABV?$duration@_JU?$ratio@$00$0DLJKMKAA@@std@@@01@ABV?$duration@_JU?$ratio@$00$0DOI@@std@@@01@@Z PROC ; std::chrono::operator<<__int64,std::ratio<1,1000000000>,__int64,std::ratio<1,1000> >, COMDAT
; File c:\program files (x86)\microsoft visual studio 14.0\vc\include\chrono
; Line 505
	mov	eax, DWORD PTR __Left$[esp-4]
	push	esi
	push	edi
	push	0
	mov	edi, DWORD PTR [eax]
	mov	esi, DWORD PTR [eax+4]
	mov	eax, DWORD PTR __Right$[esp+8]
	push	1000000					; 000f4240H
	push	DWORD PTR [eax+4]
	push	DWORD PTR [eax]
	call	__allmul
	cmp	esi, edx
	jg	SHORT $LN3@operator
	jl	SHORT $LN37@operator
	cmp	edi, eax
	jae	SHORT $LN3@operator
$LN37@operator:
	pop	edi
	mov	al, 1
	pop	esi
; Line 506
	ret	0
$LN3@operator:
	pop	edi
; Line 505
	xor	al, al
	pop	esi
; Line 506
	ret	0
??$?M_JU?$ratio@$00$0DLJKMKAA@@std@@_JU?$ratio@$00$0DOI@@1@@chrono@std@@YA_NABV?$duration@_JU?$ratio@$00$0DLJKMKAA@@std@@@01@ABV?$duration@_JU?$ratio@$00$0DOI@@std@@@01@@Z ENDP ; std::chrono::operator<<__int64,std::ratio<1,1000000000>,__int64,std::ratio<1,1000> >
_TEXT	ENDS
; Function compile flags: /Ogtpy
;	COMDAT ??A?$array@N$09@std@@QAEAANI@Z
_TEXT	SEGMENT
__Pos$ = 8						; size = 4
??A?$array@N$09@std@@QAEAANI@Z PROC			; std::array<double,10>::operator[], COMDAT
; _this$ = ecx
; File c:\program files (x86)\microsoft visual studio 14.0\vc\include\array
; Line 159
	mov	eax, DWORD PTR __Pos$[esp-4]
	lea	eax, DWORD PTR [ecx+eax*8]
; Line 160
	ret	4
??A?$array@N$09@std@@QAEAANI@Z ENDP			; std::array<double,10>::operator[]
_TEXT	ENDS
; Function compile flags: /Ogtpy
;	COMDAT ?size@?$array@N$09@std@@QBEIXZ
_TEXT	SEGMENT
?size@?$array@N$09@std@@QBEIXZ PROC			; std::array<double,10>::size, COMDAT
; _this$ = ecx
; File c:\program files (x86)\microsoft visual studio 14.0\vc\include\array
; Line 120
	mov	eax, 10					; 0000000aH
; Line 121
	ret	0
?size@?$array@N$09@std@@QBEIXZ ENDP			; std::array<double,10>::size
_TEXT	ENDS
; Function compile flags: /Ogtpy
;	COMDAT ?end@?$array@N$09@std@@QAE?AV?$_Array_iterator@N$09@2@XZ
_TEXT	SEGMENT
___$ReturnUdt$ = 8					; size = 4
?end@?$array@N$09@std@@QAE?AV?$_Array_iterator@N$09@2@XZ PROC ; std::array<double,10>::end, COMDAT
; _this$ = ecx
; File c:\program files (x86)\microsoft visual studio 14.0\vc\include\array
; Line 70
	mov	eax, DWORD PTR ___$ReturnUdt$[esp-4]
	add	ecx, 80					; 00000050H
	mov	DWORD PTR [eax], ecx
; Line 71
	ret	4
?end@?$array@N$09@std@@QAE?AV?$_Array_iterator@N$09@2@XZ ENDP ; std::array<double,10>::end
_TEXT	ENDS
; Function compile flags: /Ogtpy
;	COMDAT ?begin@?$array@N$09@std@@QAE?AV?$_Array_iterator@N$09@2@XZ
_TEXT	SEGMENT
___$ReturnUdt$ = 8					; size = 4
?begin@?$array@N$09@std@@QAE?AV?$_Array_iterator@N$09@2@XZ PROC ; std::array<double,10>::begin, COMDAT
; _this$ = ecx
; File c:\program files (x86)\microsoft visual studio 14.0\vc\include\array
; Line 60
	mov	eax, DWORD PTR ___$ReturnUdt$[esp-4]
	mov	DWORD PTR [eax], ecx
; Line 61
	ret	4
?begin@?$array@N$09@std@@QAE?AV?$_Array_iterator@N$09@2@XZ ENDP ; std::array<double,10>::begin
_TEXT	ENDS
; Function compile flags: /Ogtpy
;	COMDAT ??$?0HX@?$duration@_JU?$ratio@$00$0DOI@@std@@@chrono@std@@QAE@ABH@Z
_TEXT	SEGMENT
__Val$ = 8						; size = 4
??$?0HX@?$duration@_JU?$ratio@$00$0DOI@@std@@@chrono@std@@QAE@ABH@Z PROC ; std::chrono::duration<__int64,std::ratio<1,1000> >::duration<__int64,std::ratio<1,1000> ><int,void>, COMDAT
; _this$ = ecx
; File c:\program files (x86)\microsoft visual studio 14.0\vc\include\chrono
; Line 112
	mov	eax, DWORD PTR __Val$[esp-4]
	mov	eax, DWORD PTR [eax]
	cdq
	mov	DWORD PTR [ecx], eax
; Line 114
	mov	eax, ecx
	mov	DWORD PTR [ecx+4], edx
	ret	4
??$?0HX@?$duration@_JU?$ratio@$00$0DOI@@std@@@chrono@std@@QAE@ABH@Z ENDP ; std::chrono::duration<__int64,std::ratio<1,1000> >::duration<__int64,std::ratio<1,1000> ><int,void>
_TEXT	ENDS
; Function compile flags: /Ogtpy
;	COMDAT ??$?0PAHPAHPAH@?$access@U?$member@H$00@dod@@U?$member@H$01@2@U?$member@H$02@2@@dod@@QAE@$$QAPAH00@Z
_TEXT	SEGMENT
_arg0$ = 8						; size = 4
_<args_0>$ = 12						; size = 4
_<args_1>$ = 16						; size = 4
??$?0PAHPAHPAH@?$access@U?$member@H$00@dod@@U?$member@H$01@2@U?$member@H$02@2@@dod@@QAE@$$QAPAH00@Z PROC ; dod::access<dod::member<int,1>,dod::member<int,2>,dod::member<int,3> >::access<dod::member<int,1>,dod::member<int,2>,dod::member<int,3> ><int *,int *,int *>, COMDAT
; _this$ = ecx
; File c:\users\manu343726\documents\joaquin-dod\dod_perf.cpp
; Line 99
	mov	eax, DWORD PTR _arg0$[esp-4]
	mov	eax, DWORD PTR [eax]
	mov	DWORD PTR [ecx], eax
; Line 100
	mov	eax, DWORD PTR _<args_0>$[esp-4]
	mov	eax, DWORD PTR [eax]
	mov	DWORD PTR [ecx+4], eax
	mov	eax, DWORD PTR _<args_1>$[esp-4]
	mov	eax, DWORD PTR [eax]
	mov	DWORD PTR [ecx+8], eax
; Line 101
	mov	eax, ecx
	ret	12					; 0000000cH
??$?0PAHPAHPAH@?$access@U?$member@H$00@dod@@U?$member@H$01@2@U?$member@H$02@2@@dod@@QAE@$$QAPAH00@Z ENDP ; dod::access<dod::member<int,1>,dod::member<int,2>,dod::member<int,3> >::access<dod::member<int,1>,dod::member<int,2>,dod::member<int,3> ><int *,int *,int *>
_TEXT	ENDS
; Function compile flags: /Ogtpy
;	COMDAT ??$dereference@V?$pointer@V?$particle@V?$access@U?$member@D$0A@@dod@@U?$member@H$0A@@2@U?$member@H$00@2@U?$member@H$01@2@U?$member@H$02@2@@dod@@@@@dod@@@iterator_core_access@iterators@boost@@CA?AV?$particle@V?$access@U?$member@D$0A@@dod@@U?$member@H$0A@@2@U?$member@H$00@2@U?$member@H$01@2@U?$member@H$02@2@@dod@@@@ABV?$pointer@V?$particle@V?$access@U?$member@D$0A@@dod@@U?$member@H$0A@@2@U?$member@H$00@2@U?$member@H$01@2@U?$member@H$02@2@@dod@@@@@dod@@@Z
_TEXT	SEGMENT
___$ReturnUdt$ = 8					; size = 4
_f$ = 12						; size = 4
??$dereference@V?$pointer@V?$particle@V?$access@U?$member@D$0A@@dod@@U?$member@H$0A@@2@U?$member@H$00@2@U?$member@H$01@2@U?$member@H$02@2@@dod@@@@@dod@@@iterator_core_access@iterators@boost@@CA?AV?$particle@V?$access@U?$member@D$0A@@dod@@U?$member@H$0A@@2@U?$member@H$00@2@U?$member@H$01@2@U?$member@H$02@2@@dod@@@@ABV?$pointer@V?$particle@V?$access@U?$member@D$0A@@dod@@U?$member@H$0A@@2@U?$member@H$00@2@U?$member@H$01@2@U?$member@H$02@2@@dod@@@@@dod@@@Z PROC ; boost::iterators::iterator_core_access::dereference<dod::pointer<particle<dod::access<dod::member<char,0>,dod::member<int,0>,dod::member<int,1>,dod::member<int,2>,dod::member<int,3> > > > >, COMDAT
; File c:\mingw\include\boost\iterator\iterator_facade.hpp
; Line 540
	mov	ecx, DWORD PTR _f$[esp-4]
	mov	eax, DWORD PTR ___$ReturnUdt$[esp-4]
	movups	xmm0, XMMWORD PTR [ecx]
	mov	ecx, DWORD PTR [ecx+16]
	movups	XMMWORD PTR [eax], xmm0
	mov	DWORD PTR [eax+16], ecx
; Line 541
	ret	0
??$dereference@V?$pointer@V?$particle@V?$access@U?$member@D$0A@@dod@@U?$member@H$0A@@2@U?$member@H$00@2@U?$member@H$01@2@U?$member@H$02@2@@dod@@@@@dod@@@iterator_core_access@iterators@boost@@CA?AV?$particle@V?$access@U?$member@D$0A@@dod@@U?$member@H$0A@@2@U?$member@H$00@2@U?$member@H$01@2@U?$member@H$02@2@@dod@@@@ABV?$pointer@V?$particle@V?$access@U?$member@D$0A@@dod@@U?$member@H$0A@@2@U?$member@H$00@2@U?$member@H$01@2@U?$member@H$02@2@@dod@@@@@dod@@@Z ENDP ; boost::iterators::iterator_core_access::dereference<dod::pointer<particle<dod::access<dod::member<char,0>,dod::member<int,0>,dod::member<int,1>,dod::member<int,2>,dod::member<int,3> > > > >
_TEXT	ENDS
; Function compile flags: /Ogtpy
;	COMDAT ??$dereference@V?$pointer@V?$particle@V?$access@U?$member@D$0A@@dod@@U?$member@H$0A@@2@U?$member@H$00@2@@dod@@@@@dod@@@iterator_core_access@iterators@boost@@CA?AV?$particle@V?$access@U?$member@D$0A@@dod@@U?$member@H$0A@@2@U?$member@H$00@2@@dod@@@@ABV?$pointer@V?$particle@V?$access@U?$member@D$0A@@dod@@U?$member@H$0A@@2@U?$member@H$00@2@@dod@@@@@dod@@@Z
_TEXT	SEGMENT
___$ReturnUdt$ = 8					; size = 4
_f$ = 12						; size = 4
??$dereference@V?$pointer@V?$particle@V?$access@U?$member@D$0A@@dod@@U?$member@H$0A@@2@U?$member@H$00@2@@dod@@@@@dod@@@iterator_core_access@iterators@boost@@CA?AV?$particle@V?$access@U?$member@D$0A@@dod@@U?$member@H$0A@@2@U?$member@H$00@2@@dod@@@@ABV?$pointer@V?$particle@V?$access@U?$member@D$0A@@dod@@U?$member@H$0A@@2@U?$member@H$00@2@@dod@@@@@dod@@@Z PROC ; boost::iterators::iterator_core_access::dereference<dod::pointer<particle<dod::access<dod::member<char,0>,dod::member<int,0>,dod::member<int,1> > > > >, COMDAT
; File c:\mingw\include\boost\iterator\iterator_facade.hpp
; Line 540
	mov	ecx, DWORD PTR _f$[esp-4]
	mov	eax, DWORD PTR ___$ReturnUdt$[esp-4]
	movq	xmm0, QWORD PTR [ecx]
	mov	ecx, DWORD PTR [ecx+8]
	movq	QWORD PTR [eax], xmm0
	mov	DWORD PTR [eax+8], ecx
; Line 541
	ret	0
??$dereference@V?$pointer@V?$particle@V?$access@U?$member@D$0A@@dod@@U?$member@H$0A@@2@U?$member@H$00@2@@dod@@@@@dod@@@iterator_core_access@iterators@boost@@CA?AV?$particle@V?$access@U?$member@D$0A@@dod@@U?$member@H$0A@@2@U?$member@H$00@2@@dod@@@@ABV?$pointer@V?$particle@V?$access@U?$member@D$0A@@dod@@U?$member@H$0A@@2@U?$member@H$00@2@@dod@@@@@dod@@@Z ENDP ; boost::iterators::iterator_core_access::dereference<dod::pointer<particle<dod::access<dod::member<char,0>,dod::member<int,0>,dod::member<int,1> > > > >
_TEXT	ENDS
; Function compile flags: /Ogtpy
;	COMDAT ?pointer_to@?$pointer_traits@PAVplain_particle@@@std@@SAPAVplain_particle@@AAV3@@Z
_TEXT	SEGMENT
__Val$ = 8						; size = 4
?pointer_to@?$pointer_traits@PAVplain_particle@@@std@@SAPAVplain_particle@@AAV3@@Z PROC ; std::pointer_traits<plain_particle *>::pointer_to, COMDAT
; File c:\program files (x86)\microsoft visual studio 14.0\vc\include\xmemory0
; Line 317
	mov	eax, DWORD PTR __Val$[esp-4]
; Line 318
	ret	0
?pointer_to@?$pointer_traits@PAVplain_particle@@@std@@SAPAVplain_particle@@AAV3@@Z ENDP ; std::pointer_traits<plain_particle *>::pointer_to
_TEXT	ENDS
; Function compile flags: /Ogtpy
;	COMDAT ??$advance@V?$pointer@V?$particle@V?$access@U?$member@D$0A@@dod@@U?$member@H$0A@@2@U?$member@H$00@2@U?$member@H$01@2@U?$member@H$02@2@@dod@@@@@dod@@@iterator_core_access@iterators@boost@@CAXAAV?$pointer@V?$particle@V?$access@U?$member@D$0A@@dod@@U?$member@H$0A@@2@U?$member@H$00@2@U?$member@H$01@2@U?$member@H$02@2@@dod@@@@@dod@@H@Z
_TEXT	SEGMENT
_f$ = 8							; size = 4
_n$ = 12						; size = 4
??$advance@V?$pointer@V?$particle@V?$access@U?$member@D$0A@@dod@@U?$member@H$0A@@2@U?$member@H$00@2@U?$member@H$01@2@U?$member@H$02@2@@dod@@@@@dod@@@iterator_core_access@iterators@boost@@CAXAAV?$pointer@V?$particle@V?$access@U?$member@D$0A@@dod@@U?$member@H$0A@@2@U?$member@H$00@2@U?$member@H$01@2@U?$member@H$02@2@@dod@@@@@dod@@H@Z PROC ; boost::iterators::iterator_core_access::advance<dod::pointer<particle<dod::access<dod::member<char,0>,dod::member<int,0>,dod::member<int,1>,dod::member<int,2>,dod::member<int,3> > > > >, COMDAT
; File c:\mingw\include\boost\iterator\iterator_facade.hpp
; Line 570
	mov	ecx, DWORD PTR _f$[esp-4]
	mov	eax, DWORD PTR _n$[esp-4]
	add	DWORD PTR [ecx], eax
	shl	eax, 2
	add	DWORD PTR [ecx+4], eax
	add	DWORD PTR [ecx+8], eax
	add	DWORD PTR [ecx+12], eax
	add	DWORD PTR [ecx+16], eax
; Line 571
	ret	0
??$advance@V?$pointer@V?$particle@V?$access@U?$member@D$0A@@dod@@U?$member@H$0A@@2@U?$member@H$00@2@U?$member@H$01@2@U?$member@H$02@2@@dod@@@@@dod@@@iterator_core_access@iterators@boost@@CAXAAV?$pointer@V?$particle@V?$access@U?$member@D$0A@@dod@@U?$member@H$0A@@2@U?$member@H$00@2@U?$member@H$01@2@U?$member@H$02@2@@dod@@@@@dod@@H@Z ENDP ; boost::iterators::iterator_core_access::advance<dod::pointer<particle<dod::access<dod::member<char,0>,dod::member<int,0>,dod::member<int,1>,dod::member<int,2>,dod::member<int,3> > > > >
_TEXT	ENDS
; Function compile flags: /Ogtpy
;	COMDAT ??$addressof@V?$particle@V?$access@U?$member@D$0A@@dod@@U?$member@H$0A@@2@U?$member@H$00@2@U?$member@H$01@2@U?$member@H$02@2@@dod@@@@@boost@@YAPAV?$particle@V?$access@U?$member@D$0A@@dod@@U?$member@H$0A@@2@U?$member@H$00@2@U?$member@H$01@2@U?$member@H$02@2@@dod@@@@AAV1@@Z
_TEXT	SEGMENT
_v$ = 8							; size = 4
??$addressof@V?$particle@V?$access@U?$member@D$0A@@dod@@U?$member@H$0A@@2@U?$member@H$00@2@U?$member@H$01@2@U?$member@H$02@2@@dod@@@@@boost@@YAPAV?$particle@V?$access@U?$member@D$0A@@dod@@U?$member@H$0A@@2@U?$member@H$00@2@U?$member@H$01@2@U?$member@H$02@2@@dod@@@@AAV1@@Z PROC ; boost::addressof<particle<dod::access<dod::member<char,0>,dod::member<int,0>,dod::member<int,1>,dod::member<int,2>,dod::member<int,3> > > >, COMDAT
; File c:\mingw\include\boost\core\addressof.hpp
; Line 116
	mov	eax, DWORD PTR _v$[esp-4]
; Line 119
	ret	0
??$addressof@V?$particle@V?$access@U?$member@D$0A@@dod@@U?$member@H$0A@@2@U?$member@H$00@2@U?$member@H$01@2@U?$member@H$02@2@@dod@@@@@boost@@YAPAV?$particle@V?$access@U?$member@D$0A@@dod@@U?$member@H$0A@@2@U?$member@H$00@2@U?$member@H$01@2@U?$member@H$02@2@@dod@@@@AAV1@@Z ENDP ; boost::addressof<particle<dod::access<dod::member<char,0>,dod::member<int,0>,dod::member<int,1>,dod::member<int,2>,dod::member<int,3> > > >
_TEXT	ENDS
; Function compile flags: /Ogtpy
;	COMDAT ??$advance@V?$pointer@V?$particle@V?$access@U?$member@D$0A@@dod@@U?$member@H$0A@@2@U?$member@H$00@2@@dod@@@@@dod@@@iterator_core_access@iterators@boost@@CAXAAV?$pointer@V?$particle@V?$access@U?$member@D$0A@@dod@@U?$member@H$0A@@2@U?$member@H$00@2@@dod@@@@@dod@@H@Z
_TEXT	SEGMENT
_f$ = 8							; size = 4
_n$ = 12						; size = 4
??$advance@V?$pointer@V?$particle@V?$access@U?$member@D$0A@@dod@@U?$member@H$0A@@2@U?$member@H$00@2@@dod@@@@@dod@@@iterator_core_access@iterators@boost@@CAXAAV?$pointer@V?$particle@V?$access@U?$member@D$0A@@dod@@U?$member@H$0A@@2@U?$member@H$00@2@@dod@@@@@dod@@H@Z PROC ; boost::iterators::iterator_core_access::advance<dod::pointer<particle<dod::access<dod::member<char,0>,dod::member<int,0>,dod::member<int,1> > > > >, COMDAT
; File c:\mingw\include\boost\iterator\iterator_facade.hpp
; Line 570
	mov	ecx, DWORD PTR _f$[esp-4]
	mov	eax, DWORD PTR _n$[esp-4]
	add	DWORD PTR [ecx], eax
	shl	eax, 2
	add	DWORD PTR [ecx+4], eax
	add	DWORD PTR [ecx+8], eax
; Line 571
	ret	0
??$advance@V?$pointer@V?$particle@V?$access@U?$member@D$0A@@dod@@U?$member@H$0A@@2@U?$member@H$00@2@@dod@@@@@dod@@@iterator_core_access@iterators@boost@@CAXAAV?$pointer@V?$particle@V?$access@U?$member@D$0A@@dod@@U?$member@H$0A@@2@U?$member@H$00@2@@dod@@@@@dod@@H@Z ENDP ; boost::iterators::iterator_core_access::advance<dod::pointer<particle<dod::access<dod::member<char,0>,dod::member<int,0>,dod::member<int,1> > > > >
_TEXT	ENDS
; Function compile flags: /Ogtpy
;	COMDAT ??$addressof@V?$particle@V?$access@U?$member@D$0A@@dod@@U?$member@H$0A@@2@U?$member@H$00@2@@dod@@@@@boost@@YAPAV?$particle@V?$access@U?$member@D$0A@@dod@@U?$member@H$0A@@2@U?$member@H$00@2@@dod@@@@AAV1@@Z
_TEXT	SEGMENT
_v$ = 8							; size = 4
??$addressof@V?$particle@V?$access@U?$member@D$0A@@dod@@U?$member@H$0A@@2@U?$member@H$00@2@@dod@@@@@boost@@YAPAV?$particle@V?$access@U?$member@D$0A@@dod@@U?$member@H$0A@@2@U?$member@H$00@2@@dod@@@@AAV1@@Z PROC ; boost::addressof<particle<dod::access<dod::member<char,0>,dod::member<int,0>,dod::member<int,1> > > >, COMDAT
; File c:\mingw\include\boost\core\addressof.hpp
; Line 116
	mov	eax, DWORD PTR _v$[esp-4]
; Line 119
	ret	0
??$addressof@V?$particle@V?$access@U?$member@D$0A@@dod@@U?$member@H$0A@@2@U?$member@H$00@2@@dod@@@@@boost@@YAPAV?$particle@V?$access@U?$member@D$0A@@dod@@U?$member@H$0A@@2@U?$member@H$00@2@@dod@@@@AAV1@@Z ENDP ; boost::addressof<particle<dod::access<dod::member<char,0>,dod::member<int,0>,dod::member<int,1> > > >
_TEXT	ENDS
; Function compile flags: /Ogtpy
;	COMDAT ??$_Destroy_range@U?$_Wrap_alloc@V?$allocator@D@std@@@std@@@std@@YAXPAD0AAU?$_Wrap_alloc@V?$allocator@D@std@@@0@U_Scalar_ptr_iterator_tag@0@@Z
_TEXT	SEGMENT
__First$ = 8						; size = 4
__Last$ = 12						; size = 4
__Al$ = 16						; size = 4
___formal$ = 20						; size = 1
??$_Destroy_range@U?$_Wrap_alloc@V?$allocator@D@std@@@std@@@std@@YAXPAD0AAU?$_Wrap_alloc@V?$allocator@D@std@@@0@U_Scalar_ptr_iterator_tag@0@@Z PROC ; std::_Destroy_range<std::_Wrap_alloc<std::allocator<char> > >, COMDAT
; File c:\program files (x86)\microsoft visual studio 14.0\vc\include\xmemory0
; Line 180
	ret	0
??$_Destroy_range@U?$_Wrap_alloc@V?$allocator@D@std@@@std@@@std@@YAXPAD0AAU?$_Wrap_alloc@V?$allocator@D@std@@@0@U_Scalar_ptr_iterator_tag@0@@Z ENDP ; std::_Destroy_range<std::_Wrap_alloc<std::allocator<char> > >
_TEXT	ENDS
; Function compile flags: /Ogtpy
;	COMDAT ??$_Ptr_cat@DD@std@@YA?AU_Scalar_ptr_iterator_tag@0@PAD0@Z
_TEXT	SEGMENT
__Cat$ = -1						; size = 1
___formal$ = 8						; size = 4
___formal$ = 12						; size = 4
??$_Ptr_cat@DD@std@@YA?AU_Scalar_ptr_iterator_tag@0@PAD0@Z PROC ; std::_Ptr_cat<char,char>, COMDAT
; File c:\program files (x86)\microsoft visual studio 14.0\vc\include\xutility
; Line 640
	push	ecx
; Line 642
	mov	al, BYTE PTR __Cat$[esp+4]
; Line 643
	pop	ecx
	ret	0
??$_Ptr_cat@DD@std@@YA?AU_Scalar_ptr_iterator_tag@0@PAD0@Z ENDP ; std::_Ptr_cat<char,char>
_TEXT	ENDS
; Function compile flags: /Ogtpy
;	COMDAT ??$_Uninitialized_move@PADPADU?$_Wrap_alloc@V?$allocator@D@std@@@std@@@std@@YAPADPAD00AAU?$_Wrap_alloc@V?$allocator@D@std@@@0@@Z
_TEXT	SEGMENT
__First$ = 8						; size = 4
__Last$ = 12						; size = 4
__Dest$ = 16						; size = 4
__Al$ = 20						; size = 4
??$_Uninitialized_move@PADPADU?$_Wrap_alloc@V?$allocator@D@std@@@std@@@std@@YAPADPAD00AAU?$_Wrap_alloc@V?$allocator@D@std@@@0@@Z PROC ; std::_Uninitialized_move<char *,char *,std::_Wrap_alloc<std::allocator<char> > >, COMDAT
; File c:\program files (x86)\microsoft visual studio 14.0\vc\include\xmemory
; Line 491
	mov	eax, DWORD PTR __First$[esp-4]
	push	esi
	mov	esi, DWORD PTR __Last$[esp]
	sub	esi, eax
	push	esi
	push	eax
	push	DWORD PTR __Dest$[esp+8]
	call	DWORD PTR __imp__memmove
	add	esp, 12					; 0000000cH
	add	eax, esi
	pop	esi
; Line 494
	ret	0
??$_Uninitialized_move@PADPADU?$_Wrap_alloc@V?$allocator@D@std@@@std@@@std@@YAPADPAD00AAU?$_Wrap_alloc@V?$allocator@D@std@@@0@@Z ENDP ; std::_Uninitialized_move<char *,char *,std::_Wrap_alloc<std::allocator<char> > >
_TEXT	ENDS
; Function compile flags: /Ogtpy
;	COMDAT ??$_Destroy_range@U?$_Wrap_alloc@V?$allocator@H@std@@@std@@@std@@YAXPAH0AAU?$_Wrap_alloc@V?$allocator@H@std@@@0@U_Scalar_ptr_iterator_tag@0@@Z
_TEXT	SEGMENT
__First$ = 8						; size = 4
__Last$ = 12						; size = 4
__Al$ = 16						; size = 4
___formal$ = 20						; size = 1
??$_Destroy_range@U?$_Wrap_alloc@V?$allocator@H@std@@@std@@@std@@YAXPAH0AAU?$_Wrap_alloc@V?$allocator@H@std@@@0@U_Scalar_ptr_iterator_tag@0@@Z PROC ; std::_Destroy_range<std::_Wrap_alloc<std::allocator<int> > >, COMDAT
; File c:\program files (x86)\microsoft visual studio 14.0\vc\include\xmemory0
; Line 180
	ret	0
??$_Destroy_range@U?$_Wrap_alloc@V?$allocator@H@std@@@std@@@std@@YAXPAH0AAU?$_Wrap_alloc@V?$allocator@H@std@@@0@U_Scalar_ptr_iterator_tag@0@@Z ENDP ; std::_Destroy_range<std::_Wrap_alloc<std::allocator<int> > >
_TEXT	ENDS
; Function compile flags: /Ogtpy
;	COMDAT ??$_Ptr_cat@HH@std@@YA?AU_Scalar_ptr_iterator_tag@0@PAH0@Z
_TEXT	SEGMENT
__Cat$ = -1						; size = 1
___formal$ = 8						; size = 4
___formal$ = 12						; size = 4
??$_Ptr_cat@HH@std@@YA?AU_Scalar_ptr_iterator_tag@0@PAH0@Z PROC ; std::_Ptr_cat<int,int>, COMDAT
; File c:\program files (x86)\microsoft visual studio 14.0\vc\include\xutility
; Line 640
	push	ecx
; Line 642
	mov	al, BYTE PTR __Cat$[esp+4]
; Line 643
	pop	ecx
	ret	0
??$_Ptr_cat@HH@std@@YA?AU_Scalar_ptr_iterator_tag@0@PAH0@Z ENDP ; std::_Ptr_cat<int,int>
_TEXT	ENDS
; Function compile flags: /Ogtpy
;	COMDAT ??$_Uninitialized_move@PAHPAHU?$_Wrap_alloc@V?$allocator@H@std@@@std@@@std@@YAPAHPAH00AAU?$_Wrap_alloc@V?$allocator@H@std@@@0@@Z
_TEXT	SEGMENT
__First$ = 8						; size = 4
__Last$ = 12						; size = 4
__Dest$ = 16						; size = 4
__Al$ = 20						; size = 4
??$_Uninitialized_move@PAHPAHU?$_Wrap_alloc@V?$allocator@H@std@@@std@@@std@@YAPAHPAH00AAU?$_Wrap_alloc@V?$allocator@H@std@@@0@@Z PROC ; std::_Uninitialized_move<int *,int *,std::_Wrap_alloc<std::allocator<int> > >, COMDAT
; File c:\program files (x86)\microsoft visual studio 14.0\vc\include\xmemory
; Line 491
	mov	ecx, DWORD PTR __First$[esp-4]
	mov	eax, DWORD PTR __Last$[esp-4]
	sub	eax, ecx
	sar	eax, 2
	push	esi
	lea	esi, DWORD PTR [eax*4]
	push	esi
	push	ecx
	push	DWORD PTR __Dest$[esp+8]
	call	DWORD PTR __imp__memmove
	add	esp, 12					; 0000000cH
	add	eax, esi
	pop	esi
; Line 494
	ret	0
??$_Uninitialized_move@PAHPAHU?$_Wrap_alloc@V?$allocator@H@std@@@std@@@std@@YAPAHPAH00AAU?$_Wrap_alloc@V?$allocator@H@std@@@0@@Z ENDP ; std::_Uninitialized_move<int *,int *,std::_Wrap_alloc<std::allocator<int> > >
_TEXT	ENDS
; Function compile flags: /Ogtpy
;	COMDAT ??$_Destroy_range@U?$_Wrap_alloc@V?$allocator@Vplain_particle@@@std@@@std@@@std@@YAXPAVplain_particle@@0AAU?$_Wrap_alloc@V?$allocator@Vplain_particle@@@std@@@0@U_Nonscalar_ptr_iterator_tag@0@@Z
_TEXT	SEGMENT
__First$ = 8						; size = 4
__Last$ = 12						; size = 4
__Al$ = 16						; size = 4
___formal$ = 20						; size = 1
??$_Destroy_range@U?$_Wrap_alloc@V?$allocator@Vplain_particle@@@std@@@std@@@std@@YAXPAVplain_particle@@0AAU?$_Wrap_alloc@V?$allocator@Vplain_particle@@@std@@@0@U_Nonscalar_ptr_iterator_tag@0@@Z PROC ; std::_Destroy_range<std::_Wrap_alloc<std::allocator<plain_particle> > >, COMDAT
; File c:\program files (x86)\microsoft visual studio 14.0\vc\include\xmemory0
; Line 173
	ret	0
??$_Destroy_range@U?$_Wrap_alloc@V?$allocator@Vplain_particle@@@std@@@std@@@std@@YAXPAVplain_particle@@0AAU?$_Wrap_alloc@V?$allocator@Vplain_particle@@@std@@@0@U_Nonscalar_ptr_iterator_tag@0@@Z ENDP ; std::_Destroy_range<std::_Wrap_alloc<std::allocator<plain_particle> > >
_TEXT	ENDS
; Function compile flags: /Ogtpy
;	COMDAT ??$_Ptr_cat@Vplain_particle@@V1@@std@@YA?AU_Nonscalar_ptr_iterator_tag@0@PAVplain_particle@@0@Z
_TEXT	SEGMENT
__Cat$ = -1						; size = 1
___formal$ = 8						; size = 4
___formal$ = 12						; size = 4
??$_Ptr_cat@Vplain_particle@@V1@@std@@YA?AU_Nonscalar_ptr_iterator_tag@0@PAVplain_particle@@0@Z PROC ; std::_Ptr_cat<plain_particle,plain_particle>, COMDAT
; File c:\program files (x86)\microsoft visual studio 14.0\vc\include\xutility
; Line 640
	push	ecx
; Line 642
	mov	al, BYTE PTR __Cat$[esp+4]
; Line 643
	pop	ecx
	ret	0
??$_Ptr_cat@Vplain_particle@@V1@@std@@YA?AU_Nonscalar_ptr_iterator_tag@0@PAVplain_particle@@0@Z ENDP ; std::_Ptr_cat<plain_particle,plain_particle>
_TEXT	ENDS
; Function compile flags: /Ogtpy
;	COMDAT ??$_Uninitialized_move@PAVplain_particle@@PAV1@U?$_Wrap_alloc@V?$allocator@Vplain_particle@@@std@@@std@@@std@@YAPAVplain_particle@@PAV1@00AAU?$_Wrap_alloc@V?$allocator@Vplain_particle@@@std@@@0@@Z
_TEXT	SEGMENT
__First$ = 8						; size = 4
__Last$ = 12						; size = 4
__Cat$1 = 16						; size = 1
__Dest$ = 16						; size = 4
__Al$ = 20						; size = 4
??$_Uninitialized_move@PAVplain_particle@@PAV1@U?$_Wrap_alloc@V?$allocator@Vplain_particle@@@std@@@std@@@std@@YAPAVplain_particle@@PAV1@00AAU?$_Wrap_alloc@V?$allocator@Vplain_particle@@@std@@@0@@Z PROC ; std::_Uninitialized_move<plain_particle *,plain_particle *,std::_Wrap_alloc<std::allocator<plain_particle> > >, COMDAT
; File c:\program files (x86)\microsoft visual studio 14.0\vc\include\xmemory
; Line 491
	push	DWORD PTR __Cat$1[esp-4]
	push	0
	push	DWORD PTR __Al$[esp+4]
	push	DWORD PTR __Dest$[esp+8]
	push	DWORD PTR __Last$[esp+12]
	push	DWORD PTR __First$[esp+16]
	call	??$_Uninit_move@PAVplain_particle@@PAV1@V?$allocator@Vplain_particle@@@std@@V1@@std@@YAPAVplain_particle@@PAV1@00AAU?$_Wrap_alloc@V?$allocator@Vplain_particle@@@std@@@0@0U_Nonscalar_ptr_iterator_tag@0@@Z ; std::_Uninit_move<plain_particle *,plain_particle *,std::allocator<plain_particle>,plain_particle>
	add	esp, 24					; 00000018H
; Line 494
	ret	0
??$_Uninitialized_move@PAVplain_particle@@PAV1@U?$_Wrap_alloc@V?$allocator@Vplain_particle@@@std@@@std@@@std@@YAPAVplain_particle@@PAV1@00AAU?$_Wrap_alloc@V?$allocator@Vplain_particle@@@std@@@0@@Z ENDP ; std::_Uninitialized_move<plain_particle *,plain_particle *,std::_Wrap_alloc<std::allocator<plain_particle> > >
_TEXT	ENDS
; Function compile flags: /Ogtpy
;	COMDAT ??$forward@ABV?$allocator@D@std@@@std@@YAABV?$allocator@D@0@ABV10@@Z
_TEXT	SEGMENT
__Arg$ = 8						; size = 4
??$forward@ABV?$allocator@D@std@@@std@@YAABV?$allocator@D@0@ABV10@@Z PROC ; std::forward<std::allocator<char> const &>, COMDAT
; File c:\program files (x86)\microsoft visual studio 14.0\vc\include\type_traits
; Line 1294
	mov	eax, DWORD PTR __Arg$[esp-4]
; Line 1295
	ret	0
??$forward@ABV?$allocator@D@std@@@std@@YAABV?$allocator@D@0@ABV10@@Z ENDP ; std::forward<std::allocator<char> const &>
_TEXT	ENDS
; Function compile flags: /Ogtpy
;	COMDAT ??$forward@ABV?$allocator@H@std@@@std@@YAABV?$allocator@H@0@ABV10@@Z
_TEXT	SEGMENT
__Arg$ = 8						; size = 4
??$forward@ABV?$allocator@H@std@@@std@@YAABV?$allocator@H@0@ABV10@@Z PROC ; std::forward<std::allocator<int> const &>, COMDAT
; File c:\program files (x86)\microsoft visual studio 14.0\vc\include\type_traits
; Line 1294
	mov	eax, DWORD PTR __Arg$[esp-4]
; Line 1295
	ret	0
??$forward@ABV?$allocator@H@std@@@std@@YAABV?$allocator@H@0@ABV10@@Z ENDP ; std::forward<std::allocator<int> const &>
_TEXT	ENDS
; Function compile flags: /Ogtpy
;	COMDAT ??$forward@ABV?$allocator@Vplain_particle@@@std@@@std@@YAABV?$allocator@Vplain_particle@@@0@ABV10@@Z
_TEXT	SEGMENT
__Arg$ = 8						; size = 4
??$forward@ABV?$allocator@Vplain_particle@@@std@@@std@@YAABV?$allocator@Vplain_particle@@@0@ABV10@@Z PROC ; std::forward<std::allocator<plain_particle> const &>, COMDAT
; File c:\program files (x86)\microsoft visual studio 14.0\vc\include\type_traits
; Line 1294
	mov	eax, DWORD PTR __Arg$[esp-4]
; Line 1295
	ret	0
??$forward@ABV?$allocator@Vplain_particle@@@std@@@std@@YAABV?$allocator@Vplain_particle@@@0@ABV10@@Z ENDP ; std::forward<std::allocator<plain_particle> const &>
_TEXT	ENDS
; Function compile flags: /Ogtpy
;	COMDAT ??$construct@DABD@?$allocator_traits@V?$allocator@D@std@@@std@@SAXAAV?$allocator@D@1@PADABD@Z
_TEXT	SEGMENT
__Al$ = 8						; size = 4
__Ptr$ = 12						; size = 4
_<_Args_0>$ = 16					; size = 4
??$construct@DABD@?$allocator_traits@V?$allocator@D@std@@@std@@SAXAAV?$allocator@D@1@PADABD@Z PROC ; std::allocator_traits<std::allocator<char> >::construct<char,char const &>, COMDAT
; File c:\program files (x86)\microsoft visual studio 14.0\vc\include\xmemory0
; Line 775
	mov	ecx, DWORD PTR __Ptr$[esp-4]
	test	ecx, ecx
	je	SHORT $LN8@construct
	mov	eax, DWORD PTR _<_Args_0>$[esp-4]
	mov	al, BYTE PTR [eax]
	mov	BYTE PTR [ecx], al
$LN8@construct:
; Line 776
	ret	0
??$construct@DABD@?$allocator_traits@V?$allocator@D@std@@@std@@SAXAAV?$allocator@D@1@PADABD@Z ENDP ; std::allocator_traits<std::allocator<char> >::construct<char,char const &>
_TEXT	ENDS
; Function compile flags: /Ogtpy
;	COMDAT ??$forward@ABD@std@@YAABDABD@Z
_TEXT	SEGMENT
__Arg$ = 8						; size = 4
??$forward@ABD@std@@YAABDABD@Z PROC			; std::forward<char const &>, COMDAT
; File c:\program files (x86)\microsoft visual studio 14.0\vc\include\type_traits
; Line 1294
	mov	eax, DWORD PTR __Arg$[esp-4]
; Line 1295
	ret	0
??$forward@ABD@std@@YAABDABD@Z ENDP			; std::forward<char const &>
_TEXT	ENDS
; Function compile flags: /Ogtpy
;	COMDAT ??$construct@DAAD@?$allocator_traits@V?$allocator@D@std@@@std@@SAXAAV?$allocator@D@1@PADAAD@Z
_TEXT	SEGMENT
__Al$ = 8						; size = 4
__Ptr$ = 12						; size = 4
_<_Args_0>$ = 16					; size = 4
??$construct@DAAD@?$allocator_traits@V?$allocator@D@std@@@std@@SAXAAV?$allocator@D@1@PADAAD@Z PROC ; std::allocator_traits<std::allocator<char> >::construct<char,char &>, COMDAT
; File c:\program files (x86)\microsoft visual studio 14.0\vc\include\xmemory0
; Line 775
	mov	ecx, DWORD PTR __Ptr$[esp-4]
	test	ecx, ecx
	je	SHORT $LN8@construct
	mov	eax, DWORD PTR _<_Args_0>$[esp-4]
	mov	al, BYTE PTR [eax]
	mov	BYTE PTR [ecx], al
$LN8@construct:
; Line 776
	ret	0
??$construct@DAAD@?$allocator_traits@V?$allocator@D@std@@@std@@SAXAAV?$allocator@D@1@PADAAD@Z ENDP ; std::allocator_traits<std::allocator<char> >::construct<char,char &>
_TEXT	ENDS
; Function compile flags: /Ogtpy
;	COMDAT ??$forward@AAD@std@@YAAADAAD@Z
_TEXT	SEGMENT
__Arg$ = 8						; size = 4
??$forward@AAD@std@@YAAADAAD@Z PROC			; std::forward<char &>, COMDAT
; File c:\program files (x86)\microsoft visual studio 14.0\vc\include\type_traits
; Line 1294
	mov	eax, DWORD PTR __Arg$[esp-4]
; Line 1295
	ret	0
??$forward@AAD@std@@YAAADAAD@Z ENDP			; std::forward<char &>
_TEXT	ENDS
; Function compile flags: /Ogtpy
;	COMDAT ??$_Addressof@$$CBD@std@@YAPBDABDU?$integral_constant@_N$0A@@0@@Z
_TEXT	SEGMENT
__Val$ = 8						; size = 4
___formal$ = 12						; size = 1
??$_Addressof@$$CBD@std@@YAPBDABDU?$integral_constant@_N$0A@@0@@Z PROC ; std::_Addressof<char const >, COMDAT
; File c:\program files (x86)\microsoft visual studio 14.0\vc\include\xstddef
; Line 692
	mov	eax, DWORD PTR __Val$[esp-4]
; Line 695
	ret	0
??$_Addressof@$$CBD@std@@YAPBDABDU?$integral_constant@_N$0A@@0@@Z ENDP ; std::_Addressof<char const >
_TEXT	ENDS
; Function compile flags: /Ogtpy
;	COMDAT ??$construct@HABH@?$allocator_traits@V?$allocator@H@std@@@std@@SAXAAV?$allocator@H@1@PAHABH@Z
_TEXT	SEGMENT
__Al$ = 8						; size = 4
__Ptr$ = 12						; size = 4
_<_Args_0>$ = 16					; size = 4
??$construct@HABH@?$allocator_traits@V?$allocator@H@std@@@std@@SAXAAV?$allocator@H@1@PAHABH@Z PROC ; std::allocator_traits<std::allocator<int> >::construct<int,int const &>, COMDAT
; File c:\program files (x86)\microsoft visual studio 14.0\vc\include\xmemory0
; Line 775
	mov	ecx, DWORD PTR __Ptr$[esp-4]
	test	ecx, ecx
	je	SHORT $LN8@construct
	mov	eax, DWORD PTR _<_Args_0>$[esp-4]
	mov	eax, DWORD PTR [eax]
	mov	DWORD PTR [ecx], eax
$LN8@construct:
; Line 776
	ret	0
??$construct@HABH@?$allocator_traits@V?$allocator@H@std@@@std@@SAXAAV?$allocator@H@1@PAHABH@Z ENDP ; std::allocator_traits<std::allocator<int> >::construct<int,int const &>
_TEXT	ENDS
; Function compile flags: /Ogtpy
;	COMDAT ??$forward@ABH@std@@YAABHABH@Z
_TEXT	SEGMENT
__Arg$ = 8						; size = 4
??$forward@ABH@std@@YAABHABH@Z PROC			; std::forward<int const &>, COMDAT
; File c:\program files (x86)\microsoft visual studio 14.0\vc\include\type_traits
; Line 1294
	mov	eax, DWORD PTR __Arg$[esp-4]
; Line 1295
	ret	0
??$forward@ABH@std@@YAABHABH@Z ENDP			; std::forward<int const &>
_TEXT	ENDS
; Function compile flags: /Ogtpy
;	COMDAT ??$construct@HAAH@?$allocator_traits@V?$allocator@H@std@@@std@@SAXAAV?$allocator@H@1@PAHAAH@Z
_TEXT	SEGMENT
__Al$ = 8						; size = 4
__Ptr$ = 12						; size = 4
_<_Args_0>$ = 16					; size = 4
??$construct@HAAH@?$allocator_traits@V?$allocator@H@std@@@std@@SAXAAV?$allocator@H@1@PAHAAH@Z PROC ; std::allocator_traits<std::allocator<int> >::construct<int,int &>, COMDAT
; File c:\program files (x86)\microsoft visual studio 14.0\vc\include\xmemory0
; Line 775
	mov	ecx, DWORD PTR __Ptr$[esp-4]
	test	ecx, ecx
	je	SHORT $LN8@construct
	mov	eax, DWORD PTR _<_Args_0>$[esp-4]
	mov	eax, DWORD PTR [eax]
	mov	DWORD PTR [ecx], eax
$LN8@construct:
; Line 776
	ret	0
??$construct@HAAH@?$allocator_traits@V?$allocator@H@std@@@std@@SAXAAV?$allocator@H@1@PAHAAH@Z ENDP ; std::allocator_traits<std::allocator<int> >::construct<int,int &>
_TEXT	ENDS
; Function compile flags: /Ogtpy
;	COMDAT ??$forward@AAH@std@@YAAAHAAH@Z
_TEXT	SEGMENT
__Arg$ = 8						; size = 4
??$forward@AAH@std@@YAAAHAAH@Z PROC			; std::forward<int &>, COMDAT
; File c:\program files (x86)\microsoft visual studio 14.0\vc\include\type_traits
; Line 1294
	mov	eax, DWORD PTR __Arg$[esp-4]
; Line 1295
	ret	0
??$forward@AAH@std@@YAAAHAAH@Z ENDP			; std::forward<int &>
_TEXT	ENDS
; Function compile flags: /Ogtpy
;	COMDAT ??$_Addressof@$$CBH@std@@YAPBHABHU?$integral_constant@_N$0A@@0@@Z
_TEXT	SEGMENT
__Val$ = 8						; size = 4
___formal$ = 12						; size = 1
??$_Addressof@$$CBH@std@@YAPBHABHU?$integral_constant@_N$0A@@0@@Z PROC ; std::_Addressof<int const >, COMDAT
; File c:\program files (x86)\microsoft visual studio 14.0\vc\include\xstddef
; Line 692
	mov	eax, DWORD PTR __Val$[esp-4]
; Line 695
	ret	0
??$_Addressof@$$CBH@std@@YAPBHABHU?$integral_constant@_N$0A@@0@@Z ENDP ; std::_Addressof<int const >
_TEXT	ENDS
; Function compile flags: /Ogtpy
;	COMDAT ??$construct@Vplain_particle@@V1@@?$allocator_traits@V?$allocator@Vplain_particle@@@std@@@std@@SAXAAV?$allocator@Vplain_particle@@@1@PAVplain_particle@@$$QAV3@@Z
_TEXT	SEGMENT
__Al$ = 8						; size = 4
__Ptr$ = 12						; size = 4
_<_Args_0>$ = 16					; size = 4
??$construct@Vplain_particle@@V1@@?$allocator_traits@V?$allocator@Vplain_particle@@@std@@@std@@SAXAAV?$allocator@Vplain_particle@@@1@PAVplain_particle@@$$QAV3@@Z PROC ; std::allocator_traits<std::allocator<plain_particle> >::construct<plain_particle,plain_particle>, COMDAT
; File c:\program files (x86)\microsoft visual studio 14.0\vc\include\xmemory0
; Line 775
	mov	ecx, DWORD PTR __Ptr$[esp-4]
	test	ecx, ecx
	je	SHORT $LN8@construct
	mov	eax, DWORD PTR _<_Args_0>$[esp-4]
	movups	xmm0, XMMWORD PTR [eax]
	movups	XMMWORD PTR [ecx], xmm0
	mov	eax, DWORD PTR [eax+16]
	mov	DWORD PTR [ecx+16], eax
$LN8@construct:
; Line 776
	ret	0
??$construct@Vplain_particle@@V1@@?$allocator_traits@V?$allocator@Vplain_particle@@@std@@@std@@SAXAAV?$allocator@Vplain_particle@@@1@PAVplain_particle@@$$QAV3@@Z ENDP ; std::allocator_traits<std::allocator<plain_particle> >::construct<plain_particle,plain_particle>
_TEXT	ENDS
; Function compile flags: /Ogtpy
;	COMDAT ??$_Addressof@Vplain_particle@@@std@@YAPAVplain_particle@@AAV1@U?$integral_constant@_N$0A@@0@@Z
_TEXT	SEGMENT
__Val$ = 8						; size = 4
___formal$ = 12						; size = 1
??$_Addressof@Vplain_particle@@@std@@YAPAVplain_particle@@AAV1@U?$integral_constant@_N$0A@@0@@Z PROC ; std::_Addressof<plain_particle>, COMDAT
; File c:\program files (x86)\microsoft visual studio 14.0\vc\include\xstddef
; Line 692
	mov	eax, DWORD PTR __Val$[esp-4]
; Line 695
	ret	0
??$_Addressof@Vplain_particle@@@std@@YAPAVplain_particle@@AAV1@U?$integral_constant@_N$0A@@0@@Z ENDP ; std::_Addressof<plain_particle>
_TEXT	ENDS
; Function compile flags: /Ogtpy
;	COMDAT ??$measure@V<lambda_4c02ba5ef62215ee51f4e58ccd3418c3>@@@@YANV<lambda_4c02ba5ef62215ee51f4e58ccd3418c3>@@@Z
_TEXT	SEGMENT
_runs$1$ = -140						; size = 4
_i$1$ = -136						; size = 4
$T1 = -136						; size = 1
__Val$2 = -136						; size = 8
tv833 = -128						; size = 8
_tmp$3 = -116						; size = 12
$T4 = -104						; size = 8
$T5 = -96						; size = 8
_trials$ = -88						; size = 80
__$ArrayPad$ = -4					; size = 4
_f$ = 8							; size = 16
??$measure@V<lambda_4c02ba5ef62215ee51f4e58ccd3418c3>@@@@YANV<lambda_4c02ba5ef62215ee51f4e58ccd3418c3>@@@Z PROC ; measure<<lambda_4c02ba5ef62215ee51f4e58ccd3418c3> >, COMDAT
; File c:\users\manu343726\documents\joaquin-dod\dod_perf.cpp
; Line 18
	push	ebp
	mov	ebp, esp
	and	esp, -8					; fffffff8H
	sub	esp, 140				; 0000008cH
	mov	eax, DWORD PTR ___security_cookie
	xor	eax, esp
	mov	DWORD PTR __$ArrayPad$[esp+140], eax
; Line 22
	mov	eax, DWORD PTR fs:__tls_array
	mov	ecx, DWORD PTR __tls_index
	push	ebx
	push	esi
	push	edi
	mov	ecx, DWORD PTR [eax+ecx*4]
	mov	eax, DWORD PTR ?$TSS0@?1???$measure@V<lambda_4c02ba5ef62215ee51f4e58ccd3418c3>@@@@YANV<lambda_4c02ba5ef62215ee51f4e58ccd3418c3>@@@Z@4HA ; TSS0<`template-parameter-2',V<lambda_4c02ba5ef62215ee51f4e58ccd3418c3>::asure>
	cmp	eax, DWORD PTR __Init_thread_epoch[ecx]
	jle	SHORT $LN2@measure
	push	OFFSET ?$TSS0@?1???$measure@V<lambda_4c02ba5ef62215ee51f4e58ccd3418c3>@@@@YANV<lambda_4c02ba5ef62215ee51f4e58ccd3418c3>@@@Z@4HA ; TSS0<`template-parameter-2',V<lambda_4c02ba5ef62215ee51f4e58ccd3418c3>::asure>
	call	__Init_thread_header
	add	esp, 4
	cmp	DWORD PTR ?$TSS0@?1???$measure@V<lambda_4c02ba5ef62215ee51f4e58ccd3418c3>@@@@YANV<lambda_4c02ba5ef62215ee51f4e58ccd3418c3>@@@Z@4HA, -1 ; TSS0<`template-parameter-2',V<lambda_4c02ba5ef62215ee51f4e58ccd3418c3>::asure>
	jne	SHORT $LN2@measure
	push	OFFSET ?$TSS0@?1???$measure@V<lambda_4c02ba5ef62215ee51f4e58ccd3418c3>@@@@YANV<lambda_4c02ba5ef62215ee51f4e58ccd3418c3>@@@Z@4HA ; TSS0<`template-parameter-2',V<lambda_4c02ba5ef62215ee51f4e58ccd3418c3>::asure>
	mov	DWORD PTR ?min_time_per_trial@?1???$measure@V<lambda_4c02ba5ef62215ee51f4e58ccd3418c3>@@@@YANV<lambda_4c02ba5ef62215ee51f4e58ccd3418c3>@@@Z@4V?$duration@_JU?$ratio@$00$0DOI@@std@@@chrono@std@@B, 200 ; 000000c8H
	mov	DWORD PTR ?min_time_per_trial@?1???$measure@V<lambda_4c02ba5ef62215ee51f4e58ccd3418c3>@@@@YANV<lambda_4c02ba5ef62215ee51f4e58ccd3418c3>@@@Z@4V?$duration@_JU?$ratio@$00$0DOI@@std@@@chrono@std@@B+4, 0
	call	__Init_thread_footer
	add	esp, 4
$LN2@measure:
; Line 26
	xor	edx, edx
	mov	DWORD PTR _i$1$[esp+152], 0
	mov	ecx, 1000000000				; 3b9aca00H
	call	__ltod3
	movsd	QWORD PTR tv833[esp+152], xmm0
	npad	6
$LL5@measure:
; Line 27
	xor	eax, eax
	mov	DWORD PTR _runs$1$[esp+152], eax
; Line 30
	lea	eax, DWORD PTR $T4[esp+152]
	push	eax
	call	?now@steady_clock@chrono@std@@SA?AV?$time_point@Usteady_clock@chrono@std@@V?$duration@_JU?$ratio@$00$0DLJKMKAA@@std@@@23@@23@XZ ; std::chrono::steady_clock::now
	add	esp, 4
	mov	ecx, DWORD PTR [eax]
	mov	DWORD PTR ?measure_start@@3V?$time_point@Usteady_clock@chrono@std@@V?$duration@_JU?$ratio@$00$0DLJKMKAA@@std@@@23@@chrono@std@@A, ecx
	mov	eax, DWORD PTR [eax+4]
	mov	DWORD PTR ?measure_start@@3V?$time_point@Usteady_clock@chrono@std@@V?$duration@_JU?$ratio@$00$0DLJKMKAA@@std@@@23@@chrono@std@@A+4, eax
$LL8@measure:
; Line 32
	mov	ebx, DWORD PTR _f$[ebp+12]
	xor	edi, edi
	xor	esi, esi
	mov	DWORD PTR ?render_output@@3HA, edi
	test	ebx, ebx
	je	SHORT $LN24@measure
	movq	xmm0, QWORD PTR _f$[ebp]
	npad	7
$LL25@measure:
	mov	edx, DWORD PTR _f$[ebp+8]
	lea	eax, DWORD PTR [esi*4]
	add	edx, eax
	movq	QWORD PTR _tmp$3[esp+152], xmm0
	mov	ecx, DWORD PTR _tmp$3[esp+156]
	add	ecx, eax
	mov	eax, DWORD PTR _f$[ebp]
	movsx	eax, BYTE PTR [eax+esi]
	inc	esi
	add	eax, DWORD PTR [edx]
	add	eax, DWORD PTR [ecx]
	add	edi, eax
	cmp	esi, ebx
	jb	SHORT $LL25@measure
	mov	DWORD PTR ?render_output@@3HA, edi
$LN24@measure:
; Line 33
	inc	DWORD PTR _runs$1$[esp+152]
; Line 34
	lea	eax, DWORD PTR $T5[esp+152]
	push	eax
	mov	DWORD PTR ?res@?1???$measure@V<lambda_4c02ba5ef62215ee51f4e58ccd3418c3>@@@@YANV<lambda_4c02ba5ef62215ee51f4e58ccd3418c3>@@@Z@4HA, edi ; `measure<<lambda_4c02ba5ef62215ee51f4e58ccd3418c3> >'::`2'::res
	call	?now@steady_clock@chrono@std@@SA?AV?$time_point@Usteady_clock@chrono@std@@V?$duration@_JU?$ratio@$00$0DLJKMKAA@@std@@@23@@23@XZ ; std::chrono::steady_clock::now
	add	esp, 4
	mov	ebx, eax
; Line 35
	mov	edi, DWORD PTR [ebx]
	mov	esi, DWORD PTR [ebx+4]
	push	0
	push	1000000					; 000f4240H
	push	DWORD PTR ?min_time_per_trial@?1???$measure@V<lambda_4c02ba5ef62215ee51f4e58ccd3418c3>@@@@YANV<lambda_4c02ba5ef62215ee51f4e58ccd3418c3>@@@Z@4V?$duration@_JU?$ratio@$00$0DOI@@std@@@chrono@std@@B+4
	push	DWORD PTR ?min_time_per_trial@?1???$measure@V<lambda_4c02ba5ef62215ee51f4e58ccd3418c3>@@@@YANV<lambda_4c02ba5ef62215ee51f4e58ccd3418c3>@@@Z@4V?$duration@_JU?$ratio@$00$0DOI@@std@@@chrono@std@@B
	call	__allmul
	sub	edi, DWORD PTR ?measure_start@@3V?$time_point@Usteady_clock@chrono@std@@V?$duration@_JU?$ratio@$00$0DLJKMKAA@@std@@@23@@chrono@std@@A
	sbb	esi, DWORD PTR ?measure_start@@3V?$time_point@Usteady_clock@chrono@std@@V?$duration@_JU?$ratio@$00$0DLJKMKAA@@std@@@23@@chrono@std@@A+4
	cmp	esi, edx
	jl	$LL8@measure
	jg	SHORT $LN293@measure
	cmp	edi, eax
	jb	$LL8@measure
$LN293@measure:
; Line 36
	mov	ecx, DWORD PTR [ebx]
	sub	ecx, DWORD PTR ?measure_start@@3V?$time_point@Usteady_clock@chrono@std@@V?$duration@_JU?$ratio@$00$0DLJKMKAA@@std@@@23@@chrono@std@@A
	mov	edx, DWORD PTR [ebx+4]
	sbb	edx, DWORD PTR ?measure_start@@3V?$time_point@Usteady_clock@chrono@std@@V?$duration@_JU?$ratio@$00$0DLJKMKAA@@std@@@23@@chrono@std@@A+4
	call	__ltod3
	divsd	xmm0, QWORD PTR tv833[esp+152]
	mov	eax, DWORD PTR _runs$1$[esp+152]
	mov	ebx, DWORD PTR _i$1$[esp+152]
	movd	xmm1, eax
	cvtdq2pd xmm1, xmm1
	divsd	xmm0, xmm1
	movsd	QWORD PTR _trials$[esp+ebx*8+152], xmm0
	inc	ebx
	mov	DWORD PTR _i$1$[esp+152], ebx
	cmp	ebx, 10					; 0000000aH
	jl	$LL5@measure
; Line 40
	push	DWORD PTR $T1[esp+152]
	lea	eax, DWORD PTR _trials$[esp+236]
	push	10					; 0000000aH
	push	eax
	lea	eax, DWORD PTR _trials$[esp+164]
	push	eax
	call	??$_Sort@PANHU?$less@X@std@@@std@@YAXPAN0HU?$less@X@0@@Z ; std::_Sort<double *,int,std::less<void> >
	lea	esi, DWORD PTR _trials$[esp+184]
	add	esp, 16					; 00000010H
; Line 41
	lea	edi, DWORD PTR _trials$[esp+216]
	mov	ecx, esi
	mov	edx, edi
	xor	eax, eax
	sub	edx, ecx
	xorps	xmm1, xmm1
	add	edx, 7
	movsd	QWORD PTR __Val$2[esp+152], xmm1
	xor	ecx, ecx
	shr	edx, 3
	cmp	esi, edi
	cmova	edx, ecx
	mov	ecx, esi
	test	edx, edx
	je	SHORT $LN267@measure
$LL282@measure:
	addsd	xmm1, QWORD PTR [ecx]
	inc	eax
	add	ecx, 8
	cmp	eax, edx
	jne	SHORT $LL282@measure
	movsd	QWORD PTR __Val$2[esp+152], xmm1
$LN267@measure:
; Line 43
	mov	ecx, DWORD PTR __$ArrayPad$[esp+152]
	fld	QWORD PTR __Val$2[esp+152]
	fdiv	QWORD PTR __real@4018000000000000
	pop	edi
	pop	esi
	pop	ebx
	xor	ecx, esp
	call	@__security_check_cookie@4
	mov	esp, ebp
	pop	ebp
	ret	0
??$measure@V<lambda_4c02ba5ef62215ee51f4e58ccd3418c3>@@@@YANV<lambda_4c02ba5ef62215ee51f4e58ccd3418c3>@@@Z ENDP ; measure<<lambda_4c02ba5ef62215ee51f4e58ccd3418c3> >
_TEXT	ENDS
; Function compile flags: /Ogtpy
;	COMDAT ??$measure@V<lambda_668201fb256ca3039b30842ebf04ef83>@@@@YANV<lambda_668201fb256ca3039b30842ebf04ef83>@@@Z
_TEXT	SEGMENT
_runs$1$ = -140						; size = 4
_i$1$ = -136						; size = 4
$T1 = -136						; size = 1
__Val$2 = -136						; size = 8
tv869 = -128						; size = 8
_tmp$3 = -120						; size = 20
$T4 = -100						; size = 8
$T5 = -92						; size = 8
_trials$ = -84						; size = 80
__$ArrayPad$ = -4					; size = 4
_f$ = 8							; size = 24
??$measure@V<lambda_668201fb256ca3039b30842ebf04ef83>@@@@YANV<lambda_668201fb256ca3039b30842ebf04ef83>@@@Z PROC ; measure<<lambda_668201fb256ca3039b30842ebf04ef83> >, COMDAT
; File c:\users\manu343726\documents\joaquin-dod\dod_perf.cpp
; Line 18
	sub	esp, 140				; 0000008cH
	mov	eax, DWORD PTR ___security_cookie
	xor	eax, esp
	mov	DWORD PTR __$ArrayPad$[esp+140], eax
; Line 22
	mov	eax, DWORD PTR fs:__tls_array
	mov	ecx, DWORD PTR __tls_index
	mov	ecx, DWORD PTR [eax+ecx*4]
	mov	eax, DWORD PTR ?$TSS0@?1???$measure@V<lambda_668201fb256ca3039b30842ebf04ef83>@@@@YANV<lambda_668201fb256ca3039b30842ebf04ef83>@@@Z@4HA ; TSS0<`template-parameter-2',V<lambda_668201fb256ca3039b30842ebf04ef83>::asure>
	cmp	eax, DWORD PTR __Init_thread_epoch[ecx]
	jle	SHORT $LN2@measure
	push	OFFSET ?$TSS0@?1???$measure@V<lambda_668201fb256ca3039b30842ebf04ef83>@@@@YANV<lambda_668201fb256ca3039b30842ebf04ef83>@@@Z@4HA ; TSS0<`template-parameter-2',V<lambda_668201fb256ca3039b30842ebf04ef83>::asure>
	call	__Init_thread_header
	add	esp, 4
	cmp	DWORD PTR ?$TSS0@?1???$measure@V<lambda_668201fb256ca3039b30842ebf04ef83>@@@@YANV<lambda_668201fb256ca3039b30842ebf04ef83>@@@Z@4HA, -1 ; TSS0<`template-parameter-2',V<lambda_668201fb256ca3039b30842ebf04ef83>::asure>
	jne	SHORT $LN2@measure
	push	OFFSET ?$TSS0@?1???$measure@V<lambda_668201fb256ca3039b30842ebf04ef83>@@@@YANV<lambda_668201fb256ca3039b30842ebf04ef83>@@@Z@4HA ; TSS0<`template-parameter-2',V<lambda_668201fb256ca3039b30842ebf04ef83>::asure>
	mov	DWORD PTR ?min_time_per_trial@?1???$measure@V<lambda_668201fb256ca3039b30842ebf04ef83>@@@@YANV<lambda_668201fb256ca3039b30842ebf04ef83>@@@Z@4V?$duration@_JU?$ratio@$00$0DOI@@std@@@chrono@std@@B, 200 ; 000000c8H
	mov	DWORD PTR ?min_time_per_trial@?1???$measure@V<lambda_668201fb256ca3039b30842ebf04ef83>@@@@YANV<lambda_668201fb256ca3039b30842ebf04ef83>@@@Z@4V?$duration@_JU?$ratio@$00$0DOI@@std@@@chrono@std@@B+4, 0
	call	__Init_thread_footer
	add	esp, 4
$LN2@measure:
; Line 26
	xor	edx, edx
	mov	DWORD PTR _i$1$[esp+140], 0
	mov	ecx, 1000000000				; 3b9aca00H
	call	__ltod3
	push	ebx
	push	ebp
	push	esi
	movsd	QWORD PTR tv869[esp+152], xmm0
	push	edi
$LL5@measure:
; Line 27
	xor	eax, eax
	mov	DWORD PTR _runs$1$[esp+156], eax
; Line 30
	lea	eax, DWORD PTR $T4[esp+156]
	push	eax
	call	?now@steady_clock@chrono@std@@SA?AV?$time_point@Usteady_clock@chrono@std@@V?$duration@_JU?$ratio@$00$0DLJKMKAA@@std@@@23@@23@XZ ; std::chrono::steady_clock::now
	add	esp, 4
	mov	ecx, DWORD PTR [eax]
	mov	DWORD PTR ?measure_start@@3V?$time_point@Usteady_clock@chrono@std@@V?$duration@_JU?$ratio@$00$0DLJKMKAA@@std@@@23@@chrono@std@@A, ecx
	mov	eax, DWORD PTR [eax+4]
	mov	DWORD PTR ?measure_start@@3V?$time_point@Usteady_clock@chrono@std@@V?$duration@_JU?$ratio@$00$0DLJKMKAA@@std@@@23@@chrono@std@@A+4, eax
	npad	8
$LL8@measure:
; Line 32
	mov	ebx, DWORD PTR _f$[esp+172]
	xor	edi, edi
	xor	esi, esi
	mov	DWORD PTR ?render_output@@3HA, edi
	test	ebx, ebx
	je	SHORT $LN24@measure
	movups	xmm0, XMMWORD PTR _f$[esp+152]
	npad	3
$LL25@measure:
	lea	ecx, DWORD PTR [esi*4]
	movups	XMMWORD PTR _tmp$3[esp+156], xmm0
	mov	edx, DWORD PTR _tmp$3[esp+160]
	mov	eax, DWORD PTR _tmp$3[esp+164]
	add	edx, ecx
	add	eax, ecx
	mov	ecx, DWORD PTR _f$[esp+152]
	movsx	ecx, BYTE PTR [ecx+esi]
	inc	esi
	add	ecx, DWORD PTR [eax]
	add	ecx, DWORD PTR [edx]
	add	edi, ecx
	cmp	esi, ebx
	jb	SHORT $LL25@measure
	mov	DWORD PTR ?render_output@@3HA, edi
$LN24@measure:
; Line 33
	inc	DWORD PTR _runs$1$[esp+156]
; Line 34
	lea	eax, DWORD PTR $T5[esp+156]
	push	eax
	mov	DWORD PTR ?res@?1???$measure@V<lambda_668201fb256ca3039b30842ebf04ef83>@@@@YANV<lambda_668201fb256ca3039b30842ebf04ef83>@@@Z@4HA, edi ; `measure<<lambda_668201fb256ca3039b30842ebf04ef83> >'::`2'::res
	call	?now@steady_clock@chrono@std@@SA?AV?$time_point@Usteady_clock@chrono@std@@V?$duration@_JU?$ratio@$00$0DLJKMKAA@@std@@@23@@23@XZ ; std::chrono::steady_clock::now
	add	esp, 4
	mov	ebx, eax
; Line 35
	mov	edi, DWORD PTR [ebx]
	mov	esi, DWORD PTR [ebx+4]
	push	0
	push	1000000					; 000f4240H
	push	DWORD PTR ?min_time_per_trial@?1???$measure@V<lambda_668201fb256ca3039b30842ebf04ef83>@@@@YANV<lambda_668201fb256ca3039b30842ebf04ef83>@@@Z@4V?$duration@_JU?$ratio@$00$0DOI@@std@@@chrono@std@@B+4
	push	DWORD PTR ?min_time_per_trial@?1???$measure@V<lambda_668201fb256ca3039b30842ebf04ef83>@@@@YANV<lambda_668201fb256ca3039b30842ebf04ef83>@@@Z@4V?$duration@_JU?$ratio@$00$0DOI@@std@@@chrono@std@@B
	call	__allmul
	mov	ebp, DWORD PTR ?measure_start@@3V?$time_point@Usteady_clock@chrono@std@@V?$duration@_JU?$ratio@$00$0DLJKMKAA@@std@@@23@@chrono@std@@A
	sub	edi, ebp
	sbb	esi, DWORD PTR ?measure_start@@3V?$time_point@Usteady_clock@chrono@std@@V?$duration@_JU?$ratio@$00$0DLJKMKAA@@std@@@23@@chrono@std@@A+4
	cmp	esi, edx
	jl	$LL8@measure
	jg	SHORT $LN301@measure
	cmp	edi, eax
	jb	$LL8@measure
$LN301@measure:
; Line 36
	mov	ecx, DWORD PTR [ebx]
	mov	edx, DWORD PTR [ebx+4]
	sub	ecx, ebp
	sbb	edx, DWORD PTR ?measure_start@@3V?$time_point@Usteady_clock@chrono@std@@V?$duration@_JU?$ratio@$00$0DLJKMKAA@@std@@@23@@chrono@std@@A+4
	call	__ltod3
	divsd	xmm0, QWORD PTR tv869[esp+156]
	mov	eax, DWORD PTR _runs$1$[esp+156]
	mov	ebx, DWORD PTR _i$1$[esp+156]
	movd	xmm1, eax
	cvtdq2pd xmm1, xmm1
	divsd	xmm0, xmm1
	movsd	QWORD PTR _trials$[esp+ebx*8+156], xmm0
	inc	ebx
	mov	DWORD PTR _i$1$[esp+156], ebx
	cmp	ebx, 10					; 0000000aH
	jl	$LL5@measure
; Line 40
	push	DWORD PTR $T1[esp+156]
	lea	eax, DWORD PTR _trials$[esp+240]
	push	10					; 0000000aH
	push	eax
	lea	eax, DWORD PTR _trials$[esp+168]
	push	eax
	call	??$_Sort@PANHU?$less@X@std@@@std@@YAXPAN0HU?$less@X@0@@Z ; std::_Sort<double *,int,std::less<void> >
	lea	esi, DWORD PTR _trials$[esp+188]
	add	esp, 16					; 00000010H
; Line 41
	lea	edi, DWORD PTR _trials$[esp+220]
	mov	ecx, esi
	mov	edx, edi
	xor	eax, eax
	sub	edx, ecx
	xorps	xmm1, xmm1
	add	edx, 7
	movsd	QWORD PTR __Val$2[esp+156], xmm1
	xor	ecx, ecx
	shr	edx, 3
	cmp	esi, edi
	pop	edi
	cmova	edx, ecx
	mov	ecx, esi
	pop	esi
	pop	ebp
	pop	ebx
	test	edx, edx
	je	SHORT $LN275@measure
$LL290@measure:
	addsd	xmm1, QWORD PTR [ecx]
	inc	eax
	add	ecx, 8
	cmp	eax, edx
	jne	SHORT $LL290@measure
	movsd	QWORD PTR __Val$2[esp+140], xmm1
$LN275@measure:
; Line 43
	mov	ecx, DWORD PTR __$ArrayPad$[esp+140]
	fld	QWORD PTR __Val$2[esp+140]
	xor	ecx, esp
	fdiv	QWORD PTR __real@4018000000000000
	call	@__security_check_cookie@4
	add	esp, 140				; 0000008cH
	ret	0
??$measure@V<lambda_668201fb256ca3039b30842ebf04ef83>@@@@YANV<lambda_668201fb256ca3039b30842ebf04ef83>@@@Z ENDP ; measure<<lambda_668201fb256ca3039b30842ebf04ef83> >
_TEXT	ENDS
; Function compile flags: /Ogtpy
;	COMDAT ??$measure@V<lambda_a29049cf6153b725a6a331d7121b9876>@@@@YANV<lambda_a29049cf6153b725a6a331d7121b9876>@@@Z
_TEXT	SEGMENT
_runs$1$ = -124						; size = 4
_i$1$ = -120						; size = 4
$T1 = -120						; size = 1
__Val$2 = -120						; size = 8
tv780 = -112						; size = 8
$T3 = -104						; size = 8
$T4 = -96						; size = 8
_trials$ = -88						; size = 80
__$ArrayPad$ = -4					; size = 4
_f$ = 8							; size = 16
??$measure@V<lambda_a29049cf6153b725a6a331d7121b9876>@@@@YANV<lambda_a29049cf6153b725a6a331d7121b9876>@@@Z PROC ; measure<<lambda_a29049cf6153b725a6a331d7121b9876> >, COMDAT
; File c:\users\manu343726\documents\joaquin-dod\dod_perf.cpp
; Line 18
	push	ebp
	mov	ebp, esp
	and	esp, -8					; fffffff8H
	sub	esp, 124				; 0000007cH
	mov	eax, DWORD PTR ___security_cookie
	xor	eax, esp
	mov	DWORD PTR __$ArrayPad$[esp+124], eax
; Line 22
	mov	eax, DWORD PTR fs:__tls_array
	mov	ecx, DWORD PTR __tls_index
	push	ebx
	push	esi
	push	edi
	mov	ecx, DWORD PTR [eax+ecx*4]
	mov	eax, DWORD PTR ?$TSS0@?1???$measure@V<lambda_a29049cf6153b725a6a331d7121b9876>@@@@YANV<lambda_a29049cf6153b725a6a331d7121b9876>@@@Z@4HA ; TSS0<`template-parameter-2',V<lambda_a29049cf6153b725a6a331d7121b9876>::asure>
	cmp	eax, DWORD PTR __Init_thread_epoch[ecx]
	jle	SHORT $LN2@measure
	push	OFFSET ?$TSS0@?1???$measure@V<lambda_a29049cf6153b725a6a331d7121b9876>@@@@YANV<lambda_a29049cf6153b725a6a331d7121b9876>@@@Z@4HA ; TSS0<`template-parameter-2',V<lambda_a29049cf6153b725a6a331d7121b9876>::asure>
	call	__Init_thread_header
	add	esp, 4
	cmp	DWORD PTR ?$TSS0@?1???$measure@V<lambda_a29049cf6153b725a6a331d7121b9876>@@@@YANV<lambda_a29049cf6153b725a6a331d7121b9876>@@@Z@4HA, -1 ; TSS0<`template-parameter-2',V<lambda_a29049cf6153b725a6a331d7121b9876>::asure>
	jne	SHORT $LN2@measure
	push	OFFSET ?$TSS0@?1???$measure@V<lambda_a29049cf6153b725a6a331d7121b9876>@@@@YANV<lambda_a29049cf6153b725a6a331d7121b9876>@@@Z@4HA ; TSS0<`template-parameter-2',V<lambda_a29049cf6153b725a6a331d7121b9876>::asure>
	mov	DWORD PTR ?min_time_per_trial@?1???$measure@V<lambda_a29049cf6153b725a6a331d7121b9876>@@@@YANV<lambda_a29049cf6153b725a6a331d7121b9876>@@@Z@4V?$duration@_JU?$ratio@$00$0DOI@@std@@@chrono@std@@B, 200 ; 000000c8H
	mov	DWORD PTR ?min_time_per_trial@?1???$measure@V<lambda_a29049cf6153b725a6a331d7121b9876>@@@@YANV<lambda_a29049cf6153b725a6a331d7121b9876>@@@Z@4V?$duration@_JU?$ratio@$00$0DOI@@std@@@chrono@std@@B+4, 0
	call	__Init_thread_footer
	add	esp, 4
$LN2@measure:
; Line 26
	xor	edx, edx
	mov	DWORD PTR _i$1$[esp+136], 0
	mov	ecx, 1000000000				; 3b9aca00H
	call	__ltod3
	movsd	QWORD PTR tv780[esp+136], xmm0
$LL5@measure:
; Line 27
	xor	eax, eax
	mov	DWORD PTR _runs$1$[esp+136], eax
; Line 30
	lea	eax, DWORD PTR $T3[esp+136]
	push	eax
	call	?now@steady_clock@chrono@std@@SA?AV?$time_point@Usteady_clock@chrono@std@@V?$duration@_JU?$ratio@$00$0DLJKMKAA@@std@@@23@@23@XZ ; std::chrono::steady_clock::now
	add	esp, 4
	mov	ecx, DWORD PTR [eax]
	mov	DWORD PTR ?measure_start@@3V?$time_point@Usteady_clock@chrono@std@@V?$duration@_JU?$ratio@$00$0DLJKMKAA@@std@@@23@@chrono@std@@A, ecx
	mov	eax, DWORD PTR [eax+4]
	mov	DWORD PTR ?measure_start@@3V?$time_point@Usteady_clock@chrono@std@@V?$duration@_JU?$ratio@$00$0DLJKMKAA@@std@@@23@@chrono@std@@A+4, eax
$LL8@measure:
; Line 32
	mov	ebx, DWORD PTR _f$[ebp+12]
	xor	esi, esi
	xor	edx, edx
	mov	DWORD PTR ?render_output@@3HA, esi
	test	ebx, ebx
	je	SHORT $LN24@measure
	mov	edi, DWORD PTR _f$[ebp+4]
	mov	ecx, DWORD PTR _f$[ebp+8]
	sub	edi, ecx
$LL25@measure:
	mov	eax, DWORD PTR _f$[ebp]
	lea	ecx, DWORD PTR [ecx+4]
	movsx	eax, BYTE PTR [eax+edx]
	inc	edx
	add	eax, DWORD PTR [edi+ecx-4]
	add	eax, DWORD PTR [ecx-4]
	add	esi, eax
	cmp	edx, ebx
	jb	SHORT $LL25@measure
	mov	DWORD PTR ?render_output@@3HA, esi
$LN24@measure:
; Line 33
	inc	DWORD PTR _runs$1$[esp+136]
; Line 34
	lea	eax, DWORD PTR $T4[esp+136]
	push	eax
	mov	DWORD PTR ?res@?1???$measure@V<lambda_a29049cf6153b725a6a331d7121b9876>@@@@YANV<lambda_a29049cf6153b725a6a331d7121b9876>@@@Z@4HA, esi ; `measure<<lambda_a29049cf6153b725a6a331d7121b9876> >'::`2'::res
	call	?now@steady_clock@chrono@std@@SA?AV?$time_point@Usteady_clock@chrono@std@@V?$duration@_JU?$ratio@$00$0DLJKMKAA@@std@@@23@@23@XZ ; std::chrono::steady_clock::now
	add	esp, 4
	mov	ebx, eax
; Line 35
	mov	edi, DWORD PTR [ebx]
	mov	esi, DWORD PTR [ebx+4]
	push	0
	push	1000000					; 000f4240H
	push	DWORD PTR ?min_time_per_trial@?1???$measure@V<lambda_a29049cf6153b725a6a331d7121b9876>@@@@YANV<lambda_a29049cf6153b725a6a331d7121b9876>@@@Z@4V?$duration@_JU?$ratio@$00$0DOI@@std@@@chrono@std@@B+4
	push	DWORD PTR ?min_time_per_trial@?1???$measure@V<lambda_a29049cf6153b725a6a331d7121b9876>@@@@YANV<lambda_a29049cf6153b725a6a331d7121b9876>@@@Z@4V?$duration@_JU?$ratio@$00$0DOI@@std@@@chrono@std@@B
	call	__allmul
	sub	edi, DWORD PTR ?measure_start@@3V?$time_point@Usteady_clock@chrono@std@@V?$duration@_JU?$ratio@$00$0DLJKMKAA@@std@@@23@@chrono@std@@A
	sbb	esi, DWORD PTR ?measure_start@@3V?$time_point@Usteady_clock@chrono@std@@V?$duration@_JU?$ratio@$00$0DLJKMKAA@@std@@@23@@chrono@std@@A+4
	cmp	esi, edx
	jl	SHORT $LL8@measure
	jg	SHORT $LN251@measure
	cmp	edi, eax
	jb	$LL8@measure
$LN251@measure:
; Line 36
	mov	ecx, DWORD PTR [ebx]
	sub	ecx, DWORD PTR ?measure_start@@3V?$time_point@Usteady_clock@chrono@std@@V?$duration@_JU?$ratio@$00$0DLJKMKAA@@std@@@23@@chrono@std@@A
	mov	edx, DWORD PTR [ebx+4]
	sbb	edx, DWORD PTR ?measure_start@@3V?$time_point@Usteady_clock@chrono@std@@V?$duration@_JU?$ratio@$00$0DLJKMKAA@@std@@@23@@chrono@std@@A+4
	call	__ltod3
	divsd	xmm0, QWORD PTR tv780[esp+136]
	mov	eax, DWORD PTR _runs$1$[esp+136]
	mov	ebx, DWORD PTR _i$1$[esp+136]
	movd	xmm1, eax
	cvtdq2pd xmm1, xmm1
	divsd	xmm0, xmm1
	movsd	QWORD PTR _trials$[esp+ebx*8+136], xmm0
	inc	ebx
	mov	DWORD PTR _i$1$[esp+136], ebx
	cmp	ebx, 10					; 0000000aH
	jl	$LL5@measure
; Line 40
	push	DWORD PTR $T1[esp+136]
	lea	eax, DWORD PTR _trials$[esp+220]
	push	10					; 0000000aH
	push	eax
	lea	eax, DWORD PTR _trials$[esp+148]
	push	eax
	call	??$_Sort@PANHU?$less@X@std@@@std@@YAXPAN0HU?$less@X@0@@Z ; std::_Sort<double *,int,std::less<void> >
	lea	esi, DWORD PTR _trials$[esp+168]
	add	esp, 16					; 00000010H
; Line 41
	lea	edi, DWORD PTR _trials$[esp+200]
	mov	ecx, esi
	mov	edx, edi
	xor	eax, eax
	sub	edx, ecx
	xorps	xmm0, xmm0
	add	edx, 7
	movsd	QWORD PTR __Val$2[esp+136], xmm0
	xor	ecx, ecx
	shr	edx, 3
	cmp	esi, edi
	cmova	edx, ecx
	mov	ecx, esi
	test	edx, edx
	je	SHORT $LN225@measure
	npad	7
$LL240@measure:
	addsd	xmm0, QWORD PTR [ecx]
	inc	eax
	add	ecx, 8
	cmp	eax, edx
	jne	SHORT $LL240@measure
	movsd	QWORD PTR __Val$2[esp+136], xmm0
$LN225@measure:
; Line 43
	mov	ecx, DWORD PTR __$ArrayPad$[esp+136]
	fld	QWORD PTR __Val$2[esp+136]
	fdiv	QWORD PTR __real@4018000000000000
	pop	edi
	pop	esi
	pop	ebx
	xor	ecx, esp
	call	@__security_check_cookie@4
	mov	esp, ebp
	pop	ebp
	ret	0
??$measure@V<lambda_a29049cf6153b725a6a331d7121b9876>@@@@YANV<lambda_a29049cf6153b725a6a331d7121b9876>@@@Z ENDP ; measure<<lambda_a29049cf6153b725a6a331d7121b9876> >
_TEXT	ENDS
; Function compile flags: /Ogtpy
;	COMDAT ??$measure@V<lambda_ce14b79be95f650ececed4b3079e7cf8>@@@@YANV<lambda_ce14b79be95f650ececed4b3079e7cf8>@@@Z
_TEXT	SEGMENT
_runs$1$ = -124						; size = 4
_i$1$ = -120						; size = 4
$T1 = -120						; size = 1
__Val$2 = -120						; size = 8
tv772 = -112						; size = 8
$T3 = -104						; size = 8
$T4 = -96						; size = 8
_trials$ = -88						; size = 80
__$ArrayPad$ = -4					; size = 4
_f$ = 8							; size = 8
??$measure@V<lambda_ce14b79be95f650ececed4b3079e7cf8>@@@@YANV<lambda_ce14b79be95f650ececed4b3079e7cf8>@@@Z PROC ; measure<<lambda_ce14b79be95f650ececed4b3079e7cf8> >, COMDAT
; File c:\users\manu343726\documents\joaquin-dod\dod_perf.cpp
; Line 18
	push	ebp
	mov	ebp, esp
	and	esp, -8					; fffffff8H
	sub	esp, 124				; 0000007cH
	mov	eax, DWORD PTR ___security_cookie
	xor	eax, esp
	mov	DWORD PTR __$ArrayPad$[esp+124], eax
; Line 22
	mov	eax, DWORD PTR fs:__tls_array
	mov	ecx, DWORD PTR __tls_index
	push	ebx
	push	esi
	push	edi
	mov	ecx, DWORD PTR [eax+ecx*4]
	mov	eax, DWORD PTR ?$TSS0@?1???$measure@V<lambda_ce14b79be95f650ececed4b3079e7cf8>@@@@YANV<lambda_ce14b79be95f650ececed4b3079e7cf8>@@@Z@4HA ; TSS0<`template-parameter-2',V<lambda_ce14b79be95f650ececed4b3079e7cf8>::asure>
	cmp	eax, DWORD PTR __Init_thread_epoch[ecx]
	jle	SHORT $LN2@measure
	push	OFFSET ?$TSS0@?1???$measure@V<lambda_ce14b79be95f650ececed4b3079e7cf8>@@@@YANV<lambda_ce14b79be95f650ececed4b3079e7cf8>@@@Z@4HA ; TSS0<`template-parameter-2',V<lambda_ce14b79be95f650ececed4b3079e7cf8>::asure>
	call	__Init_thread_header
	add	esp, 4
	cmp	DWORD PTR ?$TSS0@?1???$measure@V<lambda_ce14b79be95f650ececed4b3079e7cf8>@@@@YANV<lambda_ce14b79be95f650ececed4b3079e7cf8>@@@Z@4HA, -1 ; TSS0<`template-parameter-2',V<lambda_ce14b79be95f650ececed4b3079e7cf8>::asure>
	jne	SHORT $LN2@measure
	push	OFFSET ?$TSS0@?1???$measure@V<lambda_ce14b79be95f650ececed4b3079e7cf8>@@@@YANV<lambda_ce14b79be95f650ececed4b3079e7cf8>@@@Z@4HA ; TSS0<`template-parameter-2',V<lambda_ce14b79be95f650ececed4b3079e7cf8>::asure>
	mov	DWORD PTR ?min_time_per_trial@?1???$measure@V<lambda_ce14b79be95f650ececed4b3079e7cf8>@@@@YANV<lambda_ce14b79be95f650ececed4b3079e7cf8>@@@Z@4V?$duration@_JU?$ratio@$00$0DOI@@std@@@chrono@std@@B, 200 ; 000000c8H
	mov	DWORD PTR ?min_time_per_trial@?1???$measure@V<lambda_ce14b79be95f650ececed4b3079e7cf8>@@@@YANV<lambda_ce14b79be95f650ececed4b3079e7cf8>@@@Z@4V?$duration@_JU?$ratio@$00$0DOI@@std@@@chrono@std@@B+4, 0
	call	__Init_thread_footer
	add	esp, 4
$LN2@measure:
; Line 26
	xor	edx, edx
	mov	DWORD PTR _i$1$[esp+136], 0
	mov	ecx, 1000000000				; 3b9aca00H
	call	__ltod3
	movsd	QWORD PTR tv772[esp+136], xmm0
$LL5@measure:
; Line 30
	lea	eax, DWORD PTR $T3[esp+136]
	xor	ebx, ebx
	push	eax
	call	?now@steady_clock@chrono@std@@SA?AV?$time_point@Usteady_clock@chrono@std@@V?$duration@_JU?$ratio@$00$0DLJKMKAA@@std@@@23@@23@XZ ; std::chrono::steady_clock::now
	add	esp, 4
	mov	ecx, DWORD PTR [eax]
	mov	DWORD PTR ?measure_start@@3V?$time_point@Usteady_clock@chrono@std@@V?$duration@_JU?$ratio@$00$0DLJKMKAA@@std@@@23@@chrono@std@@A, ecx
	mov	eax, DWORD PTR [eax+4]
	mov	DWORD PTR ?measure_start@@3V?$time_point@Usteady_clock@chrono@std@@V?$duration@_JU?$ratio@$00$0DLJKMKAA@@std@@@23@@chrono@std@@A+4, eax
	jmp	SHORT $LN8@measure
$LN267@measure:
	mov	ebx, DWORD PTR _runs$1$[esp+136]
$LN8@measure:
; Line 32
	mov	esi, DWORD PTR _f$[ebp+4]
	xor	edx, edx
	mov	DWORD PTR ?render_output@@3HA, edx
	test	esi, esi
	je	SHORT $LN24@measure
	mov	ecx, DWORD PTR _f$[ebp]
	add	ecx, 4
	npad	2
$LL25@measure:
	movsx	eax, BYTE PTR [ecx-4]
	lea	ecx, DWORD PTR [ecx+20]
	add	eax, DWORD PTR [ecx-16]
	add	eax, DWORD PTR [ecx-20]
	add	edx, eax
	sub	esi, 1
	jne	SHORT $LL25@measure
	mov	DWORD PTR ?render_output@@3HA, edx
$LN24@measure:
; Line 34
	lea	eax, DWORD PTR $T4[esp+136]
	mov	DWORD PTR ?res@?1???$measure@V<lambda_ce14b79be95f650ececed4b3079e7cf8>@@@@YANV<lambda_ce14b79be95f650ececed4b3079e7cf8>@@@Z@4HA, edx ; `measure<<lambda_ce14b79be95f650ececed4b3079e7cf8> >'::`2'::res
	inc	ebx
	push	eax
	mov	DWORD PTR _runs$1$[esp+140], ebx
	call	?now@steady_clock@chrono@std@@SA?AV?$time_point@Usteady_clock@chrono@std@@V?$duration@_JU?$ratio@$00$0DLJKMKAA@@std@@@23@@23@XZ ; std::chrono::steady_clock::now
	add	esp, 4
	mov	ebx, eax
; Line 35
	mov	edi, DWORD PTR [ebx]
	mov	esi, DWORD PTR [ebx+4]
	push	0
	push	1000000					; 000f4240H
	push	DWORD PTR ?min_time_per_trial@?1???$measure@V<lambda_ce14b79be95f650ececed4b3079e7cf8>@@@@YANV<lambda_ce14b79be95f650ececed4b3079e7cf8>@@@Z@4V?$duration@_JU?$ratio@$00$0DOI@@std@@@chrono@std@@B+4
	push	DWORD PTR ?min_time_per_trial@?1???$measure@V<lambda_ce14b79be95f650ececed4b3079e7cf8>@@@@YANV<lambda_ce14b79be95f650ececed4b3079e7cf8>@@@Z@4V?$duration@_JU?$ratio@$00$0DOI@@std@@@chrono@std@@B
	call	__allmul
	sub	edi, DWORD PTR ?measure_start@@3V?$time_point@Usteady_clock@chrono@std@@V?$duration@_JU?$ratio@$00$0DLJKMKAA@@std@@@23@@chrono@std@@A
	sbb	esi, DWORD PTR ?measure_start@@3V?$time_point@Usteady_clock@chrono@std@@V?$duration@_JU?$ratio@$00$0DLJKMKAA@@std@@@23@@chrono@std@@A+4
	cmp	esi, edx
	jl	SHORT $LN267@measure
	jg	SHORT $LN265@measure
	cmp	edi, eax
	jb	$LN267@measure
$LN265@measure:
; Line 36
	mov	ecx, DWORD PTR [ebx]
	sub	ecx, DWORD PTR ?measure_start@@3V?$time_point@Usteady_clock@chrono@std@@V?$duration@_JU?$ratio@$00$0DLJKMKAA@@std@@@23@@chrono@std@@A
	mov	edx, DWORD PTR [ebx+4]
	sbb	edx, DWORD PTR ?measure_start@@3V?$time_point@Usteady_clock@chrono@std@@V?$duration@_JU?$ratio@$00$0DLJKMKAA@@std@@@23@@chrono@std@@A+4
	call	__ltod3
	divsd	xmm0, QWORD PTR tv772[esp+136]
	mov	esi, DWORD PTR _i$1$[esp+136]
	movd	xmm1, DWORD PTR _runs$1$[esp+136]
	cvtdq2pd xmm1, xmm1
	divsd	xmm0, xmm1
	movsd	QWORD PTR _trials$[esp+esi*8+136], xmm0
	inc	esi
	mov	DWORD PTR _i$1$[esp+136], esi
	cmp	esi, 10					; 0000000aH
	jl	$LL5@measure
; Line 40
	push	DWORD PTR $T1[esp+136]
	lea	eax, DWORD PTR _trials$[esp+220]
	push	10					; 0000000aH
	push	eax
	lea	eax, DWORD PTR _trials$[esp+148]
	push	eax
	call	??$_Sort@PANHU?$less@X@std@@@std@@YAXPAN0HU?$less@X@0@@Z ; std::_Sort<double *,int,std::less<void> >
	lea	esi, DWORD PTR _trials$[esp+168]
	add	esp, 16					; 00000010H
; Line 41
	lea	edi, DWORD PTR _trials$[esp+200]
	mov	ecx, esi
	mov	edx, edi
	xor	eax, eax
	sub	edx, ecx
	xorps	xmm0, xmm0
	add	edx, 7
	movsd	QWORD PTR __Val$2[esp+136], xmm0
	xor	ecx, ecx
	shr	edx, 3
	cmp	esi, edi
	cmova	edx, ecx
	mov	ecx, esi
	test	edx, edx
	je	SHORT $LN239@measure
$LL254@measure:
	addsd	xmm0, QWORD PTR [ecx]
	inc	eax
	add	ecx, 8
	cmp	eax, edx
	jne	SHORT $LL254@measure
	movsd	QWORD PTR __Val$2[esp+136], xmm0
$LN239@measure:
; Line 43
	mov	ecx, DWORD PTR __$ArrayPad$[esp+136]
	fld	QWORD PTR __Val$2[esp+136]
	fdiv	QWORD PTR __real@4018000000000000
	pop	edi
	pop	esi
	pop	ebx
	xor	ecx, esp
	call	@__security_check_cookie@4
	mov	esp, ebp
	pop	ebp
	ret	0
??$measure@V<lambda_ce14b79be95f650ececed4b3079e7cf8>@@@@YANV<lambda_ce14b79be95f650ececed4b3079e7cf8>@@@Z ENDP ; measure<<lambda_ce14b79be95f650ececed4b3079e7cf8> >
_TEXT	ENDS
; Function compile flags: /Ogtpy
;	COMDAT ??$measure@V<lambda_fe4b9e6fc2b2fbcfeea78297fbfefccb>@@@@YANV<lambda_fe4b9e6fc2b2fbcfeea78297fbfefccb>@@@Z
_TEXT	SEGMENT
_runs$1$ = -124						; size = 4
_i$1$ = -120						; size = 4
$T1 = -120						; size = 1
__Val$2 = -120						; size = 8
tv592 = -112						; size = 8
$T3 = -104						; size = 8
$T4 = -96						; size = 8
_trials$ = -88						; size = 80
__$ArrayPad$ = -4					; size = 4
_f$ = 8							; size = 24
??$measure@V<lambda_fe4b9e6fc2b2fbcfeea78297fbfefccb>@@@@YANV<lambda_fe4b9e6fc2b2fbcfeea78297fbfefccb>@@@Z PROC ; measure<<lambda_fe4b9e6fc2b2fbcfeea78297fbfefccb> >, COMDAT
; File c:\users\manu343726\documents\joaquin-dod\dod_perf.cpp
; Line 18
	push	ebp
	mov	ebp, esp
	and	esp, -8					; fffffff8H
	sub	esp, 124				; 0000007cH
	mov	eax, DWORD PTR ___security_cookie
	xor	eax, esp
	mov	DWORD PTR __$ArrayPad$[esp+124], eax
; Line 22
	mov	eax, DWORD PTR fs:__tls_array
	mov	ecx, DWORD PTR __tls_index
	push	ebx
	push	esi
	push	edi
	mov	ecx, DWORD PTR [eax+ecx*4]
	mov	eax, DWORD PTR ?$TSS0@?1???$measure@V<lambda_fe4b9e6fc2b2fbcfeea78297fbfefccb>@@@@YANV<lambda_fe4b9e6fc2b2fbcfeea78297fbfefccb>@@@Z@4HA ; TSS0<`template-parameter-2',V<lambda_fe4b9e6fc2b2fbcfeea78297fbfefccb>::asure>
	cmp	eax, DWORD PTR __Init_thread_epoch[ecx]
	jle	SHORT $LN2@measure
	push	OFFSET ?$TSS0@?1???$measure@V<lambda_fe4b9e6fc2b2fbcfeea78297fbfefccb>@@@@YANV<lambda_fe4b9e6fc2b2fbcfeea78297fbfefccb>@@@Z@4HA ; TSS0<`template-parameter-2',V<lambda_fe4b9e6fc2b2fbcfeea78297fbfefccb>::asure>
	call	__Init_thread_header
	add	esp, 4
	cmp	DWORD PTR ?$TSS0@?1???$measure@V<lambda_fe4b9e6fc2b2fbcfeea78297fbfefccb>@@@@YANV<lambda_fe4b9e6fc2b2fbcfeea78297fbfefccb>@@@Z@4HA, -1 ; TSS0<`template-parameter-2',V<lambda_fe4b9e6fc2b2fbcfeea78297fbfefccb>::asure>
	jne	SHORT $LN2@measure
	push	OFFSET ?$TSS0@?1???$measure@V<lambda_fe4b9e6fc2b2fbcfeea78297fbfefccb>@@@@YANV<lambda_fe4b9e6fc2b2fbcfeea78297fbfefccb>@@@Z@4HA ; TSS0<`template-parameter-2',V<lambda_fe4b9e6fc2b2fbcfeea78297fbfefccb>::asure>
	mov	DWORD PTR ?min_time_per_trial@?1???$measure@V<lambda_fe4b9e6fc2b2fbcfeea78297fbfefccb>@@@@YANV<lambda_fe4b9e6fc2b2fbcfeea78297fbfefccb>@@@Z@4V?$duration@_JU?$ratio@$00$0DOI@@std@@@chrono@std@@B, 200 ; 000000c8H
	mov	DWORD PTR ?min_time_per_trial@?1???$measure@V<lambda_fe4b9e6fc2b2fbcfeea78297fbfefccb>@@@@YANV<lambda_fe4b9e6fc2b2fbcfeea78297fbfefccb>@@@Z@4V?$duration@_JU?$ratio@$00$0DOI@@std@@@chrono@std@@B+4, 0
	call	__Init_thread_footer
	add	esp, 4
$LN2@measure:
; Line 26
	xor	edx, edx
	mov	DWORD PTR _i$1$[esp+136], 0
	mov	ecx, 1000000000				; 3b9aca00H
	call	__ltod3
	movsd	QWORD PTR tv592[esp+136], xmm0
$LL5@measure:
; Line 30
	lea	eax, DWORD PTR $T3[esp+136]
	xor	esi, esi
	push	eax
	call	?now@steady_clock@chrono@std@@SA?AV?$time_point@Usteady_clock@chrono@std@@V?$duration@_JU?$ratio@$00$0DLJKMKAA@@std@@@23@@23@XZ ; std::chrono::steady_clock::now
	add	esp, 4
	mov	ecx, DWORD PTR [eax]
	mov	DWORD PTR ?measure_start@@3V?$time_point@Usteady_clock@chrono@std@@V?$duration@_JU?$ratio@$00$0DLJKMKAA@@std@@@23@@chrono@std@@A, ecx
	mov	eax, DWORD PTR [eax+4]
	mov	DWORD PTR ?measure_start@@3V?$time_point@Usteady_clock@chrono@std@@V?$duration@_JU?$ratio@$00$0DLJKMKAA@@std@@@23@@chrono@std@@A+4, eax
$LL8@measure:
; Line 32
	movq	xmm0, QWORD PTR _f$[ebp+12]
	sub	esp, 12					; 0000000cH
	mov	eax, DWORD PTR _f$[ebp+20]
	mov	ecx, esp
	sub	esp, 12					; 0000000cH
	movq	QWORD PTR [ecx], xmm0
	movq	xmm0, QWORD PTR _f$[ebp]
	mov	DWORD PTR [ecx+8], eax
	mov	ecx, esp
	mov	eax, DWORD PTR _f$[ebp+8]
	movq	QWORD PTR [ecx], xmm0
	mov	DWORD PTR [ecx+8], eax
	call	??$render@V?$pointer@V?$particle@V?$access@U?$member@D$0A@@dod@@U?$member@H$0A@@2@U?$member@H$00@2@@dod@@@@@dod@@@@YAHV?$pointer@V?$particle@V?$access@U?$member@D$0A@@dod@@U?$member@H$0A@@2@U?$member@H$00@2@@dod@@@@@dod@@0@Z ; render<dod::pointer<particle<dod::access<dod::member<char,0>,dod::member<int,0>,dod::member<int,1> > > > >
	mov	DWORD PTR ?res@?1???$measure@V<lambda_fe4b9e6fc2b2fbcfeea78297fbfefccb>@@@@YANV<lambda_fe4b9e6fc2b2fbcfeea78297fbfefccb>@@@Z@4HA, eax ; `measure<<lambda_fe4b9e6fc2b2fbcfeea78297fbfefccb> >'::`2'::res
; Line 33
	inc	esi
; Line 34
	lea	eax, DWORD PTR $T4[esp+160]
	mov	DWORD PTR _runs$1$[esp+160], esi
	push	eax
	call	?now@steady_clock@chrono@std@@SA?AV?$time_point@Usteady_clock@chrono@std@@V?$duration@_JU?$ratio@$00$0DLJKMKAA@@std@@@23@@23@XZ ; std::chrono::steady_clock::now
	add	esp, 28					; 0000001cH
	mov	ebx, eax
; Line 35
	mov	edi, DWORD PTR [ebx]
	mov	esi, DWORD PTR [ebx+4]
	push	0
	push	1000000					; 000f4240H
	push	DWORD PTR ?min_time_per_trial@?1???$measure@V<lambda_fe4b9e6fc2b2fbcfeea78297fbfefccb>@@@@YANV<lambda_fe4b9e6fc2b2fbcfeea78297fbfefccb>@@@Z@4V?$duration@_JU?$ratio@$00$0DOI@@std@@@chrono@std@@B+4
	push	DWORD PTR ?min_time_per_trial@?1???$measure@V<lambda_fe4b9e6fc2b2fbcfeea78297fbfefccb>@@@@YANV<lambda_fe4b9e6fc2b2fbcfeea78297fbfefccb>@@@Z@4V?$duration@_JU?$ratio@$00$0DOI@@std@@@chrono@std@@B
	call	__allmul
	sub	edi, DWORD PTR ?measure_start@@3V?$time_point@Usteady_clock@chrono@std@@V?$duration@_JU?$ratio@$00$0DLJKMKAA@@std@@@23@@chrono@std@@A
	sbb	esi, DWORD PTR ?measure_start@@3V?$time_point@Usteady_clock@chrono@std@@V?$duration@_JU?$ratio@$00$0DLJKMKAA@@std@@@23@@chrono@std@@A+4
	cmp	esi, edx
	mov	esi, DWORD PTR _runs$1$[esp+136]
	jl	SHORT $LL8@measure
	jg	SHORT $LN240@measure
	cmp	edi, eax
	jb	SHORT $LL8@measure
$LN240@measure:
; Line 36
	mov	ecx, DWORD PTR [ebx]
	sub	ecx, DWORD PTR ?measure_start@@3V?$time_point@Usteady_clock@chrono@std@@V?$duration@_JU?$ratio@$00$0DLJKMKAA@@std@@@23@@chrono@std@@A
	mov	edx, DWORD PTR [ebx+4]
	sbb	edx, DWORD PTR ?measure_start@@3V?$time_point@Usteady_clock@chrono@std@@V?$duration@_JU?$ratio@$00$0DLJKMKAA@@std@@@23@@chrono@std@@A+4
	call	__ltod3
	divsd	xmm0, QWORD PTR tv592[esp+136]
	mov	ebx, DWORD PTR _i$1$[esp+136]
	movd	xmm1, DWORD PTR _runs$1$[esp+136]
	cvtdq2pd xmm1, xmm1
	divsd	xmm0, xmm1
	movsd	QWORD PTR _trials$[esp+ebx*8+136], xmm0
	inc	ebx
	mov	DWORD PTR _i$1$[esp+136], ebx
	cmp	ebx, 10					; 0000000aH
	jl	$LL5@measure
; Line 40
	push	DWORD PTR $T1[esp+136]
	lea	eax, DWORD PTR _trials$[esp+220]
	push	10					; 0000000aH
	push	eax
	lea	eax, DWORD PTR _trials$[esp+148]
	push	eax
	call	??$_Sort@PANHU?$less@X@std@@@std@@YAXPAN0HU?$less@X@0@@Z ; std::_Sort<double *,int,std::less<void> >
	lea	esi, DWORD PTR _trials$[esp+168]
	add	esp, 16					; 00000010H
; Line 41
	lea	edi, DWORD PTR _trials$[esp+200]
	mov	ecx, esi
	mov	edx, edi
	xor	eax, eax
	sub	edx, ecx
	xorps	xmm0, xmm0
	add	edx, 7
	movsd	QWORD PTR __Val$2[esp+136], xmm0
	xor	ecx, ecx
	shr	edx, 3
	cmp	esi, edi
	cmova	edx, ecx
	mov	ecx, esi
	test	edx, edx
	je	SHORT $LN218@measure
	npad	7
$LL231@measure:
	addsd	xmm0, QWORD PTR [ecx]
	inc	eax
	add	ecx, 8
	cmp	eax, edx
	jne	SHORT $LL231@measure
	movsd	QWORD PTR __Val$2[esp+136], xmm0
$LN218@measure:
; Line 43
	mov	ecx, DWORD PTR __$ArrayPad$[esp+136]
	fld	QWORD PTR __Val$2[esp+136]
	fdiv	QWORD PTR __real@4018000000000000
	pop	edi
	pop	esi
	pop	ebx
	xor	ecx, esp
	call	@__security_check_cookie@4
	mov	esp, ebp
	pop	ebp
	ret	0
??$measure@V<lambda_fe4b9e6fc2b2fbcfeea78297fbfefccb>@@@@YANV<lambda_fe4b9e6fc2b2fbcfeea78297fbfefccb>@@@Z ENDP ; measure<<lambda_fe4b9e6fc2b2fbcfeea78297fbfefccb> >
_TEXT	ENDS
; Function compile flags: /Ogtpy
;	COMDAT ??Cproxy@?$operator_arrow_dispatch@V?$particle@V?$access@U?$member@D$0A@@dod@@U?$member@H$0A@@2@U?$member@H$00@2@@dod@@@@PAV1@@detail@iterators@boost@@QAEPAV?$particle@V?$access@U?$member@D$0A@@dod@@U?$member@H$0A@@2@U?$member@H$00@2@@dod@@@@XZ
_TEXT	SEGMENT
??Cproxy@?$operator_arrow_dispatch@V?$particle@V?$access@U?$member@D$0A@@dod@@U?$member@H$0A@@2@U?$member@H$00@2@@dod@@@@PAV1@@detail@iterators@boost@@QAEPAV?$particle@V?$access@U?$member@D$0A@@dod@@U?$member@H$0A@@2@U?$member@H$00@2@@dod@@@@XZ PROC ; boost::iterators::detail::operator_arrow_dispatch<particle<dod::access<dod::member<char,0>,dod::member<int,0>,dod::member<int,1> > >,particle<dod::access<dod::member<char,0>,dod::member<int,0>,dod::member<int,1> > > *>::proxy::operator->, COMDAT
; _this$ = ecx
; File c:\mingw\include\boost\iterator\iterator_facade.hpp
; Line 317
	mov	eax, ecx
	ret	0
??Cproxy@?$operator_arrow_dispatch@V?$particle@V?$access@U?$member@D$0A@@dod@@U?$member@H$0A@@2@U?$member@H$00@2@@dod@@@@PAV1@@detail@iterators@boost@@QAEPAV?$particle@V?$access@U?$member@D$0A@@dod@@U?$member@H$0A@@2@U?$member@H$00@2@@dod@@@@XZ ENDP ; boost::iterators::detail::operator_arrow_dispatch<particle<dod::access<dod::member<char,0>,dod::member<int,0>,dod::member<int,1> > >,particle<dod::access<dod::member<char,0>,dod::member<int,0>,dod::member<int,1> > > *>::proxy::operator->
_TEXT	ENDS
; Function compile flags: /Ogtpy
;	COMDAT ??0proxy@?$operator_arrow_dispatch@V?$particle@V?$access@U?$member@D$0A@@dod@@U?$member@H$0A@@2@U?$member@H$00@2@@dod@@@@PAV1@@detail@iterators@boost@@QAE@ABV?$particle@V?$access@U?$member@D$0A@@dod@@U?$member@H$0A@@2@U?$member@H$00@2@@dod@@@@@Z
_TEXT	SEGMENT
_x$ = 8							; size = 4
??0proxy@?$operator_arrow_dispatch@V?$particle@V?$access@U?$member@D$0A@@dod@@U?$member@H$0A@@2@U?$member@H$00@2@@dod@@@@PAV1@@detail@iterators@boost@@QAE@ABV?$particle@V?$access@U?$member@D$0A@@dod@@U?$member@H$0A@@2@U?$member@H$00@2@@dod@@@@@Z PROC ; boost::iterators::detail::operator_arrow_dispatch<particle<dod::access<dod::member<char,0>,dod::member<int,0>,dod::member<int,1> > >,particle<dod::access<dod::member<char,0>,dod::member<int,0>,dod::member<int,1> > > *>::proxy::proxy, COMDAT
; _this$ = ecx
; File c:\mingw\include\boost\iterator\iterator_facade.hpp
; Line 316
	mov	eax, DWORD PTR _x$[esp-4]
	movq	xmm0, QWORD PTR [eax]
	movq	QWORD PTR [ecx], xmm0
	mov	eax, DWORD PTR [eax+8]
	mov	DWORD PTR [ecx+8], eax
	mov	eax, ecx
	ret	4
??0proxy@?$operator_arrow_dispatch@V?$particle@V?$access@U?$member@D$0A@@dod@@U?$member@H$0A@@2@U?$member@H$00@2@@dod@@@@PAV1@@detail@iterators@boost@@QAE@ABV?$particle@V?$access@U?$member@D$0A@@dod@@U?$member@H$0A@@2@U?$member@H$00@2@@dod@@@@@Z ENDP ; boost::iterators::detail::operator_arrow_dispatch<particle<dod::access<dod::member<char,0>,dod::member<int,0>,dod::member<int,1> > >,particle<dod::access<dod::member<char,0>,dod::member<int,0>,dod::member<int,1> > > *>::proxy::proxy
_TEXT	ENDS
; Function compile flags: /Ogtpy
;	COMDAT ??$?EV?$pointer@V?$particle@V?$access@U?$member@D$0A@@dod@@U?$member@H$0A@@2@U?$member@H$00@2@@dod@@@@@dod@@V?$particle@V?$access@U?$member@D$0A@@dod@@U?$member@H$0A@@2@U?$member@H$00@2@@dod@@@@Urandom_access_traversal_tag@iterators@boost@@V2@H@iterators@boost@@YA?AV?$pointer@V?$particle@V?$access@U?$member@D$0A@@dod@@U?$member@H$0A@@2@U?$member@H$00@2@@dod@@@@@dod@@AAV?$iterator_facade@V?$pointer@V?$particle@V?$access@U?$member@D$0A@@dod@@U?$member@H$0A@@2@U?$member@H$00@2@@dod@@@@@dod@@V?$particle@V?$access@U?$member@D$0A@@dod@@U?$member@H$0A@@2@U?$member@H$00@2@@dod@@@@Urandom_access_traversal_tag@iterators@boost@@V3@H@01@H@Z
_TEXT	SEGMENT
___$ReturnUdt$ = 8					; size = 4
_i$ = 12						; size = 4
___formal$ = 16						; size = 4
??$?EV?$pointer@V?$particle@V?$access@U?$member@D$0A@@dod@@U?$member@H$0A@@2@U?$member@H$00@2@@dod@@@@@dod@@V?$particle@V?$access@U?$member@D$0A@@dod@@U?$member@H$0A@@2@U?$member@H$00@2@@dod@@@@Urandom_access_traversal_tag@iterators@boost@@V2@H@iterators@boost@@YA?AV?$pointer@V?$particle@V?$access@U?$member@D$0A@@dod@@U?$member@H$0A@@2@U?$member@H$00@2@@dod@@@@@dod@@AAV?$iterator_facade@V?$pointer@V?$particle@V?$access@U?$member@D$0A@@dod@@U?$member@H$0A@@2@U?$member@H$00@2@@dod@@@@@dod@@V?$particle@V?$access@U?$member@D$0A@@dod@@U?$member@H$0A@@2@U?$member@H$00@2@@dod@@@@Urandom_access_traversal_tag@iterators@boost@@V3@H@01@H@Z PROC ; boost::iterators::operator++<dod::pointer<particle<dod::access<dod::member<char,0>,dod::member<int,0>,dod::member<int,1> > > >,particle<dod::access<dod::member<char,0>,dod::member<int,0>,dod::member<int,1> > >,boost::iterators::random_access_traversal_tag,particle<dod::access<dod::member<char,0>,dod::member<int,0>,dod::member<int,1> > >,int>, COMDAT
; File c:\mingw\include\boost\iterator\iterator_facade.hpp
; Line 787
	mov	edx, DWORD PTR _i$[esp-4]
	mov	eax, DWORD PTR ___$ReturnUdt$[esp-4]
	movq	xmm0, QWORD PTR [edx]
	mov	ecx, DWORD PTR [edx+8]
; Line 789
	inc	DWORD PTR [edx]
	add	DWORD PTR [edx+4], 4
	add	DWORD PTR [edx+8], 4
	movq	QWORD PTR [eax], xmm0
	mov	DWORD PTR [eax+8], ecx
; Line 792
	ret	0
??$?EV?$pointer@V?$particle@V?$access@U?$member@D$0A@@dod@@U?$member@H$0A@@2@U?$member@H$00@2@@dod@@@@@dod@@V?$particle@V?$access@U?$member@D$0A@@dod@@U?$member@H$0A@@2@U?$member@H$00@2@@dod@@@@Urandom_access_traversal_tag@iterators@boost@@V2@H@iterators@boost@@YA?AV?$pointer@V?$particle@V?$access@U?$member@D$0A@@dod@@U?$member@H$0A@@2@U?$member@H$00@2@@dod@@@@@dod@@AAV?$iterator_facade@V?$pointer@V?$particle@V?$access@U?$member@D$0A@@dod@@U?$member@H$0A@@2@U?$member@H$00@2@@dod@@@@@dod@@V?$particle@V?$access@U?$member@D$0A@@dod@@U?$member@H$0A@@2@U?$member@H$00@2@@dod@@@@Urandom_access_traversal_tag@iterators@boost@@V3@H@01@H@Z ENDP ; boost::iterators::operator++<dod::pointer<particle<dod::access<dod::member<char,0>,dod::member<int,0>,dod::member<int,1> > > >,particle<dod::access<dod::member<char,0>,dod::member<int,0>,dod::member<int,1> > >,boost::iterators::random_access_traversal_tag,particle<dod::access<dod::member<char,0>,dod::member<int,0>,dod::member<int,1> > >,int>
_TEXT	ENDS
; Function compile flags: /Ogtpy
;	COMDAT ??$?9V?$pointer@V?$particle@V?$access@U?$member@D$0A@@dod@@U?$member@H$0A@@2@U?$member@H$00@2@@dod@@@@@dod@@V?$particle@V?$access@U?$member@D$0A@@dod@@U?$member@H$0A@@2@U?$member@H$00@2@@dod@@@@Urandom_access_traversal_tag@iterators@boost@@V2@HV01@V2@U345@V2@H@iterators@boost@@YA_NABV?$iterator_facade@V?$pointer@V?$particle@V?$access@U?$member@D$0A@@dod@@U?$member@H$0A@@2@U?$member@H$00@2@@dod@@@@@dod@@V?$particle@V?$access@U?$member@D$0A@@dod@@U?$member@H$0A@@2@U?$member@H$00@2@@dod@@@@Urandom_access_traversal_tag@iterators@boost@@V3@H@01@0@Z
_TEXT	SEGMENT
_lhs$ = 8						; size = 4
_rhs$ = 12						; size = 4
??$?9V?$pointer@V?$particle@V?$access@U?$member@D$0A@@dod@@U?$member@H$0A@@2@U?$member@H$00@2@@dod@@@@@dod@@V?$particle@V?$access@U?$member@D$0A@@dod@@U?$member@H$0A@@2@U?$member@H$00@2@@dod@@@@Urandom_access_traversal_tag@iterators@boost@@V2@HV01@V2@U345@V2@H@iterators@boost@@YA_NABV?$iterator_facade@V?$pointer@V?$particle@V?$access@U?$member@D$0A@@dod@@U?$member@H$0A@@2@U?$member@H$00@2@@dod@@@@@dod@@V?$particle@V?$access@U?$member@D$0A@@dod@@U?$member@H$0A@@2@U?$member@H$00@2@@dod@@@@Urandom_access_traversal_tag@iterators@boost@@V3@H@01@0@Z PROC ; boost::iterators::operator!=<dod::pointer<particle<dod::access<dod::member<char,0>,dod::member<int,0>,dod::member<int,1> > > >,particle<dod::access<dod::member<char,0>,dod::member<int,0>,dod::member<int,1> > >,boost::iterators::random_access_traversal_tag,particle<dod::access<dod::member<char,0>,dod::member<int,0>,dod::member<int,1> > >,int,dod::pointer<particle<dod::access<dod::member<char,0>,dod::member<int,0>,dod::member<int,1> > > >,particle<dod::access<dod::member<char,0>,dod::member<int,0>,dod::member<int,1> > >,boost::iterators::random_access_traversal_tag,particle<dod::access<dod::member<char,0>,dod::member<int,0>,dod::member<int,1> > >,int>, COMDAT
; File c:\mingw\include\boost\iterator\iterator_facade.hpp
; Line 891
	mov	eax, DWORD PTR _lhs$[esp-4]
	mov	ecx, DWORD PTR _rhs$[esp-4]
	mov	edx, DWORD PTR [eax]
	xor	eax, eax
	cmp	edx, DWORD PTR [ecx]
	setne	al
	ret	0
??$?9V?$pointer@V?$particle@V?$access@U?$member@D$0A@@dod@@U?$member@H$0A@@2@U?$member@H$00@2@@dod@@@@@dod@@V?$particle@V?$access@U?$member@D$0A@@dod@@U?$member@H$0A@@2@U?$member@H$00@2@@dod@@@@Urandom_access_traversal_tag@iterators@boost@@V2@HV01@V2@U345@V2@H@iterators@boost@@YA_NABV?$iterator_facade@V?$pointer@V?$particle@V?$access@U?$member@D$0A@@dod@@U?$member@H$0A@@2@U?$member@H$00@2@@dod@@@@@dod@@V?$particle@V?$access@U?$member@D$0A@@dod@@U?$member@H$0A@@2@U?$member@H$00@2@@dod@@@@Urandom_access_traversal_tag@iterators@boost@@V3@H@01@0@Z ENDP ; boost::iterators::operator!=<dod::pointer<particle<dod::access<dod::member<char,0>,dod::member<int,0>,dod::member<int,1> > > >,particle<dod::access<dod::member<char,0>,dod::member<int,0>,dod::member<int,1> > >,boost::iterators::random_access_traversal_tag,particle<dod::access<dod::member<char,0>,dod::member<int,0>,dod::member<int,1> > >,int,dod::pointer<particle<dod::access<dod::member<char,0>,dod::member<int,0>,dod::member<int,1> > > >,particle<dod::access<dod::member<char,0>,dod::member<int,0>,dod::member<int,1> > >,boost::iterators::random_access_traversal_tag,particle<dod::access<dod::member<char,0>,dod::member<int,0>,dod::member<int,1> > >,int>
_TEXT	ENDS
; Function compile flags: /Ogtpy
;	COMDAT ??$measure@V<lambda_4bb02fb8e2d5361150321278473362ff>@@@@YANV<lambda_4bb02fb8e2d5361150321278473362ff>@@@Z
_TEXT	SEGMENT
_i$1$ = -116						; size = 4
$T1 = -116						; size = 1
__Val$2 = -116						; size = 8
tv592 = -108						; size = 8
$T3 = -100						; size = 8
$T4 = -92						; size = 8
_trials$ = -84						; size = 80
__$ArrayPad$ = -4					; size = 4
_f$ = 8							; size = 40
??$measure@V<lambda_4bb02fb8e2d5361150321278473362ff>@@@@YANV<lambda_4bb02fb8e2d5361150321278473362ff>@@@Z PROC ; measure<<lambda_4bb02fb8e2d5361150321278473362ff> >, COMDAT
; File c:\users\manu343726\documents\joaquin-dod\dod_perf.cpp
; Line 18
	sub	esp, 116				; 00000074H
	mov	eax, DWORD PTR ___security_cookie
	xor	eax, esp
	mov	DWORD PTR __$ArrayPad$[esp+116], eax
; Line 22
	mov	eax, DWORD PTR fs:__tls_array
	mov	ecx, DWORD PTR __tls_index
	push	ebx
	push	ebp
	push	esi
	mov	ecx, DWORD PTR [eax+ecx*4]
	mov	eax, DWORD PTR ?$TSS0@?1???$measure@V<lambda_4bb02fb8e2d5361150321278473362ff>@@@@YANV<lambda_4bb02fb8e2d5361150321278473362ff>@@@Z@4HA ; TSS0<`template-parameter-2',V<lambda_4bb02fb8e2d5361150321278473362ff>::asure>
	push	edi
	cmp	eax, DWORD PTR __Init_thread_epoch[ecx]
	jle	SHORT $LN2@measure
	push	OFFSET ?$TSS0@?1???$measure@V<lambda_4bb02fb8e2d5361150321278473362ff>@@@@YANV<lambda_4bb02fb8e2d5361150321278473362ff>@@@Z@4HA ; TSS0<`template-parameter-2',V<lambda_4bb02fb8e2d5361150321278473362ff>::asure>
	call	__Init_thread_header
	add	esp, 4
	cmp	DWORD PTR ?$TSS0@?1???$measure@V<lambda_4bb02fb8e2d5361150321278473362ff>@@@@YANV<lambda_4bb02fb8e2d5361150321278473362ff>@@@Z@4HA, -1 ; TSS0<`template-parameter-2',V<lambda_4bb02fb8e2d5361150321278473362ff>::asure>
	jne	SHORT $LN2@measure
	push	OFFSET ?$TSS0@?1???$measure@V<lambda_4bb02fb8e2d5361150321278473362ff>@@@@YANV<lambda_4bb02fb8e2d5361150321278473362ff>@@@Z@4HA ; TSS0<`template-parameter-2',V<lambda_4bb02fb8e2d5361150321278473362ff>::asure>
	mov	DWORD PTR ?min_time_per_trial@?1???$measure@V<lambda_4bb02fb8e2d5361150321278473362ff>@@@@YANV<lambda_4bb02fb8e2d5361150321278473362ff>@@@Z@4V?$duration@_JU?$ratio@$00$0DOI@@std@@@chrono@std@@B, 200 ; 000000c8H
	mov	DWORD PTR ?min_time_per_trial@?1???$measure@V<lambda_4bb02fb8e2d5361150321278473362ff>@@@@YANV<lambda_4bb02fb8e2d5361150321278473362ff>@@@Z@4V?$duration@_JU?$ratio@$00$0DOI@@std@@@chrono@std@@B+4, 0
	call	__Init_thread_footer
	add	esp, 4
$LN2@measure:
; Line 26
	xor	edx, edx
	mov	DWORD PTR _i$1$[esp+132], 0
	mov	ecx, 1000000000				; 3b9aca00H
	call	__ltod3
	movsd	QWORD PTR tv592[esp+132], xmm0
	npad	1
$LL5@measure:
; Line 30
	lea	eax, DWORD PTR $T3[esp+132]
	xor	ebp, ebp
	push	eax
	call	?now@steady_clock@chrono@std@@SA?AV?$time_point@Usteady_clock@chrono@std@@V?$duration@_JU?$ratio@$00$0DLJKMKAA@@std@@@23@@23@XZ ; std::chrono::steady_clock::now
	add	esp, 4
	mov	ecx, DWORD PTR [eax]
	mov	DWORD PTR ?measure_start@@3V?$time_point@Usteady_clock@chrono@std@@V?$duration@_JU?$ratio@$00$0DLJKMKAA@@std@@@23@@chrono@std@@A, ecx
	mov	eax, DWORD PTR [eax+4]
	mov	DWORD PTR ?measure_start@@3V?$time_point@Usteady_clock@chrono@std@@V?$duration@_JU?$ratio@$00$0DLJKMKAA@@std@@@23@@chrono@std@@A+4, eax
	npad	1
$LL8@measure:
; Line 32
	movups	xmm0, XMMWORD PTR _f$[esp+148]
	mov	eax, DWORD PTR _f$[esp+164]
	sub	esp, 20					; 00000014H
	mov	ecx, esp
	sub	esp, 20					; 00000014H
	movups	XMMWORD PTR [ecx], xmm0
	mov	DWORD PTR [ecx+16], eax
	mov	ecx, esp
	movups	xmm0, XMMWORD PTR _f$[esp+168]
	mov	eax, DWORD PTR _f$[esp+184]
	movups	XMMWORD PTR [ecx], xmm0
	mov	DWORD PTR [ecx+16], eax
	call	??$render@V?$pointer@V?$particle@V?$access@U?$member@D$0A@@dod@@U?$member@H$0A@@2@U?$member@H$00@2@U?$member@H$01@2@U?$member@H$02@2@@dod@@@@@dod@@@@YAHV?$pointer@V?$particle@V?$access@U?$member@D$0A@@dod@@U?$member@H$0A@@2@U?$member@H$00@2@U?$member@H$01@2@U?$member@H$02@2@@dod@@@@@dod@@0@Z ; render<dod::pointer<particle<dod::access<dod::member<char,0>,dod::member<int,0>,dod::member<int,1>,dod::member<int,2>,dod::member<int,3> > > > >
	mov	DWORD PTR ?res@?1???$measure@V<lambda_4bb02fb8e2d5361150321278473362ff>@@@@YANV<lambda_4bb02fb8e2d5361150321278473362ff>@@@Z@4HA, eax ; `measure<<lambda_4bb02fb8e2d5361150321278473362ff> >'::`2'::res
; Line 33
	inc	ebp
; Line 34
	lea	eax, DWORD PTR $T4[esp+172]
	push	eax
	call	?now@steady_clock@chrono@std@@SA?AV?$time_point@Usteady_clock@chrono@std@@V?$duration@_JU?$ratio@$00$0DLJKMKAA@@std@@@23@@23@XZ ; std::chrono::steady_clock::now
	add	esp, 44					; 0000002cH
	mov	ebx, eax
; Line 35
	mov	edi, DWORD PTR [ebx]
	mov	esi, DWORD PTR [ebx+4]
	push	0
	push	1000000					; 000f4240H
	push	DWORD PTR ?min_time_per_trial@?1???$measure@V<lambda_4bb02fb8e2d5361150321278473362ff>@@@@YANV<lambda_4bb02fb8e2d5361150321278473362ff>@@@Z@4V?$duration@_JU?$ratio@$00$0DOI@@std@@@chrono@std@@B+4
	push	DWORD PTR ?min_time_per_trial@?1???$measure@V<lambda_4bb02fb8e2d5361150321278473362ff>@@@@YANV<lambda_4bb02fb8e2d5361150321278473362ff>@@@Z@4V?$duration@_JU?$ratio@$00$0DOI@@std@@@chrono@std@@B
	call	__allmul
	sub	edi, DWORD PTR ?measure_start@@3V?$time_point@Usteady_clock@chrono@std@@V?$duration@_JU?$ratio@$00$0DLJKMKAA@@std@@@23@@chrono@std@@A
	sbb	esi, DWORD PTR ?measure_start@@3V?$time_point@Usteady_clock@chrono@std@@V?$duration@_JU?$ratio@$00$0DLJKMKAA@@std@@@23@@chrono@std@@A+4
	cmp	esi, edx
	jl	SHORT $LL8@measure
	jg	SHORT $LN240@measure
	cmp	edi, eax
	jb	$LL8@measure
$LN240@measure:
; Line 36
	mov	ecx, DWORD PTR [ebx]
	sub	ecx, DWORD PTR ?measure_start@@3V?$time_point@Usteady_clock@chrono@std@@V?$duration@_JU?$ratio@$00$0DLJKMKAA@@std@@@23@@chrono@std@@A
	mov	edx, DWORD PTR [ebx+4]
	sbb	edx, DWORD PTR ?measure_start@@3V?$time_point@Usteady_clock@chrono@std@@V?$duration@_JU?$ratio@$00$0DLJKMKAA@@std@@@23@@chrono@std@@A+4
	call	__ltod3
	divsd	xmm0, QWORD PTR tv592[esp+132]
	mov	ebx, DWORD PTR _i$1$[esp+132]
	movd	xmm1, ebp
	cvtdq2pd xmm1, xmm1
	divsd	xmm0, xmm1
	movsd	QWORD PTR _trials$[esp+ebx*8+132], xmm0
	inc	ebx
	mov	DWORD PTR _i$1$[esp+132], ebx
	cmp	ebx, 10					; 0000000aH
	jl	$LL5@measure
; Line 40
	push	DWORD PTR $T1[esp+132]
	lea	eax, DWORD PTR _trials$[esp+216]
	push	10					; 0000000aH
	push	eax
	lea	eax, DWORD PTR _trials$[esp+144]
	push	eax
	call	??$_Sort@PANHU?$less@X@std@@@std@@YAXPAN0HU?$less@X@0@@Z ; std::_Sort<double *,int,std::less<void> >
	lea	esi, DWORD PTR _trials$[esp+164]
	add	esp, 16					; 00000010H
; Line 41
	lea	edi, DWORD PTR _trials$[esp+196]
	mov	ecx, esi
	mov	edx, edi
	xor	eax, eax
	sub	edx, ecx
	xorps	xmm0, xmm0
	add	edx, 7
	movsd	QWORD PTR __Val$2[esp+132], xmm0
	xor	ecx, ecx
	shr	edx, 3
	cmp	esi, edi
	cmova	edx, ecx
	mov	ecx, esi
	test	edx, edx
	je	SHORT $LN218@measure
	npad	4
$LL231@measure:
	addsd	xmm0, QWORD PTR [ecx]
	inc	eax
	add	ecx, 8
	cmp	eax, edx
	jne	SHORT $LL231@measure
	movsd	QWORD PTR __Val$2[esp+132], xmm0
$LN218@measure:
; Line 43
	mov	ecx, DWORD PTR __$ArrayPad$[esp+132]
	fld	QWORD PTR __Val$2[esp+132]
	fdiv	QWORD PTR __real@4018000000000000
	pop	edi
	pop	esi
	pop	ebp
	pop	ebx
	xor	ecx, esp
	call	@__security_check_cookie@4
	add	esp, 116				; 00000074H
	ret	0
??$measure@V<lambda_4bb02fb8e2d5361150321278473362ff>@@@@YANV<lambda_4bb02fb8e2d5361150321278473362ff>@@@Z ENDP ; measure<<lambda_4bb02fb8e2d5361150321278473362ff> >
_TEXT	ENDS
; Function compile flags: /Ogtpy
;	COMDAT ??Cproxy@?$operator_arrow_dispatch@V?$particle@V?$access@U?$member@D$0A@@dod@@U?$member@H$0A@@2@U?$member@H$00@2@U?$member@H$01@2@U?$member@H$02@2@@dod@@@@PAV1@@detail@iterators@boost@@QAEPAV?$particle@V?$access@U?$member@D$0A@@dod@@U?$member@H$0A@@2@U?$member@H$00@2@U?$member@H$01@2@U?$member@H$02@2@@dod@@@@XZ
_TEXT	SEGMENT
??Cproxy@?$operator_arrow_dispatch@V?$particle@V?$access@U?$member@D$0A@@dod@@U?$member@H$0A@@2@U?$member@H$00@2@U?$member@H$01@2@U?$member@H$02@2@@dod@@@@PAV1@@detail@iterators@boost@@QAEPAV?$particle@V?$access@U?$member@D$0A@@dod@@U?$member@H$0A@@2@U?$member@H$00@2@U?$member@H$01@2@U?$member@H$02@2@@dod@@@@XZ PROC ; boost::iterators::detail::operator_arrow_dispatch<particle<dod::access<dod::member<char,0>,dod::member<int,0>,dod::member<int,1>,dod::member<int,2>,dod::member<int,3> > >,particle<dod::access<dod::member<char,0>,dod::member<int,0>,dod::member<int,1>,dod::member<int,2>,dod::member<int,3> > > *>::proxy::operator->, COMDAT
; _this$ = ecx
; File c:\mingw\include\boost\iterator\iterator_facade.hpp
; Line 317
	mov	eax, ecx
	ret	0
??Cproxy@?$operator_arrow_dispatch@V?$particle@V?$access@U?$member@D$0A@@dod@@U?$member@H$0A@@2@U?$member@H$00@2@U?$member@H$01@2@U?$member@H$02@2@@dod@@@@PAV1@@detail@iterators@boost@@QAEPAV?$particle@V?$access@U?$member@D$0A@@dod@@U?$member@H$0A@@2@U?$member@H$00@2@U?$member@H$01@2@U?$member@H$02@2@@dod@@@@XZ ENDP ; boost::iterators::detail::operator_arrow_dispatch<particle<dod::access<dod::member<char,0>,dod::member<int,0>,dod::member<int,1>,dod::member<int,2>,dod::member<int,3> > >,particle<dod::access<dod::member<char,0>,dod::member<int,0>,dod::member<int,1>,dod::member<int,2>,dod::member<int,3> > > *>::proxy::operator->
_TEXT	ENDS
; Function compile flags: /Ogtpy
;	COMDAT ??0proxy@?$operator_arrow_dispatch@V?$particle@V?$access@U?$member@D$0A@@dod@@U?$member@H$0A@@2@U?$member@H$00@2@U?$member@H$01@2@U?$member@H$02@2@@dod@@@@PAV1@@detail@iterators@boost@@QAE@ABV?$particle@V?$access@U?$member@D$0A@@dod@@U?$member@H$0A@@2@U?$member@H$00@2@U?$member@H$01@2@U?$member@H$02@2@@dod@@@@@Z
_TEXT	SEGMENT
_x$ = 8							; size = 4
??0proxy@?$operator_arrow_dispatch@V?$particle@V?$access@U?$member@D$0A@@dod@@U?$member@H$0A@@2@U?$member@H$00@2@U?$member@H$01@2@U?$member@H$02@2@@dod@@@@PAV1@@detail@iterators@boost@@QAE@ABV?$particle@V?$access@U?$member@D$0A@@dod@@U?$member@H$0A@@2@U?$member@H$00@2@U?$member@H$01@2@U?$member@H$02@2@@dod@@@@@Z PROC ; boost::iterators::detail::operator_arrow_dispatch<particle<dod::access<dod::member<char,0>,dod::member<int,0>,dod::member<int,1>,dod::member<int,2>,dod::member<int,3> > >,particle<dod::access<dod::member<char,0>,dod::member<int,0>,dod::member<int,1>,dod::member<int,2>,dod::member<int,3> > > *>::proxy::proxy, COMDAT
; _this$ = ecx
; File c:\mingw\include\boost\iterator\iterator_facade.hpp
; Line 316
	mov	eax, DWORD PTR _x$[esp-4]
	movups	xmm0, XMMWORD PTR [eax]
	movups	XMMWORD PTR [ecx], xmm0
	mov	eax, DWORD PTR [eax+16]
	mov	DWORD PTR [ecx+16], eax
	mov	eax, ecx
	ret	4
??0proxy@?$operator_arrow_dispatch@V?$particle@V?$access@U?$member@D$0A@@dod@@U?$member@H$0A@@2@U?$member@H$00@2@U?$member@H$01@2@U?$member@H$02@2@@dod@@@@PAV1@@detail@iterators@boost@@QAE@ABV?$particle@V?$access@U?$member@D$0A@@dod@@U?$member@H$0A@@2@U?$member@H$00@2@U?$member@H$01@2@U?$member@H$02@2@@dod@@@@@Z ENDP ; boost::iterators::detail::operator_arrow_dispatch<particle<dod::access<dod::member<char,0>,dod::member<int,0>,dod::member<int,1>,dod::member<int,2>,dod::member<int,3> > >,particle<dod::access<dod::member<char,0>,dod::member<int,0>,dod::member<int,1>,dod::member<int,2>,dod::member<int,3> > > *>::proxy::proxy
_TEXT	ENDS
; Function compile flags: /Ogtpy
;	COMDAT ??$?EV?$pointer@V?$particle@V?$access@U?$member@D$0A@@dod@@U?$member@H$0A@@2@U?$member@H$00@2@U?$member@H$01@2@U?$member@H$02@2@@dod@@@@@dod@@V?$particle@V?$access@U?$member@D$0A@@dod@@U?$member@H$0A@@2@U?$member@H$00@2@U?$member@H$01@2@U?$member@H$02@2@@dod@@@@Urandom_access_traversal_tag@iterators@boost@@V2@H@iterators@boost@@YA?AV?$pointer@V?$particle@V?$access@U?$member@D$0A@@dod@@U?$member@H$0A@@2@U?$member@H$00@2@U?$member@H$01@2@U?$member@H$02@2@@dod@@@@@dod@@AAV?$iterator_facade@V?$pointer@V?$particle@V?$access@U?$member@D$0A@@dod@@U?$member@H$0A@@2@U?$member@H$00@2@U?$member@H$01@2@U?$member@H$02@2@@dod@@@@@dod@@V?$particle@V?$access@U?$member@D$0A@@dod@@U?$member@H$0A@@2@U?$member@H$00@2@U?$member@H$01@2@U?$member@H$02@2@@dod@@@@Urandom_access_traversal_tag@iterators@boost@@V3@H@01@H@Z
_TEXT	SEGMENT
___$ReturnUdt$ = 8					; size = 4
_i$ = 12						; size = 4
___formal$ = 16						; size = 4
??$?EV?$pointer@V?$particle@V?$access@U?$member@D$0A@@dod@@U?$member@H$0A@@2@U?$member@H$00@2@U?$member@H$01@2@U?$member@H$02@2@@dod@@@@@dod@@V?$particle@V?$access@U?$member@D$0A@@dod@@U?$member@H$0A@@2@U?$member@H$00@2@U?$member@H$01@2@U?$member@H$02@2@@dod@@@@Urandom_access_traversal_tag@iterators@boost@@V2@H@iterators@boost@@YA?AV?$pointer@V?$particle@V?$access@U?$member@D$0A@@dod@@U?$member@H$0A@@2@U?$member@H$00@2@U?$member@H$01@2@U?$member@H$02@2@@dod@@@@@dod@@AAV?$iterator_facade@V?$pointer@V?$particle@V?$access@U?$member@D$0A@@dod@@U?$member@H$0A@@2@U?$member@H$00@2@U?$member@H$01@2@U?$member@H$02@2@@dod@@@@@dod@@V?$particle@V?$access@U?$member@D$0A@@dod@@U?$member@H$0A@@2@U?$member@H$00@2@U?$member@H$01@2@U?$member@H$02@2@@dod@@@@Urandom_access_traversal_tag@iterators@boost@@V3@H@01@H@Z PROC ; boost::iterators::operator++<dod::pointer<particle<dod::access<dod::member<char,0>,dod::member<int,0>,dod::member<int,1>,dod::member<int,2>,dod::member<int,3> > > >,particle<dod::access<dod::member<char,0>,dod::member<int,0>,dod::member<int,1>,dod::member<int,2>,dod::member<int,3> > >,boost::iterators::random_access_traversal_tag,particle<dod::access<dod::member<char,0>,dod::member<int,0>,dod::member<int,1>,dod::member<int,2>,dod::member<int,3> > >,int>, COMDAT
; File c:\mingw\include\boost\iterator\iterator_facade.hpp
; Line 787
	mov	edx, DWORD PTR _i$[esp-4]
	mov	ecx, DWORD PTR ___$ReturnUdt$[esp-4]
	movups	xmm0, XMMWORD PTR [edx]
	mov	eax, DWORD PTR [edx+16]
; Line 789
	inc	DWORD PTR [edx]
	add	DWORD PTR [edx+4], 4
	add	DWORD PTR [edx+8], 4
	add	DWORD PTR [edx+12], 4
	add	DWORD PTR [edx+16], 4
	movups	XMMWORD PTR [ecx], xmm0
	mov	DWORD PTR [ecx+16], eax
; Line 791
	mov	eax, ecx
; Line 792
	ret	0
??$?EV?$pointer@V?$particle@V?$access@U?$member@D$0A@@dod@@U?$member@H$0A@@2@U?$member@H$00@2@U?$member@H$01@2@U?$member@H$02@2@@dod@@@@@dod@@V?$particle@V?$access@U?$member@D$0A@@dod@@U?$member@H$0A@@2@U?$member@H$00@2@U?$member@H$01@2@U?$member@H$02@2@@dod@@@@Urandom_access_traversal_tag@iterators@boost@@V2@H@iterators@boost@@YA?AV?$pointer@V?$particle@V?$access@U?$member@D$0A@@dod@@U?$member@H$0A@@2@U?$member@H$00@2@U?$member@H$01@2@U?$member@H$02@2@@dod@@@@@dod@@AAV?$iterator_facade@V?$pointer@V?$particle@V?$access@U?$member@D$0A@@dod@@U?$member@H$0A@@2@U?$member@H$00@2@U?$member@H$01@2@U?$member@H$02@2@@dod@@@@@dod@@V?$particle@V?$access@U?$member@D$0A@@dod@@U?$member@H$0A@@2@U?$member@H$00@2@U?$member@H$01@2@U?$member@H$02@2@@dod@@@@Urandom_access_traversal_tag@iterators@boost@@V3@H@01@H@Z ENDP ; boost::iterators::operator++<dod::pointer<particle<dod::access<dod::member<char,0>,dod::member<int,0>,dod::member<int,1>,dod::member<int,2>,dod::member<int,3> > > >,particle<dod::access<dod::member<char,0>,dod::member<int,0>,dod::member<int,1>,dod::member<int,2>,dod::member<int,3> > >,boost::iterators::random_access_traversal_tag,particle<dod::access<dod::member<char,0>,dod::member<int,0>,dod::member<int,1>,dod::member<int,2>,dod::member<int,3> > >,int>
_TEXT	ENDS
; Function compile flags: /Ogtpy
;	COMDAT ??$?9V?$pointer@V?$particle@V?$access@U?$member@D$0A@@dod@@U?$member@H$0A@@2@U?$member@H$00@2@U?$member@H$01@2@U?$member@H$02@2@@dod@@@@@dod@@V?$particle@V?$access@U?$member@D$0A@@dod@@U?$member@H$0A@@2@U?$member@H$00@2@U?$member@H$01@2@U?$member@H$02@2@@dod@@@@Urandom_access_traversal_tag@iterators@boost@@V2@HV01@V2@U345@V2@H@iterators@boost@@YA_NABV?$iterator_facade@V?$pointer@V?$particle@V?$access@U?$member@D$0A@@dod@@U?$member@H$0A@@2@U?$member@H$00@2@U?$member@H$01@2@U?$member@H$02@2@@dod@@@@@dod@@V?$particle@V?$access@U?$member@D$0A@@dod@@U?$member@H$0A@@2@U?$member@H$00@2@U?$member@H$01@2@U?$member@H$02@2@@dod@@@@Urandom_access_traversal_tag@iterators@boost@@V3@H@01@0@Z
_TEXT	SEGMENT
_lhs$ = 8						; size = 4
_rhs$ = 12						; size = 4
??$?9V?$pointer@V?$particle@V?$access@U?$member@D$0A@@dod@@U?$member@H$0A@@2@U?$member@H$00@2@U?$member@H$01@2@U?$member@H$02@2@@dod@@@@@dod@@V?$particle@V?$access@U?$member@D$0A@@dod@@U?$member@H$0A@@2@U?$member@H$00@2@U?$member@H$01@2@U?$member@H$02@2@@dod@@@@Urandom_access_traversal_tag@iterators@boost@@V2@HV01@V2@U345@V2@H@iterators@boost@@YA_NABV?$iterator_facade@V?$pointer@V?$particle@V?$access@U?$member@D$0A@@dod@@U?$member@H$0A@@2@U?$member@H$00@2@U?$member@H$01@2@U?$member@H$02@2@@dod@@@@@dod@@V?$particle@V?$access@U?$member@D$0A@@dod@@U?$member@H$0A@@2@U?$member@H$00@2@U?$member@H$01@2@U?$member@H$02@2@@dod@@@@Urandom_access_traversal_tag@iterators@boost@@V3@H@01@0@Z PROC ; boost::iterators::operator!=<dod::pointer<particle<dod::access<dod::member<char,0>,dod::member<int,0>,dod::member<int,1>,dod::member<int,2>,dod::member<int,3> > > >,particle<dod::access<dod::member<char,0>,dod::member<int,0>,dod::member<int,1>,dod::member<int,2>,dod::member<int,3> > >,boost::iterators::random_access_traversal_tag,particle<dod::access<dod::member<char,0>,dod::member<int,0>,dod::member<int,1>,dod::member<int,2>,dod::member<int,3> > >,int,dod::pointer<particle<dod::access<dod::member<char,0>,dod::member<int,0>,dod::member<int,1>,dod::member<int,2>,dod::member<int,3> > > >,particle<dod::access<dod::member<char,0>,dod::member<int,0>,dod::member<int,1>,dod::member<int,2>,dod::member<int,3> > >,boost::iterators::random_access_traversal_tag,particle<dod::access<dod::member<char,0>,dod::member<int,0>,dod::member<int,1>,dod::member<int,2>,dod::member<int,3> > >,int>, COMDAT
; File c:\mingw\include\boost\iterator\iterator_facade.hpp
; Line 891
	mov	eax, DWORD PTR _lhs$[esp-4]
	mov	ecx, DWORD PTR _rhs$[esp-4]
	mov	edx, DWORD PTR [eax]
	xor	eax, eax
	cmp	edx, DWORD PTR [ecx]
	setne	al
	ret	0
??$?9V?$pointer@V?$particle@V?$access@U?$member@D$0A@@dod@@U?$member@H$0A@@2@U?$member@H$00@2@U?$member@H$01@2@U?$member@H$02@2@@dod@@@@@dod@@V?$particle@V?$access@U?$member@D$0A@@dod@@U?$member@H$0A@@2@U?$member@H$00@2@U?$member@H$01@2@U?$member@H$02@2@@dod@@@@Urandom_access_traversal_tag@iterators@boost@@V2@HV01@V2@U345@V2@H@iterators@boost@@YA_NABV?$iterator_facade@V?$pointer@V?$particle@V?$access@U?$member@D$0A@@dod@@U?$member@H$0A@@2@U?$member@H$00@2@U?$member@H$01@2@U?$member@H$02@2@@dod@@@@@dod@@V?$particle@V?$access@U?$member@D$0A@@dod@@U?$member@H$0A@@2@U?$member@H$00@2@U?$member@H$01@2@U?$member@H$02@2@@dod@@@@Urandom_access_traversal_tag@iterators@boost@@V3@H@01@0@Z ENDP ; boost::iterators::operator!=<dod::pointer<particle<dod::access<dod::member<char,0>,dod::member<int,0>,dod::member<int,1>,dod::member<int,2>,dod::member<int,3> > > >,particle<dod::access<dod::member<char,0>,dod::member<int,0>,dod::member<int,1>,dod::member<int,2>,dod::member<int,3> > >,boost::iterators::random_access_traversal_tag,particle<dod::access<dod::member<char,0>,dod::member<int,0>,dod::member<int,1>,dod::member<int,2>,dod::member<int,3> > >,int,dod::pointer<particle<dod::access<dod::member<char,0>,dod::member<int,0>,dod::member<int,1>,dod::member<int,2>,dod::member<int,3> > > >,particle<dod::access<dod::member<char,0>,dod::member<int,0>,dod::member<int,1>,dod::member<int,2>,dod::member<int,3> > >,boost::iterators::random_access_traversal_tag,particle<dod::access<dod::member<char,0>,dod::member<int,0>,dod::member<int,1>,dod::member<int,2>,dod::member<int,3> > >,int>
_TEXT	ENDS
; Function compile flags: /Ogtpy
;	COMDAT ??$measure@V<lambda_0e8cd367240c9f8b6afbbc7d85139419>@@@@YANV<lambda_0e8cd367240c9f8b6afbbc7d85139419>@@@Z
_TEXT	SEGMENT
_runs$1$ = -132						; size = 4
tv744 = -128						; size = 4
tv705 = -128						; size = 4
_i$1$ = -124						; size = 4
tv739 = -120						; size = 4
$T1 = -120						; size = 1
__Val$2 = -120						; size = 8
tv738 = -112						; size = 8
$T3 = -104						; size = 8
$T4 = -96						; size = 8
_trials$ = -88						; size = 80
__$ArrayPad$ = -4					; size = 4
_f$ = 8							; size = 16
??$measure@V<lambda_0e8cd367240c9f8b6afbbc7d85139419>@@@@YANV<lambda_0e8cd367240c9f8b6afbbc7d85139419>@@@Z PROC ; measure<<lambda_0e8cd367240c9f8b6afbbc7d85139419> >, COMDAT
; File c:\users\manu343726\documents\joaquin-dod\dod_perf.cpp
; Line 18
	push	ebp
	mov	ebp, esp
	and	esp, -8					; fffffff8H
	sub	esp, 132				; 00000084H
	mov	eax, DWORD PTR ___security_cookie
	xor	eax, esp
	mov	DWORD PTR __$ArrayPad$[esp+132], eax
; Line 22
	mov	eax, DWORD PTR fs:__tls_array
	mov	ecx, DWORD PTR __tls_index
	push	ebx
	push	esi
	push	edi
	mov	ecx, DWORD PTR [eax+ecx*4]
	mov	eax, DWORD PTR ?$TSS0@?1???$measure@V<lambda_0e8cd367240c9f8b6afbbc7d85139419>@@@@YANV<lambda_0e8cd367240c9f8b6afbbc7d85139419>@@@Z@4HA ; TSS0<`template-parameter-2',V<lambda_0e8cd367240c9f8b6afbbc7d85139419>::asure>
	cmp	eax, DWORD PTR __Init_thread_epoch[ecx]
	jle	SHORT $LN2@measure
	push	OFFSET ?$TSS0@?1???$measure@V<lambda_0e8cd367240c9f8b6afbbc7d85139419>@@@@YANV<lambda_0e8cd367240c9f8b6afbbc7d85139419>@@@Z@4HA ; TSS0<`template-parameter-2',V<lambda_0e8cd367240c9f8b6afbbc7d85139419>::asure>
	call	__Init_thread_header
	add	esp, 4
	cmp	DWORD PTR ?$TSS0@?1???$measure@V<lambda_0e8cd367240c9f8b6afbbc7d85139419>@@@@YANV<lambda_0e8cd367240c9f8b6afbbc7d85139419>@@@Z@4HA, -1 ; TSS0<`template-parameter-2',V<lambda_0e8cd367240c9f8b6afbbc7d85139419>::asure>
	jne	SHORT $LN2@measure
	push	OFFSET ?$TSS0@?1???$measure@V<lambda_0e8cd367240c9f8b6afbbc7d85139419>@@@@YANV<lambda_0e8cd367240c9f8b6afbbc7d85139419>@@@Z@4HA ; TSS0<`template-parameter-2',V<lambda_0e8cd367240c9f8b6afbbc7d85139419>::asure>
	mov	DWORD PTR ?min_time_per_trial@?1???$measure@V<lambda_0e8cd367240c9f8b6afbbc7d85139419>@@@@YANV<lambda_0e8cd367240c9f8b6afbbc7d85139419>@@@Z@4V?$duration@_JU?$ratio@$00$0DOI@@std@@@chrono@std@@B, 200 ; 000000c8H
	mov	DWORD PTR ?min_time_per_trial@?1???$measure@V<lambda_0e8cd367240c9f8b6afbbc7d85139419>@@@@YANV<lambda_0e8cd367240c9f8b6afbbc7d85139419>@@@Z@4V?$duration@_JU?$ratio@$00$0DOI@@std@@@chrono@std@@B+4, 0
	call	__Init_thread_footer
	add	esp, 4
$LN2@measure:
; Line 26
	xor	edx, edx
	mov	DWORD PTR _i$1$[esp+144], 0
	mov	ecx, 1000000000				; 3b9aca00H
	call	__ltod3
	movsd	QWORD PTR tv738[esp+144], xmm0
	npad	6
$LL5@measure:
; Line 27
	xor	eax, eax
	mov	DWORD PTR _runs$1$[esp+144], eax
; Line 30
	lea	eax, DWORD PTR $T3[esp+144]
	push	eax
	call	?now@steady_clock@chrono@std@@SA?AV?$time_point@Usteady_clock@chrono@std@@V?$duration@_JU?$ratio@$00$0DLJKMKAA@@std@@@23@@23@XZ ; std::chrono::steady_clock::now
	add	esp, 4
	mov	ecx, DWORD PTR [eax]
	mov	DWORD PTR ?measure_start@@3V?$time_point@Usteady_clock@chrono@std@@V?$duration@_JU?$ratio@$00$0DLJKMKAA@@std@@@23@@chrono@std@@A, ecx
	mov	eax, DWORD PTR [eax+4]
	mov	DWORD PTR ?measure_start@@3V?$time_point@Usteady_clock@chrono@std@@V?$duration@_JU?$ratio@$00$0DLJKMKAA@@std@@@23@@chrono@std@@A+4, eax
$LL8@measure:
; Line 32
	mov	esi, DWORD PTR _f$[ebp]
	xor	edi, edi
	mov	ecx, DWORD PTR _f$[ebp+4]
	xor	ebx, ebx
	mov	edx, DWORD PTR _f$[ebp+8]
	sub	ecx, esi
	cmp	esi, DWORD PTR _f$[ebp+4]
	mov	DWORD PTR ?render_output@@3HA, edi
	cmova	ecx, ebx
	mov	DWORD PTR tv744[esp+144], ecx
	test	ecx, ecx
	je	SHORT $LN24@measure
	mov	ecx, DWORD PTR _f$[ebp+12]
	sub	ecx, edx
	mov	DWORD PTR tv739[esp+144], ecx
	npad	1
$LL23@measure:
	mov	ecx, DWORD PTR [ecx+edx]
	lea	edx, DWORD PTR [edx+4]
	movsx	eax, BYTE PTR [esi]
	lea	esi, DWORD PTR [esi+1]
	add	ecx, eax
	inc	ebx
	add	ecx, DWORD PTR [edx-4]
	add	edi, ecx
	mov	ecx, DWORD PTR tv739[esp+144]
	cmp	ebx, DWORD PTR tv744[esp+144]
	jne	SHORT $LL23@measure
	mov	DWORD PTR ?render_output@@3HA, edi
$LN24@measure:
; Line 33
	inc	DWORD PTR _runs$1$[esp+144]
; Line 34
	lea	eax, DWORD PTR $T4[esp+144]
	push	eax
	mov	DWORD PTR ?res@?1???$measure@V<lambda_0e8cd367240c9f8b6afbbc7d85139419>@@@@YANV<lambda_0e8cd367240c9f8b6afbbc7d85139419>@@@Z@4HA, edi ; `measure<<lambda_0e8cd367240c9f8b6afbbc7d85139419> >'::`2'::res
	call	?now@steady_clock@chrono@std@@SA?AV?$time_point@Usteady_clock@chrono@std@@V?$duration@_JU?$ratio@$00$0DLJKMKAA@@std@@@23@@23@XZ ; std::chrono::steady_clock::now
	add	esp, 4
	mov	ebx, eax
; Line 35
	mov	edi, DWORD PTR [ebx]
	mov	esi, DWORD PTR [ebx+4]
	push	0
	push	1000000					; 000f4240H
	push	DWORD PTR ?min_time_per_trial@?1???$measure@V<lambda_0e8cd367240c9f8b6afbbc7d85139419>@@@@YANV<lambda_0e8cd367240c9f8b6afbbc7d85139419>@@@Z@4V?$duration@_JU?$ratio@$00$0DOI@@std@@@chrono@std@@B+4
	push	DWORD PTR ?min_time_per_trial@?1???$measure@V<lambda_0e8cd367240c9f8b6afbbc7d85139419>@@@@YANV<lambda_0e8cd367240c9f8b6afbbc7d85139419>@@@Z@4V?$duration@_JU?$ratio@$00$0DOI@@std@@@chrono@std@@B
	call	__allmul
	sub	edi, DWORD PTR ?measure_start@@3V?$time_point@Usteady_clock@chrono@std@@V?$duration@_JU?$ratio@$00$0DLJKMKAA@@std@@@23@@chrono@std@@A
	sbb	esi, DWORD PTR ?measure_start@@3V?$time_point@Usteady_clock@chrono@std@@V?$duration@_JU?$ratio@$00$0DLJKMKAA@@std@@@23@@chrono@std@@A+4
	cmp	esi, edx
	jl	$LL8@measure
	jg	SHORT $LN250@measure
	cmp	edi, eax
	jb	$LL8@measure
$LN250@measure:
; Line 36
	mov	ecx, DWORD PTR [ebx]
	sub	ecx, DWORD PTR ?measure_start@@3V?$time_point@Usteady_clock@chrono@std@@V?$duration@_JU?$ratio@$00$0DLJKMKAA@@std@@@23@@chrono@std@@A
	mov	edx, DWORD PTR [ebx+4]
	sbb	edx, DWORD PTR ?measure_start@@3V?$time_point@Usteady_clock@chrono@std@@V?$duration@_JU?$ratio@$00$0DLJKMKAA@@std@@@23@@chrono@std@@A+4
	call	__ltod3
	divsd	xmm0, QWORD PTR tv738[esp+144]
	mov	eax, DWORD PTR _runs$1$[esp+144]
	mov	ebx, DWORD PTR _i$1$[esp+144]
	movd	xmm1, eax
	cvtdq2pd xmm1, xmm1
	divsd	xmm0, xmm1
	movsd	QWORD PTR _trials$[esp+ebx*8+144], xmm0
	inc	ebx
	mov	DWORD PTR _i$1$[esp+144], ebx
	cmp	ebx, 10					; 0000000aH
	jl	$LL5@measure
; Line 40
	push	DWORD PTR $T1[esp+144]
	lea	eax, DWORD PTR _trials$[esp+228]
	push	10					; 0000000aH
	push	eax
	lea	eax, DWORD PTR _trials$[esp+156]
	push	eax
	call	??$_Sort@PANHU?$less@X@std@@@std@@YAXPAN0HU?$less@X@0@@Z ; std::_Sort<double *,int,std::less<void> >
	lea	esi, DWORD PTR _trials$[esp+176]
	add	esp, 16					; 00000010H
; Line 41
	lea	edi, DWORD PTR _trials$[esp+208]
	mov	ecx, esi
	mov	edx, edi
	xor	eax, eax
	sub	edx, ecx
	xorps	xmm1, xmm1
	add	edx, 7
	movsd	QWORD PTR __Val$2[esp+144], xmm1
	xor	ecx, ecx
	shr	edx, 3
	cmp	esi, edi
	cmova	edx, ecx
	mov	ecx, esi
	test	edx, edx
	je	SHORT $LN224@measure
$LL239@measure:
	addsd	xmm1, QWORD PTR [ecx]
	inc	eax
	add	ecx, 8
	cmp	eax, edx
	jne	SHORT $LL239@measure
	movsd	QWORD PTR __Val$2[esp+144], xmm1
$LN224@measure:
; Line 43
	mov	ecx, DWORD PTR __$ArrayPad$[esp+144]
	fld	QWORD PTR __Val$2[esp+144]
	fdiv	QWORD PTR __real@4018000000000000
	pop	edi
	pop	esi
	pop	ebx
	xor	ecx, esp
	call	@__security_check_cookie@4
	mov	esp, ebp
	pop	ebp
	ret	0
??$measure@V<lambda_0e8cd367240c9f8b6afbbc7d85139419>@@@@YANV<lambda_0e8cd367240c9f8b6afbbc7d85139419>@@@Z ENDP ; measure<<lambda_0e8cd367240c9f8b6afbbc7d85139419> >
_TEXT	ENDS
; Function compile flags: /Ogtpy
;	COMDAT ??$measure@V<lambda_3c38aff788b9781cf78ca5a917f16ae4>@@@@YANV<lambda_3c38aff788b9781cf78ca5a917f16ae4>@@@Z
_TEXT	SEGMENT
_runs$1$ = -124						; size = 4
_i$1$ = -120						; size = 4
$T1 = -120						; size = 1
__Val$2 = -120						; size = 8
tv792 = -112						; size = 8
$T3 = -104						; size = 8
$T4 = -96						; size = 8
_trials$ = -88						; size = 80
__$ArrayPad$ = -4					; size = 4
_f$ = 8							; size = 8
??$measure@V<lambda_3c38aff788b9781cf78ca5a917f16ae4>@@@@YANV<lambda_3c38aff788b9781cf78ca5a917f16ae4>@@@Z PROC ; measure<<lambda_3c38aff788b9781cf78ca5a917f16ae4> >, COMDAT
; File c:\users\manu343726\documents\joaquin-dod\dod_perf.cpp
; Line 18
	push	ebp
	mov	ebp, esp
	and	esp, -8					; fffffff8H
	sub	esp, 124				; 0000007cH
	mov	eax, DWORD PTR ___security_cookie
	xor	eax, esp
	mov	DWORD PTR __$ArrayPad$[esp+124], eax
; Line 22
	mov	eax, DWORD PTR fs:__tls_array
	mov	ecx, DWORD PTR __tls_index
	push	ebx
	push	esi
	push	edi
	mov	ecx, DWORD PTR [eax+ecx*4]
	mov	eax, DWORD PTR ?$TSS0@?1???$measure@V<lambda_3c38aff788b9781cf78ca5a917f16ae4>@@@@YANV<lambda_3c38aff788b9781cf78ca5a917f16ae4>@@@Z@4HA ; TSS0<`template-parameter-2',V<lambda_3c38aff788b9781cf78ca5a917f16ae4>::asure>
	cmp	eax, DWORD PTR __Init_thread_epoch[ecx]
	jle	SHORT $LN2@measure
	push	OFFSET ?$TSS0@?1???$measure@V<lambda_3c38aff788b9781cf78ca5a917f16ae4>@@@@YANV<lambda_3c38aff788b9781cf78ca5a917f16ae4>@@@Z@4HA ; TSS0<`template-parameter-2',V<lambda_3c38aff788b9781cf78ca5a917f16ae4>::asure>
	call	__Init_thread_header
	add	esp, 4
	cmp	DWORD PTR ?$TSS0@?1???$measure@V<lambda_3c38aff788b9781cf78ca5a917f16ae4>@@@@YANV<lambda_3c38aff788b9781cf78ca5a917f16ae4>@@@Z@4HA, -1 ; TSS0<`template-parameter-2',V<lambda_3c38aff788b9781cf78ca5a917f16ae4>::asure>
	jne	SHORT $LN2@measure
	push	OFFSET ?$TSS0@?1???$measure@V<lambda_3c38aff788b9781cf78ca5a917f16ae4>@@@@YANV<lambda_3c38aff788b9781cf78ca5a917f16ae4>@@@Z@4HA ; TSS0<`template-parameter-2',V<lambda_3c38aff788b9781cf78ca5a917f16ae4>::asure>
	mov	DWORD PTR ?min_time_per_trial@?1???$measure@V<lambda_3c38aff788b9781cf78ca5a917f16ae4>@@@@YANV<lambda_3c38aff788b9781cf78ca5a917f16ae4>@@@Z@4V?$duration@_JU?$ratio@$00$0DOI@@std@@@chrono@std@@B, 200 ; 000000c8H
	mov	DWORD PTR ?min_time_per_trial@?1???$measure@V<lambda_3c38aff788b9781cf78ca5a917f16ae4>@@@@YANV<lambda_3c38aff788b9781cf78ca5a917f16ae4>@@@Z@4V?$duration@_JU?$ratio@$00$0DOI@@std@@@chrono@std@@B+4, 0
	call	__Init_thread_footer
	add	esp, 4
$LN2@measure:
; Line 26
	xor	edx, edx
	mov	DWORD PTR _i$1$[esp+136], 0
	mov	ecx, 1000000000				; 3b9aca00H
	call	__ltod3
	movsd	QWORD PTR tv792[esp+136], xmm0
$LL5@measure:
; Line 30
	lea	eax, DWORD PTR $T3[esp+136]
	xor	ebx, ebx
	push	eax
	call	?now@steady_clock@chrono@std@@SA?AV?$time_point@Usteady_clock@chrono@std@@V?$duration@_JU?$ratio@$00$0DLJKMKAA@@std@@@23@@23@XZ ; std::chrono::steady_clock::now
	add	esp, 4
	mov	ecx, DWORD PTR [eax]
	mov	DWORD PTR ?measure_start@@3V?$time_point@Usteady_clock@chrono@std@@V?$duration@_JU?$ratio@$00$0DLJKMKAA@@std@@@23@@chrono@std@@A, ecx
	mov	eax, DWORD PTR [eax+4]
	mov	DWORD PTR ?measure_start@@3V?$time_point@Usteady_clock@chrono@std@@V?$duration@_JU?$ratio@$00$0DLJKMKAA@@std@@@23@@chrono@std@@A+4, eax
	jmp	SHORT $LN8@measure
$LN285@measure:
	mov	ebx, DWORD PTR _runs$1$[esp+136]
$LN8@measure:
; Line 32
	mov	ecx, DWORD PTR _f$[ebp]
	xor	edi, edi
	mov	edx, DWORD PTR _f$[ebp+4]
	mov	DWORD PTR ?render_output@@3HA, edi
	cmp	ecx, edx
	je	SHORT $LN24@measure
	npad	5
$LL23@measure:
	mov	eax, ecx
	add	ecx, 20					; 00000014H
	mov	esi, DWORD PTR [eax+8]
	add	esi, DWORD PTR [eax+4]
	movsx	eax, BYTE PTR [eax]
	add	edi, eax
	add	edi, esi
	cmp	ecx, edx
	jne	SHORT $LL23@measure
	mov	DWORD PTR ?render_output@@3HA, edi
$LN24@measure:
; Line 34
	lea	eax, DWORD PTR $T4[esp+136]
	mov	DWORD PTR ?res@?1???$measure@V<lambda_3c38aff788b9781cf78ca5a917f16ae4>@@@@YANV<lambda_3c38aff788b9781cf78ca5a917f16ae4>@@@Z@4HA, edi ; `measure<<lambda_3c38aff788b9781cf78ca5a917f16ae4> >'::`2'::res
	inc	ebx
	push	eax
	mov	DWORD PTR _runs$1$[esp+140], ebx
	call	?now@steady_clock@chrono@std@@SA?AV?$time_point@Usteady_clock@chrono@std@@V?$duration@_JU?$ratio@$00$0DLJKMKAA@@std@@@23@@23@XZ ; std::chrono::steady_clock::now
	add	esp, 4
	mov	ebx, eax
; Line 35
	mov	edi, DWORD PTR [ebx]
	mov	esi, DWORD PTR [ebx+4]
	push	0
	push	1000000					; 000f4240H
	push	DWORD PTR ?min_time_per_trial@?1???$measure@V<lambda_3c38aff788b9781cf78ca5a917f16ae4>@@@@YANV<lambda_3c38aff788b9781cf78ca5a917f16ae4>@@@Z@4V?$duration@_JU?$ratio@$00$0DOI@@std@@@chrono@std@@B+4
	push	DWORD PTR ?min_time_per_trial@?1???$measure@V<lambda_3c38aff788b9781cf78ca5a917f16ae4>@@@@YANV<lambda_3c38aff788b9781cf78ca5a917f16ae4>@@@Z@4V?$duration@_JU?$ratio@$00$0DOI@@std@@@chrono@std@@B
	call	__allmul
	sub	edi, DWORD PTR ?measure_start@@3V?$time_point@Usteady_clock@chrono@std@@V?$duration@_JU?$ratio@$00$0DLJKMKAA@@std@@@23@@chrono@std@@A
	sbb	esi, DWORD PTR ?measure_start@@3V?$time_point@Usteady_clock@chrono@std@@V?$duration@_JU?$ratio@$00$0DLJKMKAA@@std@@@23@@chrono@std@@A+4
	cmp	esi, edx
	jl	SHORT $LN285@measure
	jg	SHORT $LN283@measure
	cmp	edi, eax
	jb	$LN285@measure
$LN283@measure:
; Line 36
	mov	ecx, DWORD PTR [ebx]
	sub	ecx, DWORD PTR ?measure_start@@3V?$time_point@Usteady_clock@chrono@std@@V?$duration@_JU?$ratio@$00$0DLJKMKAA@@std@@@23@@chrono@std@@A
	mov	edx, DWORD PTR [ebx+4]
	sbb	edx, DWORD PTR ?measure_start@@3V?$time_point@Usteady_clock@chrono@std@@V?$duration@_JU?$ratio@$00$0DLJKMKAA@@std@@@23@@chrono@std@@A+4
	call	__ltod3
	divsd	xmm0, QWORD PTR tv792[esp+136]
	mov	esi, DWORD PTR _i$1$[esp+136]
	movd	xmm1, DWORD PTR _runs$1$[esp+136]
	cvtdq2pd xmm1, xmm1
	divsd	xmm0, xmm1
	movsd	QWORD PTR _trials$[esp+esi*8+136], xmm0
	inc	esi
	mov	DWORD PTR _i$1$[esp+136], esi
	cmp	esi, 10					; 0000000aH
	jl	$LL5@measure
; Line 40
	push	DWORD PTR $T1[esp+136]
	lea	eax, DWORD PTR _trials$[esp+220]
	push	10					; 0000000aH
	push	eax
	lea	eax, DWORD PTR _trials$[esp+148]
	push	eax
	call	??$_Sort@PANHU?$less@X@std@@@std@@YAXPAN0HU?$less@X@0@@Z ; std::_Sort<double *,int,std::less<void> >
	lea	esi, DWORD PTR _trials$[esp+168]
	add	esp, 16					; 00000010H
; Line 41
	lea	edi, DWORD PTR _trials$[esp+200]
	mov	ecx, esi
	mov	edx, edi
	xor	eax, eax
	sub	edx, ecx
	xorps	xmm1, xmm1
	add	edx, 7
	movsd	QWORD PTR __Val$2[esp+136], xmm1
	xor	ecx, ecx
	shr	edx, 3
	cmp	esi, edi
	cmova	edx, ecx
	mov	ecx, esi
	test	edx, edx
	je	SHORT $LN257@measure
$LL272@measure:
	addsd	xmm1, QWORD PTR [ecx]
	inc	eax
	add	ecx, 8
	cmp	eax, edx
	jne	SHORT $LL272@measure
	movsd	QWORD PTR __Val$2[esp+136], xmm1
$LN257@measure:
; Line 43
	mov	ecx, DWORD PTR __$ArrayPad$[esp+136]
	fld	QWORD PTR __Val$2[esp+136]
	fdiv	QWORD PTR __real@4018000000000000
	pop	edi
	pop	esi
	pop	ebx
	xor	ecx, esp
	call	@__security_check_cookie@4
	mov	esp, ebp
	pop	ebp
	ret	0
??$measure@V<lambda_3c38aff788b9781cf78ca5a917f16ae4>@@@@YANV<lambda_3c38aff788b9781cf78ca5a917f16ae4>@@@Z ENDP ; measure<<lambda_3c38aff788b9781cf78ca5a917f16ae4> >
_TEXT	ENDS
; Function compile flags: /Ogtpy
;	COMDAT ??$?0PAHPAH@?$access@U?$member@H$0A@@dod@@U?$member@H$00@2@@dod@@QAE@$$QAPAH0@Z
_TEXT	SEGMENT
_arg0$ = 8						; size = 4
_<args_0>$ = 12						; size = 4
??$?0PAHPAH@?$access@U?$member@H$0A@@dod@@U?$member@H$00@2@@dod@@QAE@$$QAPAH0@Z PROC ; dod::access<dod::member<int,0>,dod::member<int,1> >::access<dod::member<int,0>,dod::member<int,1> ><int *,int *>, COMDAT
; _this$ = ecx
; File c:\users\manu343726\documents\joaquin-dod\dod_perf.cpp
; Line 99
	mov	eax, DWORD PTR _arg0$[esp-4]
	mov	eax, DWORD PTR [eax]
	mov	DWORD PTR [ecx], eax
; Line 100
	mov	eax, DWORD PTR _<args_0>$[esp-4]
	mov	eax, DWORD PTR [eax]
	mov	DWORD PTR [ecx+4], eax
; Line 101
	mov	eax, ecx
	ret	8
??$?0PAHPAH@?$access@U?$member@H$0A@@dod@@U?$member@H$00@2@@dod@@QAE@$$QAPAH0@Z ENDP ; dod::access<dod::member<int,0>,dod::member<int,1> >::access<dod::member<int,0>,dod::member<int,1> ><int *,int *>
_TEXT	ENDS
; Function compile flags: /Ogtpy
;	COMDAT ??$?0PAHPAHPAHPAH@?$access@U?$member@H$0A@@dod@@U?$member@H$00@2@U?$member@H$01@2@U?$member@H$02@2@@dod@@QAE@$$QAPAH000@Z
_TEXT	SEGMENT
_arg0$ = 8						; size = 4
_<args_0>$ = 12						; size = 4
_<args_1>$ = 16						; size = 4
_<args_2>$ = 20						; size = 4
??$?0PAHPAHPAHPAH@?$access@U?$member@H$0A@@dod@@U?$member@H$00@2@U?$member@H$01@2@U?$member@H$02@2@@dod@@QAE@$$QAPAH000@Z PROC ; dod::access<dod::member<int,0>,dod::member<int,1>,dod::member<int,2>,dod::member<int,3> >::access<dod::member<int,0>,dod::member<int,1>,dod::member<int,2>,dod::member<int,3> ><int *,int *,int *,int *>, COMDAT
; _this$ = ecx
; File c:\users\manu343726\documents\joaquin-dod\dod_perf.cpp
; Line 99
	mov	eax, DWORD PTR _arg0$[esp-4]
	mov	eax, DWORD PTR [eax]
	mov	DWORD PTR [ecx], eax
; Line 100
	mov	eax, DWORD PTR _<args_0>$[esp-4]
	mov	eax, DWORD PTR [eax]
	mov	DWORD PTR [ecx+4], eax
	mov	eax, DWORD PTR _<args_1>$[esp-4]
	mov	eax, DWORD PTR [eax]
	mov	DWORD PTR [ecx+8], eax
	mov	eax, DWORD PTR _<args_2>$[esp-4]
	mov	eax, DWORD PTR [eax]
	mov	DWORD PTR [ecx+12], eax
; Line 101
	mov	eax, ecx
	ret	16					; 00000010H
??$?0PAHPAHPAHPAH@?$access@U?$member@H$0A@@dod@@U?$member@H$00@2@U?$member@H$01@2@U?$member@H$02@2@@dod@@QAE@$$QAPAH000@Z ENDP ; dod::access<dod::member<int,0>,dod::member<int,1>,dod::member<int,2>,dod::member<int,3> >::access<dod::member<int,0>,dod::member<int,1>,dod::member<int,2>,dod::member<int,3> ><int *,int *,int *,int *>
_TEXT	ENDS
; Function compile flags: /Ogtpy
;	COMDAT ??$forward@PAH@std@@YA$$QAPAHAAPAH@Z
_TEXT	SEGMENT
__Arg$ = 8						; size = 4
??$forward@PAH@std@@YA$$QAPAHAAPAH@Z PROC		; std::forward<int *>, COMDAT
; File c:\program files (x86)\microsoft visual studio 14.0\vc\include\type_traits
; Line 1294
	mov	eax, DWORD PTR __Arg$[esp-4]
; Line 1295
	ret	0
??$forward@PAH@std@@YA$$QAPAHAAPAH@Z ENDP		; std::forward<int *>
_TEXT	ENDS
; Function compile flags: /Ogtpy
;	COMDAT ??$forward@PAD@std@@YA$$QAPADAAPAD@Z
_TEXT	SEGMENT
__Arg$ = 8						; size = 4
??$forward@PAD@std@@YA$$QAPADAAPAD@Z PROC		; std::forward<char *>, COMDAT
; File c:\program files (x86)\microsoft visual studio 14.0\vc\include\type_traits
; Line 1294
	mov	eax, DWORD PTR __Arg$[esp-4]
; Line 1295
	ret	0
??$forward@PAD@std@@YA$$QAPADAAPAD@Z ENDP		; std::forward<char *>
_TEXT	ENDS
; Function compile flags: /Ogtpy
;	COMDAT ??$?G_JU?$ratio@$00$0DLJKMKAA@@std@@_JU01@@chrono@std@@YA?AV?$duration@_JU?$ratio@$00$0DLJKMKAA@@std@@@01@ABV201@0@Z
_TEXT	SEGMENT
___$ReturnUdt$ = 8					; size = 4
__Left$ = 12						; size = 4
__Right$ = 16						; size = 4
??$?G_JU?$ratio@$00$0DLJKMKAA@@std@@_JU01@@chrono@std@@YA?AV?$duration@_JU?$ratio@$00$0DLJKMKAA@@std@@@01@ABV201@0@Z PROC ; std::chrono::operator-<__int64,std::ratio<1,1000000000>,__int64,std::ratio<1,1000000000> >, COMDAT
; File c:\program files (x86)\microsoft visual studio 14.0\vc\include\chrono
; Line 349
	mov	eax, DWORD PTR __Left$[esp-4]
	mov	edx, DWORD PTR [eax]
	mov	ecx, DWORD PTR [eax+4]
	mov	eax, DWORD PTR __Right$[esp-4]
	sub	edx, DWORD PTR [eax]
	sbb	ecx, DWORD PTR [eax+4]
	mov	eax, DWORD PTR ___$ReturnUdt$[esp-4]
	mov	DWORD PTR [eax], edx
	mov	DWORD PTR [eax+4], ecx
; Line 350
	ret	0
??$?G_JU?$ratio@$00$0DLJKMKAA@@std@@_JU01@@chrono@std@@YA?AV?$duration@_JU?$ratio@$00$0DLJKMKAA@@std@@@01@ABV201@0@Z ENDP ; std::chrono::operator-<__int64,std::ratio<1,1000000000>,__int64,std::ratio<1,1000000000> >
_TEXT	ENDS
; Function compile flags: /Ogtpy
;	COMDAT ??$_Allocate@D@std@@YAPADIPAD_N@Z
_TEXT	SEGMENT
__Count$ = 8						; size = 4
___formal$ = 12						; size = 4
__Try_aligned_allocation$ = 16				; size = 1
??$_Allocate@D@std@@YAPADIPAD_N@Z PROC			; std::_Allocate<char>, COMDAT
; File c:\program files (x86)\microsoft visual studio 14.0\vc\include\xmemory0
; Line 57
	mov	eax, DWORD PTR __Count$[esp-4]
	test	eax, eax
	jne	SHORT $LN2@Allocate
$LN1@Allocate:
; Line 93
	ret	0
$LN2@Allocate:
; Line 61
	cmp	eax, -1
	jbe	SHORT $LN3@Allocate
; Line 62
	jmp	DWORD PTR __imp_?_Xbad_alloc@std@@YAXXZ
$LN3@Allocate:
; Line 67
	cmp	BYTE PTR __Try_aligned_allocation$[esp-4], 0
	je	SHORT $LN4@Allocate
	cmp	eax, 4096				; 00001000H
	jb	SHORT $LN4@Allocate
; Line 71
	lea	ecx, DWORD PTR [eax+35]
; Line 72
	cmp	ecx, eax
	ja	SHORT $LN6@Allocate
; Line 73
	jmp	DWORD PTR __imp_?_Xbad_alloc@std@@YAXXZ
$LN6@Allocate:
; Line 75
	push	ecx
	call	??2@YAPAXI@Z				; operator new
	mov	ecx, eax
	add	esp, 4
; Line 76
	test	ecx, ecx
	jne	SHORT $LN7@Allocate
	jmp	DWORD PTR __imp___invalid_parameter_noinfo_noreturn
$LN7@Allocate:
; Line 77
	lea	eax, DWORD PTR [ecx+35]
	and	eax, -32				; ffffffe0H
; Line 79
	mov	DWORD PTR [eax-4], ecx
; Line 93
	ret	0
$LN4@Allocate:
; Line 89
	push	eax
	call	??2@YAPAXI@Z				; operator new
	add	esp, 4
; Line 90
	test	eax, eax
	jne	SHORT $LN1@Allocate
	jmp	DWORD PTR __imp___invalid_parameter_noinfo_noreturn
??$_Allocate@D@std@@YAPADIPAD_N@Z ENDP			; std::_Allocate<char>
_TEXT	ENDS
; Function compile flags: /Ogtpy
;	COMDAT ??$_Allocate@H@std@@YAPAHIPAH_N@Z
_TEXT	SEGMENT
__Count$ = 8						; size = 4
___formal$ = 12						; size = 4
__Try_aligned_allocation$ = 16				; size = 1
??$_Allocate@H@std@@YAPAHIPAH_N@Z PROC			; std::_Allocate<int>, COMDAT
; File c:\program files (x86)\microsoft visual studio 14.0\vc\include\xmemory0
; Line 57
	mov	eax, DWORD PTR __Count$[esp-4]
	test	eax, eax
	jne	SHORT $LN2@Allocate
$LN1@Allocate:
; Line 93
	ret	0
$LN2@Allocate:
; Line 61
	cmp	eax, 1073741823				; 3fffffffH
	jbe	SHORT $LN3@Allocate
; Line 62
	jmp	DWORD PTR __imp_?_Xbad_alloc@std@@YAXXZ
$LN3@Allocate:
; Line 63
	shl	eax, 2
; Line 67
	cmp	BYTE PTR __Try_aligned_allocation$[esp-4], 0
	je	SHORT $LN4@Allocate
	cmp	eax, 4096				; 00001000H
	jb	SHORT $LN4@Allocate
; Line 71
	lea	ecx, DWORD PTR [eax+35]
; Line 72
	cmp	ecx, eax
	ja	SHORT $LN6@Allocate
; Line 73
	jmp	DWORD PTR __imp_?_Xbad_alloc@std@@YAXXZ
$LN6@Allocate:
; Line 75
	push	ecx
	call	??2@YAPAXI@Z				; operator new
	mov	ecx, eax
	add	esp, 4
; Line 76
	test	ecx, ecx
	jne	SHORT $LN7@Allocate
	jmp	DWORD PTR __imp___invalid_parameter_noinfo_noreturn
$LN7@Allocate:
; Line 77
	lea	eax, DWORD PTR [ecx+35]
	and	eax, -32				; ffffffe0H
; Line 79
	mov	DWORD PTR [eax-4], ecx
; Line 93
	ret	0
$LN4@Allocate:
; Line 89
	push	eax
	call	??2@YAPAXI@Z				; operator new
	add	esp, 4
; Line 90
	test	eax, eax
	jne	SHORT $LN1@Allocate
	jmp	DWORD PTR __imp___invalid_parameter_noinfo_noreturn
??$_Allocate@H@std@@YAPAHIPAH_N@Z ENDP			; std::_Allocate<int>
_TEXT	ENDS
; Function compile flags: /Ogtpy
;	COMDAT ??$_Allocate@Vplain_particle@@@std@@YAPAVplain_particle@@IPAV1@_N@Z
_TEXT	SEGMENT
__Count$ = 8						; size = 4
___formal$ = 12						; size = 4
__Try_aligned_allocation$ = 16				; size = 1
??$_Allocate@Vplain_particle@@@std@@YAPAVplain_particle@@IPAV1@_N@Z PROC ; std::_Allocate<plain_particle>, COMDAT
; File c:\program files (x86)\microsoft visual studio 14.0\vc\include\xmemory0
; Line 57
	mov	eax, DWORD PTR __Count$[esp-4]
	test	eax, eax
	jne	SHORT $LN2@Allocate
$LN1@Allocate:
; Line 93
	ret	0
$LN2@Allocate:
; Line 61
	cmp	eax, 214748364				; 0cccccccH
	jbe	SHORT $LN3@Allocate
; Line 62
	jmp	DWORD PTR __imp_?_Xbad_alloc@std@@YAXXZ
$LN3@Allocate:
; Line 63
	lea	eax, DWORD PTR [eax+eax*4]
	shl	eax, 2
; Line 67
	cmp	BYTE PTR __Try_aligned_allocation$[esp-4], 0
	je	SHORT $LN4@Allocate
	cmp	eax, 4096				; 00001000H
	jb	SHORT $LN4@Allocate
; Line 71
	lea	ecx, DWORD PTR [eax+35]
; Line 72
	cmp	ecx, eax
	ja	SHORT $LN6@Allocate
; Line 73
	jmp	DWORD PTR __imp_?_Xbad_alloc@std@@YAXXZ
$LN6@Allocate:
; Line 75
	push	ecx
	call	??2@YAPAXI@Z				; operator new
	mov	ecx, eax
	add	esp, 4
; Line 76
	test	ecx, ecx
	jne	SHORT $LN7@Allocate
	jmp	DWORD PTR __imp___invalid_parameter_noinfo_noreturn
$LN7@Allocate:
; Line 77
	lea	eax, DWORD PTR [ecx+35]
	and	eax, -32				; ffffffe0H
; Line 79
	mov	DWORD PTR [eax-4], ecx
; Line 93
	ret	0
$LN4@Allocate:
; Line 89
	push	eax
	call	??2@YAPAXI@Z				; operator new
	add	esp, 4
; Line 90
	test	eax, eax
	jne	SHORT $LN1@Allocate
	jmp	DWORD PTR __imp___invalid_parameter_noinfo_noreturn
??$_Allocate@Vplain_particle@@@std@@YAPAVplain_particle@@IPAV1@_N@Z ENDP ; std::_Allocate<plain_particle>
_TEXT	ENDS
; Function compile flags: /Ogtpy
;	COMDAT ??$_Deallocate@D@std@@YAXPADI@Z
_TEXT	SEGMENT
__Ptr$ = 8						; size = 4
__Count$ = 12						; size = 4
