	.text
	.file	"/home/manu343726/Documentos/joaquin-dod/dod_perfv2.cpp"
	.text
	.globl	_Z12pause_timingv
	.align	16, 0x90
	.type	_Z12pause_timingv,@function
_Z12pause_timingv:                      # @_Z12pause_timingv
.Lfunc_begin0:
	.loc	7 46 0                  # /home/manu343726/Documentos/joaquin-dod/dod_perfv2.cpp:46:0
	.cfi_startproc
# BB#0:
	pushq	%rbp
.Ltmp0:
	.cfi_def_cfa_offset 16
.Ltmp1:
	.cfi_offset %rbp, -16
	movq	%rsp, %rbp
.Ltmp2:
	.cfi_def_cfa_register %rbp
	.loc	7 47 17 prologue_end    # /home/manu343726/Documentos/joaquin-dod/dod_perfv2.cpp:47:17
.Ltmp3:
	subq	$16, %rsp
	callq	_ZNSt6chrono3_V212system_clock3nowEv
	movq	%rax, -8(%rbp)
	.loc	7 47 3 is_stmt 0        # /home/manu343726/Documentos/joaquin-dod/dod_perfv2.cpp:47:3
	movq	-8(%rbp), %rax
	movq	%rax, measure_pause
	.loc	7 48 1 is_stmt 1        # /home/manu343726/Documentos/joaquin-dod/dod_perfv2.cpp:48:1
	addq	$16, %rsp
	popq	%rbp
	retq
.Ltmp4:
.Ltmp5:
	.size	_Z12pause_timingv, .Ltmp5-_Z12pause_timingv
.Lfunc_end0:
	.cfi_endproc

	.globl	_Z13resume_timingv
	.align	16, 0x90
	.type	_Z13resume_timingv,@function
_Z13resume_timingv:                     # @_Z13resume_timingv
.Lfunc_begin1:
	.loc	7 51 0                  # /home/manu343726/Documentos/joaquin-dod/dod_perfv2.cpp:51:0
	.cfi_startproc
# BB#0:
	pushq	%rbp
.Ltmp6:
	.cfi_def_cfa_offset 16
.Ltmp7:
	.cfi_offset %rbp, -16
	movq	%rsp, %rbp
.Ltmp8:
	.cfi_def_cfa_register %rbp
	.loc	7 52 18 prologue_end    # /home/manu343726/Documentos/joaquin-dod/dod_perfv2.cpp:52:18
.Ltmp9:
	subq	$32, %rsp
	callq	_ZNSt6chrono3_V212system_clock3nowEv
	leaq	-16(%rbp), %rdi
	movabsq	$measure_pause, %rsi
	movq	%rax, -16(%rbp)
	.loc	7 52 59 is_stmt 0       # /home/manu343726/Documentos/joaquin-dod/dod_perfv2.cpp:52:59
	callq	_ZNSt6chronomiINS_3_V212system_clockENS_8durationIlSt5ratioILl1ELl1000000000EEEES6_EENSt11common_typeIJT0_T1_EE4typeERKNS_10time_pointIT_S8_EERKNSC_ISD_S9_EE
	movabsq	$measure_start, %rdi
	leaq	-8(%rbp), %rsi
	movq	%rax, -8(%rbp)
	.loc	7 52 3                  # /home/manu343726/Documentos/joaquin-dod/dod_perfv2.cpp:52:3
	callq	_ZNSt6chrono10time_pointINS_3_V212system_clockENS_8durationIlSt5ratioILl1ELl1000000000EEEEEpLERKS6_
	.loc	7 53 1 is_stmt 1        # /home/manu343726/Documentos/joaquin-dod/dod_perfv2.cpp:53:1
	movq	%rax, -24(%rbp)         # 8-byte Spill
	addq	$32, %rsp
	popq	%rbp
	retq
.Ltmp10:
.Ltmp11:
	.size	_Z13resume_timingv, .Ltmp11-_Z13resume_timingv
.Lfunc_end1:
	.cfi_endproc

	.section	.text._ZNSt6chrono10time_pointINS_3_V212system_clockENS_8durationIlSt5ratioILl1ELl1000000000EEEEEpLERKS6_,"axG",@progbits,_ZNSt6chrono10time_pointINS_3_V212system_clockENS_8durationIlSt5ratioILl1ELl1000000000EEEEEpLERKS6_,comdat
	.weak	_ZNSt6chrono10time_pointINS_3_V212system_clockENS_8durationIlSt5ratioILl1ELl1000000000EEEEEpLERKS6_
	.align	16, 0x90
	.type	_ZNSt6chrono10time_pointINS_3_V212system_clockENS_8durationIlSt5ratioILl1ELl1000000000EEEEEpLERKS6_,@function
_ZNSt6chrono10time_pointINS_3_V212system_clockENS_8durationIlSt5ratioILl1ELl1000000000EEEEEpLERKS6_: # @_ZNSt6chrono10time_pointINS_3_V212system_clockENS_8durationIlSt5ratioILl1ELl1000000000EEEEEpLERKS6_
.Lfunc_begin2:
	.loc	2 574 0                 # /usr/bin/../lib64/gcc/x86_64-unknown-linux-gnu/5.2.0/../../../../include/c++/5.2.0/chrono:574:0
	.cfi_startproc
# BB#0:
	pushq	%rbp
.Ltmp12:
	.cfi_def_cfa_offset 16
.Ltmp13:
	.cfi_offset %rbp, -16
	movq	%rsp, %rbp
.Ltmp14:
	.cfi_def_cfa_register %rbp
	subq	$48, %rsp
	movq	%rdi, -8(%rbp)
	movq	%rsi, -16(%rbp)
	movq	-8(%rbp), %rsi
	.loc	2 575 4 prologue_end    # /usr/bin/../lib64/gcc/x86_64-unknown-linux-gnu/5.2.0/../../../../include/c++/5.2.0/chrono:575:4
.Ltmp15:
	movq	-16(%rbp), %rdi
	movq	%rdi, -24(%rbp)         # 8-byte Spill
	movq	%rsi, %rdi
	movq	-24(%rbp), %rax         # 8-byte Reload
	movq	%rsi, -32(%rbp)         # 8-byte Spill
	movq	%rax, %rsi
	callq	_ZNSt6chrono8durationIlSt5ratioILl1ELl1000000000EEEpLERKS3_
	.loc	2 576 4                 # /usr/bin/../lib64/gcc/x86_64-unknown-linux-gnu/5.2.0/../../../../include/c++/5.2.0/chrono:576:4
	movq	-32(%rbp), %rsi         # 8-byte Reload
	movq	%rax, -40(%rbp)         # 8-byte Spill
	movq	%rsi, %rax
	addq	$48, %rsp
	popq	%rbp
	retq
.Ltmp16:
.Ltmp17:
	.size	_ZNSt6chrono10time_pointINS_3_V212system_clockENS_8durationIlSt5ratioILl1ELl1000000000EEEEEpLERKS6_, .Ltmp17-_ZNSt6chrono10time_pointINS_3_V212system_clockENS_8durationIlSt5ratioILl1ELl1000000000EEEEEpLERKS6_
.Lfunc_end2:
	.cfi_endproc

	.section	.text._ZNSt6chronomiINS_3_V212system_clockENS_8durationIlSt5ratioILl1ELl1000000000EEEES6_EENSt11common_typeIJT0_T1_EE4typeERKNS_10time_pointIT_S8_EERKNSC_ISD_S9_EE,"axG",@progbits,_ZNSt6chronomiINS_3_V212system_clockENS_8durationIlSt5ratioILl1ELl1000000000EEEES6_EENSt11common_typeIJT0_T1_EE4typeERKNS_10time_pointIT_S8_EERKNSC_ISD_S9_EE,comdat
	.weak	_ZNSt6chronomiINS_3_V212system_clockENS_8durationIlSt5ratioILl1ELl1000000000EEEES6_EENSt11common_typeIJT0_T1_EE4typeERKNS_10time_pointIT_S8_EERKNSC_ISD_S9_EE
	.align	16, 0x90
	.type	_ZNSt6chronomiINS_3_V212system_clockENS_8durationIlSt5ratioILl1ELl1000000000EEEES6_EENSt11common_typeIJT0_T1_EE4typeERKNS_10time_pointIT_S8_EERKNSC_ISD_S9_EE,@function
_ZNSt6chronomiINS_3_V212system_clockENS_8durationIlSt5ratioILl1ELl1000000000EEEES6_EENSt11common_typeIJT0_T1_EE4typeERKNS_10time_pointIT_S8_EERKNSC_ISD_S9_EE: # @_ZNSt6chronomiINS_3_V212system_clockENS_8durationIlSt5ratioILl1ELl1000000000EEEES6_EENSt11common_typeIJT0_T1_EE4typeERKNS_10time_pointIT_S8_EERKNSC_ISD_S9_EE
.Lfunc_begin3:
	.loc	2 652 0                 # /usr/bin/../lib64/gcc/x86_64-unknown-linux-gnu/5.2.0/../../../../include/c++/5.2.0/chrono:652:0
	.cfi_startproc
# BB#0:
	pushq	%rbp
.Ltmp18:
	.cfi_def_cfa_offset 16
.Ltmp19:
	.cfi_offset %rbp, -16
	movq	%rsp, %rbp
.Ltmp20:
	.cfi_def_cfa_register %rbp
	subq	$48, %rsp
	movq	%rdi, -16(%rbp)
	movq	%rsi, -24(%rbp)
	.loc	2 652 16 prologue_end   # /usr/bin/../lib64/gcc/x86_64-unknown-linux-gnu/5.2.0/../../../../include/c++/5.2.0/chrono:652:16
.Ltmp21:
	movq	-16(%rbp), %rdi
	callq	_ZNKSt6chrono10time_pointINS_3_V212system_clockENS_8durationIlSt5ratioILl1ELl1000000000EEEEE16time_since_epochEv
	movq	%rax, -32(%rbp)
	.loc	2 652 43 is_stmt 0      # /usr/bin/../lib64/gcc/x86_64-unknown-linux-gnu/5.2.0/../../../../include/c++/5.2.0/chrono:652:43
	movq	-24(%rbp), %rdi
	callq	_ZNKSt6chrono10time_pointINS_3_V212system_clockENS_8durationIlSt5ratioILl1ELl1000000000EEEEE16time_since_epochEv
	leaq	-32(%rbp), %rdi
	leaq	-40(%rbp), %rsi
	movq	%rax, -40(%rbp)
	.loc	2 652 41                # /usr/bin/../lib64/gcc/x86_64-unknown-linux-gnu/5.2.0/../../../../include/c++/5.2.0/chrono:652:41
	callq	_ZNSt6chronomiIlSt5ratioILl1ELl1000000000EElS2_EENSt11common_typeIJNS_8durationIT_T0_EENS4_IT1_T2_EEEE4typeERKS7_RKSA_
	movq	%rax, -8(%rbp)
	.loc	2 652 9                 # /usr/bin/../lib64/gcc/x86_64-unknown-linux-gnu/5.2.0/../../../../include/c++/5.2.0/chrono:652:9
	movq	-8(%rbp), %rax
	addq	$48, %rsp
	popq	%rbp
	retq
.Ltmp22:
.Ltmp23:
	.size	_ZNSt6chronomiINS_3_V212system_clockENS_8durationIlSt5ratioILl1ELl1000000000EEEES6_EENSt11common_typeIJT0_T1_EE4typeERKNS_10time_pointIT_S8_EERKNSC_ISD_S9_EE, .Ltmp23-_ZNSt6chronomiINS_3_V212system_clockENS_8durationIlSt5ratioILl1ELl1000000000EEEES6_EENSt11common_typeIJT0_T1_EE4typeERKNS_10time_pointIT_S8_EERKNSC_ISD_S9_EE
.Lfunc_end3:
	.cfi_endproc

	.section	.text.startup,"ax",@progbits
	.align	16, 0x90
	.type	__cxx_global_var_init,@function
__cxx_global_var_init:                  # @__cxx_global_var_init
.Lfunc_begin4:
	.loc	10 74 0 is_stmt 1       # /usr/bin/../lib64/gcc/x86_64-unknown-linux-gnu/5.2.0/../../../../include/c++/5.2.0/iostream:74:0
	.cfi_startproc
# BB#0:
	pushq	%rbp
.Ltmp24:
	.cfi_def_cfa_offset 16
.Ltmp25:
	.cfi_offset %rbp, -16
	movq	%rsp, %rbp
.Ltmp26:
	.cfi_def_cfa_register %rbp
	subq	$16, %rsp
	movabsq	$_ZStL8__ioinit, %rdi
	.loc	10 74 25 prologue_end   # /usr/bin/../lib64/gcc/x86_64-unknown-linux-gnu/5.2.0/../../../../include/c++/5.2.0/iostream:74:25
.Ltmp27:
	callq	_ZNSt8ios_base4InitC1Ev
	movabsq	$_ZNSt8ios_base4InitD1Ev, %rdi
	movabsq	$_ZStL8__ioinit, %rsi
	movabsq	$__dso_handle, %rdx
	callq	__cxa_atexit
	movl	%eax, -4(%rbp)          # 4-byte Spill
	addq	$16, %rsp
	popq	%rbp
	retq
.Ltmp28:
.Ltmp29:
	.size	__cxx_global_var_init, .Ltmp29-__cxx_global_var_init
.Lfunc_end4:
	.cfi_endproc

	.text
	.globl	_Z9do_renderiic
	.align	16, 0x90
	.type	_Z9do_renderiic,@function
_Z9do_renderiic:                        # @_Z9do_renderiic
.Lfunc_begin5:
	.loc	7 164 0                 # /home/manu343726/Documentos/joaquin-dod/dod_perfv2.cpp:164:0
	.cfi_startproc
# BB#0:
	pushq	%rbp
.Ltmp30:
	.cfi_def_cfa_offset 16
.Ltmp31:
	.cfi_offset %rbp, -16
	movq	%rsp, %rbp
.Ltmp32:
	.cfi_def_cfa_register %rbp
	movb	%dl, %al
	movl	%edi, -4(%rbp)
	movl	%esi, -8(%rbp)
	movb	%al, -9(%rbp)
	.loc	7 165 18 prologue_end   # /home/manu343726/Documentos/joaquin-dod/dod_perfv2.cpp:165:18
.Ltmp33:
	movl	-4(%rbp), %edx
	addl	-8(%rbp), %edx
	.loc	7 165 22 is_stmt 0      # /home/manu343726/Documentos/joaquin-dod/dod_perfv2.cpp:165:22
	movsbl	-9(%rbp), %esi
	.loc	7 165 18                # /home/manu343726/Documentos/joaquin-dod/dod_perfv2.cpp:165:18
	addl	%esi, %edx
	.loc	7 165 3                 # /home/manu343726/Documentos/joaquin-dod/dod_perfv2.cpp:165:3
	addl	_ZL13render_output, %edx
	movl	%edx, _ZL13render_output
	.loc	7 166 1 is_stmt 1       # /home/manu343726/Documentos/joaquin-dod/dod_perfv2.cpp:166:1
	popq	%rbp
	retq
.Ltmp34:
.Ltmp35:
	.size	_Z9do_renderiic, .Ltmp35-_Z9do_renderiic
.Lfunc_end5:
	.cfi_endproc

	.globl	_Z6renderPcS_PiS0_
	.align	16, 0x90
	.type	_Z6renderPcS_PiS0_,@function
_Z6renderPcS_PiS0_:                     # @_Z6renderPcS_PiS0_
.Lfunc_begin6:
	.loc	7 267 0                 # /home/manu343726/Documentos/joaquin-dod/dod_perfv2.cpp:267:0
	.cfi_startproc
# BB#0:
	pushq	%rbp
.Ltmp36:
	.cfi_def_cfa_offset 16
.Ltmp37:
	.cfi_offset %rbp, -16
	movq	%rsp, %rbp
.Ltmp38:
	.cfi_def_cfa_register %rbp
	subq	$32, %rsp
	movq	%rdi, -8(%rbp)
	movq	%rsi, -16(%rbp)
	movq	%rdx, -24(%rbp)
	movq	%rcx, -32(%rbp)
	.loc	7 268 3 prologue_end    # /home/manu343726/Documentos/joaquin-dod/dod_perfv2.cpp:268:3
.Ltmp39:
	movl	$0, _ZL13render_output
.LBB6_1:                                # =>This Inner Loop Header: Depth=1
	.loc	7 269 9 discriminator 3 # /home/manu343726/Documentos/joaquin-dod/dod_perfv2.cpp:269:9
.Ltmp40:
	movq	-8(%rbp), %rax
.Ltmp41:
	.loc	7 269 3 is_stmt 0       # /home/manu343726/Documentos/joaquin-dod/dod_perfv2.cpp:269:3
	cmpq	-16(%rbp), %rax
	je	.LBB6_3
# BB#2:                                 #   in Loop: Header=BB6_1 Depth=1
	.loc	7 269 27 discriminator 2 # /home/manu343726/Documentos/joaquin-dod/dod_perfv2.cpp:269:27
	movq	-24(%rbp), %rax
	movq	%rax, %rcx
	addq	$4, %rcx
	movq	%rcx, -24(%rbp)
	.loc	7 269 26                # /home/manu343726/Documentos/joaquin-dod/dod_perfv2.cpp:269:26
	movl	(%rax), %edi
	.loc	7 269 33                # /home/manu343726/Documentos/joaquin-dod/dod_perfv2.cpp:269:33
	movq	-32(%rbp), %rax
	movq	%rax, %rcx
	addq	$4, %rcx
	movq	%rcx, -32(%rbp)
	.loc	7 269 32                # /home/manu343726/Documentos/joaquin-dod/dod_perfv2.cpp:269:32
	movl	(%rax), %esi
	.loc	7 269 39                # /home/manu343726/Documentos/joaquin-dod/dod_perfv2.cpp:269:39
	movq	-8(%rbp), %rax
	movq	%rax, %rcx
	addq	$1, %rcx
	movq	%rcx, -8(%rbp)
	.loc	7 269 16                # /home/manu343726/Documentos/joaquin-dod/dod_perfv2.cpp:269:16
	movsbl	(%rax), %edx
	callq	_Z9do_renderiic
	.loc	7 269 3                 # /home/manu343726/Documentos/joaquin-dod/dod_perfv2.cpp:269:3
	jmp	.LBB6_1
.LBB6_3:
	.loc	7 270 10 is_stmt 1      # /home/manu343726/Documentos/joaquin-dod/dod_perfv2.cpp:270:10
	movl	_ZL13render_output, %eax
	.loc	7 270 3 is_stmt 0       # /home/manu343726/Documentos/joaquin-dod/dod_perfv2.cpp:270:3
	addq	$32, %rsp
	popq	%rbp
	retq
.Ltmp42:
.Ltmp43:
	.size	_Z6renderPcS_PiS0_, .Ltmp43-_Z6renderPcS_PiS0_
.Lfunc_end6:
	.cfi_endproc

	.globl	_Z6renderPcPiS0_m
	.align	16, 0x90
	.type	_Z6renderPcPiS0_m,@function
_Z6renderPcPiS0_m:                      # @_Z6renderPcPiS0_m
.Lfunc_begin7:
	.loc	7 274 0 is_stmt 1       # /home/manu343726/Documentos/joaquin-dod/dod_perfv2.cpp:274:0
	.cfi_startproc
# BB#0:
	pushq	%rbp
.Ltmp44:
	.cfi_def_cfa_offset 16
.Ltmp45:
	.cfi_offset %rbp, -16
	movq	%rsp, %rbp
.Ltmp46:
	.cfi_def_cfa_register %rbp
	subq	$48, %rsp
	movq	%rdi, -8(%rbp)
	movq	%rsi, -16(%rbp)
	movq	%rdx, -24(%rbp)
	movq	%rcx, -32(%rbp)
	.loc	7 275 3 prologue_end    # /home/manu343726/Documentos/joaquin-dod/dod_perfv2.cpp:275:3
.Ltmp47:
	movl	$0, _ZL13render_output
	.loc	7 276 19                # /home/manu343726/Documentos/joaquin-dod/dod_perfv2.cpp:276:19
.Ltmp48:
	movq	$0, -40(%rbp)
.LBB7_1:                                # =>This Inner Loop Header: Depth=1
	.loc	7 276 23 is_stmt 0 discriminator 4 # /home/manu343726/Documentos/joaquin-dod/dod_perfv2.cpp:276:23
.Ltmp49:
	movq	-40(%rbp), %rax
.Ltmp50:
	.loc	7 276 3                 # /home/manu343726/Documentos/joaquin-dod/dod_perfv2.cpp:276:3
	cmpq	-32(%rbp), %rax
	jae	.LBB7_4
# BB#2:                                 #   in Loop: Header=BB7_1 Depth=1
	.loc	7 276 45 discriminator 2 # /home/manu343726/Documentos/joaquin-dod/dod_perfv2.cpp:276:45
.Ltmp51:
	movq	-40(%rbp), %rax
	.loc	7 276 41                # /home/manu343726/Documentos/joaquin-dod/dod_perfv2.cpp:276:41
	movq	-16(%rbp), %rcx
	movl	(%rcx,%rax,4), %edi
	.loc	7 276 52                # /home/manu343726/Documentos/joaquin-dod/dod_perfv2.cpp:276:52
	movq	-40(%rbp), %rax
	.loc	7 276 48                # /home/manu343726/Documentos/joaquin-dod/dod_perfv2.cpp:276:48
	movq	-24(%rbp), %rcx
	movl	(%rcx,%rax,4), %esi
	.loc	7 276 59                # /home/manu343726/Documentos/joaquin-dod/dod_perfv2.cpp:276:59
	movq	-40(%rbp), %rax
	.loc	7 276 55                # /home/manu343726/Documentos/joaquin-dod/dod_perfv2.cpp:276:55
	movq	-8(%rbp), %rcx
	.loc	7 276 31                # /home/manu343726/Documentos/joaquin-dod/dod_perfv2.cpp:276:31
	movsbl	(%rcx,%rax), %edx
	callq	_Z9do_renderiic
# BB#3:                                 #   in Loop: Header=BB7_1 Depth=1
	.loc	7 276 27 discriminator 3 # /home/manu343726/Documentos/joaquin-dod/dod_perfv2.cpp:276:27
	movq	-40(%rbp), %rax
	addq	$1, %rax
	movq	%rax, -40(%rbp)
	.loc	7 276 3                 # /home/manu343726/Documentos/joaquin-dod/dod_perfv2.cpp:276:3
	jmp	.LBB7_1
.Ltmp52:
.LBB7_4:
	.loc	7 277 10 is_stmt 1      # /home/manu343726/Documentos/joaquin-dod/dod_perfv2.cpp:277:10
	movl	_ZL13render_output, %eax
	.loc	7 277 3 is_stmt 0       # /home/manu343726/Documentos/joaquin-dod/dod_perfv2.cpp:277:3
	addq	$48, %rsp
	popq	%rbp
	retq
.Ltmp53:
.Ltmp54:
	.size	_Z6renderPcPiS0_m, .Ltmp54-_Z6renderPcPiS0_m
.Lfunc_end7:
	.cfi_endproc

	.globl	main
	.align	16, 0x90
	.type	main,@function
main:                                   # @main
.Lfunc_begin8:
	.loc	7 303 0 is_stmt 1       # /home/manu343726/Documentos/joaquin-dod/dod_perfv2.cpp:303:0
	.cfi_startproc
	.cfi_personality 3, __gxx_personality_v0
.Leh_func_begin8:
	.cfi_lsda 3, .Lexception8
# BB#0:
	pushq	%rbp
.Ltmp134:
	.cfi_def_cfa_offset 16
.Ltmp135:
	.cfi_offset %rbp, -16
	movq	%rsp, %rbp
.Ltmp136:
	.cfi_def_cfa_register %rbp
	subq	$1376, %rsp             # imm = 0x560
	movabsq	$_ZSt4cout, %rdi
	movabsq	$.L.str, %rsi
	movl	$0, -4(%rbp)
	.loc	7 310 15 prologue_end   # /home/manu343726/Documentos/joaquin-dod/dod_perfv2.cpp:310:15
.Ltmp137:
	movq	$10000, -16(%rbp)       # imm = 0x2710
	.loc	7 310 24 is_stmt 0      # /home/manu343726/Documentos/joaquin-dod/dod_perfv2.cpp:310:24
	movq	$10000000, -24(%rbp)    # imm = 0x989680
	.loc	7 310 36                # /home/manu343726/Documentos/joaquin-dod/dod_perfv2.cpp:310:36
	movq	$10, -32(%rbp)
	.loc	7 312 12 is_stmt 1      # /home/manu343726/Documentos/joaquin-dod/dod_perfv2.cpp:312:12
	callq	_ZStlsISt11char_traitsIcEERSt13basic_ostreamIcT_ES5_PKc
	movabsq	$_ZSt4endlIcSt11char_traitsIcEERSt13basic_ostreamIT_T0_ES6_, %rsi
	movq	%rax, %rdi
	callq	_ZNSolsEPFRSoS_E
	movabsq	$_ZSt4cout, %rdi
	movabsq	$.L.str1, %rsi
	.loc	7 313 12                # /home/manu343726/Documentos/joaquin-dod/dod_perfv2.cpp:313:12
	movq	%rax, -968(%rbp)        # 8-byte Spill
	callq	_ZStlsISt11char_traitsIcEERSt13basic_ostreamIcT_ES5_PKc
	movabsq	$_ZSt4endlIcSt11char_traitsIcEERSt13basic_ostreamIT_T0_ES6_, %rsi
	movq	%rax, %rdi
	callq	_ZNSolsEPFRSoS_E
	.loc	7 315 21                # /home/manu343726/Documentos/joaquin-dod/dod_perfv2.cpp:315:21
.Ltmp138:
	movq	-16(%rbp), %rsi
	.loc	7 315 19 is_stmt 0      # /home/manu343726/Documentos/joaquin-dod/dod_perfv2.cpp:315:19
	movq	%rsi, -40(%rbp)
	movq	%rax, -976(%rbp)        # 8-byte Spill
.LBB8_1:                                # =>This Loop Header: Depth=1
                                        #     Child Loop BB8_3 Depth 2
	.loc	7 315 24 discriminator 2 # /home/manu343726/Documentos/joaquin-dod/dod_perfv2.cpp:315:24
.Ltmp139:
	movq	-40(%rbp), %rax
.Ltmp140:
	.loc	7 315 3                 # /home/manu343726/Documentos/joaquin-dod/dod_perfv2.cpp:315:3
	cmpq	-24(%rbp), %rax
	ja	.LBB8_48
# BB#2:                                 #   in Loop: Header=BB8_1 Depth=1
	leaq	-64(%rbp), %rdi
.Ltmp141:
	#DEBUG_VALUE: color_ <- RDI
	.loc	7 316 33 is_stmt 1      # /home/manu343726/Documentos/joaquin-dod/dod_perfv2.cpp:316:33
	callq	_ZNSt6vectorIcSaIcEEC2Ev
	leaq	-88(%rbp), %rdi
.Ltmp142:
	#DEBUG_VALUE: x_ <- RDI
	.loc	7 317 33                # /home/manu343726/Documentos/joaquin-dod/dod_perfv2.cpp:317:33
	callq	_ZNSt6vectorIiSaIiEEC2Ev
	leaq	-112(%rbp), %rdi
.Ltmp143:
	#DEBUG_VALUE: y_ <- RDI
	.loc	7 317 36 is_stmt 0      # /home/manu343726/Documentos/joaquin-dod/dod_perfv2.cpp:317:36
	callq	_ZNSt6vectorIiSaIiEEC2Ev
	leaq	-136(%rbp), %rdi
.Ltmp144:
	#DEBUG_VALUE: dx_ <- RDI
	.loc	7 317 39                # /home/manu343726/Documentos/joaquin-dod/dod_perfv2.cpp:317:39
	callq	_ZNSt6vectorIiSaIiEEC2Ev
	leaq	-160(%rbp), %rdi
.Ltmp145:
	#DEBUG_VALUE: dy_ <- RDI
	.loc	7 317 43                # /home/manu343726/Documentos/joaquin-dod/dod_perfv2.cpp:317:43
	callq	_ZNSt6vectorIiSaIiEEC2Ev
	leaq	-184(%rbp), %rdi
.Ltmp146:
	#DEBUG_VALUE: pp_ <- RDI
	.loc	7 318 33 is_stmt 1      # /home/manu343726/Documentos/joaquin-dod/dod_perfv2.cpp:318:33
	callq	_ZNSt6vectorI14plain_particleSaIS0_EEC2Ev
	.loc	7 320 21                # /home/manu343726/Documentos/joaquin-dod/dod_perfv2.cpp:320:21
.Ltmp147:
	movq	$0, -192(%rbp)
.Ltmp148:
.LBB8_3:                                #   Parent Loop BB8_1 Depth=1
                                        # =>  This Inner Loop Header: Depth=2
	.loc	7 320 25 is_stmt 0 discriminator 2 # /home/manu343726/Documentos/joaquin-dod/dod_perfv2.cpp:320:25
	movq	-192(%rbp), %rax
.Ltmp149:
	.loc	7 320 5                 # /home/manu343726/Documentos/joaquin-dod/dod_perfv2.cpp:320:5
	cmpq	-40(%rbp), %rax
	jae	.LBB8_14
# BB#4:                                 #   in Loop: Header=BB8_3 Depth=2
.Ltmp150:
	#DEBUG_VALUE: carg <- [RBP+-193]
	.loc	7 321 17 is_stmt 1      # /home/manu343726/Documentos/joaquin-dod/dod_perfv2.cpp:321:17
	movq	-192(%rbp), %rax
	movabsq	$-3689348814741910323, %rcx # imm = 0xCCCCCCCCCCCCCCCD
	movq	%rax, -984(%rbp)        # 8-byte Spill
	mulq	%rcx
	movl	%edx, %esi
	shrl	$2, %esi
	movl	%esi, %eax
	leal	(%rax,%rax,4), %esi
	movq	-984(%rbp), %rax        # 8-byte Reload
	movl	%eax, %edi
	subl	%esi, %edi
	movb	%dil, %r8b
	.loc	7 321 12 is_stmt 0      # /home/manu343726/Documentos/joaquin-dod/dod_perfv2.cpp:321:12
	movb	%r8b, -193(%rbp)
.Ltmp151:
	#DEBUG_VALUE: xarg <- [RBP+-200]
	.loc	7 322 17 is_stmt 1      # /home/manu343726/Documentos/joaquin-dod/dod_perfv2.cpp:322:17
	movl	-192(%rbp), %esi
	.loc	7 322 12 is_stmt 0      # /home/manu343726/Documentos/joaquin-dod/dod_perfv2.cpp:322:12
	movl	%esi, -200(%rbp)
.Ltmp152:
	#DEBUG_VALUE: yarg <- [RBP+-204]
	.loc	7 322 26                # /home/manu343726/Documentos/joaquin-dod/dod_perfv2.cpp:322:26
	movl	-192(%rbp), %esi
	.loc	7 322 24                # /home/manu343726/Documentos/joaquin-dod/dod_perfv2.cpp:322:24
	addl	%esi, %esi
	.loc	7 322 19                # /home/manu343726/Documentos/joaquin-dod/dod_perfv2.cpp:322:19
	movl	%esi, -204(%rbp)
.Ltmp153:
	#DEBUG_VALUE: dxarg <- [RBP+-208]
	.loc	7 322 34                # /home/manu343726/Documentos/joaquin-dod/dod_perfv2.cpp:322:34
	movq	-192(%rbp), %rdx
	movq	%rdx, %rax
	movq	%rdx, -992(%rbp)        # 8-byte Spill
	mulq	%rcx
	shrq	$4, %rdx
	movl	%edx, %esi
	imull	$20, %esi, %esi
	movq	-992(%rbp), %rax        # 8-byte Reload
	movl	%eax, %edi
	subl	%esi, %edi
	.loc	7 322 28                # /home/manu343726/Documentos/joaquin-dod/dod_perfv2.cpp:322:28
	movl	%edi, -208(%rbp)
.Ltmp154:
	#DEBUG_VALUE: dyarg <- [RBP+-212]
	.loc	7 322 45                # /home/manu343726/Documentos/joaquin-dod/dod_perfv2.cpp:322:45
	movq	-192(%rbp), %rdx
	movq	%rdx, %rax
	movq	%rdx, -1000(%rbp)       # 8-byte Spill
	mulq	%rcx
	shrq	$3, %rdx
	movl	%edx, %esi
	imull	$10, %esi, %esi
	movq	-1000(%rbp), %rax       # 8-byte Reload
	movl	%eax, %edi
	subl	%esi, %edi
	.loc	7 322 39                # /home/manu343726/Documentos/joaquin-dod/dod_perfv2.cpp:322:39
	movl	%edi, -212(%rbp)
	.loc	7 323 41 is_stmt 1      # /home/manu343726/Documentos/joaquin-dod/dod_perfv2.cpp:323:41
	movl	-200(%rbp), %edx
	.loc	7 323 46 is_stmt 0      # /home/manu343726/Documentos/joaquin-dod/dod_perfv2.cpp:323:46
	movl	-204(%rbp), %ecx
	.loc	7 323 51                # /home/manu343726/Documentos/joaquin-dod/dod_perfv2.cpp:323:51
	movl	-208(%rbp), %r8d
	.loc	7 323 7                 # /home/manu343726/Documentos/joaquin-dod/dod_perfv2.cpp:323:7
	movsbl	-193(%rbp), %esi
.Ltmp119:
	leaq	-232(%rbp), %r9
	movl	%edi, -1004(%rbp)       # 4-byte Spill
	movq	%r9, %rdi
	movl	-1004(%rbp), %r9d       # 4-byte Reload
	callq	_ZN14plain_particleC2Eciiii
.Ltmp120:
	jmp	.LBB8_5
.LBB8_5:                                #   in Loop: Header=BB8_3 Depth=2
	.loc	7 323 7 discriminator 1 # /home/manu343726/Documentos/joaquin-dod/dod_perfv2.cpp:323:7
.Ltmp121:
	leaq	-184(%rbp), %rdi
	leaq	-232(%rbp), %rsi
	callq	_ZNSt6vectorI14plain_particleSaIS0_EE9push_backEOS0_
.Ltmp122:
	jmp	.LBB8_6
.LBB8_6:                                #   in Loop: Header=BB8_3 Depth=2
	.loc	7 324 7 is_stmt 1       # /home/manu343726/Documentos/joaquin-dod/dod_perfv2.cpp:324:7
.Ltmp123:
	leaq	-64(%rbp), %rdi
	leaq	-193(%rbp), %rsi
	callq	_ZNSt6vectorIcSaIcEE9push_backERKc
.Ltmp124:
	jmp	.LBB8_7
.LBB8_7:                                #   in Loop: Header=BB8_3 Depth=2
	.loc	7 325 7                 # /home/manu343726/Documentos/joaquin-dod/dod_perfv2.cpp:325:7
.Ltmp125:
	leaq	-88(%rbp), %rdi
	leaq	-200(%rbp), %rsi
	callq	_ZNSt6vectorIiSaIiEE9push_backERKi
.Ltmp126:
	jmp	.LBB8_8
.LBB8_8:                                #   in Loop: Header=BB8_3 Depth=2
	.loc	7 326 7                 # /home/manu343726/Documentos/joaquin-dod/dod_perfv2.cpp:326:7
.Ltmp127:
	leaq	-112(%rbp), %rdi
	leaq	-204(%rbp), %rsi
	callq	_ZNSt6vectorIiSaIiEE9push_backERKi
.Ltmp128:
	jmp	.LBB8_9
.LBB8_9:                                #   in Loop: Header=BB8_3 Depth=2
	.loc	7 327 7                 # /home/manu343726/Documentos/joaquin-dod/dod_perfv2.cpp:327:7
.Ltmp129:
	leaq	-136(%rbp), %rdi
	leaq	-208(%rbp), %rsi
	callq	_ZNSt6vectorIiSaIiEE9push_backERKi
.Ltmp130:
	jmp	.LBB8_10
.LBB8_10:                               #   in Loop: Header=BB8_3 Depth=2
	.loc	7 328 7                 # /home/manu343726/Documentos/joaquin-dod/dod_perfv2.cpp:328:7
.Ltmp131:
	leaq	-160(%rbp), %rdi
	leaq	-212(%rbp), %rsi
	callq	_ZNSt6vectorIiSaIiEE9push_backERKi
.Ltmp132:
	jmp	.LBB8_11
.LBB8_11:                               #   in Loop: Header=BB8_3 Depth=2
	.loc	7 329 5                 # /home/manu343726/Documentos/joaquin-dod/dod_perfv2.cpp:329:5
	jmp	.LBB8_12
.Ltmp155:
.LBB8_12:                               #   in Loop: Header=BB8_3 Depth=2
	.loc	7 320 29                # /home/manu343726/Documentos/joaquin-dod/dod_perfv2.cpp:320:29
	movq	-192(%rbp), %rax
	addq	$1, %rax
	movq	%rax, -192(%rbp)
	.loc	7 320 5 is_stmt 0       # /home/manu343726/Documentos/joaquin-dod/dod_perfv2.cpp:320:5
	jmp	.LBB8_3
.LBB8_13:
.Ltmp133:
	leaq	-184(%rbp), %rdi
	.loc	7 355 1 is_stmt 1       # /home/manu343726/Documentos/joaquin-dod/dod_perfv2.cpp:355:1
.Ltmp156:
	movl	%edx, %ecx
	movq	%rax, -240(%rbp)
	movl	%ecx, -244(%rbp)
.Ltmp157:
	.loc	7 355 1 is_stmt 0       # /home/manu343726/Documentos/joaquin-dod/dod_perfv2.cpp:355:1
	callq	_ZNSt6vectorI14plain_particleSaIS0_EED2Ev
	leaq	-160(%rbp), %rdi
	callq	_ZNSt6vectorIiSaIiEED2Ev
	leaq	-136(%rbp), %rdi
	callq	_ZNSt6vectorIiSaIiEED2Ev
	leaq	-112(%rbp), %rdi
	callq	_ZNSt6vectorIiSaIiEED2Ev
	leaq	-88(%rbp), %rdi
	callq	_ZNSt6vectorIiSaIiEED2Ev
	leaq	-64(%rbp), %rdi
	callq	_ZNSt6vectorIcSaIcEED2Ev
	jmp	.LBB8_49
.LBB8_14:                               #   in Loop: Header=BB8_1 Depth=1
.Ltmp158:
	#DEBUG_VALUE: beg_oop <- [RBP+-256]
	leaq	-184(%rbp), %rax
	.loc	7 334 18 is_stmt 1      # /home/manu343726/Documentos/joaquin-dod/dod_perfv2.cpp:334:18
.Ltmp159:
	movq	%rax, %rdi
	movq	%rax, -1016(%rbp)       # 8-byte Spill
	callq	_ZNSt6vectorI14plain_particleSaIS0_EE5beginEv
	movq	%rax, -256(%rbp)
.Ltmp160:
	#DEBUG_VALUE: end_oop <- [RBP+-264]
	.loc	7 335 18                # /home/manu343726/Documentos/joaquin-dod/dod_perfv2.cpp:335:18
	movq	-1016(%rbp), %rdi       # 8-byte Reload
	callq	_ZNSt6vectorI14plain_particleSaIS0_EE3endEv
	movq	%rax, -264(%rbp)
.Ltmp161:
	#DEBUG_VALUE: beg_color <- [RBP+-272]
	xorl	%ecx, %ecx
	movl	%ecx, %eax
	leaq	-64(%rbp), %rdi
	.loc	7 336 21                # /home/manu343726/Documentos/joaquin-dod/dod_perfv2.cpp:336:21
	movq	%rdi, -1024(%rbp)       # 8-byte Spill
	movq	%rax, %rsi
	movq	%rax, -1032(%rbp)       # 8-byte Spill
	callq	_ZNSt6vectorIcSaIcEEixEm
	.loc	7 336 10 is_stmt 0      # /home/manu343726/Documentos/joaquin-dod/dod_perfv2.cpp:336:10
	movq	%rax, -272(%rbp)
.Ltmp162:
	#DEBUG_VALUE: end_color <- [RBP+-280]
	.loc	7 337 30 is_stmt 1      # /home/manu343726/Documentos/joaquin-dod/dod_perfv2.cpp:337:30
	movq	-40(%rbp), %rsi
	.loc	7 337 20 is_stmt 0      # /home/manu343726/Documentos/joaquin-dod/dod_perfv2.cpp:337:20
	addq	%rsi, %rax
	.loc	7 337 10                # /home/manu343726/Documentos/joaquin-dod/dod_perfv2.cpp:337:10
	movq	%rax, -280(%rbp)
.Ltmp163:
	#DEBUG_VALUE: beg_x <- [RBP+-288]
	leaq	-88(%rbp), %rax
	.loc	7 338 17 is_stmt 1      # /home/manu343726/Documentos/joaquin-dod/dod_perfv2.cpp:338:17
	movq	%rax, %rdi
	movq	-1032(%rbp), %rsi       # 8-byte Reload
	movq	%rax, -1040(%rbp)       # 8-byte Spill
	callq	_ZNSt6vectorIiSaIiEEixEm
	.loc	7 338 10 is_stmt 0      # /home/manu343726/Documentos/joaquin-dod/dod_perfv2.cpp:338:10
	movq	%rax, -288(%rbp)
.Ltmp164:
	#DEBUG_VALUE: beg_y <- [RBP+-296]
	leaq	-112(%rbp), %rax
	.loc	7 339 17 is_stmt 1      # /home/manu343726/Documentos/joaquin-dod/dod_perfv2.cpp:339:17
	movq	%rax, %rdi
	movq	-1032(%rbp), %rsi       # 8-byte Reload
	movq	%rax, -1048(%rbp)       # 8-byte Spill
	callq	_ZNSt6vectorIiSaIiEEixEm
	.loc	7 339 10 is_stmt 0      # /home/manu343726/Documentos/joaquin-dod/dod_perfv2.cpp:339:10
	movq	%rax, -296(%rbp)
.Ltmp165:
	#DEBUG_VALUE: beg_dod <- [RBP+-344]
	.loc	7 340 49 is_stmt 1      # /home/manu343726/Documentos/joaquin-dod/dod_perfv2.cpp:340:49
	movq	-1024(%rbp), %rdi       # 8-byte Reload
	movq	-1032(%rbp), %rsi       # 8-byte Reload
	callq	_ZNSt6vectorIcSaIcEEixEm
	.loc	7 340 60 is_stmt 0      # /home/manu343726/Documentos/joaquin-dod/dod_perfv2.cpp:340:60
	movq	-1040(%rbp), %rdi       # 8-byte Reload
	movq	-1032(%rbp), %rsi       # 8-byte Reload
	movq	%rax, -1056(%rbp)       # 8-byte Spill
	callq	_ZNSt6vectorIiSaIiEEixEm
	.loc	7 340 18                # /home/manu343726/Documentos/joaquin-dod/dod_perfv2.cpp:340:18
	movq	%rax, -400(%rbp)
	.loc	7 340 67                # /home/manu343726/Documentos/joaquin-dod/dod_perfv2.cpp:340:67
	movq	-1048(%rbp), %rdi       # 8-byte Reload
	movq	-1032(%rbp), %rsi       # 8-byte Reload
	callq	_ZNSt6vectorIiSaIiEEixEm
	.loc	7 340 18                # /home/manu343726/Documentos/joaquin-dod/dod_perfv2.cpp:340:18
	movq	%rax, -408(%rbp)
	leaq	-136(%rbp), %rdi
	.loc	7 340 74                # /home/manu343726/Documentos/joaquin-dod/dod_perfv2.cpp:340:74
	movq	-1032(%rbp), %rsi       # 8-byte Reload
	callq	_ZNSt6vectorIiSaIiEEixEm
	.loc	7 340 18                # /home/manu343726/Documentos/joaquin-dod/dod_perfv2.cpp:340:18
	movq	%rax, -416(%rbp)
	leaq	-160(%rbp), %rdi
	.loc	7 340 82                # /home/manu343726/Documentos/joaquin-dod/dod_perfv2.cpp:340:82
	movq	-1032(%rbp), %rsi       # 8-byte Reload
	callq	_ZNSt6vectorIiSaIiEEixEm
	.loc	7 340 18                # /home/manu343726/Documentos/joaquin-dod/dod_perfv2.cpp:340:18
	movq	%rax, -424(%rbp)
.Ltmp55:
	leaq	-392(%rbp), %rdi
	leaq	-400(%rbp), %rdx
	leaq	-408(%rbp), %rcx
	leaq	-416(%rbp), %r8
	leaq	-424(%rbp), %r9
	movq	-1056(%rbp), %rsi       # 8-byte Reload
	callq	_ZN3dod6accessIJNS_6memberIcLi0EEENS1_IiLi0EEENS1_IiLi1EEENS1_IiLi2EEENS1_IiLi3EEEEEC2IJPiS9_S9_S9_EEEPcDpOT_
.Ltmp56:
	jmp	.LBB8_15
.LBB8_15:                               #   in Loop: Header=BB8_1 Depth=1
	.loc	7 340 18 discriminator 1 # /home/manu343726/Documentos/joaquin-dod/dod_perfv2.cpp:340:18
.Ltmp57:
	leaq	-344(%rbp), %rdi
	leaq	-392(%rbp), %rsi
	callq	_ZN3dod12make_pointerI8particleNS_6accessIJNS_6memberIcLi0EEENS3_IiLi0EEENS3_IiLi1EEENS3_IiLi2EEENS3_IiLi3EEEEEEEENS_7pointerIT_IT0_EEERKSC_
.Ltmp58:
	jmp	.LBB8_16
.LBB8_16:                               #   in Loop: Header=BB8_1 Depth=1
.Ltmp166:
	#DEBUG_VALUE: end_dod <- [RBP+-472]
	.loc	7 341 26 is_stmt 1      # /home/manu343726/Documentos/joaquin-dod/dod_perfv2.cpp:341:26
	movq	-40(%rbp), %rdx
	.loc	7 341 25 is_stmt 0      # /home/manu343726/Documentos/joaquin-dod/dod_perfv2.cpp:341:25
.Ltmp59:
	leaq	-472(%rbp), %rdi
	leaq	-344(%rbp), %rsi
	callq	_ZN5boost9iteratorsplIN3dod7pointerI8particleINS2_6accessIJNS2_6memberIcLi0EEENS6_IiLi0EEENS6_IiLi1EEENS6_IiLi2EEENS6_IiLi3EEEEEEEEESD_NS0_27random_access_traversal_tagESD_lEENS0_9enable_ifINS0_6detail21is_traversal_at_leastIT1_SF_EET_E4typeERKNS0_15iterator_facadeISL_T0_SJ_T2_T3_EENSL_15difference_typeE
.Ltmp60:
	jmp	.LBB8_17
.LBB8_17:                               #   in Loop: Header=BB8_1 Depth=1
.Ltmp167:
	#DEBUG_VALUE: beg_rdod <- [RBP+-504]
	xorl	%eax, %eax
	movl	%eax, %ecx
	leaq	-64(%rbp), %rdi
	.loc	7 342 57 is_stmt 1      # /home/manu343726/Documentos/joaquin-dod/dod_perfv2.cpp:342:57
	movq	%rcx, %rsi
	movq	%rcx, -1064(%rbp)       # 8-byte Spill
	callq	_ZNSt6vectorIcSaIcEEixEm
	leaq	-88(%rbp), %rdi
	.loc	7 342 68 is_stmt 0      # /home/manu343726/Documentos/joaquin-dod/dod_perfv2.cpp:342:68
	movq	-1064(%rbp), %rsi       # 8-byte Reload
	movq	%rax, -1072(%rbp)       # 8-byte Spill
	callq	_ZNSt6vectorIiSaIiEEixEm
	.loc	7 342 19                # /home/manu343726/Documentos/joaquin-dod/dod_perfv2.cpp:342:19
	movq	%rax, -544(%rbp)
	leaq	-112(%rbp), %rdi
	.loc	7 342 75                # /home/manu343726/Documentos/joaquin-dod/dod_perfv2.cpp:342:75
	movq	-1064(%rbp), %rsi       # 8-byte Reload
	callq	_ZNSt6vectorIiSaIiEEixEm
	.loc	7 342 19                # /home/manu343726/Documentos/joaquin-dod/dod_perfv2.cpp:342:19
	movq	%rax, -552(%rbp)
.Ltmp61:
	leaq	-536(%rbp), %rdi
	leaq	-544(%rbp), %rdx
	leaq	-552(%rbp), %rcx
	movq	-1072(%rbp), %rsi       # 8-byte Reload
	callq	_ZN3dod6accessIJNS_6memberIcLi0EEENS1_IiLi0EEENS1_IiLi1EEEEEC2IJPiS7_EEEPcDpOT_
.Ltmp62:
	jmp	.LBB8_18
.LBB8_18:                               #   in Loop: Header=BB8_1 Depth=1
	.loc	7 342 19 discriminator 1 # /home/manu343726/Documentos/joaquin-dod/dod_perfv2.cpp:342:19
.Ltmp63:
	leaq	-504(%rbp), %rdi
	leaq	-536(%rbp), %rsi
	callq	_ZN3dod12make_pointerI8particleNS_6accessIJNS_6memberIcLi0EEENS3_IiLi0EEENS3_IiLi1EEEEEEEENS_7pointerIT_IT0_EEERKSA_
.Ltmp64:
	jmp	.LBB8_19
.LBB8_19:                               #   in Loop: Header=BB8_1 Depth=1
.Ltmp168:
	#DEBUG_VALUE: end_rdod <- [RBP+-584]
	.loc	7 343 28 is_stmt 1      # /home/manu343726/Documentos/joaquin-dod/dod_perfv2.cpp:343:28
	movq	-40(%rbp), %rdx
	.loc	7 343 27 is_stmt 0      # /home/manu343726/Documentos/joaquin-dod/dod_perfv2.cpp:343:27
.Ltmp65:
	leaq	-584(%rbp), %rdi
	leaq	-504(%rbp), %rsi
	callq	_ZN5boost9iteratorsplIN3dod7pointerI8particleINS2_6accessIJNS2_6memberIcLi0EEENS6_IiLi0EEENS6_IiLi1EEEEEEEEESB_NS0_27random_access_traversal_tagESB_lEENS0_9enable_ifINS0_6detail21is_traversal_at_leastIT1_SD_EET_E4typeERKNS0_15iterator_facadeISJ_T0_SH_T2_T3_EENSJ_15difference_typeE
.Ltmp66:
	jmp	.LBB8_20
.LBB8_20:                               #   in Loop: Header=BB8_1 Depth=1
	.loc	7 345 16 is_stmt 1      # /home/manu343726/Documentos/joaquin-dod/dod_perfv2.cpp:345:16
	movq	-40(%rbp), %rsi
	.loc	7 345 5 is_stmt 0       # /home/manu343726/Documentos/joaquin-dod/dod_perfv2.cpp:345:5
.Ltmp67:
	movl	$_ZSt4cout, %eax
	movl	%eax, %edi
	callq	_ZNSolsEm
.Ltmp68:
	movq	%rax, -1080(%rbp)       # 8-byte Spill
	jmp	.LBB8_21
.LBB8_21:                               #   in Loop: Header=BB8_1 Depth=1
	.loc	7 345 17 discriminator 1 # /home/manu343726/Documentos/joaquin-dod/dod_perfv2.cpp:345:17
.Ltmp69:
	movl	$.L.str2, %eax
	movl	%eax, %esi
	movq	-1080(%rbp), %rdi       # 8-byte Reload
	callq	_ZStlsISt11char_traitsIcEERSt13basic_ostreamIcT_ES5_PKc
.Ltmp70:
	movq	%rax, -1088(%rbp)       # 8-byte Spill
	jmp	.LBB8_22
.LBB8_22:                               #   in Loop: Header=BB8_1 Depth=1
	.loc	7 346 16 is_stmt 1      # /home/manu343726/Documentos/joaquin-dod/dod_perfv2.cpp:346:16
	movq	-256(%rbp), %rax
	movq	%rax, -600(%rbp)
	movq	-264(%rbp), %rax
	movq	%rax, -592(%rbp)
	.loc	7 346 63 is_stmt 0      # /home/manu343726/Documentos/joaquin-dod/dod_perfv2.cpp:346:63
	movq	-40(%rbp), %rdx
	.loc	7 346 16                # /home/manu343726/Documentos/joaquin-dod/dod_perfv2.cpp:346:16
	movq	-600(%rbp), %rdi
.Ltmp71:
	movq	%rax, %rsi
	callq	_Z7measureIZ4mainE3$_0EdT_m
.Ltmp72:
	movsd	%xmm0, -1096(%rbp)      # 8-byte Spill
	jmp	.LBB8_23
.LBB8_23:                               #   in Loop: Header=BB8_1 Depth=1
	.loc	7 346 5 discriminator 1 # /home/manu343726/Documentos/joaquin-dod/dod_perfv2.cpp:346:5
.Ltmp73:
	movl	$_ZSt4cout, %eax
	movl	%eax, %edi
	movsd	-1096(%rbp), %xmm0      # 8-byte Reload
	callq	_ZNSolsEd
.Ltmp74:
	movq	%rax, -1104(%rbp)       # 8-byte Spill
	jmp	.LBB8_24
.LBB8_24:                               #   in Loop: Header=BB8_1 Depth=1
	.loc	7 346 65 discriminator 2 # /home/manu343726/Documentos/joaquin-dod/dod_perfv2.cpp:346:65
.Ltmp75:
	movl	$.L.str2, %eax
	movl	%eax, %esi
	movq	-1104(%rbp), %rdi       # 8-byte Reload
	callq	_ZStlsISt11char_traitsIcEERSt13basic_ostreamIcT_ES5_PKc
.Ltmp76:
	movq	%rax, -1112(%rbp)       # 8-byte Spill
	jmp	.LBB8_25
.LBB8_25:                               #   in Loop: Header=BB8_1 Depth=1
	.loc	7 347 44 is_stmt 1      # /home/manu343726/Documentos/joaquin-dod/dod_perfv2.cpp:347:44
	movq	-272(%rbp), %rax
	.loc	7 347 16 is_stmt 0      # /home/manu343726/Documentos/joaquin-dod/dod_perfv2.cpp:347:16
	movq	%rax, -632(%rbp)
	.loc	7 347 54                # /home/manu343726/Documentos/joaquin-dod/dod_perfv2.cpp:347:54
	movq	-280(%rbp), %rax
	.loc	7 347 16                # /home/manu343726/Documentos/joaquin-dod/dod_perfv2.cpp:347:16
	movq	%rax, -624(%rbp)
	.loc	7 347 64                # /home/manu343726/Documentos/joaquin-dod/dod_perfv2.cpp:347:64
	movq	-288(%rbp), %rax
	.loc	7 347 16                # /home/manu343726/Documentos/joaquin-dod/dod_perfv2.cpp:347:16
	movq	%rax, -616(%rbp)
	.loc	7 347 70                # /home/manu343726/Documentos/joaquin-dod/dod_perfv2.cpp:347:70
	movq	-296(%rbp), %rax
	.loc	7 347 16                # /home/manu343726/Documentos/joaquin-dod/dod_perfv2.cpp:347:16
	movq	%rax, -608(%rbp)
	.loc	7 347 79                # /home/manu343726/Documentos/joaquin-dod/dod_perfv2.cpp:347:79
	movq	-40(%rbp), %rdi
	.loc	7 347 16                # /home/manu343726/Documentos/joaquin-dod/dod_perfv2.cpp:347:16
.Ltmp77:
	movups	-632(%rbp), %xmm0
	movups	-616(%rbp), %xmm1
	movq	%rsp, %rax
	movups	%xmm1, 16(%rax)
	movups	%xmm0, (%rax)
	callq	_Z7measureIZ4mainE3$_1EdT_m
.Ltmp78:
	movsd	%xmm0, -1120(%rbp)      # 8-byte Spill
	jmp	.LBB8_26
.LBB8_26:                               #   in Loop: Header=BB8_1 Depth=1
	.loc	7 347 5 discriminator 1 # /home/manu343726/Documentos/joaquin-dod/dod_perfv2.cpp:347:5
.Ltmp79:
	movl	$_ZSt4cout, %eax
	movl	%eax, %edi
	movsd	-1120(%rbp), %xmm0      # 8-byte Reload
	callq	_ZNSolsEd
.Ltmp80:
	movq	%rax, -1128(%rbp)       # 8-byte Spill
	jmp	.LBB8_27
.LBB8_27:                               #   in Loop: Header=BB8_1 Depth=1
	.loc	7 347 81 discriminator 2 # /home/manu343726/Documentos/joaquin-dod/dod_perfv2.cpp:347:81
.Ltmp81:
	movl	$.L.str2, %eax
	movl	%eax, %esi
	movq	-1128(%rbp), %rdi       # 8-byte Reload
	callq	_ZStlsISt11char_traitsIcEERSt13basic_ostreamIcT_ES5_PKc
.Ltmp82:
	movq	%rax, -1136(%rbp)       # 8-byte Spill
	jmp	.LBB8_28
.LBB8_28:                               #   in Loop: Header=BB8_1 Depth=1
	.loc	7 348 16 is_stmt 1      # /home/manu343726/Documentos/joaquin-dod/dod_perfv2.cpp:348:16
	movups	-344(%rbp), %xmm0
	movups	-328(%rbp), %xmm1
	movups	-312(%rbp), %xmm2
	movaps	%xmm2, -704(%rbp)
	movaps	%xmm1, -720(%rbp)
	movaps	%xmm0, -736(%rbp)
	movups	-472(%rbp), %xmm0
	movups	-456(%rbp), %xmm1
	movups	-440(%rbp), %xmm2
	movups	%xmm2, -656(%rbp)
	movups	%xmm1, -672(%rbp)
	movups	%xmm0, -688(%rbp)
	.loc	7 348 63 is_stmt 0      # /home/manu343726/Documentos/joaquin-dod/dod_perfv2.cpp:348:63
	movq	-40(%rbp), %rdi
	.loc	7 348 16                # /home/manu343726/Documentos/joaquin-dod/dod_perfv2.cpp:348:16
.Ltmp83:
	movaps	-656(%rbp), %xmm0
	movq	%rsp, %rax
	movups	%xmm0, 80(%rax)
	movaps	-672(%rbp), %xmm0
	movups	%xmm0, 64(%rax)
	movaps	-736(%rbp), %xmm0
	movaps	-720(%rbp), %xmm1
	movaps	-704(%rbp), %xmm2
	movaps	-688(%rbp), %xmm3
	movups	%xmm3, 48(%rax)
	movups	%xmm2, 32(%rax)
	movups	%xmm1, 16(%rax)
	movups	%xmm0, (%rax)
	callq	_Z7measureIZ4mainE3$_2EdT_m
.Ltmp84:
	movsd	%xmm0, -1144(%rbp)      # 8-byte Spill
	jmp	.LBB8_29
.LBB8_29:                               #   in Loop: Header=BB8_1 Depth=1
	.loc	7 348 5 discriminator 1 # /home/manu343726/Documentos/joaquin-dod/dod_perfv2.cpp:348:5
.Ltmp85:
	movl	$_ZSt4cout, %eax
	movl	%eax, %edi
	movsd	-1144(%rbp), %xmm0      # 8-byte Reload
	callq	_ZNSolsEd
.Ltmp86:
	movq	%rax, -1152(%rbp)       # 8-byte Spill
	jmp	.LBB8_30
.LBB8_30:                               #   in Loop: Header=BB8_1 Depth=1
	.loc	7 348 65 discriminator 2 # /home/manu343726/Documentos/joaquin-dod/dod_perfv2.cpp:348:65
.Ltmp87:
	movl	$.L.str2, %eax
	movl	%eax, %esi
	movq	-1152(%rbp), %rdi       # 8-byte Reload
	callq	_ZStlsISt11char_traitsIcEERSt13basic_ostreamIcT_ES5_PKc
.Ltmp88:
	movq	%rax, -1160(%rbp)       # 8-byte Spill
	jmp	.LBB8_31
.LBB8_31:                               #   in Loop: Header=BB8_1 Depth=1
	.loc	7 349 16 is_stmt 1      # /home/manu343726/Documentos/joaquin-dod/dod_perfv2.cpp:349:16
	movups	-504(%rbp), %xmm0
	movups	-488(%rbp), %xmm1
	movaps	%xmm1, -784(%rbp)
	movaps	%xmm0, -800(%rbp)
	movups	-584(%rbp), %xmm0
	movups	-568(%rbp), %xmm1
	movups	%xmm1, -752(%rbp)
	movups	%xmm0, -768(%rbp)
	.loc	7 349 65 is_stmt 0      # /home/manu343726/Documentos/joaquin-dod/dod_perfv2.cpp:349:65
	movq	-40(%rbp), %rdi
	.loc	7 349 16                # /home/manu343726/Documentos/joaquin-dod/dod_perfv2.cpp:349:16
.Ltmp89:
	movaps	-800(%rbp), %xmm0
	movaps	-784(%rbp), %xmm1
	movaps	-768(%rbp), %xmm2
	movaps	-752(%rbp), %xmm3
	movq	%rsp, %rax
	movups	%xmm3, 48(%rax)
	movups	%xmm2, 32(%rax)
	movups	%xmm1, 16(%rax)
	movups	%xmm0, (%rax)
	callq	_Z7measureIZ4mainE3$_3EdT_m
.Ltmp90:
	movsd	%xmm0, -1168(%rbp)      # 8-byte Spill
	jmp	.LBB8_32
.LBB8_32:                               #   in Loop: Header=BB8_1 Depth=1
	.loc	7 349 5 discriminator 1 # /home/manu343726/Documentos/joaquin-dod/dod_perfv2.cpp:349:5
.Ltmp91:
	movl	$_ZSt4cout, %eax
	movl	%eax, %edi
	movsd	-1168(%rbp), %xmm0      # 8-byte Reload
	callq	_ZNSolsEd
.Ltmp92:
	movq	%rax, -1176(%rbp)       # 8-byte Spill
	jmp	.LBB8_33
.LBB8_33:                               #   in Loop: Header=BB8_1 Depth=1
	.loc	7 349 67 discriminator 2 # /home/manu343726/Documentos/joaquin-dod/dod_perfv2.cpp:349:67
.Ltmp93:
	movl	$.L.str2, %eax
	movl	%eax, %esi
	movq	-1176(%rbp), %rdi       # 8-byte Reload
	callq	_ZStlsISt11char_traitsIcEERSt13basic_ostreamIcT_ES5_PKc
.Ltmp94:
	movq	%rax, -1184(%rbp)       # 8-byte Spill
	jmp	.LBB8_34
.LBB8_34:                               #   in Loop: Header=BB8_1 Depth=1
	.loc	7 350 16 is_stmt 1      # /home/manu343726/Documentos/joaquin-dod/dod_perfv2.cpp:350:16
	movq	-256(%rbp), %rax
	movq	%rax, -816(%rbp)
	.loc	7 350 52 is_stmt 0      # /home/manu343726/Documentos/joaquin-dod/dod_perfv2.cpp:350:52
	movq	-40(%rbp), %rax
	.loc	7 350 16                # /home/manu343726/Documentos/joaquin-dod/dod_perfv2.cpp:350:16
	movq	%rax, -808(%rbp)
	.loc	7 350 57                # /home/manu343726/Documentos/joaquin-dod/dod_perfv2.cpp:350:57
	movq	-40(%rbp), %rdx
	.loc	7 350 16                # /home/manu343726/Documentos/joaquin-dod/dod_perfv2.cpp:350:16
	movq	-816(%rbp), %rdi
.Ltmp95:
	movq	%rax, %rsi
	callq	_Z7measureIZ4mainE3$_4EdT_m
.Ltmp96:
	movsd	%xmm0, -1192(%rbp)      # 8-byte Spill
	jmp	.LBB8_35
.LBB8_35:                               #   in Loop: Header=BB8_1 Depth=1
	.loc	7 350 5 discriminator 1 # /home/manu343726/Documentos/joaquin-dod/dod_perfv2.cpp:350:5
.Ltmp97:
	movl	$_ZSt4cout, %eax
	movl	%eax, %edi
	movsd	-1192(%rbp), %xmm0      # 8-byte Reload
	callq	_ZNSolsEd
.Ltmp98:
	movq	%rax, -1200(%rbp)       # 8-byte Spill
	jmp	.LBB8_36
.LBB8_36:                               #   in Loop: Header=BB8_1 Depth=1
	.loc	7 350 59 discriminator 2 # /home/manu343726/Documentos/joaquin-dod/dod_perfv2.cpp:350:59
.Ltmp99:
	movl	$.L.str2, %eax
	movl	%eax, %esi
	movq	-1200(%rbp), %rdi       # 8-byte Reload
	callq	_ZStlsISt11char_traitsIcEERSt13basic_ostreamIcT_ES5_PKc
.Ltmp100:
	movq	%rax, -1208(%rbp)       # 8-byte Spill
	jmp	.LBB8_37
.LBB8_37:                               #   in Loop: Header=BB8_1 Depth=1
	.loc	7 351 44 is_stmt 1      # /home/manu343726/Documentos/joaquin-dod/dod_perfv2.cpp:351:44
	movq	-272(%rbp), %rax
	.loc	7 351 16 is_stmt 0      # /home/manu343726/Documentos/joaquin-dod/dod_perfv2.cpp:351:16
	movq	%rax, -848(%rbp)
	.loc	7 351 54                # /home/manu343726/Documentos/joaquin-dod/dod_perfv2.cpp:351:54
	movq	-288(%rbp), %rax
	.loc	7 351 16                # /home/manu343726/Documentos/joaquin-dod/dod_perfv2.cpp:351:16
	movq	%rax, -840(%rbp)
	.loc	7 351 60                # /home/manu343726/Documentos/joaquin-dod/dod_perfv2.cpp:351:60
	movq	-296(%rbp), %rax
	.loc	7 351 16                # /home/manu343726/Documentos/joaquin-dod/dod_perfv2.cpp:351:16
	movq	%rax, -832(%rbp)
	.loc	7 351 66                # /home/manu343726/Documentos/joaquin-dod/dod_perfv2.cpp:351:66
	movq	-40(%rbp), %rax
	.loc	7 351 16                # /home/manu343726/Documentos/joaquin-dod/dod_perfv2.cpp:351:16
	movq	%rax, -824(%rbp)
	.loc	7 351 71                # /home/manu343726/Documentos/joaquin-dod/dod_perfv2.cpp:351:71
	movq	-40(%rbp), %rdi
	.loc	7 351 16                # /home/manu343726/Documentos/joaquin-dod/dod_perfv2.cpp:351:16
.Ltmp101:
	movups	-848(%rbp), %xmm0
	movups	-832(%rbp), %xmm1
	movq	%rsp, %rax
	movups	%xmm1, 16(%rax)
	movups	%xmm0, (%rax)
	callq	_Z7measureIZ4mainE3$_5EdT_m
.Ltmp102:
	movsd	%xmm0, -1216(%rbp)      # 8-byte Spill
	jmp	.LBB8_38
.LBB8_38:                               #   in Loop: Header=BB8_1 Depth=1
	.loc	7 351 5 discriminator 1 # /home/manu343726/Documentos/joaquin-dod/dod_perfv2.cpp:351:5
.Ltmp103:
	movl	$_ZSt4cout, %eax
	movl	%eax, %edi
	movsd	-1216(%rbp), %xmm0      # 8-byte Reload
	callq	_ZNSolsEd
.Ltmp104:
	movq	%rax, -1224(%rbp)       # 8-byte Spill
	jmp	.LBB8_39
.LBB8_39:                               #   in Loop: Header=BB8_1 Depth=1
	.loc	7 351 73 discriminator 2 # /home/manu343726/Documentos/joaquin-dod/dod_perfv2.cpp:351:73
.Ltmp105:
	movl	$.L.str2, %eax
	movl	%eax, %esi
	movq	-1224(%rbp), %rdi       # 8-byte Reload
	callq	_ZStlsISt11char_traitsIcEERSt13basic_ostreamIcT_ES5_PKc
.Ltmp106:
	movq	%rax, -1232(%rbp)       # 8-byte Spill
	jmp	.LBB8_40
.LBB8_40:                               #   in Loop: Header=BB8_1 Depth=1
	.loc	7 352 16 is_stmt 1      # /home/manu343726/Documentos/joaquin-dod/dod_perfv2.cpp:352:16
	movups	-344(%rbp), %xmm0
	movups	-328(%rbp), %xmm1
	movups	-312(%rbp), %xmm2
	movaps	%xmm2, -880(%rbp)
	movaps	%xmm1, -896(%rbp)
	movaps	%xmm0, -912(%rbp)
	.loc	7 352 52 is_stmt 0      # /home/manu343726/Documentos/joaquin-dod/dod_perfv2.cpp:352:52
	movq	-40(%rbp), %rax
	.loc	7 352 16                # /home/manu343726/Documentos/joaquin-dod/dod_perfv2.cpp:352:16
	movq	%rax, -864(%rbp)
	.loc	7 352 57                # /home/manu343726/Documentos/joaquin-dod/dod_perfv2.cpp:352:57
	movq	-40(%rbp), %rdi
	.loc	7 352 16                # /home/manu343726/Documentos/joaquin-dod/dod_perfv2.cpp:352:16
.Ltmp107:
	movq	-864(%rbp), %rax
	movq	%rsp, %rcx
	movq	%rax, 48(%rcx)
	movaps	-912(%rbp), %xmm0
	movaps	-896(%rbp), %xmm1
	movaps	-880(%rbp), %xmm2
	movups	%xmm2, 32(%rcx)
	movups	%xmm1, 16(%rcx)
	movups	%xmm0, (%rcx)
	callq	_Z7measureIZ4mainE3$_6EdT_m
.Ltmp108:
	movsd	%xmm0, -1240(%rbp)      # 8-byte Spill
	jmp	.LBB8_41
.LBB8_41:                               #   in Loop: Header=BB8_1 Depth=1
	.loc	7 352 5 discriminator 1 # /home/manu343726/Documentos/joaquin-dod/dod_perfv2.cpp:352:5
.Ltmp109:
	movl	$_ZSt4cout, %eax
	movl	%eax, %edi
	movsd	-1240(%rbp), %xmm0      # 8-byte Reload
	callq	_ZNSolsEd
.Ltmp110:
	movq	%rax, -1248(%rbp)       # 8-byte Spill
	jmp	.LBB8_42
.LBB8_42:                               #   in Loop: Header=BB8_1 Depth=1
	.loc	7 352 59 discriminator 2 # /home/manu343726/Documentos/joaquin-dod/dod_perfv2.cpp:352:59
.Ltmp111:
	movl	$.L.str2, %eax
	movl	%eax, %esi
	movq	-1248(%rbp), %rdi       # 8-byte Reload
	callq	_ZStlsISt11char_traitsIcEERSt13basic_ostreamIcT_ES5_PKc
.Ltmp112:
	movq	%rax, -1256(%rbp)       # 8-byte Spill
	jmp	.LBB8_43
.LBB8_43:                               #   in Loop: Header=BB8_1 Depth=1
	.loc	7 353 16 is_stmt 1      # /home/manu343726/Documentos/joaquin-dod/dod_perfv2.cpp:353:16
	movups	-504(%rbp), %xmm0
	movups	-488(%rbp), %xmm1
	movaps	%xmm1, -944(%rbp)
	movaps	%xmm0, -960(%rbp)
	.loc	7 353 53 is_stmt 0      # /home/manu343726/Documentos/joaquin-dod/dod_perfv2.cpp:353:53
	movq	-40(%rbp), %rax
	.loc	7 353 16                # /home/manu343726/Documentos/joaquin-dod/dod_perfv2.cpp:353:16
	movq	%rax, -928(%rbp)
	.loc	7 353 58                # /home/manu343726/Documentos/joaquin-dod/dod_perfv2.cpp:353:58
	movq	-40(%rbp), %rdi
	.loc	7 353 16                # /home/manu343726/Documentos/joaquin-dod/dod_perfv2.cpp:353:16
.Ltmp113:
	movq	-928(%rbp), %rax
	movq	%rsp, %rcx
	movq	%rax, 32(%rcx)
	movaps	-960(%rbp), %xmm0
	movaps	-944(%rbp), %xmm1
	movups	%xmm1, 16(%rcx)
	movups	%xmm0, (%rcx)
	callq	_Z7measureIZ4mainE3$_7EdT_m
.Ltmp114:
	movsd	%xmm0, -1264(%rbp)      # 8-byte Spill
	jmp	.LBB8_44
.LBB8_44:                               #   in Loop: Header=BB8_1 Depth=1
	.loc	7 353 5 discriminator 1 # /home/manu343726/Documentos/joaquin-dod/dod_perfv2.cpp:353:5
.Ltmp115:
	movl	$_ZSt4cout, %eax
	movl	%eax, %edi
	movsd	-1264(%rbp), %xmm0      # 8-byte Reload
	callq	_ZNSolsEd
.Ltmp116:
	movq	%rax, -1272(%rbp)       # 8-byte Spill
	jmp	.LBB8_45
.LBB8_45:                               #   in Loop: Header=BB8_1 Depth=1
	.loc	7 353 5 discriminator 2 # /home/manu343726/Documentos/joaquin-dod/dod_perfv2.cpp:353:5
.Ltmp117:
	movl	$_ZSt4endlIcSt11char_traitsIcEERSt13basic_ostreamIT_T0_ES6_, %eax
	movl	%eax, %esi
	movq	-1272(%rbp), %rdi       # 8-byte Reload
	callq	_ZNSolsEPFRSoS_E
.Ltmp118:
	movq	%rax, -1280(%rbp)       # 8-byte Spill
	jmp	.LBB8_46
.LBB8_46:                               #   in Loop: Header=BB8_1 Depth=1
	leaq	-184(%rbp), %rdi
	.loc	7 354 3 is_stmt 1       # /home/manu343726/Documentos/joaquin-dod/dod_perfv2.cpp:354:3
	callq	_ZNSt6vectorI14plain_particleSaIS0_EED2Ev
	leaq	-160(%rbp), %rdi
	callq	_ZNSt6vectorIiSaIiEED2Ev
	leaq	-136(%rbp), %rdi
	callq	_ZNSt6vectorIiSaIiEED2Ev
	leaq	-112(%rbp), %rdi
	callq	_ZNSt6vectorIiSaIiEED2Ev
	leaq	-88(%rbp), %rdi
	callq	_ZNSt6vectorIiSaIiEED2Ev
	leaq	-64(%rbp), %rdi
	callq	_ZNSt6vectorIcSaIcEED2Ev
.Ltmp169:
# BB#47:                                #   in Loop: Header=BB8_1 Depth=1
	.loc	7 315 33                # /home/manu343726/Documentos/joaquin-dod/dod_perfv2.cpp:315:33
	movq	-32(%rbp), %rax
	.loc	7 315 30 is_stmt 0      # /home/manu343726/Documentos/joaquin-dod/dod_perfv2.cpp:315:30
	imulq	-40(%rbp), %rax
	movq	%rax, -40(%rbp)
	.loc	7 315 3                 # /home/manu343726/Documentos/joaquin-dod/dod_perfv2.cpp:315:3
	jmp	.LBB8_1
.Ltmp170:
.LBB8_48:
	.loc	7 355 1 is_stmt 1       # /home/manu343726/Documentos/joaquin-dod/dod_perfv2.cpp:355:1
	movl	-4(%rbp), %eax
	addq	$1376, %rsp             # imm = 0x560
	popq	%rbp
	retq
.LBB8_49:
	.loc	7 355 1 is_stmt 0 discriminator 1 # /home/manu343726/Documentos/joaquin-dod/dod_perfv2.cpp:355:1
.Ltmp171:
	movq	-240(%rbp), %rdi
	callq	_Unwind_Resume
.Ltmp172:
.Ltmp173:
	.size	main, .Ltmp173-main
.Lfunc_end8:
	.cfi_endproc
.Leh_func_end8:
	.section	.gcc_except_table,"a",@progbits
	.align	4
GCC_except_table8:
.Lexception8:
	.byte	255                     # @LPStart Encoding = omit
	.byte	3                       # @TType Encoding = udata4
	.byte	41                      # @TType base offset
	.byte	3                       # Call site Encoding = udata4
	.byte	39                      # Call site table length
	.long	.Leh_func_begin8-.Leh_func_begin8 # >> Call Site 1 <<
	.long	.Ltmp119-.Leh_func_begin8 #   Call between .Leh_func_begin8 and .Ltmp119
	.long	0                       #     has no landing pad
	.byte	0                       #   On action: cleanup
	.long	.Ltmp119-.Leh_func_begin8 # >> Call Site 2 <<
	.long	.Ltmp118-.Ltmp119       #   Call between .Ltmp119 and .Ltmp118
	.long	.Ltmp133-.Leh_func_begin8 #     jumps to .Ltmp133
	.byte	0                       #   On action: cleanup
	.long	.Ltmp118-.Leh_func_begin8 # >> Call Site 3 <<
	.long	.Leh_func_end8-.Ltmp118 #   Call between .Ltmp118 and .Leh_func_end8
	.long	0                       #     has no landing pad
	.byte	0                       #   On action: cleanup
	.align	4

	.section	.text._ZNSt6vectorIcSaIcEEC2Ev,"axG",@progbits,_ZNSt6vectorIcSaIcEEC2Ev,comdat
	.weak	_ZNSt6vectorIcSaIcEEC2Ev
	.align	16, 0x90
	.type	_ZNSt6vectorIcSaIcEEC2Ev,@function
_ZNSt6vectorIcSaIcEEC2Ev:               # @_ZNSt6vectorIcSaIcEEC2Ev
.Lfunc_begin9:
	.loc	27 257 0 is_stmt 1      # /usr/bin/../lib64/gcc/x86_64-unknown-linux-gnu/5.2.0/../../../../include/c++/5.2.0/bits/stl_vector.h:257:0
	.cfi_startproc
	.cfi_personality 3, __gxx_personality_v0
.Leh_func_begin9:
	.cfi_lsda 3, .Lexception9
# BB#0:
	pushq	%rbp
.Ltmp177:
	.cfi_def_cfa_offset 16
.Ltmp178:
	.cfi_offset %rbp, -16
	movq	%rsp, %rbp
.Ltmp179:
	.cfi_def_cfa_register %rbp
	subq	$16, %rsp
	#DEBUG_VALUE: vector:this <- undef
	movq	%rdi, -8(%rbp)
	.loc	27 257 17 prologue_end  # /usr/bin/../lib64/gcc/x86_64-unknown-linux-gnu/5.2.0/../../../../include/c++/5.2.0/bits/stl_vector.h:257:17
.Ltmp180:
.Ltmp174:
	callq	_ZNSt12_Vector_baseIcSaIcEEC2Ev
.Ltmp175:
	jmp	.LBB9_1
.LBB9_1:
	.loc	27 257 19 is_stmt 0 discriminator 1 # /usr/bin/../lib64/gcc/x86_64-unknown-linux-gnu/5.2.0/../../../../include/c++/5.2.0/bits/stl_vector.h:257:19
	addq	$16, %rsp
	popq	%rbp
	retq
.LBB9_2:
.Ltmp176:
	.loc	27 257 17 discriminator 2 # /usr/bin/../lib64/gcc/x86_64-unknown-linux-gnu/5.2.0/../../../../include/c++/5.2.0/bits/stl_vector.h:257:17
	movl	%edx, %ecx
	movq	%rax, %rdi
	movl	%ecx, -12(%rbp)         # 4-byte Spill
	callq	__clang_call_terminate
.Ltmp181:
.Ltmp182:
	.size	_ZNSt6vectorIcSaIcEEC2Ev, .Ltmp182-_ZNSt6vectorIcSaIcEEC2Ev
.Lfunc_end9:
	.cfi_endproc
.Leh_func_end9:
	.section	.gcc_except_table,"a",@progbits
	.align	4
GCC_except_table9:
.Lexception9:
	.byte	255                     # @LPStart Encoding = omit
	.byte	3                       # @TType Encoding = udata4
	.byte	21                      # @TType base offset
	.byte	3                       # Call site Encoding = udata4
	.byte	13                      # Call site table length
	.long	.Ltmp174-.Leh_func_begin9 # >> Call Site 1 <<
	.long	.Ltmp175-.Ltmp174       #   Call between .Ltmp174 and .Ltmp175
	.long	.Ltmp176-.Leh_func_begin9 #     jumps to .Ltmp176
	.byte	1                       #   On action: 1
	.byte	1                       # >> Action Record 1 <<
                                        #   Catch TypeInfo 1
	.byte	0                       #   No further actions
                                        # >> Catch TypeInfos <<
	.long	0                       # TypeInfo 1
	.align	4

	.section	.text._ZNSt6vectorIiSaIiEEC2Ev,"axG",@progbits,_ZNSt6vectorIiSaIiEEC2Ev,comdat
	.weak	_ZNSt6vectorIiSaIiEEC2Ev
	.align	16, 0x90
	.type	_ZNSt6vectorIiSaIiEEC2Ev,@function
_ZNSt6vectorIiSaIiEEC2Ev:               # @_ZNSt6vectorIiSaIiEEC2Ev
.Lfunc_begin10:
	.loc	27 257 0 is_stmt 1      # /usr/bin/../lib64/gcc/x86_64-unknown-linux-gnu/5.2.0/../../../../include/c++/5.2.0/bits/stl_vector.h:257:0
	.cfi_startproc
	.cfi_personality 3, __gxx_personality_v0
.Leh_func_begin10:
	.cfi_lsda 3, .Lexception10
# BB#0:
	pushq	%rbp
.Ltmp186:
	.cfi_def_cfa_offset 16
.Ltmp187:
	.cfi_offset %rbp, -16
	movq	%rsp, %rbp
.Ltmp188:
	.cfi_def_cfa_register %rbp
	subq	$16, %rsp
	#DEBUG_VALUE: vector:this <- undef
	movq	%rdi, -8(%rbp)
	.loc	27 257 17 prologue_end  # /usr/bin/../lib64/gcc/x86_64-unknown-linux-gnu/5.2.0/../../../../include/c++/5.2.0/bits/stl_vector.h:257:17
.Ltmp189:
.Ltmp183:
	callq	_ZNSt12_Vector_baseIiSaIiEEC2Ev
.Ltmp184:
	jmp	.LBB10_1
.LBB10_1:
	.loc	27 257 19 is_stmt 0 discriminator 3 # /usr/bin/../lib64/gcc/x86_64-unknown-linux-gnu/5.2.0/../../../../include/c++/5.2.0/bits/stl_vector.h:257:19
	addq	$16, %rsp
	popq	%rbp
	retq
.LBB10_2:
.Ltmp185:
	.loc	27 257 17 discriminator 4 # /usr/bin/../lib64/gcc/x86_64-unknown-linux-gnu/5.2.0/../../../../include/c++/5.2.0/bits/stl_vector.h:257:17
	movl	%edx, %ecx
	movq	%rax, %rdi
	movl	%ecx, -12(%rbp)         # 4-byte Spill
	callq	__clang_call_terminate
.Ltmp190:
.Ltmp191:
	.size	_ZNSt6vectorIiSaIiEEC2Ev, .Ltmp191-_ZNSt6vectorIiSaIiEEC2Ev
.Lfunc_end10:
	.cfi_endproc
.Leh_func_end10:
	.section	.gcc_except_table,"a",@progbits
	.align	4
GCC_except_table10:
.Lexception10:
	.byte	255                     # @LPStart Encoding = omit
	.byte	3                       # @TType Encoding = udata4
	.byte	21                      # @TType base offset
	.byte	3                       # Call site Encoding = udata4
	.byte	13                      # Call site table length
	.long	.Ltmp183-.Leh_func_begin10 # >> Call Site 1 <<
	.long	.Ltmp184-.Ltmp183       #   Call between .Ltmp183 and .Ltmp184
	.long	.Ltmp185-.Leh_func_begin10 #     jumps to .Ltmp185
	.byte	1                       #   On action: 1
	.byte	1                       # >> Action Record 1 <<
                                        #   Catch TypeInfo 1
	.byte	0                       #   No further actions
                                        # >> Catch TypeInfos <<
	.long	0                       # TypeInfo 1
	.align	4

	.section	.text._ZNSt6vectorI14plain_particleSaIS0_EEC2Ev,"axG",@progbits,_ZNSt6vectorI14plain_particleSaIS0_EEC2Ev,comdat
	.weak	_ZNSt6vectorI14plain_particleSaIS0_EEC2Ev
	.align	16, 0x90
	.type	_ZNSt6vectorI14plain_particleSaIS0_EEC2Ev,@function
_ZNSt6vectorI14plain_particleSaIS0_EEC2Ev: # @_ZNSt6vectorI14plain_particleSaIS0_EEC2Ev
.Lfunc_begin11:
	.loc	27 257 0 is_stmt 1      # /usr/bin/../lib64/gcc/x86_64-unknown-linux-gnu/5.2.0/../../../../include/c++/5.2.0/bits/stl_vector.h:257:0
	.cfi_startproc
	.cfi_personality 3, __gxx_personality_v0
.Leh_func_begin11:
	.cfi_lsda 3, .Lexception11
# BB#0:
	pushq	%rbp
.Ltmp195:
	.cfi_def_cfa_offset 16
.Ltmp196:
	.cfi_offset %rbp, -16
	movq	%rsp, %rbp
.Ltmp197:
	.cfi_def_cfa_register %rbp
	subq	$16, %rsp
	#DEBUG_VALUE: vector:this <- undef
	movq	%rdi, -8(%rbp)
	.loc	27 257 17 prologue_end  # /usr/bin/../lib64/gcc/x86_64-unknown-linux-gnu/5.2.0/../../../../include/c++/5.2.0/bits/stl_vector.h:257:17
.Ltmp198:
.Ltmp192:
	callq	_ZNSt12_Vector_baseI14plain_particleSaIS0_EEC2Ev
.Ltmp193:
	jmp	.LBB11_1
.LBB11_1:
	.loc	27 257 19 is_stmt 0 discriminator 5 # /usr/bin/../lib64/gcc/x86_64-unknown-linux-gnu/5.2.0/../../../../include/c++/5.2.0/bits/stl_vector.h:257:19
	addq	$16, %rsp
	popq	%rbp
	retq
.LBB11_2:
.Ltmp194:
	.loc	27 257 17 discriminator 6 # /usr/bin/../lib64/gcc/x86_64-unknown-linux-gnu/5.2.0/../../../../include/c++/5.2.0/bits/stl_vector.h:257:17
	movl	%edx, %ecx
	movq	%rax, %rdi
	movl	%ecx, -12(%rbp)         # 4-byte Spill
	callq	__clang_call_terminate
.Ltmp199:
.Ltmp200:
	.size	_ZNSt6vectorI14plain_particleSaIS0_EEC2Ev, .Ltmp200-_ZNSt6vectorI14plain_particleSaIS0_EEC2Ev
.Lfunc_end11:
	.cfi_endproc
.Leh_func_end11:
	.section	.gcc_except_table,"a",@progbits
	.align	4
GCC_except_table11:
.Lexception11:
	.byte	255                     # @LPStart Encoding = omit
	.byte	3                       # @TType Encoding = udata4
	.byte	21                      # @TType base offset
	.byte	3                       # Call site Encoding = udata4
	.byte	13                      # Call site table length
	.long	.Ltmp192-.Leh_func_begin11 # >> Call Site 1 <<
	.long	.Ltmp193-.Ltmp192       #   Call between .Ltmp192 and .Ltmp193
	.long	.Ltmp194-.Leh_func_begin11 #     jumps to .Ltmp194
	.byte	1                       #   On action: 1
	.byte	1                       # >> Action Record 1 <<
                                        #   Catch TypeInfo 1
	.byte	0                       #   No further actions
                                        # >> Catch TypeInfos <<
	.long	0                       # TypeInfo 1
	.align	4

	.section	.text._ZNSt6vectorI14plain_particleSaIS0_EE9push_backEOS0_,"axG",@progbits,_ZNSt6vectorI14plain_particleSaIS0_EE9push_backEOS0_,comdat
	.weak	_ZNSt6vectorI14plain_particleSaIS0_EE9push_backEOS0_
	.align	16, 0x90
	.type	_ZNSt6vectorI14plain_particleSaIS0_EE9push_backEOS0_,@function
_ZNSt6vectorI14plain_particleSaIS0_EE9push_backEOS0_: # @_ZNSt6vectorI14plain_particleSaIS0_EE9push_backEOS0_
.Lfunc_begin12:
	.loc	27 932 0 is_stmt 1      # /usr/bin/../lib64/gcc/x86_64-unknown-linux-gnu/5.2.0/../../../../include/c++/5.2.0/bits/stl_vector.h:932:0
	.cfi_startproc
# BB#0:
	pushq	%rbp
.Ltmp201:
	.cfi_def_cfa_offset 16
.Ltmp202:
	.cfi_offset %rbp, -16
	movq	%rsp, %rbp
.Ltmp203:
	.cfi_def_cfa_register %rbp
	subq	$32, %rsp
	movq	%rdi, -8(%rbp)
	movq	%rsi, -16(%rbp)
	movq	-8(%rbp), %rdi
	.loc	27 932 22 prologue_end  # /usr/bin/../lib64/gcc/x86_64-unknown-linux-gnu/5.2.0/../../../../include/c++/5.2.0/bits/stl_vector.h:932:22
.Ltmp204:
	movq	-16(%rbp), %rsi
	movq	%rdi, -24(%rbp)         # 8-byte Spill
	movq	%rsi, %rdi
	callq	_ZSt4moveIR14plain_particleEONSt16remove_referenceIT_E4typeEOS3_
	.loc	27 932 9 is_stmt 0      # /usr/bin/../lib64/gcc/x86_64-unknown-linux-gnu/5.2.0/../../../../include/c++/5.2.0/bits/stl_vector.h:932:9
	movq	-24(%rbp), %rdi         # 8-byte Reload
	movq	%rax, %rsi
	callq	_ZNSt6vectorI14plain_particleSaIS0_EE12emplace_backIJS0_EEEvDpOT_
	.loc	27 932 39               # /usr/bin/../lib64/gcc/x86_64-unknown-linux-gnu/5.2.0/../../../../include/c++/5.2.0/bits/stl_vector.h:932:39
	addq	$32, %rsp
	popq	%rbp
	retq
.Ltmp205:
.Ltmp206:
	.size	_ZNSt6vectorI14plain_particleSaIS0_EE9push_backEOS0_, .Ltmp206-_ZNSt6vectorI14plain_particleSaIS0_EE9push_backEOS0_
.Lfunc_end12:
	.cfi_endproc

	.section	.text._ZN14plain_particleC2Eciiii,"axG",@progbits,_ZN14plain_particleC2Eciiii,comdat
	.weak	_ZN14plain_particleC2Eciiii
	.align	16, 0x90
	.type	_ZN14plain_particleC2Eciiii,@function
_ZN14plain_particleC2Eciiii:            # @_ZN14plain_particleC2Eciiii
.Lfunc_begin13:
	.loc	7 182 0 is_stmt 1       # /home/manu343726/Documentos/joaquin-dod/dod_perfv2.cpp:182:0
	.cfi_startproc
# BB#0:
	pushq	%rbp
.Ltmp207:
	.cfi_def_cfa_offset 16
.Ltmp208:
	.cfi_offset %rbp, -16
	movq	%rsp, %rbp
.Ltmp209:
	.cfi_def_cfa_register %rbp
	movb	%sil, %al
	movq	%rdi, -8(%rbp)
	movb	%al, -9(%rbp)
	movl	%edx, -16(%rbp)
	movl	%ecx, -20(%rbp)
	movl	%r8d, -24(%rbp)
	movl	%r9d, -28(%rbp)
	movq	-8(%rbp), %rdi
	.loc	7 181 11 prologue_end   # /home/manu343726/Documentos/joaquin-dod/dod_perfv2.cpp:181:11
.Ltmp210:
	movb	-9(%rbp), %al
	.loc	7 181 5 is_stmt 0       # /home/manu343726/Documentos/joaquin-dod/dod_perfv2.cpp:181:5
	movb	%al, (%rdi)
	.loc	7 181 21                # /home/manu343726/Documentos/joaquin-dod/dod_perfv2.cpp:181:21
	movl	-16(%rbp), %ecx
	.loc	7 181 19                # /home/manu343726/Documentos/joaquin-dod/dod_perfv2.cpp:181:19
	movl	%ecx, 4(%rdi)
	.loc	7 181 27                # /home/manu343726/Documentos/joaquin-dod/dod_perfv2.cpp:181:27
	movl	-20(%rbp), %ecx
	.loc	7 181 25                # /home/manu343726/Documentos/joaquin-dod/dod_perfv2.cpp:181:25
	movl	%ecx, 8(%rdi)
	.loc	7 181 34                # /home/manu343726/Documentos/joaquin-dod/dod_perfv2.cpp:181:34
	movl	-24(%rbp), %ecx
	.loc	7 181 31                # /home/manu343726/Documentos/joaquin-dod/dod_perfv2.cpp:181:31
	movl	%ecx, 12(%rdi)
	.loc	7 181 42                # /home/manu343726/Documentos/joaquin-dod/dod_perfv2.cpp:181:42
	movl	-28(%rbp), %ecx
	.loc	7 181 39                # /home/manu343726/Documentos/joaquin-dod/dod_perfv2.cpp:181:39
	movl	%ecx, 16(%rdi)
	.loc	7 182 4 is_stmt 1       # /home/manu343726/Documentos/joaquin-dod/dod_perfv2.cpp:182:4
	popq	%rbp
	retq
.Ltmp211:
.Ltmp212:
	.size	_ZN14plain_particleC2Eciiii, .Ltmp212-_ZN14plain_particleC2Eciiii
.Lfunc_end13:
	.cfi_endproc

	.section	.text._ZNSt6vectorIcSaIcEE9push_backERKc,"axG",@progbits,_ZNSt6vectorIcSaIcEE9push_backERKc,comdat
	.weak	_ZNSt6vectorIcSaIcEE9push_backERKc
	.align	16, 0x90
	.type	_ZNSt6vectorIcSaIcEE9push_backERKc,@function
_ZNSt6vectorIcSaIcEE9push_backERKc:     # @_ZNSt6vectorIcSaIcEE9push_backERKc
.Lfunc_begin14:
	.loc	27 914 0                # /usr/bin/../lib64/gcc/x86_64-unknown-linux-gnu/5.2.0/../../../../include/c++/5.2.0/bits/stl_vector.h:914:0
	.cfi_startproc
# BB#0:
	pushq	%rbp
.Ltmp213:
	.cfi_def_cfa_offset 16
.Ltmp214:
	.cfi_offset %rbp, -16
	movq	%rsp, %rbp
.Ltmp215:
	.cfi_def_cfa_register %rbp
	subq	$32, %rsp
	movq	%rdi, -8(%rbp)
	movq	%rsi, -16(%rbp)
	movq	-8(%rbp), %rsi
	.loc	27 915 6 prologue_end   # /usr/bin/../lib64/gcc/x86_64-unknown-linux-gnu/5.2.0/../../../../include/c++/5.2.0/bits/stl_vector.h:915:6
.Ltmp216:
	movq	8(%rsi), %rdi
.Ltmp217:
	.loc	27 915 6 is_stmt 0      # /usr/bin/../lib64/gcc/x86_64-unknown-linux-gnu/5.2.0/../../../../include/c++/5.2.0/bits/stl_vector.h:915:6
	cmpq	16(%rsi), %rdi
	movq	%rsi, -24(%rbp)         # 8-byte Spill
	je	.LBB14_2
# BB#1:
	.loc	27 917 31 is_stmt 1     # /usr/bin/../lib64/gcc/x86_64-unknown-linux-gnu/5.2.0/../../../../include/c++/5.2.0/bits/stl_vector.h:917:31
.Ltmp218:
	movq	-24(%rbp), %rax         # 8-byte Reload
	.loc	27 917 46 is_stmt 0     # /usr/bin/../lib64/gcc/x86_64-unknown-linux-gnu/5.2.0/../../../../include/c++/5.2.0/bits/stl_vector.h:917:46
	movq	-24(%rbp), %rcx         # 8-byte Reload
	movq	8(%rcx), %rsi
	.loc	27 917 6                # /usr/bin/../lib64/gcc/x86_64-unknown-linux-gnu/5.2.0/../../../../include/c++/5.2.0/bits/stl_vector.h:917:6
	movq	-16(%rbp), %rdx
	movq	%rax, %rdi
	callq	_ZNSt16allocator_traitsISaIcEE9constructIcJRKcEEEDTcl12_S_constructfp_fp0_spclsr3stdE7forwardIT0_Efp1_EEERS0_PT_DpOS5_
	.loc	27 919 6 is_stmt 1      # /usr/bin/../lib64/gcc/x86_64-unknown-linux-gnu/5.2.0/../../../../include/c++/5.2.0/bits/stl_vector.h:919:6
	movq	-24(%rbp), %rax         # 8-byte Reload
	movq	8(%rax), %rcx
	addq	$1, %rcx
	movq	%rcx, 8(%rax)
	.loc	27 920 4                # /usr/bin/../lib64/gcc/x86_64-unknown-linux-gnu/5.2.0/../../../../include/c++/5.2.0/bits/stl_vector.h:920:4
	jmp	.LBB14_3
.Ltmp219:
.LBB14_2:
	.loc	27 923 4                # /usr/bin/../lib64/gcc/x86_64-unknown-linux-gnu/5.2.0/../../../../include/c++/5.2.0/bits/stl_vector.h:923:4
	movq	-16(%rbp), %rsi
	movq	-24(%rbp), %rdi         # 8-byte Reload
	callq	_ZNSt6vectorIcSaIcEE19_M_emplace_back_auxIJRKcEEEvDpOT_
.Ltmp220:
.LBB14_3:
	.loc	27 927 7                # /usr/bin/../lib64/gcc/x86_64-unknown-linux-gnu/5.2.0/../../../../include/c++/5.2.0/bits/stl_vector.h:927:7
	addq	$32, %rsp
	popq	%rbp
	retq
.Ltmp221:
.Ltmp222:
	.size	_ZNSt6vectorIcSaIcEE9push_backERKc, .Ltmp222-_ZNSt6vectorIcSaIcEE9push_backERKc
.Lfunc_end14:
	.cfi_endproc

	.section	.text._ZNSt6vectorIiSaIiEE9push_backERKi,"axG",@progbits,_ZNSt6vectorIiSaIiEE9push_backERKi,comdat
	.weak	_ZNSt6vectorIiSaIiEE9push_backERKi
	.align	16, 0x90
	.type	_ZNSt6vectorIiSaIiEE9push_backERKi,@function
_ZNSt6vectorIiSaIiEE9push_backERKi:     # @_ZNSt6vectorIiSaIiEE9push_backERKi
.Lfunc_begin15:
	.loc	27 914 0                # /usr/bin/../lib64/gcc/x86_64-unknown-linux-gnu/5.2.0/../../../../include/c++/5.2.0/bits/stl_vector.h:914:0
	.cfi_startproc
# BB#0:
	pushq	%rbp
.Ltmp223:
	.cfi_def_cfa_offset 16
.Ltmp224:
	.cfi_offset %rbp, -16
	movq	%rsp, %rbp
.Ltmp225:
	.cfi_def_cfa_register %rbp
	subq	$32, %rsp
	movq	%rdi, -8(%rbp)
	movq	%rsi, -16(%rbp)
	movq	-8(%rbp), %rsi
	.loc	27 915 6 prologue_end   # /usr/bin/../lib64/gcc/x86_64-unknown-linux-gnu/5.2.0/../../../../include/c++/5.2.0/bits/stl_vector.h:915:6
.Ltmp226:
	movq	8(%rsi), %rdi
.Ltmp227:
	.loc	27 915 6 is_stmt 0      # /usr/bin/../lib64/gcc/x86_64-unknown-linux-gnu/5.2.0/../../../../include/c++/5.2.0/bits/stl_vector.h:915:6
	cmpq	16(%rsi), %rdi
	movq	%rsi, -24(%rbp)         # 8-byte Spill
	je	.LBB15_2
# BB#1:
	.loc	27 917 31 is_stmt 1     # /usr/bin/../lib64/gcc/x86_64-unknown-linux-gnu/5.2.0/../../../../include/c++/5.2.0/bits/stl_vector.h:917:31
.Ltmp228:
	movq	-24(%rbp), %rax         # 8-byte Reload
	.loc	27 917 46 is_stmt 0     # /usr/bin/../lib64/gcc/x86_64-unknown-linux-gnu/5.2.0/../../../../include/c++/5.2.0/bits/stl_vector.h:917:46
	movq	-24(%rbp), %rcx         # 8-byte Reload
	movq	8(%rcx), %rsi
	.loc	27 917 6                # /usr/bin/../lib64/gcc/x86_64-unknown-linux-gnu/5.2.0/../../../../include/c++/5.2.0/bits/stl_vector.h:917:6
	movq	-16(%rbp), %rdx
	movq	%rax, %rdi
	callq	_ZNSt16allocator_traitsISaIiEE9constructIiJRKiEEEDTcl12_S_constructfp_fp0_spclsr3stdE7forwardIT0_Efp1_EEERS0_PT_DpOS5_
	.loc	27 919 6 is_stmt 1      # /usr/bin/../lib64/gcc/x86_64-unknown-linux-gnu/5.2.0/../../../../include/c++/5.2.0/bits/stl_vector.h:919:6
	movq	-24(%rbp), %rax         # 8-byte Reload
	movq	8(%rax), %rcx
	addq	$4, %rcx
	movq	%rcx, 8(%rax)
	.loc	27 920 4                # /usr/bin/../lib64/gcc/x86_64-unknown-linux-gnu/5.2.0/../../../../include/c++/5.2.0/bits/stl_vector.h:920:4
	jmp	.LBB15_3
.Ltmp229:
.LBB15_2:
	.loc	27 923 4                # /usr/bin/../lib64/gcc/x86_64-unknown-linux-gnu/5.2.0/../../../../include/c++/5.2.0/bits/stl_vector.h:923:4
	movq	-16(%rbp), %rsi
	movq	-24(%rbp), %rdi         # 8-byte Reload
	callq	_ZNSt6vectorIiSaIiEE19_M_emplace_back_auxIJRKiEEEvDpOT_
.Ltmp230:
.LBB15_3:
	.loc	27 927 7                # /usr/bin/../lib64/gcc/x86_64-unknown-linux-gnu/5.2.0/../../../../include/c++/5.2.0/bits/stl_vector.h:927:7
	addq	$32, %rsp
	popq	%rbp
	retq
.Ltmp231:
.Ltmp232:
	.size	_ZNSt6vectorIiSaIiEE9push_backERKi, .Ltmp232-_ZNSt6vectorIiSaIiEE9push_backERKi
.Lfunc_end15:
	.cfi_endproc

	.section	.text._ZNSt6vectorI14plain_particleSaIS0_EE5beginEv,"axG",@progbits,_ZNSt6vectorI14plain_particleSaIS0_EE5beginEv,comdat
	.weak	_ZNSt6vectorI14plain_particleSaIS0_EE5beginEv
	.align	16, 0x90
	.type	_ZNSt6vectorI14plain_particleSaIS0_EE5beginEv,@function
_ZNSt6vectorI14plain_particleSaIS0_EE5beginEv: # @_ZNSt6vectorI14plain_particleSaIS0_EE5beginEv
.Lfunc_begin16:
	.loc	27 548 0                # /usr/bin/../lib64/gcc/x86_64-unknown-linux-gnu/5.2.0/../../../../include/c++/5.2.0/bits/stl_vector.h:548:0
	.cfi_startproc
# BB#0:
	pushq	%rbp
.Ltmp233:
	.cfi_def_cfa_offset 16
.Ltmp234:
	.cfi_offset %rbp, -16
	movq	%rsp, %rbp
.Ltmp235:
	.cfi_def_cfa_register %rbp
	subq	$32, %rsp
	leaq	-8(%rbp), %rax
	movq	%rdi, -16(%rbp)
	movq	-16(%rbp), %rdi
	.loc	27 548 9 prologue_end   # /usr/bin/../lib64/gcc/x86_64-unknown-linux-gnu/5.2.0/../../../../include/c++/5.2.0/bits/stl_vector.h:548:9
.Ltmp236:
	movq	%rdi, -24(%rbp)         # 8-byte Spill
	movq	%rax, %rdi
	movq	-24(%rbp), %rsi         # 8-byte Reload
	callq	_ZN9__gnu_cxx17__normal_iteratorIP14plain_particleSt6vectorIS1_SaIS1_EEEC2ERKS2_
	movq	-8(%rbp), %rax
	addq	$32, %rsp
	popq	%rbp
	retq
.Ltmp237:
.Ltmp238:
	.size	_ZNSt6vectorI14plain_particleSaIS0_EE5beginEv, .Ltmp238-_ZNSt6vectorI14plain_particleSaIS0_EE5beginEv
.Lfunc_end16:
	.cfi_endproc

	.section	.text._ZNSt6vectorI14plain_particleSaIS0_EE3endEv,"axG",@progbits,_ZNSt6vectorI14plain_particleSaIS0_EE3endEv,comdat
	.weak	_ZNSt6vectorI14plain_particleSaIS0_EE3endEv
	.align	16, 0x90
	.type	_ZNSt6vectorI14plain_particleSaIS0_EE3endEv,@function
_ZNSt6vectorI14plain_particleSaIS0_EE3endEv: # @_ZNSt6vectorI14plain_particleSaIS0_EE3endEv
.Lfunc_begin17:
	.loc	27 566 0                # /usr/bin/../lib64/gcc/x86_64-unknown-linux-gnu/5.2.0/../../../../include/c++/5.2.0/bits/stl_vector.h:566:0
	.cfi_startproc
# BB#0:
	pushq	%rbp
.Ltmp239:
	.cfi_def_cfa_offset 16
.Ltmp240:
	.cfi_offset %rbp, -16
	movq	%rsp, %rbp
.Ltmp241:
	.cfi_def_cfa_register %rbp
	subq	$32, %rsp
	leaq	-8(%rbp), %rax
	movq	%rdi, -16(%rbp)
	movq	-16(%rbp), %rdi
	.loc	27 566 9 prologue_end   # /usr/bin/../lib64/gcc/x86_64-unknown-linux-gnu/5.2.0/../../../../include/c++/5.2.0/bits/stl_vector.h:566:9
.Ltmp242:
	addq	$8, %rdi
	movq	%rdi, -24(%rbp)         # 8-byte Spill
	movq	%rax, %rdi
	movq	-24(%rbp), %rsi         # 8-byte Reload
	callq	_ZN9__gnu_cxx17__normal_iteratorIP14plain_particleSt6vectorIS1_SaIS1_EEEC2ERKS2_
	movq	-8(%rbp), %rax
	addq	$32, %rsp
	popq	%rbp
	retq
.Ltmp243:
.Ltmp244:
	.size	_ZNSt6vectorI14plain_particleSaIS0_EE3endEv, .Ltmp244-_ZNSt6vectorI14plain_particleSaIS0_EE3endEv
.Lfunc_end17:
	.cfi_endproc

	.section	.text._ZNSt6vectorIcSaIcEEixEm,"axG",@progbits,_ZNSt6vectorIcSaIcEEixEm,comdat
	.weak	_ZNSt6vectorIcSaIcEEixEm
	.align	16, 0x90
	.type	_ZNSt6vectorIcSaIcEEixEm,@function
_ZNSt6vectorIcSaIcEEixEm:               # @_ZNSt6vectorIcSaIcEEixEm
.Lfunc_begin18:
	.loc	27 780 0                # /usr/bin/../lib64/gcc/x86_64-unknown-linux-gnu/5.2.0/../../../../include/c++/5.2.0/bits/stl_vector.h:780:0
	.cfi_startproc
# BB#0:
	pushq	%rbp
.Ltmp245:
	.cfi_def_cfa_offset 16
.Ltmp246:
	.cfi_offset %rbp, -16
	movq	%rsp, %rbp
.Ltmp247:
	.cfi_def_cfa_register %rbp
	movq	%rdi, -8(%rbp)
	movq	%rsi, -16(%rbp)
	movq	-8(%rbp), %rsi
	.loc	27 780 18 prologue_end  # /usr/bin/../lib64/gcc/x86_64-unknown-linux-gnu/5.2.0/../../../../include/c++/5.2.0/bits/stl_vector.h:780:18
.Ltmp248:
	movq	(%rsi), %rsi
	addq	-16(%rbp), %rsi
	.loc	27 780 9 is_stmt 0      # /usr/bin/../lib64/gcc/x86_64-unknown-linux-gnu/5.2.0/../../../../include/c++/5.2.0/bits/stl_vector.h:780:9
	movq	%rsi, %rax
	popq	%rbp
	retq
.Ltmp249:
.Ltmp250:
	.size	_ZNSt6vectorIcSaIcEEixEm, .Ltmp250-_ZNSt6vectorIcSaIcEEixEm
.Lfunc_end18:
	.cfi_endproc

	.section	.text._ZNSt6vectorIiSaIiEEixEm,"axG",@progbits,_ZNSt6vectorIiSaIiEEixEm,comdat
	.weak	_ZNSt6vectorIiSaIiEEixEm
	.align	16, 0x90
	.type	_ZNSt6vectorIiSaIiEEixEm,@function
_ZNSt6vectorIiSaIiEEixEm:               # @_ZNSt6vectorIiSaIiEEixEm
.Lfunc_begin19:
	.loc	27 780 0 is_stmt 1      # /usr/bin/../lib64/gcc/x86_64-unknown-linux-gnu/5.2.0/../../../../include/c++/5.2.0/bits/stl_vector.h:780:0
	.cfi_startproc
# BB#0:
	pushq	%rbp
.Ltmp251:
	.cfi_def_cfa_offset 16
.Ltmp252:
	.cfi_offset %rbp, -16
	movq	%rsp, %rbp
.Ltmp253:
	.cfi_def_cfa_register %rbp
	movq	%rdi, -8(%rbp)
	movq	%rsi, -16(%rbp)
	movq	-8(%rbp), %rsi
	.loc	27 780 18 prologue_end  # /usr/bin/../lib64/gcc/x86_64-unknown-linux-gnu/5.2.0/../../../../include/c++/5.2.0/bits/stl_vector.h:780:18
.Ltmp254:
	movq	(%rsi), %rsi
	.loc	27 780 43 is_stmt 0     # /usr/bin/../lib64/gcc/x86_64-unknown-linux-gnu/5.2.0/../../../../include/c++/5.2.0/bits/stl_vector.h:780:43
	movq	-16(%rbp), %rdi
	.loc	27 780 18               # /usr/bin/../lib64/gcc/x86_64-unknown-linux-gnu/5.2.0/../../../../include/c++/5.2.0/bits/stl_vector.h:780:18
	shlq	$2, %rdi
	addq	%rdi, %rsi
	.loc	27 780 9                # /usr/bin/../lib64/gcc/x86_64-unknown-linux-gnu/5.2.0/../../../../include/c++/5.2.0/bits/stl_vector.h:780:9
	movq	%rsi, %rax
	popq	%rbp
	retq
.Ltmp255:
.Ltmp256:
	.size	_ZNSt6vectorIiSaIiEEixEm, .Ltmp256-_ZNSt6vectorIiSaIiEEixEm
.Lfunc_end19:
	.cfi_endproc

	.section	.text._ZN3dod12make_pointerI8particleNS_6accessIJNS_6memberIcLi0EEENS3_IiLi0EEENS3_IiLi1EEENS3_IiLi2EEENS3_IiLi3EEEEEEEENS_7pointerIT_IT0_EEERKSC_,"axG",@progbits,_ZN3dod12make_pointerI8particleNS_6accessIJNS_6memberIcLi0EEENS3_IiLi0EEENS3_IiLi1EEENS3_IiLi2EEENS3_IiLi3EEEEEEEENS_7pointerIT_IT0_EEERKSC_,comdat
	.weak	_ZN3dod12make_pointerI8particleNS_6accessIJNS_6memberIcLi0EEENS3_IiLi0EEENS3_IiLi1EEENS3_IiLi2EEENS3_IiLi3EEEEEEEENS_7pointerIT_IT0_EEERKSC_
	.align	16, 0x90
	.type	_ZN3dod12make_pointerI8particleNS_6accessIJNS_6memberIcLi0EEENS3_IiLi0EEENS3_IiLi1EEENS3_IiLi2EEENS3_IiLi3EEEEEEEENS_7pointerIT_IT0_EEERKSC_,@function
_ZN3dod12make_pointerI8particleNS_6accessIJNS_6memberIcLi0EEENS3_IiLi0EEENS3_IiLi1EEENS3_IiLi2EEENS3_IiLi3EEEEEEEENS_7pointerIT_IT0_EEERKSC_: # @_ZN3dod12make_pointerI8particleNS_6accessIJNS_6memberIcLi0EEENS3_IiLi0EEENS3_IiLi1EEENS3_IiLi2EEENS3_IiLi3EEEEEEEENS_7pointerIT_IT0_EEERKSC_
.Lfunc_begin20:
	.loc	7 150 0 is_stmt 1       # /home/manu343726/Documentos/joaquin-dod/dod_perfv2.cpp:150:0
	.cfi_startproc
# BB#0:
	pushq	%rbp
.Ltmp257:
	.cfi_def_cfa_offset 16
.Ltmp258:
	.cfi_offset %rbp, -16
	movq	%rsp, %rbp
.Ltmp259:
	.cfi_def_cfa_register %rbp
	subq	$16, %rsp
	movq	%rdi, %rax
	movq	%rsi, -8(%rbp)
	.loc	7 151 3 prologue_end    # /home/manu343726/Documentos/joaquin-dod/dod_perfv2.cpp:151:3
.Ltmp260:
	movq	-8(%rbp), %rsi
	movq	%rax, -16(%rbp)         # 8-byte Spill
	callq	_ZN3dod7pointerI8particleINS_6accessIJNS_6memberIcLi0EEENS3_IiLi0EEENS3_IiLi1EEENS3_IiLi2EEENS3_IiLi3EEEEEEEEC2ERKS9_
	movq	-16(%rbp), %rax         # 8-byte Reload
	addq	$16, %rsp
	popq	%rbp
	retq
.Ltmp261:
.Ltmp262:
	.size	_ZN3dod12make_pointerI8particleNS_6accessIJNS_6memberIcLi0EEENS3_IiLi0EEENS3_IiLi1EEENS3_IiLi2EEENS3_IiLi3EEEEEEEENS_7pointerIT_IT0_EEERKSC_, .Ltmp262-_ZN3dod12make_pointerI8particleNS_6accessIJNS_6memberIcLi0EEENS3_IiLi0EEENS3_IiLi1EEENS3_IiLi2EEENS3_IiLi3EEEEEEEENS_7pointerIT_IT0_EEERKSC_
.Lfunc_end20:
	.cfi_endproc

	.section	.text._ZN3dod6accessIJNS_6memberIcLi0EEENS1_IiLi0EEENS1_IiLi1EEENS1_IiLi2EEENS1_IiLi3EEEEEC2IJPiS9_S9_S9_EEEPcDpOT_,"axG",@progbits,_ZN3dod6accessIJNS_6memberIcLi0EEENS1_IiLi0EEENS1_IiLi1EEENS1_IiLi2EEENS1_IiLi3EEEEEC2IJPiS9_S9_S9_EEEPcDpOT_,comdat
	.weak	_ZN3dod6accessIJNS_6memberIcLi0EEENS1_IiLi0EEENS1_IiLi1EEENS1_IiLi2EEENS1_IiLi3EEEEEC2IJPiS9_S9_S9_EEEPcDpOT_
	.align	16, 0x90
	.type	_ZN3dod6accessIJNS_6memberIcLi0EEENS1_IiLi0EEENS1_IiLi1EEENS1_IiLi2EEENS1_IiLi3EEEEEC2IJPiS9_S9_S9_EEEPcDpOT_,@function
_ZN3dod6accessIJNS_6memberIcLi0EEENS1_IiLi0EEENS1_IiLi1EEENS1_IiLi2EEENS1_IiLi3EEEEEC2IJPiS9_S9_S9_EEEPcDpOT_: # @_ZN3dod6accessIJNS_6memberIcLi0EEENS1_IiLi0EEENS1_IiLi1EEENS1_IiLi2EEENS1_IiLi3EEEEEC2IJPiS9_S9_S9_EEEPcDpOT_
.Lfunc_begin21:
	.loc	7 95 0                  # /home/manu343726/Documentos/joaquin-dod/dod_perfv2.cpp:95:0
	.cfi_startproc
# BB#0:
	pushq	%rbp
.Ltmp263:
	.cfi_def_cfa_offset 16
.Ltmp264:
	.cfi_offset %rbp, -16
	movq	%rsp, %rbp
.Ltmp265:
	.cfi_def_cfa_register %rbp
	subq	$96, %rsp
	movq	%rdi, -8(%rbp)
	movq	%rsi, -16(%rbp)
	movq	%rdx, -24(%rbp)
	movq	%rcx, -32(%rbp)
	movq	%r8, -40(%rbp)
	movq	%r9, -48(%rbp)
	movq	-8(%rbp), %rcx
	.loc	7 95 73 prologue_end    # /home/manu343726/Documentos/joaquin-dod/dod_perfv2.cpp:95:73
.Ltmp266:
	movq	%rcx, %rdx
	.loc	7 95 40 is_stmt 0       # /home/manu343726/Documentos/joaquin-dod/dod_perfv2.cpp:95:40
	movq	-24(%rbp), %rdi
	movq	%rcx, -56(%rbp)         # 8-byte Spill
	movq	%rdx, -64(%rbp)         # 8-byte Spill
	callq	_ZSt7forwardIPiEOT_RNSt16remove_referenceIS1_E4typeE
	movq	(%rax), %rsi
	movq	-32(%rbp), %rdi
	movq	%rsi, -72(%rbp)         # 8-byte Spill
	callq	_ZSt7forwardIPiEOT_RNSt16remove_referenceIS1_E4typeE
	movq	-40(%rbp), %rdi
	movq	%rax, -80(%rbp)         # 8-byte Spill
	callq	_ZSt7forwardIPiEOT_RNSt16remove_referenceIS1_E4typeE
	movq	-48(%rbp), %rdi
	movq	%rax, -88(%rbp)         # 8-byte Spill
	callq	_ZSt7forwardIPiEOT_RNSt16remove_referenceIS1_E4typeE
	.loc	7 95 73                 # /home/manu343726/Documentos/joaquin-dod/dod_perfv2.cpp:95:73
	movq	-64(%rbp), %rdi         # 8-byte Reload
	movq	-72(%rbp), %rsi         # 8-byte Reload
	movq	-80(%rbp), %rdx         # 8-byte Reload
	movq	-88(%rbp), %rcx         # 8-byte Reload
	movq	%rax, %r8
	callq	_ZN3dod6accessIJNS_6memberIiLi0EEENS1_IiLi1EEENS1_IiLi2EEENS1_IiLi3EEEEEC2IJPiS8_S8_EEES8_DpOT_
	.loc	7 95 71                 # /home/manu343726/Documentos/joaquin-dod/dod_perfv2.cpp:95:71
	movq	-16(%rbp), %rax
	.loc	7 95 69                 # /home/manu343726/Documentos/joaquin-dod/dod_perfv2.cpp:95:69
	movq	-56(%rbp), %rcx         # 8-byte Reload
	movq	%rax, 40(%rcx)
	.loc	7 95 74                 # /home/manu343726/Documentos/joaquin-dod/dod_perfv2.cpp:95:74
	addq	$96, %rsp
	popq	%rbp
	retq
.Ltmp267:
.Ltmp268:
	.size	_ZN3dod6accessIJNS_6memberIcLi0EEENS1_IiLi0EEENS1_IiLi1EEENS1_IiLi2EEENS1_IiLi3EEEEEC2IJPiS9_S9_S9_EEEPcDpOT_, .Ltmp268-_ZN3dod6accessIJNS_6memberIcLi0EEENS1_IiLi0EEENS1_IiLi1EEENS1_IiLi2EEENS1_IiLi3EEEEEC2IJPiS9_S9_S9_EEEPcDpOT_
.Lfunc_end21:
	.cfi_endproc

	.section	.text._ZN5boost9iteratorsplIN3dod7pointerI8particleINS2_6accessIJNS2_6memberIcLi0EEENS6_IiLi0EEENS6_IiLi1EEENS6_IiLi2EEENS6_IiLi3EEEEEEEEESD_NS0_27random_access_traversal_tagESD_lEENS0_9enable_ifINS0_6detail21is_traversal_at_leastIT1_SF_EET_E4typeERKNS0_15iterator_facadeISL_T0_SJ_T2_T3_EENSL_15difference_typeE,"axG",@progbits,_ZN5boost9iteratorsplIN3dod7pointerI8particleINS2_6accessIJNS2_6memberIcLi0EEENS6_IiLi0EEENS6_IiLi1EEENS6_IiLi2EEENS6_IiLi3EEEEEEEEESD_NS0_27random_access_traversal_tagESD_lEENS0_9enable_ifINS0_6detail21is_traversal_at_leastIT1_SF_EET_E4typeERKNS0_15iterator_facadeISL_T0_SJ_T2_T3_EENSL_15difference_typeE,comdat
	.weak	_ZN5boost9iteratorsplIN3dod7pointerI8particleINS2_6accessIJNS2_6memberIcLi0EEENS6_IiLi0EEENS6_IiLi1EEENS6_IiLi2EEENS6_IiLi3EEEEEEEEESD_NS0_27random_access_traversal_tagESD_lEENS0_9enable_ifINS0_6detail21is_traversal_at_leastIT1_SF_EET_E4typeERKNS0_15iterator_facadeISL_T0_SJ_T2_T3_EENSL_15difference_typeE
	.align	16, 0x90
	.type	_ZN5boost9iteratorsplIN3dod7pointerI8particleINS2_6accessIJNS2_6memberIcLi0EEENS6_IiLi0EEENS6_IiLi1EEENS6_IiLi2EEENS6_IiLi3EEEEEEEEESD_NS0_27random_access_traversal_tagESD_lEENS0_9enable_ifINS0_6detail21is_traversal_at_leastIT1_SF_EET_E4typeERKNS0_15iterator_facadeISL_T0_SJ_T2_T3_EENSL_15difference_typeE,@function
_ZN5boost9iteratorsplIN3dod7pointerI8particleINS2_6accessIJNS2_6memberIcLi0EEENS6_IiLi0EEENS6_IiLi1EEENS6_IiLi2EEENS6_IiLi3EEEEEEEEESD_NS0_27random_access_traversal_tagESD_lEENS0_9enable_ifINS0_6detail21is_traversal_at_leastIT1_SF_EET_E4typeERKNS0_15iterator_facadeISL_T0_SJ_T2_T3_EENSL_15difference_typeE: # @_ZN5boost9iteratorsplIN3dod7pointerI8particleINS2_6accessIJNS2_6memberIcLi0EEENS6_IiLi0EEENS6_IiLi1EEENS6_IiLi2EEENS6_IiLi3EEEEEEEEESD_NS0_27random_access_traversal_tagESD_lEENS0_9enable_ifINS0_6detail21is_traversal_at_leastIT1_SF_EET_E4typeERKNS0_15iterator_facadeISL_T0_SJ_T2_T3_EENSL_15difference_typeE
.Lfunc_begin22:
	.loc	21 945 0 is_stmt 1      # /usr/include/boost/iterator/iterator_facade.hpp:945:0
	.cfi_startproc
# BB#0:
	pushq	%rbp
.Ltmp269:
	.cfi_def_cfa_offset 16
.Ltmp270:
	.cfi_offset %rbp, -16
	movq	%rsp, %rbp
.Ltmp271:
	.cfi_def_cfa_register %rbp
	subq	$96, %rsp
	movq	%rdi, %rax
	leaq	-64(%rbp), %rcx
	movl	$48, %r8d
	movl	%r8d, %r9d
	movq	%rsi, -8(%rbp)
	movq	%rdx, -16(%rbp)
.Ltmp272:
	#DEBUG_VALUE: operator+<dod::pointer<particle<dod::access<dod::member<char, 0>, dod::member<int, 0>, dod::member<int, 1>, dod::member<int, 2>, dod::member<int, 3> > > >, particle<dod::access<dod::member<char, 0>, dod::member<int, 0>, dod::member<int, 1>, dod::member<int, 2>, dod::member<int, 3> > >, boost::iterators::random_access_traversal_tag, particle<dod::access<dod::member<char, 0>, dod::member<int, 0>, dod::member<int, 1>, dod::member<int, 2>, dod::member<int, 3> > >, long>:tmp <- RCX
	.loc	21 945 3 prologue_end   # /usr/include/boost/iterator/iterator_facade.hpp:945:3
	movq	-8(%rbp), %rdx
	movq	%rcx, %rsi
	movq	%rdi, -72(%rbp)         # 8-byte Spill
	movq	%rsi, %rdi
	movq	%rdx, %rsi
	movq	%r9, %rdx
	movq	%rax, -80(%rbp)         # 8-byte Spill
	movq	%rcx, -88(%rbp)         # 8-byte Spill
.Ltmp273:
	#DEBUG_VALUE: operator+<dod::pointer<particle<dod::access<dod::member<char, 0>, dod::member<int, 0>, dod::member<int, 1>, dod::member<int, 2>, dod::member<int, 3> > > >, particle<dod::access<dod::member<char, 0>, dod::member<int, 0>, dod::member<int, 1>, dod::member<int, 2>, dod::member<int, 3> > >, boost::iterators::random_access_traversal_tag, particle<dod::access<dod::member<char, 0>, dod::member<int, 0>, dod::member<int, 1>, dod::member<int, 2>, dod::member<int, 3> > >, long>:tmp <- [RBP+-88]
	callq	memcpy
	movq	-88(%rbp), %rax         # 8-byte Reload
	movq	-16(%rbp), %rsi
	movq	%rax, %rdi
	callq	_ZN5boost9iterators6detail20iterator_facade_baseIN3dod7pointerI8particleINS3_6accessIJNS3_6memberIcLi0EEENS7_IiLi0EEENS7_IiLi1EEENS7_IiLi2EEENS7_IiLi3EEEEEEEEESE_NS0_27random_access_traversal_tagESE_lLb1ELb1EEpLEl
	movl	$48, %r8d
	movl	%r8d, %edx
	movq	-72(%rbp), %rcx         # 8-byte Reload
	movq	%rcx, %rdi
	movq	%rax, %rsi
	callq	memcpy
	movq	-80(%rbp), %rax         # 8-byte Reload
	addq	$96, %rsp
	popq	%rbp
	retq
.Ltmp274:
.Ltmp275:
	.size	_ZN5boost9iteratorsplIN3dod7pointerI8particleINS2_6accessIJNS2_6memberIcLi0EEENS6_IiLi0EEENS6_IiLi1EEENS6_IiLi2EEENS6_IiLi3EEEEEEEEESD_NS0_27random_access_traversal_tagESD_lEENS0_9enable_ifINS0_6detail21is_traversal_at_leastIT1_SF_EET_E4typeERKNS0_15iterator_facadeISL_T0_SJ_T2_T3_EENSL_15difference_typeE, .Ltmp275-_ZN5boost9iteratorsplIN3dod7pointerI8particleINS2_6accessIJNS2_6memberIcLi0EEENS6_IiLi0EEENS6_IiLi1EEENS6_IiLi2EEENS6_IiLi3EEEEEEEEESD_NS0_27random_access_traversal_tagESD_lEENS0_9enable_ifINS0_6detail21is_traversal_at_leastIT1_SF_EET_E4typeERKNS0_15iterator_facadeISL_T0_SJ_T2_T3_EENSL_15difference_typeE
.Lfunc_end22:
	.cfi_endproc

	.section	.text._ZN3dod12make_pointerI8particleNS_6accessIJNS_6memberIcLi0EEENS3_IiLi0EEENS3_IiLi1EEEEEEEENS_7pointerIT_IT0_EEERKSA_,"axG",@progbits,_ZN3dod12make_pointerI8particleNS_6accessIJNS_6memberIcLi0EEENS3_IiLi0EEENS3_IiLi1EEEEEEEENS_7pointerIT_IT0_EEERKSA_,comdat
	.weak	_ZN3dod12make_pointerI8particleNS_6accessIJNS_6memberIcLi0EEENS3_IiLi0EEENS3_IiLi1EEEEEEEENS_7pointerIT_IT0_EEERKSA_
	.align	16, 0x90
	.type	_ZN3dod12make_pointerI8particleNS_6accessIJNS_6memberIcLi0EEENS3_IiLi0EEENS3_IiLi1EEEEEEEENS_7pointerIT_IT0_EEERKSA_,@function
_ZN3dod12make_pointerI8particleNS_6accessIJNS_6memberIcLi0EEENS3_IiLi0EEENS3_IiLi1EEEEEEEENS_7pointerIT_IT0_EEERKSA_: # @_ZN3dod12make_pointerI8particleNS_6accessIJNS_6memberIcLi0EEENS3_IiLi0EEENS3_IiLi1EEEEEEEENS_7pointerIT_IT0_EEERKSA_
.Lfunc_begin23:
	.loc	7 150 0                 # /home/manu343726/Documentos/joaquin-dod/dod_perfv2.cpp:150:0
	.cfi_startproc
# BB#0:
	pushq	%rbp
.Ltmp276:
	.cfi_def_cfa_offset 16
.Ltmp277:
	.cfi_offset %rbp, -16
	movq	%rsp, %rbp
.Ltmp278:
	.cfi_def_cfa_register %rbp
	subq	$16, %rsp
	movq	%rdi, %rax
	movq	%rsi, -8(%rbp)
	.loc	7 151 3 prologue_end    # /home/manu343726/Documentos/joaquin-dod/dod_perfv2.cpp:151:3
.Ltmp279:
	movq	-8(%rbp), %rsi
	movq	%rax, -16(%rbp)         # 8-byte Spill
	callq	_ZN3dod7pointerI8particleINS_6accessIJNS_6memberIcLi0EEENS3_IiLi0EEENS3_IiLi1EEEEEEEEC2ERKS7_
	movq	-16(%rbp), %rax         # 8-byte Reload
	addq	$16, %rsp
	popq	%rbp
	retq
.Ltmp280:
.Ltmp281:
	.size	_ZN3dod12make_pointerI8particleNS_6accessIJNS_6memberIcLi0EEENS3_IiLi0EEENS3_IiLi1EEEEEEEENS_7pointerIT_IT0_EEERKSA_, .Ltmp281-_ZN3dod12make_pointerI8particleNS_6accessIJNS_6memberIcLi0EEENS3_IiLi0EEENS3_IiLi1EEEEEEEENS_7pointerIT_IT0_EEERKSA_
.Lfunc_end23:
	.cfi_endproc

	.section	.text._ZN3dod6accessIJNS_6memberIcLi0EEENS1_IiLi0EEENS1_IiLi1EEEEEC2IJPiS7_EEEPcDpOT_,"axG",@progbits,_ZN3dod6accessIJNS_6memberIcLi0EEENS1_IiLi0EEENS1_IiLi1EEEEEC2IJPiS7_EEEPcDpOT_,comdat
	.weak	_ZN3dod6accessIJNS_6memberIcLi0EEENS1_IiLi0EEENS1_IiLi1EEEEEC2IJPiS7_EEEPcDpOT_
	.align	16, 0x90
	.type	_ZN3dod6accessIJNS_6memberIcLi0EEENS1_IiLi0EEENS1_IiLi1EEEEEC2IJPiS7_EEEPcDpOT_,@function
_ZN3dod6accessIJNS_6memberIcLi0EEENS1_IiLi0EEENS1_IiLi1EEEEEC2IJPiS7_EEEPcDpOT_: # @_ZN3dod6accessIJNS_6memberIcLi0EEENS1_IiLi0EEENS1_IiLi1EEEEEC2IJPiS7_EEEPcDpOT_
.Lfunc_begin24:
	.loc	7 95 0                  # /home/manu343726/Documentos/joaquin-dod/dod_perfv2.cpp:95:0
	.cfi_startproc
# BB#0:
	pushq	%rbp
.Ltmp282:
	.cfi_def_cfa_offset 16
.Ltmp283:
	.cfi_offset %rbp, -16
	movq	%rsp, %rbp
.Ltmp284:
	.cfi_def_cfa_register %rbp
	subq	$64, %rsp
	movq	%rdi, -8(%rbp)
	movq	%rsi, -16(%rbp)
	movq	%rdx, -24(%rbp)
	movq	%rcx, -32(%rbp)
	movq	-8(%rbp), %rcx
	.loc	7 95 73 prologue_end    # /home/manu343726/Documentos/joaquin-dod/dod_perfv2.cpp:95:73
.Ltmp285:
	movq	%rcx, %rdx
	.loc	7 95 40 is_stmt 0       # /home/manu343726/Documentos/joaquin-dod/dod_perfv2.cpp:95:40
	movq	-24(%rbp), %rdi
	movq	%rcx, -40(%rbp)         # 8-byte Spill
	movq	%rdx, -48(%rbp)         # 8-byte Spill
	callq	_ZSt7forwardIPiEOT_RNSt16remove_referenceIS1_E4typeE
	movq	(%rax), %rsi
	movq	-32(%rbp), %rdi
	movq	%rsi, -56(%rbp)         # 8-byte Spill
	callq	_ZSt7forwardIPiEOT_RNSt16remove_referenceIS1_E4typeE
	.loc	7 95 73                 # /home/manu343726/Documentos/joaquin-dod/dod_perfv2.cpp:95:73
	movq	-48(%rbp), %rdi         # 8-byte Reload
	movq	-56(%rbp), %rsi         # 8-byte Reload
	movq	%rax, %rdx
	callq	_ZN3dod6accessIJNS_6memberIiLi0EEENS1_IiLi1EEEEEC2IJPiEEES6_DpOT_
	.loc	7 95 71                 # /home/manu343726/Documentos/joaquin-dod/dod_perfv2.cpp:95:71
	movq	-16(%rbp), %rax
	.loc	7 95 69                 # /home/manu343726/Documentos/joaquin-dod/dod_perfv2.cpp:95:69
	movq	-40(%rbp), %rcx         # 8-byte Reload
	movq	%rax, 24(%rcx)
	.loc	7 95 74                 # /home/manu343726/Documentos/joaquin-dod/dod_perfv2.cpp:95:74
	addq	$64, %rsp
	popq	%rbp
	retq
.Ltmp286:
.Ltmp287:
	.size	_ZN3dod6accessIJNS_6memberIcLi0EEENS1_IiLi0EEENS1_IiLi1EEEEEC2IJPiS7_EEEPcDpOT_, .Ltmp287-_ZN3dod6accessIJNS_6memberIcLi0EEENS1_IiLi0EEENS1_IiLi1EEEEEC2IJPiS7_EEEPcDpOT_
.Lfunc_end24:
	.cfi_endproc

	.section	.text._ZN5boost9iteratorsplIN3dod7pointerI8particleINS2_6accessIJNS2_6memberIcLi0EEENS6_IiLi0EEENS6_IiLi1EEEEEEEEESB_NS0_27random_access_traversal_tagESB_lEENS0_9enable_ifINS0_6detail21is_traversal_at_leastIT1_SD_EET_E4typeERKNS0_15iterator_facadeISJ_T0_SH_T2_T3_EENSJ_15difference_typeE,"axG",@progbits,_ZN5boost9iteratorsplIN3dod7pointerI8particleINS2_6accessIJNS2_6memberIcLi0EEENS6_IiLi0EEENS6_IiLi1EEEEEEEEESB_NS0_27random_access_traversal_tagESB_lEENS0_9enable_ifINS0_6detail21is_traversal_at_leastIT1_SD_EET_E4typeERKNS0_15iterator_facadeISJ_T0_SH_T2_T3_EENSJ_15difference_typeE,comdat
	.weak	_ZN5boost9iteratorsplIN3dod7pointerI8particleINS2_6accessIJNS2_6memberIcLi0EEENS6_IiLi0EEENS6_IiLi1EEEEEEEEESB_NS0_27random_access_traversal_tagESB_lEENS0_9enable_ifINS0_6detail21is_traversal_at_leastIT1_SD_EET_E4typeERKNS0_15iterator_facadeISJ_T0_SH_T2_T3_EENSJ_15difference_typeE
	.align	16, 0x90
	.type	_ZN5boost9iteratorsplIN3dod7pointerI8particleINS2_6accessIJNS2_6memberIcLi0EEENS6_IiLi0EEENS6_IiLi1EEEEEEEEESB_NS0_27random_access_traversal_tagESB_lEENS0_9enable_ifINS0_6detail21is_traversal_at_leastIT1_SD_EET_E4typeERKNS0_15iterator_facadeISJ_T0_SH_T2_T3_EENSJ_15difference_typeE,@function
_ZN5boost9iteratorsplIN3dod7pointerI8particleINS2_6accessIJNS2_6memberIcLi0EEENS6_IiLi0EEENS6_IiLi1EEEEEEEEESB_NS0_27random_access_traversal_tagESB_lEENS0_9enable_ifINS0_6detail21is_traversal_at_leastIT1_SD_EET_E4typeERKNS0_15iterator_facadeISJ_T0_SH_T2_T3_EENSJ_15difference_typeE: # @_ZN5boost9iteratorsplIN3dod7pointerI8particleINS2_6accessIJNS2_6memberIcLi0EEENS6_IiLi0EEENS6_IiLi1EEEEEEEEESB_NS0_27random_access_traversal_tagESB_lEENS0_9enable_ifINS0_6detail21is_traversal_at_leastIT1_SD_EET_E4typeERKNS0_15iterator_facadeISJ_T0_SH_T2_T3_EENSJ_15difference_typeE
.Lfunc_begin25:
	.loc	21 945 0 is_stmt 1      # /usr/include/boost/iterator/iterator_facade.hpp:945:0
	.cfi_startproc
# BB#0:
	pushq	%rbp
.Ltmp288:
	.cfi_def_cfa_offset 16
.Ltmp289:
	.cfi_offset %rbp, -16
	movq	%rsp, %rbp
.Ltmp290:
	.cfi_def_cfa_register %rbp
	subq	$64, %rsp
	movq	%rdi, %rax
	leaq	-48(%rbp), %rcx
	movq	%rsi, -8(%rbp)
	movq	%rdx, -16(%rbp)
.Ltmp291:
	#DEBUG_VALUE: operator+<dod::pointer<particle<dod::access<dod::member<char, 0>, dod::member<int, 0>, dod::member<int, 1> > > >, particle<dod::access<dod::member<char, 0>, dod::member<int, 0>, dod::member<int, 1> > >, boost::iterators::random_access_traversal_tag, particle<dod::access<dod::member<char, 0>, dod::member<int, 0>, dod::member<int, 1> > >, long>:tmp <- RCX
	.loc	21 945 3 prologue_end   # /usr/include/boost/iterator/iterator_facade.hpp:945:3
	movq	-8(%rbp), %rdx
	movq	(%rdx), %rsi
	movq	%rsi, -48(%rbp)
	movq	8(%rdx), %rsi
	movq	%rsi, -40(%rbp)
	movq	16(%rdx), %rsi
	movq	%rsi, -32(%rbp)
	movq	24(%rdx), %rdx
	movq	%rdx, -24(%rbp)
	movq	-16(%rbp), %rsi
	movq	%rdi, -56(%rbp)         # 8-byte Spill
	movq	%rcx, %rdi
	movq	%rax, -64(%rbp)         # 8-byte Spill
	callq	_ZN5boost9iterators6detail20iterator_facade_baseIN3dod7pointerI8particleINS3_6accessIJNS3_6memberIcLi0EEENS7_IiLi0EEENS7_IiLi1EEEEEEEEESC_NS0_27random_access_traversal_tagESC_lLb1ELb1EEpLEl
	movq	(%rax), %rcx
.Ltmp292:
	movq	-56(%rbp), %rdx         # 8-byte Reload
	movq	%rcx, (%rdx)
	movq	8(%rax), %rcx
	movq	%rcx, 8(%rdx)
	movq	16(%rax), %rcx
	movq	%rcx, 16(%rdx)
	movq	24(%rax), %rax
	movq	%rax, 24(%rdx)
	movq	-64(%rbp), %rax         # 8-byte Reload
	addq	$64, %rsp
	popq	%rbp
	retq
.Ltmp293:
.Ltmp294:
	.size	_ZN5boost9iteratorsplIN3dod7pointerI8particleINS2_6accessIJNS2_6memberIcLi0EEENS6_IiLi0EEENS6_IiLi1EEEEEEEEESB_NS0_27random_access_traversal_tagESB_lEENS0_9enable_ifINS0_6detail21is_traversal_at_leastIT1_SD_EET_E4typeERKNS0_15iterator_facadeISJ_T0_SH_T2_T3_EENSJ_15difference_typeE, .Ltmp294-_ZN5boost9iteratorsplIN3dod7pointerI8particleINS2_6accessIJNS2_6memberIcLi0EEENS6_IiLi0EEENS6_IiLi1EEEEEEEEESB_NS0_27random_access_traversal_tagESB_lEENS0_9enable_ifINS0_6detail21is_traversal_at_leastIT1_SD_EET_E4typeERKNS0_15iterator_facadeISJ_T0_SH_T2_T3_EENSJ_15difference_typeE
.Lfunc_end25:
	.cfi_endproc

	.section	.rodata.cst8,"aM",@progbits,8
	.align	8
.LCPI26_0:
	.quad	4711630319722168320     # double 1.0E+7
	.section	.rodata.cst16,"aM",@progbits,16
	.align	16
.LCPI26_1:
	.long	1127219200              # 0x43300000
	.long	1160773632              # 0x45300000
	.long	0                       # 0x0
	.long	0                       # 0x0
.LCPI26_2:
	.quad	4841369599423283200     # double 4.503600e+15
	.quad	4985484787499139072     # double 1.934281e+25
	.text
	.align	16, 0x90
	.type	_Z7measureIZ4mainE3$_0EdT_m,@function
_Z7measureIZ4mainE3$_0EdT_m:            # @"_Z7measureIZ4mainE3$_0EdT_m"
.Lfunc_begin26:
	.loc	7 300 0                 # /home/manu343726/Documentos/joaquin-dod/dod_perfv2.cpp:300:0
	.cfi_startproc
# BB#0:
	pushq	%rbp
.Ltmp295:
	.cfi_def_cfa_offset 16
.Ltmp296:
	.cfi_offset %rbp, -16
	movq	%rsp, %rbp
.Ltmp297:
	.cfi_def_cfa_register %rbp
	subq	$64, %rsp
	movsd	.LCPI26_0, %xmm0
	#DEBUG_VALUE: measure<(lambda at /home/manu343726/Documentos/joaquin-dod/dod_perfv2.cpp:346:24)>:f <- undef
	#DEBUG_VALUE: measure<(lambda at /home/manu343726/Documentos/joaquin-dod/dod_perfv2.cpp:346:24)>:n <- undef
	movq	%rdi, -16(%rbp)
	movq	%rsi, -8(%rbp)
	movq	%rdx, -24(%rbp)
	.loc	7 300 43 prologue_end   # /home/manu343726/Documentos/joaquin-dod/dod_perfv2.cpp:300:43
.Ltmp298:
	movups	-16(%rbp), %xmm1
	movaps	%xmm1, -48(%rbp)
	movq	-48(%rbp), %rdi
	movq	-40(%rbp), %rsi
	movsd	%xmm0, -56(%rbp)        # 8-byte Spill
	callq	_Z7measureIZ4mainE3$_0EdT_
	.loc	7 300 54 is_stmt 0      # /home/manu343726/Documentos/joaquin-dod/dod_perfv2.cpp:300:54
	movaps	.LCPI26_1(%rip), %xmm1  # xmm1 = [1127219200,1160773632,0,0]
	movq	-24(%rbp), %xmm2
	punpckldq	%xmm1, %xmm2    # xmm2 = xmm2[0],xmm1[0],xmm2[1],xmm1[1]
	movapd	.LCPI26_2(%rip), %xmm1  # xmm1 = [4.503600e+15,1.934281e+25]
	subpd	%xmm1, %xmm2
	pshufd	$78, %xmm2, %xmm1       # xmm1 = xmm2[2,3,0,1]
	addpd	%xmm2, %xmm1
	.loc	7 300 43                # /home/manu343726/Documentos/joaquin-dod/dod_perfv2.cpp:300:43
	divsd	%xmm1, %xmm0
	.loc	7 300 42                # /home/manu343726/Documentos/joaquin-dod/dod_perfv2.cpp:300:42
	movsd	-56(%rbp), %xmm1        # 8-byte Reload
	mulsd	%xmm1, %xmm0
	.loc	7 300 35                # /home/manu343726/Documentos/joaquin-dod/dod_perfv2.cpp:300:35
	addq	$64, %rsp
	popq	%rbp
	retq
.Ltmp299:
.Ltmp300:
	.size	_Z7measureIZ4mainE3$_0EdT_m, .Ltmp300-_Z7measureIZ4mainE3$_0EdT_m
.Lfunc_end26:
	.cfi_endproc

	.section	.rodata.cst8,"aM",@progbits,8
	.align	8
.LCPI27_0:
	.quad	4711630319722168320     # double 1.0E+7
	.section	.rodata.cst16,"aM",@progbits,16
	.align	16
.LCPI27_1:
	.long	1127219200              # 0x43300000
	.long	1160773632              # 0x45300000
	.long	0                       # 0x0
	.long	0                       # 0x0
.LCPI27_2:
	.quad	4841369599423283200     # double 4.503600e+15
	.quad	4985484787499139072     # double 1.934281e+25
	.text
	.align	16, 0x90
	.type	_Z7measureIZ4mainE3$_1EdT_m,@function
_Z7measureIZ4mainE3$_1EdT_m:            # @"_Z7measureIZ4mainE3$_1EdT_m"
.Lfunc_begin27:
	.loc	7 300 0 is_stmt 1       # /home/manu343726/Documentos/joaquin-dod/dod_perfv2.cpp:300:0
	.cfi_startproc
# BB#0:
	pushq	%rbp
.Ltmp301:
	.cfi_def_cfa_offset 16
.Ltmp302:
	.cfi_offset %rbp, -16
	movq	%rsp, %rbp
.Ltmp303:
	.cfi_def_cfa_register %rbp
	subq	$96, %rsp
	#DEBUG_VALUE: measure<(lambda at /home/manu343726/Documentos/joaquin-dod/dod_perfv2.cpp:347:24)>:f <- [RBP+16]
	leaq	16(%rbp), %rax
	movsd	.LCPI27_0, %xmm0
	#DEBUG_VALUE: measure<(lambda at /home/manu343726/Documentos/joaquin-dod/dod_perfv2.cpp:347:24)>:n <- undef
	movq	%rdi, -8(%rbp)
	.loc	7 300 43 prologue_end   # /home/manu343726/Documentos/joaquin-dod/dod_perfv2.cpp:300:43
.Ltmp304:
	movups	(%rax), %xmm1
	movups	16(%rax), %xmm2
	movaps	%xmm2, -32(%rbp)
	movaps	%xmm1, -48(%rbp)
	movaps	-48(%rbp), %xmm1
	movaps	-32(%rbp), %xmm2
	movq	%rsp, %rax
	movups	%xmm2, 16(%rax)
	movups	%xmm1, (%rax)
	movsd	%xmm0, -56(%rbp)        # 8-byte Spill
	callq	_Z7measureIZ4mainE3$_1EdT_
	.loc	7 300 54 is_stmt 0      # /home/manu343726/Documentos/joaquin-dod/dod_perfv2.cpp:300:54
	movaps	.LCPI27_1(%rip), %xmm1  # xmm1 = [1127219200,1160773632,0,0]
	movq	-8(%rbp), %xmm2
	punpckldq	%xmm1, %xmm2    # xmm2 = xmm2[0],xmm1[0],xmm2[1],xmm1[1]
	movapd	.LCPI27_2(%rip), %xmm1  # xmm1 = [4.503600e+15,1.934281e+25]
	subpd	%xmm1, %xmm2
	pshufd	$78, %xmm2, %xmm1       # xmm1 = xmm2[2,3,0,1]
	addpd	%xmm2, %xmm1
	.loc	7 300 43                # /home/manu343726/Documentos/joaquin-dod/dod_perfv2.cpp:300:43
	divsd	%xmm1, %xmm0
	.loc	7 300 42                # /home/manu343726/Documentos/joaquin-dod/dod_perfv2.cpp:300:42
	movsd	-56(%rbp), %xmm1        # 8-byte Reload
	mulsd	%xmm1, %xmm0
	.loc	7 300 35                # /home/manu343726/Documentos/joaquin-dod/dod_perfv2.cpp:300:35
	addq	$96, %rsp
	popq	%rbp
	retq
.Ltmp305:
.Ltmp306:
	.size	_Z7measureIZ4mainE3$_1EdT_m, .Ltmp306-_Z7measureIZ4mainE3$_1EdT_m
.Lfunc_end27:
	.cfi_endproc

	.section	.rodata.cst8,"aM",@progbits,8
	.align	8
.LCPI28_0:
	.quad	4711630319722168320     # double 1.0E+7
	.section	.rodata.cst16,"aM",@progbits,16
	.align	16
.LCPI28_1:
	.long	1127219200              # 0x43300000
	.long	1160773632              # 0x45300000
	.long	0                       # 0x0
	.long	0                       # 0x0
.LCPI28_2:
	.quad	4841369599423283200     # double 4.503600e+15
	.quad	4985484787499139072     # double 1.934281e+25
	.text
	.align	16, 0x90
	.type	_Z7measureIZ4mainE3$_2EdT_m,@function
_Z7measureIZ4mainE3$_2EdT_m:            # @"_Z7measureIZ4mainE3$_2EdT_m"
.Lfunc_begin28:
	.loc	7 300 0 is_stmt 1       # /home/manu343726/Documentos/joaquin-dod/dod_perfv2.cpp:300:0
	.cfi_startproc
# BB#0:
	pushq	%rbp
.Ltmp307:
	.cfi_def_cfa_offset 16
.Ltmp308:
	.cfi_offset %rbp, -16
	movq	%rsp, %rbp
.Ltmp309:
	.cfi_def_cfa_register %rbp
	subq	$224, %rsp
	#DEBUG_VALUE: measure<(lambda at /home/manu343726/Documentos/joaquin-dod/dod_perfv2.cpp:348:24)>:f <- [RBP+16]
	leaq	16(%rbp), %rax
	movsd	.LCPI28_0, %xmm0
	#DEBUG_VALUE: measure<(lambda at /home/manu343726/Documentos/joaquin-dod/dod_perfv2.cpp:348:24)>:n <- undef
	movq	%rdi, -8(%rbp)
	.loc	7 300 43 prologue_end   # /home/manu343726/Documentos/joaquin-dod/dod_perfv2.cpp:300:43
.Ltmp310:
	movups	80(%rax), %xmm1
	movaps	%xmm1, -32(%rbp)
	movups	64(%rax), %xmm1
	movaps	%xmm1, -48(%rbp)
	movups	(%rax), %xmm1
	movups	16(%rax), %xmm2
	movups	32(%rax), %xmm3
	movups	48(%rax), %xmm4
	movaps	%xmm4, -64(%rbp)
	movaps	%xmm3, -80(%rbp)
	movaps	%xmm2, -96(%rbp)
	movaps	%xmm1, -112(%rbp)
	movaps	-32(%rbp), %xmm1
	movq	%rsp, %rax
	movups	%xmm1, 80(%rax)
	movaps	-48(%rbp), %xmm1
	movups	%xmm1, 64(%rax)
	movaps	-112(%rbp), %xmm1
	movaps	-96(%rbp), %xmm2
	movaps	-80(%rbp), %xmm3
	movaps	-64(%rbp), %xmm4
	movups	%xmm4, 48(%rax)
	movups	%xmm3, 32(%rax)
	movups	%xmm2, 16(%rax)
	movups	%xmm1, (%rax)
	movsd	%xmm0, -120(%rbp)       # 8-byte Spill
	callq	_Z7measureIZ4mainE3$_2EdT_
	.loc	7 300 54 is_stmt 0      # /home/manu343726/Documentos/joaquin-dod/dod_perfv2.cpp:300:54
	movaps	.LCPI28_1(%rip), %xmm1  # xmm1 = [1127219200,1160773632,0,0]
	movq	-8(%rbp), %xmm2
	punpckldq	%xmm1, %xmm2    # xmm2 = xmm2[0],xmm1[0],xmm2[1],xmm1[1]
	movapd	.LCPI28_2(%rip), %xmm1  # xmm1 = [4.503600e+15,1.934281e+25]
	subpd	%xmm1, %xmm2
	pshufd	$78, %xmm2, %xmm1       # xmm1 = xmm2[2,3,0,1]
	addpd	%xmm2, %xmm1
	.loc	7 300 43                # /home/manu343726/Documentos/joaquin-dod/dod_perfv2.cpp:300:43
	divsd	%xmm1, %xmm0
	.loc	7 300 42                # /home/manu343726/Documentos/joaquin-dod/dod_perfv2.cpp:300:42
	movsd	-120(%rbp), %xmm1       # 8-byte Reload
	mulsd	%xmm1, %xmm0
	.loc	7 300 35                # /home/manu343726/Documentos/joaquin-dod/dod_perfv2.cpp:300:35
	addq	$224, %rsp
	popq	%rbp
	retq
.Ltmp311:
.Ltmp312:
	.size	_Z7measureIZ4mainE3$_2EdT_m, .Ltmp312-_Z7measureIZ4mainE3$_2EdT_m
.Lfunc_end28:
	.cfi_endproc

	.section	.rodata.cst8,"aM",@progbits,8
	.align	8
.LCPI29_0:
	.quad	4711630319722168320     # double 1.0E+7
	.section	.rodata.cst16,"aM",@progbits,16
	.align	16
.LCPI29_1:
	.long	1127219200              # 0x43300000
	.long	1160773632              # 0x45300000
	.long	0                       # 0x0
	.long	0                       # 0x0
.LCPI29_2:
	.quad	4841369599423283200     # double 4.503600e+15
	.quad	4985484787499139072     # double 1.934281e+25
	.text
	.align	16, 0x90
	.type	_Z7measureIZ4mainE3$_3EdT_m,@function
_Z7measureIZ4mainE3$_3EdT_m:            # @"_Z7measureIZ4mainE3$_3EdT_m"
.Lfunc_begin29:
	.loc	7 300 0 is_stmt 1       # /home/manu343726/Documentos/joaquin-dod/dod_perfv2.cpp:300:0
	.cfi_startproc
# BB#0:
	pushq	%rbp
.Ltmp313:
	.cfi_def_cfa_offset 16
.Ltmp314:
	.cfi_offset %rbp, -16
	movq	%rsp, %rbp
.Ltmp315:
	.cfi_def_cfa_register %rbp
	subq	$160, %rsp
	#DEBUG_VALUE: measure<(lambda at /home/manu343726/Documentos/joaquin-dod/dod_perfv2.cpp:349:24)>:f <- [RBP+16]
	leaq	16(%rbp), %rax
	movsd	.LCPI29_0, %xmm0
	#DEBUG_VALUE: measure<(lambda at /home/manu343726/Documentos/joaquin-dod/dod_perfv2.cpp:349:24)>:n <- undef
	movq	%rdi, -8(%rbp)
	.loc	7 300 43 prologue_end   # /home/manu343726/Documentos/joaquin-dod/dod_perfv2.cpp:300:43
.Ltmp316:
	movups	(%rax), %xmm1
	movups	16(%rax), %xmm2
	movups	32(%rax), %xmm3
	movups	48(%rax), %xmm4
	movaps	%xmm4, -32(%rbp)
	movaps	%xmm3, -48(%rbp)
	movaps	%xmm2, -64(%rbp)
	movaps	%xmm1, -80(%rbp)
	movaps	-80(%rbp), %xmm1
	movaps	-64(%rbp), %xmm2
	movaps	-48(%rbp), %xmm3
	movaps	-32(%rbp), %xmm4
	movq	%rsp, %rax
	movups	%xmm4, 48(%rax)
	movups	%xmm3, 32(%rax)
	movups	%xmm2, 16(%rax)
	movups	%xmm1, (%rax)
	movsd	%xmm0, -88(%rbp)        # 8-byte Spill
	callq	_Z7measureIZ4mainE3$_3EdT_
	.loc	7 300 54 is_stmt 0      # /home/manu343726/Documentos/joaquin-dod/dod_perfv2.cpp:300:54
	movaps	.LCPI29_1(%rip), %xmm1  # xmm1 = [1127219200,1160773632,0,0]
	movq	-8(%rbp), %xmm2
	punpckldq	%xmm1, %xmm2    # xmm2 = xmm2[0],xmm1[0],xmm2[1],xmm1[1]
	movapd	.LCPI29_2(%rip), %xmm1  # xmm1 = [4.503600e+15,1.934281e+25]
	subpd	%xmm1, %xmm2
	pshufd	$78, %xmm2, %xmm1       # xmm1 = xmm2[2,3,0,1]
	addpd	%xmm2, %xmm1
	.loc	7 300 43                # /home/manu343726/Documentos/joaquin-dod/dod_perfv2.cpp:300:43
	divsd	%xmm1, %xmm0
	.loc	7 300 42                # /home/manu343726/Documentos/joaquin-dod/dod_perfv2.cpp:300:42
	movsd	-88(%rbp), %xmm1        # 8-byte Reload
	mulsd	%xmm1, %xmm0
	.loc	7 300 35                # /home/manu343726/Documentos/joaquin-dod/dod_perfv2.cpp:300:35
	addq	$160, %rsp
	popq	%rbp
	retq
.Ltmp317:
.Ltmp318:
	.size	_Z7measureIZ4mainE3$_3EdT_m, .Ltmp318-_Z7measureIZ4mainE3$_3EdT_m
.Lfunc_end29:
	.cfi_endproc

	.section	.rodata.cst8,"aM",@progbits,8
	.align	8
.LCPI30_0:
	.quad	4711630319722168320     # double 1.0E+7
	.section	.rodata.cst16,"aM",@progbits,16
	.align	16
.LCPI30_1:
	.long	1127219200              # 0x43300000
	.long	1160773632              # 0x45300000
	.long	0                       # 0x0
	.long	0                       # 0x0
.LCPI30_2:
	.quad	4841369599423283200     # double 4.503600e+15
	.quad	4985484787499139072     # double 1.934281e+25
	.text
	.align	16, 0x90
	.type	_Z7measureIZ4mainE3$_4EdT_m,@function
_Z7measureIZ4mainE3$_4EdT_m:            # @"_Z7measureIZ4mainE3$_4EdT_m"
.Lfunc_begin30:
	.loc	7 300 0 is_stmt 1       # /home/manu343726/Documentos/joaquin-dod/dod_perfv2.cpp:300:0
	.cfi_startproc
# BB#0:
	pushq	%rbp
.Ltmp319:
	.cfi_def_cfa_offset 16
.Ltmp320:
	.cfi_offset %rbp, -16
	movq	%rsp, %rbp
.Ltmp321:
	.cfi_def_cfa_register %rbp
	subq	$64, %rsp
	movsd	.LCPI30_0, %xmm0
	#DEBUG_VALUE: measure<(lambda at /home/manu343726/Documentos/joaquin-dod/dod_perfv2.cpp:350:24)>:f <- undef
	#DEBUG_VALUE: measure<(lambda at /home/manu343726/Documentos/joaquin-dod/dod_perfv2.cpp:350:24)>:n <- undef
	movq	%rdi, -16(%rbp)
	movq	%rsi, -8(%rbp)
	movq	%rdx, -24(%rbp)
	.loc	7 300 43 prologue_end   # /home/manu343726/Documentos/joaquin-dod/dod_perfv2.cpp:300:43
.Ltmp322:
	movups	-16(%rbp), %xmm1
	movaps	%xmm1, -48(%rbp)
	movq	-48(%rbp), %rdi
	movq	-40(%rbp), %rsi
	movsd	%xmm0, -56(%rbp)        # 8-byte Spill
	callq	_Z7measureIZ4mainE3$_4EdT_
	.loc	7 300 54 is_stmt 0      # /home/manu343726/Documentos/joaquin-dod/dod_perfv2.cpp:300:54
	movaps	.LCPI30_1(%rip), %xmm1  # xmm1 = [1127219200,1160773632,0,0]
	movq	-24(%rbp), %xmm2
	punpckldq	%xmm1, %xmm2    # xmm2 = xmm2[0],xmm1[0],xmm2[1],xmm1[1]
	movapd	.LCPI30_2(%rip), %xmm1  # xmm1 = [4.503600e+15,1.934281e+25]
	subpd	%xmm1, %xmm2
	pshufd	$78, %xmm2, %xmm1       # xmm1 = xmm2[2,3,0,1]
	addpd	%xmm2, %xmm1
	.loc	7 300 43                # /home/manu343726/Documentos/joaquin-dod/dod_perfv2.cpp:300:43
	divsd	%xmm1, %xmm0
	.loc	7 300 42                # /home/manu343726/Documentos/joaquin-dod/dod_perfv2.cpp:300:42
	movsd	-56(%rbp), %xmm1        # 8-byte Reload
	mulsd	%xmm1, %xmm0
	.loc	7 300 35                # /home/manu343726/Documentos/joaquin-dod/dod_perfv2.cpp:300:35
	addq	$64, %rsp
	popq	%rbp
	retq
.Ltmp323:
.Ltmp324:
	.size	_Z7measureIZ4mainE3$_4EdT_m, .Ltmp324-_Z7measureIZ4mainE3$_4EdT_m
.Lfunc_end30:
	.cfi_endproc

	.section	.rodata.cst8,"aM",@progbits,8
	.align	8
.LCPI31_0:
	.quad	4711630319722168320     # double 1.0E+7
	.section	.rodata.cst16,"aM",@progbits,16
	.align	16
.LCPI31_1:
	.long	1127219200              # 0x43300000
	.long	1160773632              # 0x45300000
	.long	0                       # 0x0
	.long	0                       # 0x0
.LCPI31_2:
	.quad	4841369599423283200     # double 4.503600e+15
	.quad	4985484787499139072     # double 1.934281e+25
	.text
	.align	16, 0x90
	.type	_Z7measureIZ4mainE3$_5EdT_m,@function
_Z7measureIZ4mainE3$_5EdT_m:            # @"_Z7measureIZ4mainE3$_5EdT_m"
.Lfunc_begin31:
	.loc	7 300 0 is_stmt 1       # /home/manu343726/Documentos/joaquin-dod/dod_perfv2.cpp:300:0
	.cfi_startproc
# BB#0:
	pushq	%rbp
.Ltmp325:
	.cfi_def_cfa_offset 16
.Ltmp326:
	.cfi_offset %rbp, -16
	movq	%rsp, %rbp
.Ltmp327:
	.cfi_def_cfa_register %rbp
	subq	$96, %rsp
	#DEBUG_VALUE: measure<(lambda at /home/manu343726/Documentos/joaquin-dod/dod_perfv2.cpp:351:24)>:f <- [RBP+16]
	leaq	16(%rbp), %rax
	movsd	.LCPI31_0, %xmm0
	#DEBUG_VALUE: measure<(lambda at /home/manu343726/Documentos/joaquin-dod/dod_perfv2.cpp:351:24)>:n <- undef
	movq	%rdi, -8(%rbp)
	.loc	7 300 43 prologue_end   # /home/manu343726/Documentos/joaquin-dod/dod_perfv2.cpp:300:43
.Ltmp328:
	movups	(%rax), %xmm1
	movups	16(%rax), %xmm2
	movaps	%xmm2, -32(%rbp)
	movaps	%xmm1, -48(%rbp)
	movaps	-48(%rbp), %xmm1
	movaps	-32(%rbp), %xmm2
	movq	%rsp, %rax
	movups	%xmm2, 16(%rax)
	movups	%xmm1, (%rax)
	movsd	%xmm0, -56(%rbp)        # 8-byte Spill
	callq	_Z7measureIZ4mainE3$_5EdT_
	.loc	7 300 54 is_stmt 0      # /home/manu343726/Documentos/joaquin-dod/dod_perfv2.cpp:300:54
	movaps	.LCPI31_1(%rip), %xmm1  # xmm1 = [1127219200,1160773632,0,0]
	movq	-8(%rbp), %xmm2
	punpckldq	%xmm1, %xmm2    # xmm2 = xmm2[0],xmm1[0],xmm2[1],xmm1[1]
	movapd	.LCPI31_2(%rip), %xmm1  # xmm1 = [4.503600e+15,1.934281e+25]
	subpd	%xmm1, %xmm2
	pshufd	$78, %xmm2, %xmm1       # xmm1 = xmm2[2,3,0,1]
	addpd	%xmm2, %xmm1
	.loc	7 300 43                # /home/manu343726/Documentos/joaquin-dod/dod_perfv2.cpp:300:43
	divsd	%xmm1, %xmm0
	.loc	7 300 42                # /home/manu343726/Documentos/joaquin-dod/dod_perfv2.cpp:300:42
	movsd	-56(%rbp), %xmm1        # 8-byte Reload
	mulsd	%xmm1, %xmm0
	.loc	7 300 35                # /home/manu343726/Documentos/joaquin-dod/dod_perfv2.cpp:300:35
	addq	$96, %rsp
	popq	%rbp
	retq
.Ltmp329:
.Ltmp330:
	.size	_Z7measureIZ4mainE3$_5EdT_m, .Ltmp330-_Z7measureIZ4mainE3$_5EdT_m
.Lfunc_end31:
	.cfi_endproc

	.section	.rodata.cst8,"aM",@progbits,8
	.align	8
.LCPI32_0:
	.quad	4711630319722168320     # double 1.0E+7
	.section	.rodata.cst16,"aM",@progbits,16
	.align	16
.LCPI32_1:
	.long	1127219200              # 0x43300000
	.long	1160773632              # 0x45300000
	.long	0                       # 0x0
	.long	0                       # 0x0
.LCPI32_2:
	.quad	4841369599423283200     # double 4.503600e+15
	.quad	4985484787499139072     # double 1.934281e+25
	.text
	.align	16, 0x90
	.type	_Z7measureIZ4mainE3$_6EdT_m,@function
_Z7measureIZ4mainE3$_6EdT_m:            # @"_Z7measureIZ4mainE3$_6EdT_m"
.Lfunc_begin32:
	.loc	7 300 0 is_stmt 1       # /home/manu343726/Documentos/joaquin-dod/dod_perfv2.cpp:300:0
	.cfi_startproc
# BB#0:
	pushq	%rbp
.Ltmp331:
	.cfi_def_cfa_offset 16
.Ltmp332:
	.cfi_offset %rbp, -16
	movq	%rsp, %rbp
.Ltmp333:
	.cfi_def_cfa_register %rbp
	subq	$128, %rsp
	#DEBUG_VALUE: measure<(lambda at /home/manu343726/Documentos/joaquin-dod/dod_perfv2.cpp:352:24)>:f <- [RBP+16]
	leaq	16(%rbp), %rax
	movsd	.LCPI32_0, %xmm0
	#DEBUG_VALUE: measure<(lambda at /home/manu343726/Documentos/joaquin-dod/dod_perfv2.cpp:352:24)>:n <- undef
	movq	%rdi, -8(%rbp)
	.loc	7 300 43 prologue_end   # /home/manu343726/Documentos/joaquin-dod/dod_perfv2.cpp:300:43
.Ltmp334:
	movq	48(%rax), %rdi
	movq	%rdi, -16(%rbp)
	movups	(%rax), %xmm1
	movups	16(%rax), %xmm2
	movups	32(%rax), %xmm3
	movaps	%xmm3, -32(%rbp)
	movaps	%xmm2, -48(%rbp)
	movaps	%xmm1, -64(%rbp)
	movq	-16(%rbp), %rax
	movq	%rsp, %rdi
	movq	%rax, 48(%rdi)
	movaps	-64(%rbp), %xmm1
	movaps	-48(%rbp), %xmm2
	movaps	-32(%rbp), %xmm3
	movups	%xmm3, 32(%rdi)
	movups	%xmm2, 16(%rdi)
	movups	%xmm1, (%rdi)
	movsd	%xmm0, -72(%rbp)        # 8-byte Spill
	callq	_Z7measureIZ4mainE3$_6EdT_
	.loc	7 300 54 is_stmt 0      # /home/manu343726/Documentos/joaquin-dod/dod_perfv2.cpp:300:54
	movaps	.LCPI32_1(%rip), %xmm1  # xmm1 = [1127219200,1160773632,0,0]
	movq	-8(%rbp), %xmm2
	punpckldq	%xmm1, %xmm2    # xmm2 = xmm2[0],xmm1[0],xmm2[1],xmm1[1]
	movapd	.LCPI32_2(%rip), %xmm1  # xmm1 = [4.503600e+15,1.934281e+25]
	subpd	%xmm1, %xmm2
	pshufd	$78, %xmm2, %xmm1       # xmm1 = xmm2[2,3,0,1]
	addpd	%xmm2, %xmm1
	.loc	7 300 43                # /home/manu343726/Documentos/joaquin-dod/dod_perfv2.cpp:300:43
	divsd	%xmm1, %xmm0
	.loc	7 300 42                # /home/manu343726/Documentos/joaquin-dod/dod_perfv2.cpp:300:42
	movsd	-72(%rbp), %xmm1        # 8-byte Reload
	mulsd	%xmm1, %xmm0
	.loc	7 300 35                # /home/manu343726/Documentos/joaquin-dod/dod_perfv2.cpp:300:35
	addq	$128, %rsp
	popq	%rbp
	retq
.Ltmp335:
.Ltmp336:
	.size	_Z7measureIZ4mainE3$_6EdT_m, .Ltmp336-_Z7measureIZ4mainE3$_6EdT_m
.Lfunc_end32:
	.cfi_endproc

	.section	.rodata.cst8,"aM",@progbits,8
	.align	8
.LCPI33_0:
	.quad	4711630319722168320     # double 1.0E+7
	.section	.rodata.cst16,"aM",@progbits,16
	.align	16
.LCPI33_1:
	.long	1127219200              # 0x43300000
	.long	1160773632              # 0x45300000
	.long	0                       # 0x0
	.long	0                       # 0x0
.LCPI33_2:
	.quad	4841369599423283200     # double 4.503600e+15
	.quad	4985484787499139072     # double 1.934281e+25
	.text
	.align	16, 0x90
	.type	_Z7measureIZ4mainE3$_7EdT_m,@function
_Z7measureIZ4mainE3$_7EdT_m:            # @"_Z7measureIZ4mainE3$_7EdT_m"
.Lfunc_begin33:
	.loc	7 300 0 is_stmt 1       # /home/manu343726/Documentos/joaquin-dod/dod_perfv2.cpp:300:0
	.cfi_startproc
# BB#0:
	pushq	%rbp
.Ltmp337:
	.cfi_def_cfa_offset 16
.Ltmp338:
	.cfi_offset %rbp, -16
	movq	%rsp, %rbp
.Ltmp339:
	.cfi_def_cfa_register %rbp
	subq	$96, %rsp
	#DEBUG_VALUE: measure<(lambda at /home/manu343726/Documentos/joaquin-dod/dod_perfv2.cpp:353:24)>:f <- [RBP+16]
	leaq	16(%rbp), %rax
	movsd	.LCPI33_0, %xmm0
	#DEBUG_VALUE: measure<(lambda at /home/manu343726/Documentos/joaquin-dod/dod_perfv2.cpp:353:24)>:n <- undef
	movq	%rdi, -8(%rbp)
	.loc	7 300 43 prologue_end   # /home/manu343726/Documentos/joaquin-dod/dod_perfv2.cpp:300:43
.Ltmp340:
	movq	32(%rax), %rdi
	movq	%rdi, -16(%rbp)
	movups	(%rax), %xmm1
	movups	16(%rax), %xmm2
	movaps	%xmm2, -32(%rbp)
	movaps	%xmm1, -48(%rbp)
	movq	-16(%rbp), %rax
	movq	%rsp, %rdi
	movq	%rax, 32(%rdi)
	movaps	-48(%rbp), %xmm1
	movaps	-32(%rbp), %xmm2
	movups	%xmm2, 16(%rdi)
	movups	%xmm1, (%rdi)
	movsd	%xmm0, -56(%rbp)        # 8-byte Spill
	callq	_Z7measureIZ4mainE3$_7EdT_
	.loc	7 300 54 is_stmt 0      # /home/manu343726/Documentos/joaquin-dod/dod_perfv2.cpp:300:54
	movaps	.LCPI33_1(%rip), %xmm1  # xmm1 = [1127219200,1160773632,0,0]
	movq	-8(%rbp), %xmm2
	punpckldq	%xmm1, %xmm2    # xmm2 = xmm2[0],xmm1[0],xmm2[1],xmm1[1]
	movapd	.LCPI33_2(%rip), %xmm1  # xmm1 = [4.503600e+15,1.934281e+25]
	subpd	%xmm1, %xmm2
	pshufd	$78, %xmm2, %xmm1       # xmm1 = xmm2[2,3,0,1]
	addpd	%xmm2, %xmm1
	.loc	7 300 43                # /home/manu343726/Documentos/joaquin-dod/dod_perfv2.cpp:300:43
	divsd	%xmm1, %xmm0
	.loc	7 300 42                # /home/manu343726/Documentos/joaquin-dod/dod_perfv2.cpp:300:42
	movsd	-56(%rbp), %xmm1        # 8-byte Reload
	mulsd	%xmm1, %xmm0
	.loc	7 300 35                # /home/manu343726/Documentos/joaquin-dod/dod_perfv2.cpp:300:35
	addq	$96, %rsp
	popq	%rbp
	retq
.Ltmp341:
.Ltmp342:
	.size	_Z7measureIZ4mainE3$_7EdT_m, .Ltmp342-_Z7measureIZ4mainE3$_7EdT_m
.Lfunc_end33:
	.cfi_endproc

	.section	.text._ZNSt6vectorI14plain_particleSaIS0_EED2Ev,"axG",@progbits,_ZNSt6vectorI14plain_particleSaIS0_EED2Ev,comdat
	.weak	_ZNSt6vectorI14plain_particleSaIS0_EED2Ev
	.align	16, 0x90
	.type	_ZNSt6vectorI14plain_particleSaIS0_EED2Ev,@function
_ZNSt6vectorI14plain_particleSaIS0_EED2Ev: # @_ZNSt6vectorI14plain_particleSaIS0_EED2Ev
.Lfunc_begin34:
	.loc	27 424 0 is_stmt 1      # /usr/bin/../lib64/gcc/x86_64-unknown-linux-gnu/5.2.0/../../../../include/c++/5.2.0/bits/stl_vector.h:424:0
	.cfi_startproc
	.cfi_personality 3, __gxx_personality_v0
.Leh_func_begin34:
	.cfi_lsda 3, .Lexception34
# BB#0:
	pushq	%rbp
.Ltmp346:
	.cfi_def_cfa_offset 16
.Ltmp347:
	.cfi_offset %rbp, -16
	movq	%rsp, %rbp
.Ltmp348:
	.cfi_def_cfa_register %rbp
	subq	$48, %rsp
	#DEBUG_VALUE: ~vector:this <- undef
	movq	%rdi, -8(%rbp)
	movq	%rdi, %rax
	.loc	27 424 23 prologue_end  # /usr/bin/../lib64/gcc/x86_64-unknown-linux-gnu/5.2.0/../../../../include/c++/5.2.0/bits/stl_vector.h:424:23
.Ltmp349:
	movq	(%rdi), %rcx
	.loc	27 424 47 is_stmt 0     # /usr/bin/../lib64/gcc/x86_64-unknown-linux-gnu/5.2.0/../../../../include/c++/5.2.0/bits/stl_vector.h:424:47
	movq	8(%rdi), %rsi
	.loc	27 425 9 is_stmt 1      # /usr/bin/../lib64/gcc/x86_64-unknown-linux-gnu/5.2.0/../../../../include/c++/5.2.0/bits/stl_vector.h:425:9
	movq	%rsi, -32(%rbp)         # 8-byte Spill
	movq	%rax, -40(%rbp)         # 8-byte Spill
	movq	%rcx, -48(%rbp)         # 8-byte Spill
	callq	_ZNSt12_Vector_baseI14plain_particleSaIS0_EE19_M_get_Tp_allocatorEv
	.loc	27 424 9                # /usr/bin/../lib64/gcc/x86_64-unknown-linux-gnu/5.2.0/../../../../include/c++/5.2.0/bits/stl_vector.h:424:9
.Ltmp343:
	movq	-48(%rbp), %rdi         # 8-byte Reload
	movq	-32(%rbp), %rsi         # 8-byte Reload
	movq	%rax, %rdx
	callq	_ZSt8_DestroyIP14plain_particleS0_EvT_S2_RSaIT0_E
.Ltmp344:
	jmp	.LBB34_1
.LBB34_1:
	.loc	27 425 33               # /usr/bin/../lib64/gcc/x86_64-unknown-linux-gnu/5.2.0/../../../../include/c++/5.2.0/bits/stl_vector.h:425:33
	movq	-40(%rbp), %rax         # 8-byte Reload
	movq	%rax, %rdi
	callq	_ZNSt12_Vector_baseI14plain_particleSaIS0_EED2Ev
.Ltmp350:
	.loc	27 425 33 is_stmt 0     # /usr/bin/../lib64/gcc/x86_64-unknown-linux-gnu/5.2.0/../../../../include/c++/5.2.0/bits/stl_vector.h:425:33
	addq	$48, %rsp
	popq	%rbp
	retq
.LBB34_2:
.Ltmp345:
	.loc	27 425 33               # /usr/bin/../lib64/gcc/x86_64-unknown-linux-gnu/5.2.0/../../../../include/c++/5.2.0/bits/stl_vector.h:425:33
.Ltmp351:
	movl	%edx, %ecx
	movq	%rax, -16(%rbp)
	movl	%ecx, -20(%rbp)
.Ltmp352:
	.loc	27 425 33               # /usr/bin/../lib64/gcc/x86_64-unknown-linux-gnu/5.2.0/../../../../include/c++/5.2.0/bits/stl_vector.h:425:33
	movq	-40(%rbp), %rax         # 8-byte Reload
	movq	%rax, %rdi
	callq	_ZNSt12_Vector_baseI14plain_particleSaIS0_EED2Ev
# BB#3:
	.loc	27 425 33 discriminator 1 # /usr/bin/../lib64/gcc/x86_64-unknown-linux-gnu/5.2.0/../../../../include/c++/5.2.0/bits/stl_vector.h:425:33
	movq	-16(%rbp), %rdi
	callq	__clang_call_terminate
.Ltmp353:
.Ltmp354:
	.size	_ZNSt6vectorI14plain_particleSaIS0_EED2Ev, .Ltmp354-_ZNSt6vectorI14plain_particleSaIS0_EED2Ev
.Lfunc_end34:
	.cfi_endproc
.Leh_func_end34:
	.section	.gcc_except_table,"a",@progbits
	.align	4
GCC_except_table34:
.Lexception34:
	.byte	255                     # @LPStart Encoding = omit
	.byte	3                       # @TType Encoding = udata4
	.byte	21                      # @TType base offset
	.byte	3                       # Call site Encoding = udata4
	.byte	13                      # Call site table length
	.long	.Ltmp343-.Leh_func_begin34 # >> Call Site 1 <<
	.long	.Ltmp344-.Ltmp343       #   Call between .Ltmp343 and .Ltmp344
	.long	.Ltmp345-.Leh_func_begin34 #     jumps to .Ltmp345
	.byte	1                       #   On action: 1
	.byte	1                       # >> Action Record 1 <<
                                        #   Catch TypeInfo 1
	.byte	0                       #   No further actions
                                        # >> Catch TypeInfos <<
	.long	0                       # TypeInfo 1
	.align	4

	.section	.text._ZNSt6vectorIiSaIiEED2Ev,"axG",@progbits,_ZNSt6vectorIiSaIiEED2Ev,comdat
	.weak	_ZNSt6vectorIiSaIiEED2Ev
	.align	16, 0x90
	.type	_ZNSt6vectorIiSaIiEED2Ev,@function
_ZNSt6vectorIiSaIiEED2Ev:               # @_ZNSt6vectorIiSaIiEED2Ev
.Lfunc_begin35:
	.loc	27 424 0 is_stmt 1      # /usr/bin/../lib64/gcc/x86_64-unknown-linux-gnu/5.2.0/../../../../include/c++/5.2.0/bits/stl_vector.h:424:0
	.cfi_startproc
	.cfi_personality 3, __gxx_personality_v0
.Leh_func_begin35:
	.cfi_lsda 3, .Lexception35
# BB#0:
	pushq	%rbp
.Ltmp358:
	.cfi_def_cfa_offset 16
.Ltmp359:
	.cfi_offset %rbp, -16
	movq	%rsp, %rbp
.Ltmp360:
	.cfi_def_cfa_register %rbp
	subq	$48, %rsp
	#DEBUG_VALUE: ~vector:this <- undef
	movq	%rdi, -8(%rbp)
	movq	%rdi, %rax
	.loc	27 424 23 prologue_end  # /usr/bin/../lib64/gcc/x86_64-unknown-linux-gnu/5.2.0/../../../../include/c++/5.2.0/bits/stl_vector.h:424:23
.Ltmp361:
	movq	(%rdi), %rcx
	.loc	27 424 47 is_stmt 0     # /usr/bin/../lib64/gcc/x86_64-unknown-linux-gnu/5.2.0/../../../../include/c++/5.2.0/bits/stl_vector.h:424:47
	movq	8(%rdi), %rsi
	.loc	27 425 9 is_stmt 1      # /usr/bin/../lib64/gcc/x86_64-unknown-linux-gnu/5.2.0/../../../../include/c++/5.2.0/bits/stl_vector.h:425:9
	movq	%rsi, -32(%rbp)         # 8-byte Spill
	movq	%rax, -40(%rbp)         # 8-byte Spill
	movq	%rcx, -48(%rbp)         # 8-byte Spill
	callq	_ZNSt12_Vector_baseIiSaIiEE19_M_get_Tp_allocatorEv
	.loc	27 424 9                # /usr/bin/../lib64/gcc/x86_64-unknown-linux-gnu/5.2.0/../../../../include/c++/5.2.0/bits/stl_vector.h:424:9
.Ltmp355:
	movq	-48(%rbp), %rdi         # 8-byte Reload
	movq	-32(%rbp), %rsi         # 8-byte Reload
	movq	%rax, %rdx
	callq	_ZSt8_DestroyIPiiEvT_S1_RSaIT0_E
.Ltmp356:
	jmp	.LBB35_1
.LBB35_1:
	.loc	27 425 33               # /usr/bin/../lib64/gcc/x86_64-unknown-linux-gnu/5.2.0/../../../../include/c++/5.2.0/bits/stl_vector.h:425:33
	movq	-40(%rbp), %rax         # 8-byte Reload
	movq	%rax, %rdi
	callq	_ZNSt12_Vector_baseIiSaIiEED2Ev
.Ltmp362:
	.loc	27 425 33 is_stmt 0     # /usr/bin/../lib64/gcc/x86_64-unknown-linux-gnu/5.2.0/../../../../include/c++/5.2.0/bits/stl_vector.h:425:33
	addq	$48, %rsp
	popq	%rbp
	retq
.LBB35_2:
.Ltmp357:
	.loc	27 425 33               # /usr/bin/../lib64/gcc/x86_64-unknown-linux-gnu/5.2.0/../../../../include/c++/5.2.0/bits/stl_vector.h:425:33
.Ltmp363:
	movl	%edx, %ecx
	movq	%rax, -16(%rbp)
	movl	%ecx, -20(%rbp)
.Ltmp364:
	.loc	27 425 33               # /usr/bin/../lib64/gcc/x86_64-unknown-linux-gnu/5.2.0/../../../../include/c++/5.2.0/bits/stl_vector.h:425:33
	movq	-40(%rbp), %rax         # 8-byte Reload
	movq	%rax, %rdi
	callq	_ZNSt12_Vector_baseIiSaIiEED2Ev
# BB#3:
	.loc	27 425 33 discriminator 2 # /usr/bin/../lib64/gcc/x86_64-unknown-linux-gnu/5.2.0/../../../../include/c++/5.2.0/bits/stl_vector.h:425:33
	movq	-16(%rbp), %rdi
	callq	__clang_call_terminate
.Ltmp365:
.Ltmp366:
	.size	_ZNSt6vectorIiSaIiEED2Ev, .Ltmp366-_ZNSt6vectorIiSaIiEED2Ev
.Lfunc_end35:
	.cfi_endproc
.Leh_func_end35:
	.section	.gcc_except_table,"a",@progbits
	.align	4
GCC_except_table35:
.Lexception35:
	.byte	255                     # @LPStart Encoding = omit
	.byte	3                       # @TType Encoding = udata4
	.byte	21                      # @TType base offset
	.byte	3                       # Call site Encoding = udata4
	.byte	13                      # Call site table length
	.long	.Ltmp355-.Leh_func_begin35 # >> Call Site 1 <<
	.long	.Ltmp356-.Ltmp355       #   Call between .Ltmp355 and .Ltmp356
	.long	.Ltmp357-.Leh_func_begin35 #     jumps to .Ltmp357
	.byte	1                       #   On action: 1
	.byte	1                       # >> Action Record 1 <<
                                        #   Catch TypeInfo 1
	.byte	0                       #   No further actions
                                        # >> Catch TypeInfos <<
	.long	0                       # TypeInfo 1
	.align	4

	.section	.text._ZNSt6vectorIcSaIcEED2Ev,"axG",@progbits,_ZNSt6vectorIcSaIcEED2Ev,comdat
	.weak	_ZNSt6vectorIcSaIcEED2Ev
	.align	16, 0x90
	.type	_ZNSt6vectorIcSaIcEED2Ev,@function
_ZNSt6vectorIcSaIcEED2Ev:               # @_ZNSt6vectorIcSaIcEED2Ev
.Lfunc_begin36:
	.loc	27 424 0 is_stmt 1      # /usr/bin/../lib64/gcc/x86_64-unknown-linux-gnu/5.2.0/../../../../include/c++/5.2.0/bits/stl_vector.h:424:0
	.cfi_startproc
	.cfi_personality 3, __gxx_personality_v0
.Leh_func_begin36:
	.cfi_lsda 3, .Lexception36
# BB#0:
	pushq	%rbp
.Ltmp370:
	.cfi_def_cfa_offset 16
.Ltmp371:
	.cfi_offset %rbp, -16
	movq	%rsp, %rbp
.Ltmp372:
	.cfi_def_cfa_register %rbp
	subq	$48, %rsp
	#DEBUG_VALUE: ~vector:this <- undef
	movq	%rdi, -8(%rbp)
	movq	%rdi, %rax
	.loc	27 424 23 prologue_end  # /usr/bin/../lib64/gcc/x86_64-unknown-linux-gnu/5.2.0/../../../../include/c++/5.2.0/bits/stl_vector.h:424:23
.Ltmp373:
	movq	(%rdi), %rcx
	.loc	27 424 47 is_stmt 0     # /usr/bin/../lib64/gcc/x86_64-unknown-linux-gnu/5.2.0/../../../../include/c++/5.2.0/bits/stl_vector.h:424:47
	movq	8(%rdi), %rsi
	.loc	27 425 9 is_stmt 1      # /usr/bin/../lib64/gcc/x86_64-unknown-linux-gnu/5.2.0/../../../../include/c++/5.2.0/bits/stl_vector.h:425:9
	movq	%rsi, -32(%rbp)         # 8-byte Spill
	movq	%rax, -40(%rbp)         # 8-byte Spill
	movq	%rcx, -48(%rbp)         # 8-byte Spill
	callq	_ZNSt12_Vector_baseIcSaIcEE19_M_get_Tp_allocatorEv
	.loc	27 424 9                # /usr/bin/../lib64/gcc/x86_64-unknown-linux-gnu/5.2.0/../../../../include/c++/5.2.0/bits/stl_vector.h:424:9
.Ltmp367:
	movq	-48(%rbp), %rdi         # 8-byte Reload
	movq	-32(%rbp), %rsi         # 8-byte Reload
	movq	%rax, %rdx
	callq	_ZSt8_DestroyIPccEvT_S1_RSaIT0_E
.Ltmp368:
	jmp	.LBB36_1
.LBB36_1:
	.loc	27 425 33               # /usr/bin/../lib64/gcc/x86_64-unknown-linux-gnu/5.2.0/../../../../include/c++/5.2.0/bits/stl_vector.h:425:33
	movq	-40(%rbp), %rax         # 8-byte Reload
	movq	%rax, %rdi
	callq	_ZNSt12_Vector_baseIcSaIcEED2Ev
.Ltmp374:
	.loc	27 425 33 is_stmt 0     # /usr/bin/../lib64/gcc/x86_64-unknown-linux-gnu/5.2.0/../../../../include/c++/5.2.0/bits/stl_vector.h:425:33
	addq	$48, %rsp
	popq	%rbp
	retq
.LBB36_2:
.Ltmp369:
	.loc	27 425 33               # /usr/bin/../lib64/gcc/x86_64-unknown-linux-gnu/5.2.0/../../../../include/c++/5.2.0/bits/stl_vector.h:425:33
.Ltmp375:
	movl	%edx, %ecx
	movq	%rax, -16(%rbp)
	movl	%ecx, -20(%rbp)
.Ltmp376:
	.loc	27 425 33               # /usr/bin/../lib64/gcc/x86_64-unknown-linux-gnu/5.2.0/../../../../include/c++/5.2.0/bits/stl_vector.h:425:33
	movq	-40(%rbp), %rax         # 8-byte Reload
	movq	%rax, %rdi
	callq	_ZNSt12_Vector_baseIcSaIcEED2Ev
# BB#3:
	.loc	27 425 33 discriminator 3 # /usr/bin/../lib64/gcc/x86_64-unknown-linux-gnu/5.2.0/../../../../include/c++/5.2.0/bits/stl_vector.h:425:33
	movq	-16(%rbp), %rdi
	callq	__clang_call_terminate
.Ltmp377:
.Ltmp378:
	.size	_ZNSt6vectorIcSaIcEED2Ev, .Ltmp378-_ZNSt6vectorIcSaIcEED2Ev
.Lfunc_end36:
	.cfi_endproc
.Leh_func_end36:
	.section	.gcc_except_table,"a",@progbits
	.align	4
GCC_except_table36:
.Lexception36:
	.byte	255                     # @LPStart Encoding = omit
	.byte	3                       # @TType Encoding = udata4
	.byte	21                      # @TType base offset
	.byte	3                       # Call site Encoding = udata4
	.byte	13                      # Call site table length
	.long	.Ltmp367-.Leh_func_begin36 # >> Call Site 1 <<
	.long	.Ltmp368-.Ltmp367       #   Call between .Ltmp367 and .Ltmp368
	.long	.Ltmp369-.Leh_func_begin36 #     jumps to .Ltmp369
	.byte	1                       #   On action: 1
	.byte	1                       # >> Action Record 1 <<
                                        #   Catch TypeInfo 1
	.byte	0                       #   No further actions
                                        # >> Catch TypeInfos <<
	.long	0                       # TypeInfo 1
	.align	4

	.section	.rodata.cst16,"aM",@progbits,16
	.align	16
.LCPI37_0:
	.long	1127219200              # 0x43300000
	.long	1160773632              # 0x45300000
	.long	0                       # 0x0
	.long	0                       # 0x0
.LCPI37_1:
	.quad	4841369599423283200     # double 4.503600e+15
	.quad	4985484787499139072     # double 1.934281e+25
	.text
	.align	16, 0x90
	.type	_Z7measureIZ4mainE3$_7EdT_,@function
_Z7measureIZ4mainE3$_7EdT_:             # @"_Z7measureIZ4mainE3$_7EdT_"
.Lfunc_begin37:
	.loc	7 18 0 is_stmt 1        # /home/manu343726/Documentos/joaquin-dod/dod_perfv2.cpp:18:0
	.cfi_startproc
# BB#0:
	pushq	%rbp
.Ltmp379:
	.cfi_def_cfa_offset 16
.Ltmp380:
	.cfi_offset %rbp, -16
	movq	%rsp, %rbp
.Ltmp381:
	.cfi_def_cfa_register %rbp
	subq	$192, %rsp
	leaq	16(%rbp), %rdi
	#DEBUG_VALUE: measure<(lambda at /home/manu343726/Documentos/joaquin-dod/dod_perfv2.cpp:353:24)>:f <- [RBP+16]
	.loc	7 26 11 prologue_end    # /home/manu343726/Documentos/joaquin-dod/dod_perfv2.cpp:26:11
.Ltmp382:
	movl	$0, -84(%rbp)
	movq	%rdi, -144(%rbp)        # 8-byte Spill
.LBB37_1:                               # =>This Loop Header: Depth=1
                                        #     Child Loop BB37_3 Depth 2
	.loc	7 26 3 is_stmt 0        # /home/manu343726/Documentos/joaquin-dod/dod_perfv2.cpp:26:3
	cmpl	$10, -84(%rbp)
	jge	.LBB37_7
# BB#2:                                 #   in Loop: Header=BB37_1 Depth=1
	leaq	-96(%rbp), %rdi
	.loc	7 27 39 is_stmt 1       # /home/manu343726/Documentos/joaquin-dod/dod_perfv2.cpp:27:39
.Ltmp383:
	movl	$0, -88(%rbp)
.Ltmp384:
	#DEBUG_VALUE: t2 <- RDI
	.loc	7 28 39                 # /home/manu343726/Documentos/joaquin-dod/dod_perfv2.cpp:28:39
	callq	_ZNSt6chrono10time_pointINS_3_V212system_clockENS_8durationIlSt5ratioILl1ELl1000000000EEEEEC2Ev
	.loc	7 30 19                 # /home/manu343726/Documentos/joaquin-dod/dod_perfv2.cpp:30:19
	callq	_ZNSt6chrono3_V212system_clock3nowEv
	movq	%rax, -104(%rbp)
	.loc	7 30 5 is_stmt 0        # /home/manu343726/Documentos/joaquin-dod/dod_perfv2.cpp:30:5
	movq	-104(%rbp), %rax
	movq	%rax, measure_start
.Ltmp385:
.LBB37_3:                               #   Parent Loop BB37_1 Depth=1
                                        # =>  This Inner Loop Header: Depth=2
	.loc	7 32 11 is_stmt 1       # /home/manu343726/Documentos/joaquin-dod/dod_perfv2.cpp:32:11
	movq	-144(%rbp), %rdi        # 8-byte Reload
	callq	_ZZ4mainENK3$_7clEv
	.loc	7 32 7 is_stmt 0        # /home/manu343726/Documentos/joaquin-dod/dod_perfv2.cpp:32:7
	movl	%eax, _ZZ7measureIZ4mainE3$_7EdT_E3res
	.loc	7 33 7 is_stmt 1        # /home/manu343726/Documentos/joaquin-dod/dod_perfv2.cpp:33:7
	movl	-88(%rbp), %eax
	addl	$1, %eax
	movl	%eax, -88(%rbp)
	.loc	7 34 10                 # /home/manu343726/Documentos/joaquin-dod/dod_perfv2.cpp:34:10
	callq	_ZNSt6chrono3_V212system_clock3nowEv
	movq	%rax, -112(%rbp)
	.loc	7 34 7 is_stmt 0        # /home/manu343726/Documentos/joaquin-dod/dod_perfv2.cpp:34:7
	movq	-112(%rbp), %rax
	movq	%rax, -96(%rbp)
.Ltmp386:
# BB#4:                                 #   in Loop: Header=BB37_3 Depth=2
	leaq	-96(%rbp), %rdi
	movabsq	$measure_start, %rsi
	.loc	7 35 14 is_stmt 1 discriminator 1 # /home/manu343726/Documentos/joaquin-dod/dod_perfv2.cpp:35:14
	callq	_ZNSt6chronomiINS_3_V212system_clockENS_8durationIlSt5ratioILl1ELl1000000000EEEES6_EENSt11common_typeIJT0_T1_EE4typeERKNS_10time_pointIT_S8_EERKNSC_ISD_S9_EE
	leaq	-120(%rbp), %rdi
	movabsq	$_ZZ7measureIZ4mainE3$_7EdT_E18min_time_per_trial, %rsi
	movq	%rax, -120(%rbp)
	.loc	7 35 28 is_stmt 0       # /home/manu343726/Documentos/joaquin-dod/dod_perfv2.cpp:35:28
	callq	_ZNSt6chronoltIlSt5ratioILl1ELl1000000000EElS1_ILl1ELl1000EEEEbRKNS_8durationIT_T0_EERKNS4_IT1_T2_EE
	.loc	7 35 5                  # /home/manu343726/Documentos/joaquin-dod/dod_perfv2.cpp:35:5
.Ltmp387:
	testb	$1, %al
	jne	.LBB37_3
.Ltmp388:
# BB#5:                                 #   in Loop: Header=BB37_1 Depth=1
	leaq	-96(%rbp), %rdi
	movabsq	$measure_start, %rsi
	.loc	7 36 49 is_stmt 1       # /home/manu343726/Documentos/joaquin-dod/dod_perfv2.cpp:36:49
	callq	_ZNSt6chronomiINS_3_V212system_clockENS_8durationIlSt5ratioILl1ELl1000000000EEEES6_EENSt11common_typeIJT0_T1_EE4typeERKNS_10time_pointIT_S8_EERKNSC_ISD_S9_EE
	leaq	-128(%rbp), %rdi
	movq	%rax, -128(%rbp)
	.loc	7 36 15 is_stmt 0       # /home/manu343726/Documentos/joaquin-dod/dod_perfv2.cpp:36:15
	callq	_ZNSt6chrono13duration_castINS_8durationIdSt5ratioILl1ELl1EEEElS2_ILl1ELl1000000000EEEENSt9enable_ifIXsr13__is_durationIT_EE5valueES7_E4typeERKNS1_IT0_T1_EE
	leaq	-136(%rbp), %rdi
	movsd	%xmm0, -136(%rbp)
	callq	_ZNKSt6chrono8durationIdSt5ratioILl1ELl1EEE5countEv
	leaq	-80(%rbp), %rdi
	.loc	7 36 73                 # /home/manu343726/Documentos/joaquin-dod/dod_perfv2.cpp:36:73
	cvtsi2sdl	-88(%rbp), %xmm1
	.loc	7 36 15                 # /home/manu343726/Documentos/joaquin-dod/dod_perfv2.cpp:36:15
	divsd	%xmm1, %xmm0
	.loc	7 36 12                 # /home/manu343726/Documentos/joaquin-dod/dod_perfv2.cpp:36:12
	movslq	-84(%rbp), %rsi
	.loc	7 36 5                  # /home/manu343726/Documentos/joaquin-dod/dod_perfv2.cpp:36:5
	movsd	%xmm0, -152(%rbp)       # 8-byte Spill
	callq	_ZNSt5arrayIdLm10EEixEm
	movsd	-152(%rbp), %xmm0       # 8-byte Reload
	movsd	%xmm0, (%rax)
.Ltmp389:
# BB#6:                                 #   in Loop: Header=BB37_1 Depth=1
	.loc	7 26 28 is_stmt 1       # /home/manu343726/Documentos/joaquin-dod/dod_perfv2.cpp:26:28
	movl	-84(%rbp), %eax
	addl	$1, %eax
	movl	%eax, -84(%rbp)
	.loc	7 26 3 is_stmt 0        # /home/manu343726/Documentos/joaquin-dod/dod_perfv2.cpp:26:3
	jmp	.LBB37_1
.Ltmp390:
.LBB37_7:
	leaq	-80(%rbp), %rax
	.loc	7 40 13 is_stmt 1       # /home/manu343726/Documentos/joaquin-dod/dod_perfv2.cpp:40:13
	movq	%rax, %rdi
	movq	%rax, -160(%rbp)        # 8-byte Spill
	callq	_ZNSt5arrayIdLm10EE5beginEv
	.loc	7 40 28 is_stmt 0       # /home/manu343726/Documentos/joaquin-dod/dod_perfv2.cpp:40:28
	movq	-160(%rbp), %rdi        # 8-byte Reload
	movq	%rax, -168(%rbp)        # 8-byte Spill
	callq	_ZNSt5arrayIdLm10EE3endEv
	.loc	7 40 3                  # /home/manu343726/Documentos/joaquin-dod/dod_perfv2.cpp:40:3
	movq	-168(%rbp), %rdi        # 8-byte Reload
	movq	%rax, %rsi
	callq	_ZSt4sortIPdEvT_S1_
	.loc	7 42 5 is_stmt 1        # /home/manu343726/Documentos/joaquin-dod/dod_perfv2.cpp:42:5
	movq	-160(%rbp), %rdi        # 8-byte Reload
	callq	_ZNSt5arrayIdLm10EE5beginEv
	addq	$16, %rax
	.loc	7 42 22 is_stmt 0       # /home/manu343726/Documentos/joaquin-dod/dod_perfv2.cpp:42:22
	movq	-160(%rbp), %rdi        # 8-byte Reload
	movq	%rax, -176(%rbp)        # 8-byte Spill
	callq	_ZNSt5arrayIdLm10EE3endEv
	addq	$-16, %rax
	xorps	%xmm0, %xmm0
	.loc	7 41 10 is_stmt 1       # /home/manu343726/Documentos/joaquin-dod/dod_perfv2.cpp:41:10
	movq	-176(%rbp), %rdi        # 8-byte Reload
	movq	%rax, %rsi
	callq	_ZSt10accumulateIPddET0_T_S2_S1_
	.loc	7 42 43                 # /home/manu343726/Documentos/joaquin-dod/dod_perfv2.cpp:42:43
	movq	-160(%rbp), %rdi        # 8-byte Reload
	movsd	%xmm0, -184(%rbp)       # 8-byte Spill
	callq	_ZNKSt5arrayIdLm10EE4sizeEv
	addq	$-4, %rax
	.loc	7 42 42 is_stmt 0       # /home/manu343726/Documentos/joaquin-dod/dod_perfv2.cpp:42:42
	movd	%rax, %xmm0
	movaps	.LCPI37_0(%rip), %xmm1  # xmm1 = [1127219200,1160773632,0,0]
	punpckldq	%xmm1, %xmm0    # xmm0 = xmm0[0],xmm1[0],xmm0[1],xmm1[1]
	movapd	.LCPI37_1(%rip), %xmm1  # xmm1 = [4.503600e+15,1.934281e+25]
	subpd	%xmm1, %xmm0
	pshufd	$78, %xmm0, %xmm1       # xmm1 = xmm0[2,3,0,1]
	addpd	%xmm0, %xmm1
	.loc	7 41 10 is_stmt 1       # /home/manu343726/Documentos/joaquin-dod/dod_perfv2.cpp:41:10
	movsd	-184(%rbp), %xmm0       # 8-byte Reload
	divsd	%xmm1, %xmm0
	.loc	7 41 3 is_stmt 0        # /home/manu343726/Documentos/joaquin-dod/dod_perfv2.cpp:41:3
	addq	$192, %rsp
	popq	%rbp
	retq
.Ltmp391:
.Ltmp392:
	.size	_Z7measureIZ4mainE3$_7EdT_, .Ltmp392-_Z7measureIZ4mainE3$_7EdT_
.Lfunc_end37:
	.cfi_endproc

	.section	.text._ZNSt6chrono10time_pointINS_3_V212system_clockENS_8durationIlSt5ratioILl1ELl1000000000EEEEEC2Ev,"axG",@progbits,_ZNSt6chrono10time_pointINS_3_V212system_clockENS_8durationIlSt5ratioILl1ELl1000000000EEEEEC2Ev,comdat
	.weak	_ZNSt6chrono10time_pointINS_3_V212system_clockENS_8durationIlSt5ratioILl1ELl1000000000EEEEEC2Ev
	.align	16, 0x90
	.type	_ZNSt6chrono10time_pointINS_3_V212system_clockENS_8durationIlSt5ratioILl1ELl1000000000EEEEEC2Ev,@function
_ZNSt6chrono10time_pointINS_3_V212system_clockENS_8durationIlSt5ratioILl1ELl1000000000EEEEEC2Ev: # @_ZNSt6chrono10time_pointINS_3_V212system_clockENS_8durationIlSt5ratioILl1ELl1000000000EEEEEC2Ev
.Lfunc_begin38:
	.loc	2 554 0 is_stmt 1       # /usr/bin/../lib64/gcc/x86_64-unknown-linux-gnu/5.2.0/../../../../include/c++/5.2.0/chrono:554:0
	.cfi_startproc
# BB#0:
	pushq	%rbp
.Ltmp393:
	.cfi_def_cfa_offset 16
.Ltmp394:
	.cfi_offset %rbp, -16
	movq	%rsp, %rbp
.Ltmp395:
	.cfi_def_cfa_register %rbp
	subq	$16, %rsp
	movq	%rdi, -8(%rbp)
	movq	-8(%rbp), %rdi
	.loc	2 553 31 prologue_end   # /usr/bin/../lib64/gcc/x86_64-unknown-linux-gnu/5.2.0/../../../../include/c++/5.2.0/chrono:553:31
.Ltmp396:
	movq	%rdi, -16(%rbp)         # 8-byte Spill
	callq	_ZNSt6chrono8durationIlSt5ratioILl1ELl1000000000EEE4zeroEv
	movq	-16(%rbp), %rdi         # 8-byte Reload
	movq	%rax, (%rdi)
	.loc	2 554 4                 # /usr/bin/../lib64/gcc/x86_64-unknown-linux-gnu/5.2.0/../../../../include/c++/5.2.0/chrono:554:4
	addq	$16, %rsp
	popq	%rbp
	retq
.Ltmp397:
.Ltmp398:
	.size	_ZNSt6chrono10time_pointINS_3_V212system_clockENS_8durationIlSt5ratioILl1ELl1000000000EEEEEC2Ev, .Ltmp398-_ZNSt6chrono10time_pointINS_3_V212system_clockENS_8durationIlSt5ratioILl1ELl1000000000EEEEEC2Ev
.Lfunc_end38:
	.cfi_endproc

	.text
	.align	16, 0x90
	.type	_ZZ4mainENK3$_7clEv,@function
_ZZ4mainENK3$_7clEv:                    # @"_ZZ4mainENK3$_7clEv"
.Lfunc_begin39:
	.loc	7 353 0                 # /home/manu343726/Documentos/joaquin-dod/dod_perfv2.cpp:353:0
	.cfi_startproc
# BB#0:
	pushq	%rbp
.Ltmp399:
	.cfi_def_cfa_offset 16
.Ltmp400:
	.cfi_offset %rbp, -16
	movq	%rsp, %rbp
.Ltmp401:
	.cfi_def_cfa_register %rbp
	subq	$80, %rsp
	leaq	-40(%rbp), %rax
	movq	%rdi, -8(%rbp)
	movq	-8(%rbp), %rdi
	.loc	7 353 37 prologue_end   # /home/manu343726/Documentos/joaquin-dod/dod_perfv2.cpp:353:37
.Ltmp402:
	movq	(%rdi), %rcx
	movq	%rcx, -40(%rbp)
	movq	8(%rdi), %rcx
	movq	%rcx, -32(%rbp)
	movq	16(%rdi), %rcx
	movq	%rcx, -24(%rbp)
	movq	24(%rdi), %rcx
	movq	%rcx, -16(%rbp)
	.loc	7 353 53 is_stmt 0      # /home/manu343726/Documentos/joaquin-dod/dod_perfv2.cpp:353:53
	movq	32(%rdi), %rdi
	.loc	7 353 37                # /home/manu343726/Documentos/joaquin-dod/dod_perfv2.cpp:353:37
	movq	(%rax), %rcx
	movq	%rcx, (%rsp)
	movq	8(%rax), %rcx
	movq	%rcx, 8(%rsp)
	movq	16(%rax), %rcx
	movq	%rcx, 16(%rsp)
	movq	24(%rax), %rax
	movq	%rax, 24(%rsp)
	callq	_Z6renderIN3dod7pointerI8particleINS0_6accessIJNS0_6memberIcLi0EEENS4_IiLi0EEENS4_IiLi1EEEEEEEEEmEiT_T0_
	.loc	7 353 30                # /home/manu343726/Documentos/joaquin-dod/dod_perfv2.cpp:353:30
	addq	$80, %rsp
	popq	%rbp
	retq
.Ltmp403:
.Ltmp404:
	.size	_ZZ4mainENK3$_7clEv, .Ltmp404-_ZZ4mainENK3$_7clEv
.Lfunc_end39:
	.cfi_endproc

	.section	.text._ZNSt6chronoltIlSt5ratioILl1ELl1000000000EElS1_ILl1ELl1000EEEEbRKNS_8durationIT_T0_EERKNS4_IT1_T2_EE,"axG",@progbits,_ZNSt6chronoltIlSt5ratioILl1ELl1000000000EElS1_ILl1ELl1000EEEEbRKNS_8durationIT_T0_EERKNS4_IT1_T2_EE,comdat
	.weak	_ZNSt6chronoltIlSt5ratioILl1ELl1000000000EElS1_ILl1ELl1000EEEEbRKNS_8durationIT_T0_EERKNS4_IT1_T2_EE
	.align	16, 0x90
	.type	_ZNSt6chronoltIlSt5ratioILl1ELl1000000000EElS1_ILl1ELl1000EEEEbRKNS_8durationIT_T0_EERKNS4_IT1_T2_EE,@function
_ZNSt6chronoltIlSt5ratioILl1ELl1000000000EElS1_ILl1ELl1000EEEEbRKNS_8durationIT_T0_EERKNS4_IT1_T2_EE: # @_ZNSt6chronoltIlSt5ratioILl1ELl1000000000EElS1_ILl1ELl1000EEEEbRKNS_8durationIT_T0_EERKNS4_IT1_T2_EE
.Lfunc_begin40:
	.loc	2 491 0 is_stmt 1       # /usr/bin/../lib64/gcc/x86_64-unknown-linux-gnu/5.2.0/../../../../include/c++/5.2.0/chrono:491:0
	.cfi_startproc
# BB#0:
	pushq	%rbp
.Ltmp405:
	.cfi_def_cfa_offset 16
.Ltmp406:
	.cfi_offset %rbp, -16
	movq	%rsp, %rbp
.Ltmp407:
	.cfi_def_cfa_register %rbp
	subq	$48, %rsp
	leaq	-24(%rbp), %rax
	movq	%rdi, -8(%rbp)
	movq	%rsi, -16(%rbp)
	.loc	2 495 9 prologue_end    # /usr/bin/../lib64/gcc/x86_64-unknown-linux-gnu/5.2.0/../../../../include/c++/5.2.0/chrono:495:9
.Ltmp408:
	movq	-8(%rbp), %rsi
	movq	(%rsi), %rsi
	movq	%rsi, -24(%rbp)
	movq	%rax, %rdi
	callq	_ZNKSt6chrono8durationIlSt5ratioILl1ELl1000000000EEE5countEv
	leaq	-32(%rbp), %rdi
	.loc	2 495 31 is_stmt 0      # /usr/bin/../lib64/gcc/x86_64-unknown-linux-gnu/5.2.0/../../../../include/c++/5.2.0/chrono:495:31
	movq	-16(%rbp), %rsi
	movq	%rax, -40(%rbp)         # 8-byte Spill
	callq	_ZNSt6chrono8durationIlSt5ratioILl1ELl1000000000EEEC2IlS1_ILl1ELl1000EEvEERKNS0_IT_T0_EE
	leaq	-32(%rbp), %rdi
	callq	_ZNKSt6chrono8durationIlSt5ratioILl1ELl1000000000EEE5countEv
	.loc	2 495 9                 # /usr/bin/../lib64/gcc/x86_64-unknown-linux-gnu/5.2.0/../../../../include/c++/5.2.0/chrono:495:9
	movq	-40(%rbp), %rsi         # 8-byte Reload
	cmpq	%rax, %rsi
	setl	%cl
	.loc	2 495 2                 # /usr/bin/../lib64/gcc/x86_64-unknown-linux-gnu/5.2.0/../../../../include/c++/5.2.0/chrono:495:2
	andb	$1, %cl
	movzbl	%cl, %eax
	addq	$48, %rsp
	popq	%rbp
	retq
.Ltmp409:
.Ltmp410:
	.size	_ZNSt6chronoltIlSt5ratioILl1ELl1000000000EElS1_ILl1ELl1000EEEEbRKNS_8durationIT_T0_EERKNS4_IT1_T2_EE, .Ltmp410-_ZNSt6chronoltIlSt5ratioILl1ELl1000000000EElS1_ILl1ELl1000EEEEbRKNS_8durationIT_T0_EERKNS4_IT1_T2_EE
.Lfunc_end40:
	.cfi_endproc

	.section	.text._ZNSt6chrono13duration_castINS_8durationIdSt5ratioILl1ELl1EEEElS2_ILl1ELl1000000000EEEENSt9enable_ifIXsr13__is_durationIT_EE5valueES7_E4typeERKNS1_IT0_T1_EE,"axG",@progbits,_ZNSt6chrono13duration_castINS_8durationIdSt5ratioILl1ELl1EEEElS2_ILl1ELl1000000000EEEENSt9enable_ifIXsr13__is_durationIT_EE5valueES7_E4typeERKNS1_IT0_T1_EE,comdat
	.weak	_ZNSt6chrono13duration_castINS_8durationIdSt5ratioILl1ELl1EEEElS2_ILl1ELl1000000000EEEENSt9enable_ifIXsr13__is_durationIT_EE5valueES7_E4typeERKNS1_IT0_T1_EE
	.align	16, 0x90
	.type	_ZNSt6chrono13duration_castINS_8durationIdSt5ratioILl1ELl1EEEElS2_ILl1ELl1000000000EEEENSt9enable_ifIXsr13__is_durationIT_EE5valueES7_E4typeERKNS1_IT0_T1_EE,@function
_ZNSt6chrono13duration_castINS_8durationIdSt5ratioILl1ELl1EEEElS2_ILl1ELl1000000000EEEENSt9enable_ifIXsr13__is_durationIT_EE5valueES7_E4typeERKNS1_IT0_T1_EE: # @_ZNSt6chrono13duration_castINS_8durationIdSt5ratioILl1ELl1EEEElS2_ILl1ELl1000000000EEEENSt9enable_ifIXsr13__is_durationIT_EE5valueES7_E4typeERKNS1_IT0_T1_EE
.Lfunc_begin41:
	.loc	2 195 0 is_stmt 1       # /usr/bin/../lib64/gcc/x86_64-unknown-linux-gnu/5.2.0/../../../../include/c++/5.2.0/chrono:195:0
	.cfi_startproc
# BB#0:
	pushq	%rbp
.Ltmp411:
	.cfi_def_cfa_offset 16
.Ltmp412:
	.cfi_offset %rbp, -16
	movq	%rsp, %rbp
.Ltmp413:
	.cfi_def_cfa_register %rbp
	subq	$16, %rsp
	movq	%rdi, -16(%rbp)
	.loc	2 203 9 prologue_end    # /usr/bin/../lib64/gcc/x86_64-unknown-linux-gnu/5.2.0/../../../../include/c++/5.2.0/chrono:203:9
.Ltmp414:
	movq	-16(%rbp), %rdi
	callq	_ZNSt6chrono20__duration_cast_implINS_8durationIdSt5ratioILl1ELl1EEEES2_ILl1ELl1000000000EEdLb1ELb0EE6__castIlS5_EES4_RKNS1_IT_T0_EE
	movsd	%xmm0, -8(%rbp)
	.loc	2 203 2 is_stmt 0       # /usr/bin/../lib64/gcc/x86_64-unknown-linux-gnu/5.2.0/../../../../include/c++/5.2.0/chrono:203:2
	movsd	-8(%rbp), %xmm0
	addq	$16, %rsp
	popq	%rbp
	retq
.Ltmp415:
.Ltmp416:
	.size	_ZNSt6chrono13duration_castINS_8durationIdSt5ratioILl1ELl1EEEElS2_ILl1ELl1000000000EEEENSt9enable_ifIXsr13__is_durationIT_EE5valueES7_E4typeERKNS1_IT0_T1_EE, .Ltmp416-_ZNSt6chrono13duration_castINS_8durationIdSt5ratioILl1ELl1EEEElS2_ILl1ELl1000000000EEEENSt9enable_ifIXsr13__is_durationIT_EE5valueES7_E4typeERKNS1_IT0_T1_EE
.Lfunc_end41:
	.cfi_endproc

	.section	.text._ZNKSt6chrono8durationIdSt5ratioILl1ELl1EEE5countEv,"axG",@progbits,_ZNKSt6chrono8durationIdSt5ratioILl1ELl1EEE5countEv,comdat
	.weak	_ZNKSt6chrono8durationIdSt5ratioILl1ELl1EEE5countEv
	.align	16, 0x90
	.type	_ZNKSt6chrono8durationIdSt5ratioILl1ELl1EEE5countEv,@function
_ZNKSt6chrono8durationIdSt5ratioILl1ELl1EEE5countEv: # @_ZNKSt6chrono8durationIdSt5ratioILl1ELl1EEE5countEv
.Lfunc_begin42:
	.loc	2 279 0 is_stmt 1       # /usr/bin/../lib64/gcc/x86_64-unknown-linux-gnu/5.2.0/../../../../include/c++/5.2.0/chrono:279:0
	.cfi_startproc
# BB#0:
	pushq	%rbp
.Ltmp417:
	.cfi_def_cfa_offset 16
.Ltmp418:
	.cfi_offset %rbp, -16
	movq	%rsp, %rbp
.Ltmp419:
	.cfi_def_cfa_register %rbp
	movq	%rdi, -8(%rbp)
	movq	-8(%rbp), %rdi
	.loc	2 279 11 prologue_end   # /usr/bin/../lib64/gcc/x86_64-unknown-linux-gnu/5.2.0/../../../../include/c++/5.2.0/chrono:279:11
.Ltmp420:
	movsd	(%rdi), %xmm0
	.loc	2 279 4 is_stmt 0       # /usr/bin/../lib64/gcc/x86_64-unknown-linux-gnu/5.2.0/../../../../include/c++/5.2.0/chrono:279:4
	popq	%rbp
	retq
.Ltmp421:
.Ltmp422:
	.size	_ZNKSt6chrono8durationIdSt5ratioILl1ELl1EEE5countEv, .Ltmp422-_ZNKSt6chrono8durationIdSt5ratioILl1ELl1EEE5countEv
.Lfunc_end42:
	.cfi_endproc

	.section	.text._ZNSt5arrayIdLm10EEixEm,"axG",@progbits,_ZNSt5arrayIdLm10EEixEm,comdat
	.weak	_ZNSt5arrayIdLm10EEixEm
	.align	16, 0x90
	.type	_ZNSt5arrayIdLm10EEixEm,@function
_ZNSt5arrayIdLm10EEixEm:                # @_ZNSt5arrayIdLm10EEixEm
.Lfunc_begin43:
	.loc	44 181 0 is_stmt 1      # /usr/bin/../lib64/gcc/x86_64-unknown-linux-gnu/5.2.0/../../../../include/c++/5.2.0/array:181:0
	.cfi_startproc
# BB#0:
	pushq	%rbp
.Ltmp423:
	.cfi_def_cfa_offset 16
.Ltmp424:
	.cfi_offset %rbp, -16
	movq	%rsp, %rbp
.Ltmp425:
	.cfi_def_cfa_register %rbp
	subq	$16, %rsp
	movq	%rdi, -8(%rbp)
	movq	%rsi, -16(%rbp)
	movq	-8(%rbp), %rdi
	.loc	44 181 43 prologue_end  # /usr/bin/../lib64/gcc/x86_64-unknown-linux-gnu/5.2.0/../../../../include/c++/5.2.0/array:181:43
.Ltmp426:
	movq	-16(%rbp), %rsi
	.loc	44 181 16 is_stmt 0     # /usr/bin/../lib64/gcc/x86_64-unknown-linux-gnu/5.2.0/../../../../include/c++/5.2.0/array:181:16
	callq	_ZNSt14__array_traitsIdLm10EE6_S_refERA10_Kdm
	.loc	44 181 9                # /usr/bin/../lib64/gcc/x86_64-unknown-linux-gnu/5.2.0/../../../../include/c++/5.2.0/array:181:9
	addq	$16, %rsp
	popq	%rbp
	retq
.Ltmp427:
.Ltmp428:
	.size	_ZNSt5arrayIdLm10EEixEm, .Ltmp428-_ZNSt5arrayIdLm10EEixEm
.Lfunc_end43:
	.cfi_endproc

	.section	.text._ZSt4sortIPdEvT_S1_,"axG",@progbits,_ZSt4sortIPdEvT_S1_,comdat
	.weak	_ZSt4sortIPdEvT_S1_
	.align	16, 0x90
	.type	_ZSt4sortIPdEvT_S1_,@function
_ZSt4sortIPdEvT_S1_:                    # @_ZSt4sortIPdEvT_S1_
.Lfunc_begin44:
	.loc	11 4690 0 is_stmt 1     # /usr/bin/../lib64/gcc/x86_64-unknown-linux-gnu/5.2.0/../../../../include/c++/5.2.0/bits/stl_algo.h:4690:0
	.cfi_startproc
# BB#0:
	pushq	%rbp
.Ltmp429:
	.cfi_def_cfa_offset 16
.Ltmp430:
	.cfi_offset %rbp, -16
	movq	%rsp, %rbp
.Ltmp431:
	.cfi_def_cfa_register %rbp
	subq	$48, %rsp
	movq	%rdi, -8(%rbp)
	movq	%rsi, -16(%rbp)
	.loc	11 4698 19 prologue_end # /usr/bin/../lib64/gcc/x86_64-unknown-linux-gnu/5.2.0/../../../../include/c++/5.2.0/bits/stl_algo.h:4698:19
.Ltmp432:
	movq	-8(%rbp), %rdi
	.loc	11 4698 28 is_stmt 0    # /usr/bin/../lib64/gcc/x86_64-unknown-linux-gnu/5.2.0/../../../../include/c++/5.2.0/bits/stl_algo.h:4698:28
	movq	-16(%rbp), %rsi
	.loc	11 4698 36              # /usr/bin/../lib64/gcc/x86_64-unknown-linux-gnu/5.2.0/../../../../include/c++/5.2.0/bits/stl_algo.h:4698:36
	movq	%rdi, -40(%rbp)         # 8-byte Spill
	movq	%rsi, -48(%rbp)         # 8-byte Spill
	callq	_ZN9__gnu_cxx5__ops16__iter_less_iterEv
	.loc	11 4698 7               # /usr/bin/../lib64/gcc/x86_64-unknown-linux-gnu/5.2.0/../../../../include/c++/5.2.0/bits/stl_algo.h:4698:7
	movq	-40(%rbp), %rdi         # 8-byte Reload
	movq	-48(%rbp), %rsi         # 8-byte Reload
	callq	_ZSt6__sortIPdN9__gnu_cxx5__ops15_Iter_less_iterEEvT_S4_T0_
	.loc	11 4699 5 is_stmt 1     # /usr/bin/../lib64/gcc/x86_64-unknown-linux-gnu/5.2.0/../../../../include/c++/5.2.0/bits/stl_algo.h:4699:5
	addq	$48, %rsp
	popq	%rbp
	retq
.Ltmp433:
.Ltmp434:
	.size	_ZSt4sortIPdEvT_S1_, .Ltmp434-_ZSt4sortIPdEvT_S1_
.Lfunc_end44:
	.cfi_endproc

	.section	.text._ZNSt5arrayIdLm10EE5beginEv,"axG",@progbits,_ZNSt5arrayIdLm10EE5beginEv,comdat
	.weak	_ZNSt5arrayIdLm10EE5beginEv
	.align	16, 0x90
	.type	_ZNSt5arrayIdLm10EE5beginEv,@function
_ZNSt5arrayIdLm10EE5beginEv:            # @_ZNSt5arrayIdLm10EE5beginEv
.Lfunc_begin45:
	.loc	44 122 0                # /usr/bin/../lib64/gcc/x86_64-unknown-linux-gnu/5.2.0/../../../../include/c++/5.2.0/array:122:0
	.cfi_startproc
# BB#0:
	pushq	%rbp
.Ltmp435:
	.cfi_def_cfa_offset 16
.Ltmp436:
	.cfi_offset %rbp, -16
	movq	%rsp, %rbp
.Ltmp437:
	.cfi_def_cfa_register %rbp
	subq	$16, %rsp
	movq	%rdi, -8(%rbp)
	movq	-8(%rbp), %rdi
	.loc	44 122 25 prologue_end  # /usr/bin/../lib64/gcc/x86_64-unknown-linux-gnu/5.2.0/../../../../include/c++/5.2.0/array:122:25
.Ltmp438:
	callq	_ZNSt5arrayIdLm10EE4dataEv
	.loc	44 122 9 is_stmt 0      # /usr/bin/../lib64/gcc/x86_64-unknown-linux-gnu/5.2.0/../../../../include/c++/5.2.0/array:122:9
	addq	$16, %rsp
	popq	%rbp
	retq
.Ltmp439:
.Ltmp440:
	.size	_ZNSt5arrayIdLm10EE5beginEv, .Ltmp440-_ZNSt5arrayIdLm10EE5beginEv
.Lfunc_end45:
	.cfi_endproc

	.section	.text._ZNSt5arrayIdLm10EE3endEv,"axG",@progbits,_ZNSt5arrayIdLm10EE3endEv,comdat
	.weak	_ZNSt5arrayIdLm10EE3endEv
	.align	16, 0x90
	.type	_ZNSt5arrayIdLm10EE3endEv,@function
_ZNSt5arrayIdLm10EE3endEv:              # @_ZNSt5arrayIdLm10EE3endEv
.Lfunc_begin46:
	.loc	44 130 0 is_stmt 1      # /usr/bin/../lib64/gcc/x86_64-unknown-linux-gnu/5.2.0/../../../../include/c++/5.2.0/array:130:0
	.cfi_startproc
# BB#0:
	pushq	%rbp
.Ltmp441:
	.cfi_def_cfa_offset 16
.Ltmp442:
	.cfi_offset %rbp, -16
	movq	%rsp, %rbp
.Ltmp443:
	.cfi_def_cfa_register %rbp
	subq	$16, %rsp
	movq	%rdi, -8(%rbp)
	movq	-8(%rbp), %rdi
	.loc	44 130 25 prologue_end  # /usr/bin/../lib64/gcc/x86_64-unknown-linux-gnu/5.2.0/../../../../include/c++/5.2.0/array:130:25
.Ltmp444:
	callq	_ZNSt5arrayIdLm10EE4dataEv
	addq	$80, %rax
	.loc	44 130 9 is_stmt 0      # /usr/bin/../lib64/gcc/x86_64-unknown-linux-gnu/5.2.0/../../../../include/c++/5.2.0/array:130:9
	addq	$16, %rsp
	popq	%rbp
	retq
.Ltmp445:
.Ltmp446:
	.size	_ZNSt5arrayIdLm10EE3endEv, .Ltmp446-_ZNSt5arrayIdLm10EE3endEv
.Lfunc_end46:
	.cfi_endproc

	.section	.text._ZSt10accumulateIPddET0_T_S2_S1_,"axG",@progbits,_ZSt10accumulateIPddET0_T_S2_S1_,comdat
	.weak	_ZSt10accumulateIPddET0_T_S2_S1_
	.align	16, 0x90
	.type	_ZSt10accumulateIPddET0_T_S2_S1_,@function
_ZSt10accumulateIPddET0_T_S2_S1_:       # @_ZSt10accumulateIPddET0_T_S2_S1_
.Lfunc_begin47:
	.file	65 "/usr/bin/../lib64/gcc/x86_64-unknown-linux-gnu/5.2.0/../../../../include/c++/5.2.0/bits" "stl_numeric.h"
	.loc	65 121 0 is_stmt 1      # /usr/bin/../lib64/gcc/x86_64-unknown-linux-gnu/5.2.0/../../../../include/c++/5.2.0/bits/stl_numeric.h:121:0
	.cfi_startproc
# BB#0:
	pushq	%rbp
.Ltmp447:
	.cfi_def_cfa_offset 16
.Ltmp448:
	.cfi_offset %rbp, -16
	movq	%rsp, %rbp
.Ltmp449:
	.cfi_def_cfa_register %rbp
	movq	%rdi, -8(%rbp)
	movq	%rsi, -16(%rbp)
	movsd	%xmm0, -24(%rbp)
.LBB47_1:                               # =>This Inner Loop Header: Depth=1
	.loc	65 126 14 prologue_end discriminator 2 # /usr/bin/../lib64/gcc/x86_64-unknown-linux-gnu/5.2.0/../../../../include/c++/5.2.0/bits/stl_numeric.h:126:14
.Ltmp450:
	movq	-8(%rbp), %rax
.Ltmp451:
	.loc	65 126 7 is_stmt 0      # /usr/bin/../lib64/gcc/x86_64-unknown-linux-gnu/5.2.0/../../../../include/c++/5.2.0/bits/stl_numeric.h:126:7
	cmpq	-16(%rbp), %rax
	je	.LBB47_4
# BB#2:                                 #   in Loop: Header=BB47_1 Depth=1
	.loc	65 127 11 is_stmt 1     # /usr/bin/../lib64/gcc/x86_64-unknown-linux-gnu/5.2.0/../../../../include/c++/5.2.0/bits/stl_numeric.h:127:11
.Ltmp452:
	movsd	-24(%rbp), %xmm0
	.loc	65 127 21 is_stmt 0     # /usr/bin/../lib64/gcc/x86_64-unknown-linux-gnu/5.2.0/../../../../include/c++/5.2.0/bits/stl_numeric.h:127:21
	movq	-8(%rbp), %rax
	.loc	65 127 11               # /usr/bin/../lib64/gcc/x86_64-unknown-linux-gnu/5.2.0/../../../../include/c++/5.2.0/bits/stl_numeric.h:127:11
	addsd	(%rax), %xmm0
	.loc	65 127 2                # /usr/bin/../lib64/gcc/x86_64-unknown-linux-gnu/5.2.0/../../../../include/c++/5.2.0/bits/stl_numeric.h:127:2
	movsd	%xmm0, -24(%rbp)
# BB#3:                                 #   in Loop: Header=BB47_1 Depth=1
	.loc	65 126 33 is_stmt 1     # /usr/bin/../lib64/gcc/x86_64-unknown-linux-gnu/5.2.0/../../../../include/c++/5.2.0/bits/stl_numeric.h:126:33
	movq	-8(%rbp), %rax
	addq	$8, %rax
	movq	%rax, -8(%rbp)
	.loc	65 126 7 is_stmt 0      # /usr/bin/../lib64/gcc/x86_64-unknown-linux-gnu/5.2.0/../../../../include/c++/5.2.0/bits/stl_numeric.h:126:7
	jmp	.LBB47_1
.Ltmp453:
.LBB47_4:
	.loc	65 128 14 is_stmt 1     # /usr/bin/../lib64/gcc/x86_64-unknown-linux-gnu/5.2.0/../../../../include/c++/5.2.0/bits/stl_numeric.h:128:14
	movsd	-24(%rbp), %xmm0
	.loc	65 128 7 is_stmt 0      # /usr/bin/../lib64/gcc/x86_64-unknown-linux-gnu/5.2.0/../../../../include/c++/5.2.0/bits/stl_numeric.h:128:7
	popq	%rbp
	retq
.Ltmp454:
.Ltmp455:
	.size	_ZSt10accumulateIPddET0_T_S2_S1_, .Ltmp455-_ZSt10accumulateIPddET0_T_S2_S1_
.Lfunc_end47:
	.cfi_endproc

	.section	.text._ZNKSt5arrayIdLm10EE4sizeEv,"axG",@progbits,_ZNKSt5arrayIdLm10EE4sizeEv,comdat
	.weak	_ZNKSt5arrayIdLm10EE4sizeEv
	.align	16, 0x90
	.type	_ZNKSt5arrayIdLm10EE4sizeEv,@function
_ZNKSt5arrayIdLm10EE4sizeEv:            # @_ZNKSt5arrayIdLm10EE4sizeEv
.Lfunc_begin48:
	.loc	44 170 0 is_stmt 1      # /usr/bin/../lib64/gcc/x86_64-unknown-linux-gnu/5.2.0/../../../../include/c++/5.2.0/array:170:0
	.cfi_startproc
# BB#0:
	pushq	%rbp
.Ltmp456:
	.cfi_def_cfa_offset 16
.Ltmp457:
	.cfi_offset %rbp, -16
	movq	%rsp, %rbp
.Ltmp458:
	.cfi_def_cfa_register %rbp
	movl	$10, %eax
                                        # kill: RAX<def> EAX<kill>
	movq	%rdi, -8(%rbp)
	.loc	44 170 31 prologue_end  # /usr/bin/../lib64/gcc/x86_64-unknown-linux-gnu/5.2.0/../../../../include/c++/5.2.0/array:170:31
.Ltmp459:
	popq	%rbp
	retq
.Ltmp460:
.Ltmp461:
	.size	_ZNKSt5arrayIdLm10EE4sizeEv, .Ltmp461-_ZNKSt5arrayIdLm10EE4sizeEv
.Lfunc_end48:
	.cfi_endproc

	.section	.text._ZNSt5arrayIdLm10EE4dataEv,"axG",@progbits,_ZNSt5arrayIdLm10EE4dataEv,comdat
	.weak	_ZNSt5arrayIdLm10EE4dataEv
	.align	16, 0x90
	.type	_ZNSt5arrayIdLm10EE4dataEv,@function
_ZNSt5arrayIdLm10EE4dataEv:             # @_ZNSt5arrayIdLm10EE4dataEv
.Lfunc_begin49:
	.loc	44 230 0                # /usr/bin/../lib64/gcc/x86_64-unknown-linux-gnu/5.2.0/../../../../include/c++/5.2.0/array:230:0
	.cfi_startproc
# BB#0:
	pushq	%rbp
.Ltmp462:
	.cfi_def_cfa_offset 16
.Ltmp463:
	.cfi_offset %rbp, -16
	movq	%rsp, %rbp
.Ltmp464:
	.cfi_def_cfa_register %rbp
	subq	$16, %rsp
	movq	%rdi, -8(%rbp)
	movq	-8(%rbp), %rdi
	.loc	44 230 16 prologue_end  # /usr/bin/../lib64/gcc/x86_64-unknown-linux-gnu/5.2.0/../../../../include/c++/5.2.0/array:230:16
.Ltmp465:
	callq	_ZNSt14__array_traitsIdLm10EE6_S_ptrERA10_Kd
	.loc	44 230 9 is_stmt 0      # /usr/bin/../lib64/gcc/x86_64-unknown-linux-gnu/5.2.0/../../../../include/c++/5.2.0/array:230:9
	addq	$16, %rsp
	popq	%rbp
	retq
.Ltmp466:
.Ltmp467:
	.size	_ZNSt5arrayIdLm10EE4dataEv, .Ltmp467-_ZNSt5arrayIdLm10EE4dataEv
.Lfunc_end49:
	.cfi_endproc

	.section	.text._ZNSt14__array_traitsIdLm10EE6_S_ptrERA10_Kd,"axG",@progbits,_ZNSt14__array_traitsIdLm10EE6_S_ptrERA10_Kd,comdat
	.weak	_ZNSt14__array_traitsIdLm10EE6_S_ptrERA10_Kd
	.align	16, 0x90
	.type	_ZNSt14__array_traitsIdLm10EE6_S_ptrERA10_Kd,@function
_ZNSt14__array_traitsIdLm10EE6_S_ptrERA10_Kd: # @_ZNSt14__array_traitsIdLm10EE6_S_ptrERA10_Kd
.Lfunc_begin50:
	.loc	44 57 0 is_stmt 1       # /usr/bin/../lib64/gcc/x86_64-unknown-linux-gnu/5.2.0/../../../../include/c++/5.2.0/array:57:0
	.cfi_startproc
# BB#0:
	pushq	%rbp
.Ltmp468:
	.cfi_def_cfa_offset 16
.Ltmp469:
	.cfi_offset %rbp, -16
	movq	%rsp, %rbp
.Ltmp470:
	.cfi_def_cfa_register %rbp
	movq	%rdi, -8(%rbp)
	.loc	44 57 33 prologue_end   # /usr/bin/../lib64/gcc/x86_64-unknown-linux-gnu/5.2.0/../../../../include/c++/5.2.0/array:57:33
.Ltmp471:
	movq	-8(%rbp), %rax
	.loc	44 57 9 is_stmt 0       # /usr/bin/../lib64/gcc/x86_64-unknown-linux-gnu/5.2.0/../../../../include/c++/5.2.0/array:57:9
	popq	%rbp
	retq
.Ltmp472:
.Ltmp473:
	.size	_ZNSt14__array_traitsIdLm10EE6_S_ptrERA10_Kd, .Ltmp473-_ZNSt14__array_traitsIdLm10EE6_S_ptrERA10_Kd
.Lfunc_end50:
	.cfi_endproc

	.section	.text._ZSt6__sortIPdN9__gnu_cxx5__ops15_Iter_less_iterEEvT_S4_T0_,"axG",@progbits,_ZSt6__sortIPdN9__gnu_cxx5__ops15_Iter_less_iterEEvT_S4_T0_,comdat
	.weak	_ZSt6__sortIPdN9__gnu_cxx5__ops15_Iter_less_iterEEvT_S4_T0_
	.align	16, 0x90
	.type	_ZSt6__sortIPdN9__gnu_cxx5__ops15_Iter_less_iterEEvT_S4_T0_,@function
_ZSt6__sortIPdN9__gnu_cxx5__ops15_Iter_less_iterEEvT_S4_T0_: # @_ZSt6__sortIPdN9__gnu_cxx5__ops15_Iter_less_iterEEvT_S4_T0_
.Lfunc_begin51:
	.loc	11 1960 0 is_stmt 1     # /usr/bin/../lib64/gcc/x86_64-unknown-linux-gnu/5.2.0/../../../../include/c++/5.2.0/bits/stl_algo.h:1960:0
	.cfi_startproc
# BB#0:
	pushq	%rbp
.Ltmp474:
	.cfi_def_cfa_offset 16
.Ltmp475:
	.cfi_offset %rbp, -16
	movq	%rsp, %rbp
.Ltmp476:
	.cfi_def_cfa_register %rbp
	subq	$64, %rsp
	movq	%rdi, -16(%rbp)
	movq	%rsi, -24(%rbp)
	.loc	11 1961 11 prologue_end # /usr/bin/../lib64/gcc/x86_64-unknown-linux-gnu/5.2.0/../../../../include/c++/5.2.0/bits/stl_algo.h:1961:11
.Ltmp477:
	movq	-16(%rbp), %rsi
.Ltmp478:
	.loc	11 1961 11 is_stmt 0    # /usr/bin/../lib64/gcc/x86_64-unknown-linux-gnu/5.2.0/../../../../include/c++/5.2.0/bits/stl_algo.h:1961:11
	cmpq	-24(%rbp), %rsi
	je	.LBB51_2
# BB#1:
	.loc	11 1963 26 is_stmt 1    # /usr/bin/../lib64/gcc/x86_64-unknown-linux-gnu/5.2.0/../../../../include/c++/5.2.0/bits/stl_algo.h:1963:26
.Ltmp479:
	movq	-16(%rbp), %rdi
	.loc	11 1963 35 is_stmt 0    # /usr/bin/../lib64/gcc/x86_64-unknown-linux-gnu/5.2.0/../../../../include/c++/5.2.0/bits/stl_algo.h:1963:35
	movq	-24(%rbp), %rsi
	.loc	11 1964 15 is_stmt 1    # /usr/bin/../lib64/gcc/x86_64-unknown-linux-gnu/5.2.0/../../../../include/c++/5.2.0/bits/stl_algo.h:1964:15
	movq	-24(%rbp), %rax
	.loc	11 1964 24 is_stmt 0    # /usr/bin/../lib64/gcc/x86_64-unknown-linux-gnu/5.2.0/../../../../include/c++/5.2.0/bits/stl_algo.h:1964:24
	movq	-16(%rbp), %rcx
	.loc	11 1964 15              # /usr/bin/../lib64/gcc/x86_64-unknown-linux-gnu/5.2.0/../../../../include/c++/5.2.0/bits/stl_algo.h:1964:15
	subq	%rcx, %rax
	sarq	$3, %rax
	.loc	11 1964 5               # /usr/bin/../lib64/gcc/x86_64-unknown-linux-gnu/5.2.0/../../../../include/c++/5.2.0/bits/stl_algo.h:1964:5
	movq	%rdi, -48(%rbp)         # 8-byte Spill
	movq	%rax, %rdi
	movq	%rsi, -56(%rbp)         # 8-byte Spill
	callq	_ZSt4__lgl
	shlq	$1, %rax
	.loc	11 1963 4 is_stmt 1     # /usr/bin/../lib64/gcc/x86_64-unknown-linux-gnu/5.2.0/../../../../include/c++/5.2.0/bits/stl_algo.h:1963:4
	movq	-48(%rbp), %rdi         # 8-byte Reload
	movq	-56(%rbp), %rsi         # 8-byte Reload
	movq	%rax, %rdx
	callq	_ZSt16__introsort_loopIPdlN9__gnu_cxx5__ops15_Iter_less_iterEEvT_S4_T0_T1_
	.loc	11 1966 32              # /usr/bin/../lib64/gcc/x86_64-unknown-linux-gnu/5.2.0/../../../../include/c++/5.2.0/bits/stl_algo.h:1966:32
	movq	-16(%rbp), %rdi
	.loc	11 1966 41 is_stmt 0    # /usr/bin/../lib64/gcc/x86_64-unknown-linux-gnu/5.2.0/../../../../include/c++/5.2.0/bits/stl_algo.h:1966:41
	movq	-24(%rbp), %rsi
	.loc	11 1966 4               # /usr/bin/../lib64/gcc/x86_64-unknown-linux-gnu/5.2.0/../../../../include/c++/5.2.0/bits/stl_algo.h:1966:4
	callq	_ZSt22__final_insertion_sortIPdN9__gnu_cxx5__ops15_Iter_less_iterEEvT_S4_T0_
.Ltmp480:
.LBB51_2:
	.loc	11 1968 5 is_stmt 1     # /usr/bin/../lib64/gcc/x86_64-unknown-linux-gnu/5.2.0/../../../../include/c++/5.2.0/bits/stl_algo.h:1968:5
	addq	$64, %rsp
	popq	%rbp
	retq
.Ltmp481:
.Ltmp482:
	.size	_ZSt6__sortIPdN9__gnu_cxx5__ops15_Iter_less_iterEEvT_S4_T0_, .Ltmp482-_ZSt6__sortIPdN9__gnu_cxx5__ops15_Iter_less_iterEEvT_S4_T0_
.Lfunc_end51:
	.cfi_endproc

	.section	.text._ZN9__gnu_cxx5__ops16__iter_less_iterEv,"axG",@progbits,_ZN9__gnu_cxx5__ops16__iter_less_iterEv,comdat
	.weak	_ZN9__gnu_cxx5__ops16__iter_less_iterEv
	.align	16, 0x90
	.type	_ZN9__gnu_cxx5__ops16__iter_less_iterEv,@function
_ZN9__gnu_cxx5__ops16__iter_less_iterEv: # @_ZN9__gnu_cxx5__ops16__iter_less_iterEv
.Lfunc_begin52:
	.loc	45 48 0                 # /usr/bin/../lib64/gcc/x86_64-unknown-linux-gnu/5.2.0/../../../../include/c++/5.2.0/bits/predefined_ops.h:48:0
	.cfi_startproc
# BB#0:
	pushq	%rbp
.Ltmp483:
	.cfi_def_cfa_offset 16
.Ltmp484:
	.cfi_offset %rbp, -16
	movq	%rsp, %rbp
.Ltmp485:
	.cfi_def_cfa_register %rbp
	.loc	45 48 5 prologue_end    # /usr/bin/../lib64/gcc/x86_64-unknown-linux-gnu/5.2.0/../../../../include/c++/5.2.0/bits/predefined_ops.h:48:5
.Ltmp486:
	popq	%rbp
	retq
.Ltmp487:
.Ltmp488:
	.size	_ZN9__gnu_cxx5__ops16__iter_less_iterEv, .Ltmp488-_ZN9__gnu_cxx5__ops16__iter_less_iterEv
.Lfunc_end52:
	.cfi_endproc

	.section	.text._ZSt16__introsort_loopIPdlN9__gnu_cxx5__ops15_Iter_less_iterEEvT_S4_T0_T1_,"axG",@progbits,_ZSt16__introsort_loopIPdlN9__gnu_cxx5__ops15_Iter_less_iterEEvT_S4_T0_T1_,comdat
	.weak	_ZSt16__introsort_loopIPdlN9__gnu_cxx5__ops15_Iter_less_iterEEvT_S4_T0_T1_
	.align	16, 0x90
	.type	_ZSt16__introsort_loopIPdlN9__gnu_cxx5__ops15_Iter_less_iterEEvT_S4_T0_T1_,@function
_ZSt16__introsort_loopIPdlN9__gnu_cxx5__ops15_Iter_less_iterEEvT_S4_T0_T1_: # @_ZSt16__introsort_loopIPdlN9__gnu_cxx5__ops15_Iter_less_iterEEvT_S4_T0_T1_
.Lfunc_begin53:
	.loc	11 1938 0               # /usr/bin/../lib64/gcc/x86_64-unknown-linux-gnu/5.2.0/../../../../include/c++/5.2.0/bits/stl_algo.h:1938:0
	.cfi_startproc
# BB#0:
	pushq	%rbp
.Ltmp489:
	.cfi_def_cfa_offset 16
.Ltmp490:
	.cfi_offset %rbp, -16
	movq	%rsp, %rbp
.Ltmp491:
	.cfi_def_cfa_register %rbp
	subq	$64, %rsp
	movq	%rdi, -16(%rbp)
	movq	%rsi, -24(%rbp)
	movq	%rdx, -32(%rbp)
.LBB53_1:                               # =>This Inner Loop Header: Depth=1
	.loc	11 1939 14 prologue_end discriminator 2 # /usr/bin/../lib64/gcc/x86_64-unknown-linux-gnu/5.2.0/../../../../include/c++/5.2.0/bits/stl_algo.h:1939:14
.Ltmp492:
	movq	-24(%rbp), %rax
.Ltmp493:
	.loc	11 1939 23 is_stmt 0    # /usr/bin/../lib64/gcc/x86_64-unknown-linux-gnu/5.2.0/../../../../include/c++/5.2.0/bits/stl_algo.h:1939:23
	movq	-16(%rbp), %rcx
	.loc	11 1939 14              # /usr/bin/../lib64/gcc/x86_64-unknown-linux-gnu/5.2.0/../../../../include/c++/5.2.0/bits/stl_algo.h:1939:14
	subq	%rcx, %rax
	sarq	$3, %rax
	.loc	11 1939 7               # /usr/bin/../lib64/gcc/x86_64-unknown-linux-gnu/5.2.0/../../../../include/c++/5.2.0/bits/stl_algo.h:1939:7
	cmpq	$16, %rax
	jle	.LBB53_5
# BB#2:                                 #   in Loop: Header=BB53_1 Depth=1
	.loc	11 1941 8 is_stmt 1     # /usr/bin/../lib64/gcc/x86_64-unknown-linux-gnu/5.2.0/../../../../include/c++/5.2.0/bits/stl_algo.h:1941:8
.Ltmp494:
	cmpq	$0, -32(%rbp)
	jne	.LBB53_4
# BB#3:
	.loc	11 1943 28              # /usr/bin/../lib64/gcc/x86_64-unknown-linux-gnu/5.2.0/../../../../include/c++/5.2.0/bits/stl_algo.h:1943:28
.Ltmp495:
	movq	-16(%rbp), %rdi
	.loc	11 1943 37 is_stmt 0    # /usr/bin/../lib64/gcc/x86_64-unknown-linux-gnu/5.2.0/../../../../include/c++/5.2.0/bits/stl_algo.h:1943:37
	movq	-24(%rbp), %rsi
	.loc	11 1943 45              # /usr/bin/../lib64/gcc/x86_64-unknown-linux-gnu/5.2.0/../../../../include/c++/5.2.0/bits/stl_algo.h:1943:45
	movq	-24(%rbp), %rdx
	.loc	11 1943 8               # /usr/bin/../lib64/gcc/x86_64-unknown-linux-gnu/5.2.0/../../../../include/c++/5.2.0/bits/stl_algo.h:1943:8
	callq	_ZSt14__partial_sortIPdN9__gnu_cxx5__ops15_Iter_less_iterEEvT_S4_S4_T0_
	.loc	11 1944 8 is_stmt 1     # /usr/bin/../lib64/gcc/x86_64-unknown-linux-gnu/5.2.0/../../../../include/c++/5.2.0/bits/stl_algo.h:1944:8
	jmp	.LBB53_5
.Ltmp496:
.LBB53_4:                               #   in Loop: Header=BB53_1 Depth=1
	.loc	11 1946 4               # /usr/bin/../lib64/gcc/x86_64-unknown-linux-gnu/5.2.0/../../../../include/c++/5.2.0/bits/stl_algo.h:1946:4
	movq	-32(%rbp), %rax
	addq	$-1, %rax
	movq	%rax, -32(%rbp)
	.loc	11 1948 39              # /usr/bin/../lib64/gcc/x86_64-unknown-linux-gnu/5.2.0/../../../../include/c++/5.2.0/bits/stl_algo.h:1948:39
	movq	-16(%rbp), %rdi
	.loc	11 1948 48 is_stmt 0    # /usr/bin/../lib64/gcc/x86_64-unknown-linux-gnu/5.2.0/../../../../include/c++/5.2.0/bits/stl_algo.h:1948:48
	movq	-24(%rbp), %rsi
	.loc	11 1948 6               # /usr/bin/../lib64/gcc/x86_64-unknown-linux-gnu/5.2.0/../../../../include/c++/5.2.0/bits/stl_algo.h:1948:6
	callq	_ZSt27__unguarded_partition_pivotIPdN9__gnu_cxx5__ops15_Iter_less_iterEET_S4_S4_T0_
	.loc	11 1947 26 is_stmt 1    # /usr/bin/../lib64/gcc/x86_64-unknown-linux-gnu/5.2.0/../../../../include/c++/5.2.0/bits/stl_algo.h:1947:26
	movq	%rax, -48(%rbp)
	.loc	11 1949 26              # /usr/bin/../lib64/gcc/x86_64-unknown-linux-gnu/5.2.0/../../../../include/c++/5.2.0/bits/stl_algo.h:1949:26
	movq	-48(%rbp), %rdi
	.loc	11 1949 33 is_stmt 0    # /usr/bin/../lib64/gcc/x86_64-unknown-linux-gnu/5.2.0/../../../../include/c++/5.2.0/bits/stl_algo.h:1949:33
	movq	-24(%rbp), %rsi
	.loc	11 1949 41              # /usr/bin/../lib64/gcc/x86_64-unknown-linux-gnu/5.2.0/../../../../include/c++/5.2.0/bits/stl_algo.h:1949:41
	movq	-32(%rbp), %rdx
	.loc	11 1949 4               # /usr/bin/../lib64/gcc/x86_64-unknown-linux-gnu/5.2.0/../../../../include/c++/5.2.0/bits/stl_algo.h:1949:4
	callq	_ZSt16__introsort_loopIPdlN9__gnu_cxx5__ops15_Iter_less_iterEEvT_S4_T0_T1_
	.loc	11 1950 13 is_stmt 1    # /usr/bin/../lib64/gcc/x86_64-unknown-linux-gnu/5.2.0/../../../../include/c++/5.2.0/bits/stl_algo.h:1950:13
	movq	-48(%rbp), %rax
	.loc	11 1950 4 is_stmt 0     # /usr/bin/../lib64/gcc/x86_64-unknown-linux-gnu/5.2.0/../../../../include/c++/5.2.0/bits/stl_algo.h:1950:4
	movq	%rax, -24(%rbp)
.Ltmp497:
	.loc	11 1939 7 is_stmt 1     # /usr/bin/../lib64/gcc/x86_64-unknown-linux-gnu/5.2.0/../../../../include/c++/5.2.0/bits/stl_algo.h:1939:7
	jmp	.LBB53_1
.LBB53_5:
	.loc	11 1952 5               # /usr/bin/../lib64/gcc/x86_64-unknown-linux-gnu/5.2.0/../../../../include/c++/5.2.0/bits/stl_algo.h:1952:5
	addq	$64, %rsp
	popq	%rbp
	retq
.Ltmp498:
.Ltmp499:
	.size	_ZSt16__introsort_loopIPdlN9__gnu_cxx5__ops15_Iter_less_iterEEvT_S4_T0_T1_, .Ltmp499-_ZSt16__introsort_loopIPdlN9__gnu_cxx5__ops15_Iter_less_iterEEvT_S4_T0_T1_
.Lfunc_end53:
	.cfi_endproc

	.section	.text._ZSt4__lgl,"axG",@progbits,_ZSt4__lgl,comdat
	.weak	_ZSt4__lgl
	.align	16, 0x90
	.type	_ZSt4__lgl,@function
_ZSt4__lgl:                             # @_ZSt4__lgl
.Lfunc_begin54:
	.loc	46 1021 0               # /usr/bin/../lib64/gcc/x86_64-unknown-linux-gnu/5.2.0/../../../../include/c++/5.2.0/bits/stl_algobase.h:1021:0
	.cfi_startproc
# BB#0:
	pushq	%rbp
.Ltmp500:
	.cfi_def_cfa_offset 16
.Ltmp501:
	.cfi_offset %rbp, -16
	movq	%rsp, %rbp
.Ltmp502:
	.cfi_def_cfa_register %rbp
	movl	$63, %eax
	movl	%eax, %ecx
	movq	%rdi, -8(%rbp)
	.loc	46 1021 61 prologue_end # /usr/bin/../lib64/gcc/x86_64-unknown-linux-gnu/5.2.0/../../../../include/c++/5.2.0/bits/stl_algobase.h:1021:61
.Ltmp503:
	movq	-8(%rbp), %rdi
	.loc	46 1021 46 is_stmt 0    # /usr/bin/../lib64/gcc/x86_64-unknown-linux-gnu/5.2.0/../../../../include/c++/5.2.0/bits/stl_algobase.h:1021:46
	bsrq	%rdi, %rdi
	xorq	$63, %rdi
	movl	%edi, %eax
	movslq	%eax, %rdi
	.loc	46 1021 12              # /usr/bin/../lib64/gcc/x86_64-unknown-linux-gnu/5.2.0/../../../../include/c++/5.2.0/bits/stl_algobase.h:1021:12
	subq	%rdi, %rcx
	.loc	46 1021 5               # /usr/bin/../lib64/gcc/x86_64-unknown-linux-gnu/5.2.0/../../../../include/c++/5.2.0/bits/stl_algobase.h:1021:5
	movq	%rcx, %rax
	popq	%rbp
	retq
.Ltmp504:
.Ltmp505:
	.size	_ZSt4__lgl, .Ltmp505-_ZSt4__lgl
.Lfunc_end54:
	.cfi_endproc

	.section	.text._ZSt22__final_insertion_sortIPdN9__gnu_cxx5__ops15_Iter_less_iterEEvT_S4_T0_,"axG",@progbits,_ZSt22__final_insertion_sortIPdN9__gnu_cxx5__ops15_Iter_less_iterEEvT_S4_T0_,comdat
	.weak	_ZSt22__final_insertion_sortIPdN9__gnu_cxx5__ops15_Iter_less_iterEEvT_S4_T0_
	.align	16, 0x90
	.type	_ZSt22__final_insertion_sortIPdN9__gnu_cxx5__ops15_Iter_less_iterEEvT_S4_T0_,@function
_ZSt22__final_insertion_sortIPdN9__gnu_cxx5__ops15_Iter_less_iterEEvT_S4_T0_: # @_ZSt22__final_insertion_sortIPdN9__gnu_cxx5__ops15_Iter_less_iterEEvT_S4_T0_
.Lfunc_begin55:
	.loc	11 1877 0 is_stmt 1     # /usr/bin/../lib64/gcc/x86_64-unknown-linux-gnu/5.2.0/../../../../include/c++/5.2.0/bits/stl_algo.h:1877:0
	.cfi_startproc
# BB#0:
	pushq	%rbp
.Ltmp506:
	.cfi_def_cfa_offset 16
.Ltmp507:
	.cfi_offset %rbp, -16
	movq	%rsp, %rbp
.Ltmp508:
	.cfi_def_cfa_register %rbp
	subq	$48, %rsp
	movq	%rdi, -16(%rbp)
	movq	%rsi, -24(%rbp)
	.loc	11 1878 11 prologue_end # /usr/bin/../lib64/gcc/x86_64-unknown-linux-gnu/5.2.0/../../../../include/c++/5.2.0/bits/stl_algo.h:1878:11
.Ltmp509:
	movq	-24(%rbp), %rsi
	.loc	11 1878 20 is_stmt 0    # /usr/bin/../lib64/gcc/x86_64-unknown-linux-gnu/5.2.0/../../../../include/c++/5.2.0/bits/stl_algo.h:1878:20
	movq	-16(%rbp), %rdi
	.loc	11 1878 11              # /usr/bin/../lib64/gcc/x86_64-unknown-linux-gnu/5.2.0/../../../../include/c++/5.2.0/bits/stl_algo.h:1878:11
	subq	%rdi, %rsi
	sarq	$3, %rsi
.Ltmp510:
	.loc	11 1878 11              # /usr/bin/../lib64/gcc/x86_64-unknown-linux-gnu/5.2.0/../../../../include/c++/5.2.0/bits/stl_algo.h:1878:11
	cmpq	$16, %rsi
	jle	.LBB55_2
# BB#1:
	.loc	11 1880 26 is_stmt 1    # /usr/bin/../lib64/gcc/x86_64-unknown-linux-gnu/5.2.0/../../../../include/c++/5.2.0/bits/stl_algo.h:1880:26
.Ltmp511:
	movq	-16(%rbp), %rdi
	.loc	11 1880 35 is_stmt 0    # /usr/bin/../lib64/gcc/x86_64-unknown-linux-gnu/5.2.0/../../../../include/c++/5.2.0/bits/stl_algo.h:1880:35
	movq	-16(%rbp), %rax
	addq	$128, %rax
	.loc	11 1880 4               # /usr/bin/../lib64/gcc/x86_64-unknown-linux-gnu/5.2.0/../../../../include/c++/5.2.0/bits/stl_algo.h:1880:4
	movq	%rax, %rsi
	callq	_ZSt16__insertion_sortIPdN9__gnu_cxx5__ops15_Iter_less_iterEEvT_S4_T0_
	.loc	11 1881 36 is_stmt 1    # /usr/bin/../lib64/gcc/x86_64-unknown-linux-gnu/5.2.0/../../../../include/c++/5.2.0/bits/stl_algo.h:1881:36
	movq	-16(%rbp), %rax
	addq	$128, %rax
	.loc	11 1881 65 is_stmt 0    # /usr/bin/../lib64/gcc/x86_64-unknown-linux-gnu/5.2.0/../../../../include/c++/5.2.0/bits/stl_algo.h:1881:65
	movq	-24(%rbp), %rsi
	.loc	11 1881 4               # /usr/bin/../lib64/gcc/x86_64-unknown-linux-gnu/5.2.0/../../../../include/c++/5.2.0/bits/stl_algo.h:1881:4
	movq	%rax, %rdi
	callq	_ZSt26__unguarded_insertion_sortIPdN9__gnu_cxx5__ops15_Iter_less_iterEEvT_S4_T0_
	.loc	11 1883 2 is_stmt 1     # /usr/bin/../lib64/gcc/x86_64-unknown-linux-gnu/5.2.0/../../../../include/c++/5.2.0/bits/stl_algo.h:1883:2
	jmp	.LBB55_3
.Ltmp512:
.LBB55_2:
	.loc	11 1885 24              # /usr/bin/../lib64/gcc/x86_64-unknown-linux-gnu/5.2.0/../../../../include/c++/5.2.0/bits/stl_algo.h:1885:24
	movq	-16(%rbp), %rdi
	.loc	11 1885 33 is_stmt 0    # /usr/bin/../lib64/gcc/x86_64-unknown-linux-gnu/5.2.0/../../../../include/c++/5.2.0/bits/stl_algo.h:1885:33
	movq	-24(%rbp), %rsi
	.loc	11 1885 2               # /usr/bin/../lib64/gcc/x86_64-unknown-linux-gnu/5.2.0/../../../../include/c++/5.2.0/bits/stl_algo.h:1885:2
	callq	_ZSt16__insertion_sortIPdN9__gnu_cxx5__ops15_Iter_less_iterEEvT_S4_T0_
.Ltmp513:
.LBB55_3:
	.loc	11 1886 5 is_stmt 1     # /usr/bin/../lib64/gcc/x86_64-unknown-linux-gnu/5.2.0/../../../../include/c++/5.2.0/bits/stl_algo.h:1886:5
	addq	$48, %rsp
	popq	%rbp
	retq
.Ltmp514:
.Ltmp515:
	.size	_ZSt22__final_insertion_sortIPdN9__gnu_cxx5__ops15_Iter_less_iterEEvT_S4_T0_, .Ltmp515-_ZSt22__final_insertion_sortIPdN9__gnu_cxx5__ops15_Iter_less_iterEEvT_S4_T0_
.Lfunc_end55:
	.cfi_endproc

	.section	.text._ZSt16__insertion_sortIPdN9__gnu_cxx5__ops15_Iter_less_iterEEvT_S4_T0_,"axG",@progbits,_ZSt16__insertion_sortIPdN9__gnu_cxx5__ops15_Iter_less_iterEEvT_S4_T0_,comdat
	.weak	_ZSt16__insertion_sortIPdN9__gnu_cxx5__ops15_Iter_less_iterEEvT_S4_T0_
	.align	16, 0x90
	.type	_ZSt16__insertion_sortIPdN9__gnu_cxx5__ops15_Iter_less_iterEEvT_S4_T0_,@function
_ZSt16__insertion_sortIPdN9__gnu_cxx5__ops15_Iter_less_iterEEvT_S4_T0_: # @_ZSt16__insertion_sortIPdN9__gnu_cxx5__ops15_Iter_less_iterEEvT_S4_T0_
.Lfunc_begin56:
	.loc	11 1837 0               # /usr/bin/../lib64/gcc/x86_64-unknown-linux-gnu/5.2.0/../../../../include/c++/5.2.0/bits/stl_algo.h:1837:0
	.cfi_startproc
# BB#0:
	pushq	%rbp
.Ltmp516:
	.cfi_def_cfa_offset 16
.Ltmp517:
	.cfi_offset %rbp, -16
	movq	%rsp, %rbp
.Ltmp518:
	.cfi_def_cfa_register %rbp
	subq	$80, %rsp
	movq	%rdi, -16(%rbp)
	movq	%rsi, -24(%rbp)
	.loc	11 1838 11 prologue_end # /usr/bin/../lib64/gcc/x86_64-unknown-linux-gnu/5.2.0/../../../../include/c++/5.2.0/bits/stl_algo.h:1838:11
.Ltmp519:
	movq	-16(%rbp), %rsi
.Ltmp520:
	.loc	11 1838 11 is_stmt 0    # /usr/bin/../lib64/gcc/x86_64-unknown-linux-gnu/5.2.0/../../../../include/c++/5.2.0/bits/stl_algo.h:1838:11
	cmpq	-24(%rbp), %rsi
	jne	.LBB56_2
# BB#1:
	.loc	11 1838 30 discriminator 1 # /usr/bin/../lib64/gcc/x86_64-unknown-linux-gnu/5.2.0/../../../../include/c++/5.2.0/bits/stl_algo.h:1838:30
.Ltmp521:
	jmp	.LBB56_9
.Ltmp522:
.LBB56_2:
	.loc	11 1840 40 is_stmt 1    # /usr/bin/../lib64/gcc/x86_64-unknown-linux-gnu/5.2.0/../../../../include/c++/5.2.0/bits/stl_algo.h:1840:40
	movq	-16(%rbp), %rax
	addq	$8, %rax
	.loc	11 1840 34 is_stmt 0    # /usr/bin/../lib64/gcc/x86_64-unknown-linux-gnu/5.2.0/../../../../include/c++/5.2.0/bits/stl_algo.h:1840:34
	movq	%rax, -32(%rbp)
.LBB56_3:                               # =>This Inner Loop Header: Depth=1
	.loc	11 1840 53 discriminator 2 # /usr/bin/../lib64/gcc/x86_64-unknown-linux-gnu/5.2.0/../../../../include/c++/5.2.0/bits/stl_algo.h:1840:53
.Ltmp523:
	movq	-32(%rbp), %rax
.Ltmp524:
	.loc	11 1840 7               # /usr/bin/../lib64/gcc/x86_64-unknown-linux-gnu/5.2.0/../../../../include/c++/5.2.0/bits/stl_algo.h:1840:7
	cmpq	-24(%rbp), %rax
	je	.LBB56_9
# BB#4:                                 #   in Loop: Header=BB56_3 Depth=1
	leaq	-8(%rbp), %rdi
	.loc	11 1842 15 is_stmt 1    # /usr/bin/../lib64/gcc/x86_64-unknown-linux-gnu/5.2.0/../../../../include/c++/5.2.0/bits/stl_algo.h:1842:15
.Ltmp525:
	movq	-32(%rbp), %rsi
	.loc	11 1842 20 is_stmt 0    # /usr/bin/../lib64/gcc/x86_64-unknown-linux-gnu/5.2.0/../../../../include/c++/5.2.0/bits/stl_algo.h:1842:20
	movq	-16(%rbp), %rdx
	.loc	11 1842 8               # /usr/bin/../lib64/gcc/x86_64-unknown-linux-gnu/5.2.0/../../../../include/c++/5.2.0/bits/stl_algo.h:1842:8
	callq	_ZNK9__gnu_cxx5__ops15_Iter_less_iterclIPdS3_EEbT_T0_
.Ltmp526:
	.loc	11 1842 8               # /usr/bin/../lib64/gcc/x86_64-unknown-linux-gnu/5.2.0/../../../../include/c++/5.2.0/bits/stl_algo.h:1842:8
	testb	$1, %al
	jne	.LBB56_5
	jmp	.LBB56_6
.LBB56_5:                               #   in Loop: Header=BB56_3 Depth=1
	.loc	11 1845 11 is_stmt 1    # /usr/bin/../lib64/gcc/x86_64-unknown-linux-gnu/5.2.0/../../../../include/c++/5.2.0/bits/stl_algo.h:1845:11
.Ltmp527:
	movq	-32(%rbp), %rdi
	callq	_ZSt4moveIRdEONSt16remove_referenceIT_E4typeEOS2_
	movsd	(%rax), %xmm0
	.loc	11 1845 3 is_stmt 0     # /usr/bin/../lib64/gcc/x86_64-unknown-linux-gnu/5.2.0/../../../../include/c++/5.2.0/bits/stl_algo.h:1845:3
	movsd	%xmm0, -40(%rbp)
	.loc	11 1846 8 is_stmt 1     # /usr/bin/../lib64/gcc/x86_64-unknown-linux-gnu/5.2.0/../../../../include/c++/5.2.0/bits/stl_algo.h:1846:8
	movq	-16(%rbp), %rdi
	movq	-32(%rbp), %rsi
	movq	-32(%rbp), %rax
	addq	$8, %rax
	movq	%rax, %rdx
	callq	_ZSt13move_backwardIPdS0_ET0_T_S2_S1_
	leaq	-40(%rbp), %rdi
	.loc	11 1847 19              # /usr/bin/../lib64/gcc/x86_64-unknown-linux-gnu/5.2.0/../../../../include/c++/5.2.0/bits/stl_algo.h:1847:19
	movq	%rax, -72(%rbp)         # 8-byte Spill
	callq	_ZSt4moveIRdEONSt16remove_referenceIT_E4typeEOS2_
	movsd	(%rax), %xmm0
	.loc	11 1847 9 is_stmt 0     # /usr/bin/../lib64/gcc/x86_64-unknown-linux-gnu/5.2.0/../../../../include/c++/5.2.0/bits/stl_algo.h:1847:9
	movq	-16(%rbp), %rax
	.loc	11 1847 8               # /usr/bin/../lib64/gcc/x86_64-unknown-linux-gnu/5.2.0/../../../../include/c++/5.2.0/bits/stl_algo.h:1847:8
	movsd	%xmm0, (%rax)
	.loc	11 1848 6 is_stmt 1     # /usr/bin/../lib64/gcc/x86_64-unknown-linux-gnu/5.2.0/../../../../include/c++/5.2.0/bits/stl_algo.h:1848:6
	jmp	.LBB56_7
.Ltmp528:
.LBB56_6:                               #   in Loop: Header=BB56_3 Depth=1
	.loc	11 1850 37              # /usr/bin/../lib64/gcc/x86_64-unknown-linux-gnu/5.2.0/../../../../include/c++/5.2.0/bits/stl_algo.h:1850:37
	movq	-32(%rbp), %rdi
	.loc	11 1851 5               # /usr/bin/../lib64/gcc/x86_64-unknown-linux-gnu/5.2.0/../../../../include/c++/5.2.0/bits/stl_algo.h:1851:5
	movq	%rdi, -80(%rbp)         # 8-byte Spill
	callq	_ZN9__gnu_cxx5__ops15__val_comp_iterENS0_15_Iter_less_iterE
	.loc	11 1850 6               # /usr/bin/../lib64/gcc/x86_64-unknown-linux-gnu/5.2.0/../../../../include/c++/5.2.0/bits/stl_algo.h:1850:6
	movq	-80(%rbp), %rdi         # 8-byte Reload
	callq	_ZSt25__unguarded_linear_insertIPdN9__gnu_cxx5__ops14_Val_less_iterEEvT_T0_
.Ltmp529:
.LBB56_7:                               #   in Loop: Header=BB56_3 Depth=1
	.loc	11 1852 2               # /usr/bin/../lib64/gcc/x86_64-unknown-linux-gnu/5.2.0/../../../../include/c++/5.2.0/bits/stl_algo.h:1852:2
	jmp	.LBB56_8
.Ltmp530:
.LBB56_8:                               #   in Loop: Header=BB56_3 Depth=1
	.loc	11 1840 68              # /usr/bin/../lib64/gcc/x86_64-unknown-linux-gnu/5.2.0/../../../../include/c++/5.2.0/bits/stl_algo.h:1840:68
	movq	-32(%rbp), %rax
	addq	$8, %rax
	movq	%rax, -32(%rbp)
	.loc	11 1840 7 is_stmt 0     # /usr/bin/../lib64/gcc/x86_64-unknown-linux-gnu/5.2.0/../../../../include/c++/5.2.0/bits/stl_algo.h:1840:7
	jmp	.LBB56_3
.Ltmp531:
.LBB56_9:
	.loc	11 1853 5 is_stmt 1     # /usr/bin/../lib64/gcc/x86_64-unknown-linux-gnu/5.2.0/../../../../include/c++/5.2.0/bits/stl_algo.h:1853:5
	addq	$80, %rsp
	popq	%rbp
	retq
.Ltmp532:
.Ltmp533:
	.size	_ZSt16__insertion_sortIPdN9__gnu_cxx5__ops15_Iter_less_iterEEvT_S4_T0_, .Ltmp533-_ZSt16__insertion_sortIPdN9__gnu_cxx5__ops15_Iter_less_iterEEvT_S4_T0_
.Lfunc_end56:
	.cfi_endproc

	.section	.text._ZSt26__unguarded_insertion_sortIPdN9__gnu_cxx5__ops15_Iter_less_iterEEvT_S4_T0_,"axG",@progbits,_ZSt26__unguarded_insertion_sortIPdN9__gnu_cxx5__ops15_Iter_less_iterEEvT_S4_T0_,comdat
	.weak	_ZSt26__unguarded_insertion_sortIPdN9__gnu_cxx5__ops15_Iter_less_iterEEvT_S4_T0_
	.align	16, 0x90
	.type	_ZSt26__unguarded_insertion_sortIPdN9__gnu_cxx5__ops15_Iter_less_iterEEvT_S4_T0_,@function
_ZSt26__unguarded_insertion_sortIPdN9__gnu_cxx5__ops15_Iter_less_iterEEvT_S4_T0_: # @_ZSt26__unguarded_insertion_sortIPdN9__gnu_cxx5__ops15_Iter_less_iterEEvT_S4_T0_
.Lfunc_begin57:
	.loc	11 1860 0               # /usr/bin/../lib64/gcc/x86_64-unknown-linux-gnu/5.2.0/../../../../include/c++/5.2.0/bits/stl_algo.h:1860:0
	.cfi_startproc
# BB#0:
	pushq	%rbp
.Ltmp534:
	.cfi_def_cfa_offset 16
.Ltmp535:
	.cfi_offset %rbp, -16
	movq	%rsp, %rbp
.Ltmp536:
	.cfi_def_cfa_register %rbp
	subq	$64, %rsp
	movq	%rdi, -16(%rbp)
	movq	%rsi, -24(%rbp)
	.loc	11 1861 40 prologue_end # /usr/bin/../lib64/gcc/x86_64-unknown-linux-gnu/5.2.0/../../../../include/c++/5.2.0/bits/stl_algo.h:1861:40
.Ltmp537:
	movq	-16(%rbp), %rsi
	.loc	11 1861 34 is_stmt 0    # /usr/bin/../lib64/gcc/x86_64-unknown-linux-gnu/5.2.0/../../../../include/c++/5.2.0/bits/stl_algo.h:1861:34
	movq	%rsi, -32(%rbp)
.LBB57_1:                               # =>This Inner Loop Header: Depth=1
	.loc	11 1861 49 discriminator 2 # /usr/bin/../lib64/gcc/x86_64-unknown-linux-gnu/5.2.0/../../../../include/c++/5.2.0/bits/stl_algo.h:1861:49
.Ltmp538:
	movq	-32(%rbp), %rax
.Ltmp539:
	.loc	11 1861 7               # /usr/bin/../lib64/gcc/x86_64-unknown-linux-gnu/5.2.0/../../../../include/c++/5.2.0/bits/stl_algo.h:1861:7
	cmpq	-24(%rbp), %rax
	je	.LBB57_4
# BB#2:                                 #   in Loop: Header=BB57_1 Depth=1
	.loc	11 1862 33 is_stmt 1    # /usr/bin/../lib64/gcc/x86_64-unknown-linux-gnu/5.2.0/../../../../include/c++/5.2.0/bits/stl_algo.h:1862:33
.Ltmp540:
	movq	-32(%rbp), %rdi
	.loc	11 1863 5               # /usr/bin/../lib64/gcc/x86_64-unknown-linux-gnu/5.2.0/../../../../include/c++/5.2.0/bits/stl_algo.h:1863:5
	movq	%rdi, -64(%rbp)         # 8-byte Spill
	callq	_ZN9__gnu_cxx5__ops15__val_comp_iterENS0_15_Iter_less_iterE
	.loc	11 1862 2               # /usr/bin/../lib64/gcc/x86_64-unknown-linux-gnu/5.2.0/../../../../include/c++/5.2.0/bits/stl_algo.h:1862:2
	movq	-64(%rbp), %rdi         # 8-byte Reload
	callq	_ZSt25__unguarded_linear_insertIPdN9__gnu_cxx5__ops14_Val_less_iterEEvT_T0_
# BB#3:                                 #   in Loop: Header=BB57_1 Depth=1
	.loc	11 1861 64              # /usr/bin/../lib64/gcc/x86_64-unknown-linux-gnu/5.2.0/../../../../include/c++/5.2.0/bits/stl_algo.h:1861:64
	movq	-32(%rbp), %rax
	addq	$8, %rax
	movq	%rax, -32(%rbp)
	.loc	11 1861 7 is_stmt 0     # /usr/bin/../lib64/gcc/x86_64-unknown-linux-gnu/5.2.0/../../../../include/c++/5.2.0/bits/stl_algo.h:1861:7
	jmp	.LBB57_1
.Ltmp541:
.LBB57_4:
	.loc	11 1864 5 is_stmt 1     # /usr/bin/../lib64/gcc/x86_64-unknown-linux-gnu/5.2.0/../../../../include/c++/5.2.0/bits/stl_algo.h:1864:5
	addq	$64, %rsp
	popq	%rbp
	retq
.Ltmp542:
.Ltmp543:
	.size	_ZSt26__unguarded_insertion_sortIPdN9__gnu_cxx5__ops15_Iter_less_iterEEvT_S4_T0_, .Ltmp543-_ZSt26__unguarded_insertion_sortIPdN9__gnu_cxx5__ops15_Iter_less_iterEEvT_S4_T0_
.Lfunc_end57:
	.cfi_endproc

	.section	.text._ZSt25__unguarded_linear_insertIPdN9__gnu_cxx5__ops14_Val_less_iterEEvT_T0_,"axG",@progbits,_ZSt25__unguarded_linear_insertIPdN9__gnu_cxx5__ops14_Val_less_iterEEvT_T0_,comdat
	.weak	_ZSt25__unguarded_linear_insertIPdN9__gnu_cxx5__ops14_Val_less_iterEEvT_T0_
	.align	16, 0x90
	.type	_ZSt25__unguarded_linear_insertIPdN9__gnu_cxx5__ops14_Val_less_iterEEvT_T0_,@function
_ZSt25__unguarded_linear_insertIPdN9__gnu_cxx5__ops14_Val_less_iterEEvT_T0_: # @_ZSt25__unguarded_linear_insertIPdN9__gnu_cxx5__ops14_Val_less_iterEEvT_T0_
.Lfunc_begin58:
	.loc	11 1818 0               # /usr/bin/../lib64/gcc/x86_64-unknown-linux-gnu/5.2.0/../../../../include/c++/5.2.0/bits/stl_algo.h:1818:0
	.cfi_startproc
# BB#0:
	pushq	%rbp
.Ltmp544:
	.cfi_def_cfa_offset 16
.Ltmp545:
	.cfi_offset %rbp, -16
	movq	%rsp, %rbp
.Ltmp546:
	.cfi_def_cfa_register %rbp
	subq	$32, %rsp
	movq	%rdi, -16(%rbp)
	.loc	11 1820 10 prologue_end # /usr/bin/../lib64/gcc/x86_64-unknown-linux-gnu/5.2.0/../../../../include/c++/5.2.0/bits/stl_algo.h:1820:10
.Ltmp547:
	movq	-16(%rbp), %rdi
	callq	_ZSt4moveIRdEONSt16remove_referenceIT_E4typeEOS2_
	movsd	(%rax), %xmm0
	.loc	11 1820 2 is_stmt 0     # /usr/bin/../lib64/gcc/x86_64-unknown-linux-gnu/5.2.0/../../../../include/c++/5.2.0/bits/stl_algo.h:1820:2
	movsd	%xmm0, -24(%rbp)
	.loc	11 1821 38 is_stmt 1    # /usr/bin/../lib64/gcc/x86_64-unknown-linux-gnu/5.2.0/../../../../include/c++/5.2.0/bits/stl_algo.h:1821:38
	movq	-16(%rbp), %rax
	.loc	11 1821 29 is_stmt 0    # /usr/bin/../lib64/gcc/x86_64-unknown-linux-gnu/5.2.0/../../../../include/c++/5.2.0/bits/stl_algo.h:1821:29
	movq	%rax, -32(%rbp)
	.loc	11 1822 7 is_stmt 1     # /usr/bin/../lib64/gcc/x86_64-unknown-linux-gnu/5.2.0/../../../../include/c++/5.2.0/bits/stl_algo.h:1822:7
	movq	-32(%rbp), %rax
	addq	$-8, %rax
	movq	%rax, -32(%rbp)
.LBB58_1:                               # =>This Inner Loop Header: Depth=1
	leaq	-8(%rbp), %rdi
	leaq	-24(%rbp), %rsi
	.loc	11 1823 28 discriminator 2 # /usr/bin/../lib64/gcc/x86_64-unknown-linux-gnu/5.2.0/../../../../include/c++/5.2.0/bits/stl_algo.h:1823:28
.Ltmp548:
	movq	-32(%rbp), %rdx
.Ltmp549:
	.loc	11 1823 14 is_stmt 0    # /usr/bin/../lib64/gcc/x86_64-unknown-linux-gnu/5.2.0/../../../../include/c++/5.2.0/bits/stl_algo.h:1823:14
	callq	_ZNK9__gnu_cxx5__ops14_Val_less_iterclIdPdEEbRT_T0_
	.loc	11 1823 7               # /usr/bin/../lib64/gcc/x86_64-unknown-linux-gnu/5.2.0/../../../../include/c++/5.2.0/bits/stl_algo.h:1823:7
	testb	$1, %al
	jne	.LBB58_2
	jmp	.LBB58_3
.LBB58_2:                               #   in Loop: Header=BB58_1 Depth=1
	.loc	11 1825 14 is_stmt 1    # /usr/bin/../lib64/gcc/x86_64-unknown-linux-gnu/5.2.0/../../../../include/c++/5.2.0/bits/stl_algo.h:1825:14
.Ltmp550:
	movq	-32(%rbp), %rdi
	callq	_ZSt4moveIRdEONSt16remove_referenceIT_E4typeEOS2_
	movsd	(%rax), %xmm0
	.loc	11 1825 5 is_stmt 0     # /usr/bin/../lib64/gcc/x86_64-unknown-linux-gnu/5.2.0/../../../../include/c++/5.2.0/bits/stl_algo.h:1825:5
	movq	-16(%rbp), %rax
	.loc	11 1825 4               # /usr/bin/../lib64/gcc/x86_64-unknown-linux-gnu/5.2.0/../../../../include/c++/5.2.0/bits/stl_algo.h:1825:4
	movsd	%xmm0, (%rax)
	.loc	11 1826 13 is_stmt 1    # /usr/bin/../lib64/gcc/x86_64-unknown-linux-gnu/5.2.0/../../../../include/c++/5.2.0/bits/stl_algo.h:1826:13
	movq	-32(%rbp), %rax
	.loc	11 1826 4 is_stmt 0     # /usr/bin/../lib64/gcc/x86_64-unknown-linux-gnu/5.2.0/../../../../include/c++/5.2.0/bits/stl_algo.h:1826:4
	movq	%rax, -16(%rbp)
	.loc	11 1827 4 is_stmt 1     # /usr/bin/../lib64/gcc/x86_64-unknown-linux-gnu/5.2.0/../../../../include/c++/5.2.0/bits/stl_algo.h:1827:4
	movq	-32(%rbp), %rax
	addq	$-8, %rax
	movq	%rax, -32(%rbp)
.Ltmp551:
	.loc	11 1823 7               # /usr/bin/../lib64/gcc/x86_64-unknown-linux-gnu/5.2.0/../../../../include/c++/5.2.0/bits/stl_algo.h:1823:7
	jmp	.LBB58_1
.LBB58_3:
	leaq	-24(%rbp), %rdi
	.loc	11 1829 17              # /usr/bin/../lib64/gcc/x86_64-unknown-linux-gnu/5.2.0/../../../../include/c++/5.2.0/bits/stl_algo.h:1829:17
	callq	_ZSt4moveIRdEONSt16remove_referenceIT_E4typeEOS2_
	movsd	(%rax), %xmm0
	.loc	11 1829 8 is_stmt 0     # /usr/bin/../lib64/gcc/x86_64-unknown-linux-gnu/5.2.0/../../../../include/c++/5.2.0/bits/stl_algo.h:1829:8
	movq	-16(%rbp), %rax
	.loc	11 1829 7               # /usr/bin/../lib64/gcc/x86_64-unknown-linux-gnu/5.2.0/../../../../include/c++/5.2.0/bits/stl_algo.h:1829:7
	movsd	%xmm0, (%rax)
	.loc	11 1830 5 is_stmt 1     # /usr/bin/../lib64/gcc/x86_64-unknown-linux-gnu/5.2.0/../../../../include/c++/5.2.0/bits/stl_algo.h:1830:5
	addq	$32, %rsp
	popq	%rbp
	retq
.Ltmp552:
.Ltmp553:
	.size	_ZSt25__unguarded_linear_insertIPdN9__gnu_cxx5__ops14_Val_less_iterEEvT_T0_, .Ltmp553-_ZSt25__unguarded_linear_insertIPdN9__gnu_cxx5__ops14_Val_less_iterEEvT_T0_
.Lfunc_end58:
	.cfi_endproc

	.section	.text._ZN9__gnu_cxx5__ops15__val_comp_iterENS0_15_Iter_less_iterE,"axG",@progbits,_ZN9__gnu_cxx5__ops15__val_comp_iterENS0_15_Iter_less_iterE,comdat
	.weak	_ZN9__gnu_cxx5__ops15__val_comp_iterENS0_15_Iter_less_iterE
	.align	16, 0x90
	.type	_ZN9__gnu_cxx5__ops15__val_comp_iterENS0_15_Iter_less_iterE,@function
_ZN9__gnu_cxx5__ops15__val_comp_iterENS0_15_Iter_less_iterE: # @_ZN9__gnu_cxx5__ops15__val_comp_iterENS0_15_Iter_less_iterE
.Lfunc_begin59:
	.loc	45 80 0                 # /usr/bin/../lib64/gcc/x86_64-unknown-linux-gnu/5.2.0/../../../../include/c++/5.2.0/bits/predefined_ops.h:80:0
	.cfi_startproc
# BB#0:
	pushq	%rbp
.Ltmp554:
	.cfi_def_cfa_offset 16
.Ltmp555:
	.cfi_offset %rbp, -16
	movq	%rsp, %rbp
.Ltmp556:
	.cfi_def_cfa_register %rbp
	.loc	45 80 5 prologue_end    # /usr/bin/../lib64/gcc/x86_64-unknown-linux-gnu/5.2.0/../../../../include/c++/5.2.0/bits/predefined_ops.h:80:5
.Ltmp557:
	popq	%rbp
	retq
.Ltmp558:
.Ltmp559:
	.size	_ZN9__gnu_cxx5__ops15__val_comp_iterENS0_15_Iter_less_iterE, .Ltmp559-_ZN9__gnu_cxx5__ops15__val_comp_iterENS0_15_Iter_less_iterE
.Lfunc_end59:
	.cfi_endproc

	.section	.text._ZSt4moveIRdEONSt16remove_referenceIT_E4typeEOS2_,"axG",@progbits,_ZSt4moveIRdEONSt16remove_referenceIT_E4typeEOS2_,comdat
	.weak	_ZSt4moveIRdEONSt16remove_referenceIT_E4typeEOS2_
	.align	16, 0x90
	.type	_ZSt4moveIRdEONSt16remove_referenceIT_E4typeEOS2_,@function
_ZSt4moveIRdEONSt16remove_referenceIT_E4typeEOS2_: # @_ZSt4moveIRdEONSt16remove_referenceIT_E4typeEOS2_
.Lfunc_begin60:
	.file	66 "/usr/bin/../lib64/gcc/x86_64-unknown-linux-gnu/5.2.0/../../../../include/c++/5.2.0/bits" "move.h"
	.loc	66 102 0                # /usr/bin/../lib64/gcc/x86_64-unknown-linux-gnu/5.2.0/../../../../include/c++/5.2.0/bits/move.h:102:0
	.cfi_startproc
# BB#0:
	pushq	%rbp
.Ltmp560:
	.cfi_def_cfa_offset 16
.Ltmp561:
	.cfi_offset %rbp, -16
	movq	%rsp, %rbp
.Ltmp562:
	.cfi_def_cfa_register %rbp
	movq	%rdi, -8(%rbp)
	.loc	66 102 7 prologue_end   # /usr/bin/../lib64/gcc/x86_64-unknown-linux-gnu/5.2.0/../../../../include/c++/5.2.0/bits/move.h:102:7
.Ltmp563:
	movq	-8(%rbp), %rax
	popq	%rbp
	retq
.Ltmp564:
.Ltmp565:
	.size	_ZSt4moveIRdEONSt16remove_referenceIT_E4typeEOS2_, .Ltmp565-_ZSt4moveIRdEONSt16remove_referenceIT_E4typeEOS2_
.Lfunc_end60:
	.cfi_endproc

	.section	.text._ZNK9__gnu_cxx5__ops14_Val_less_iterclIdPdEEbRT_T0_,"axG",@progbits,_ZNK9__gnu_cxx5__ops14_Val_less_iterclIdPdEEbRT_T0_,comdat
	.weak	_ZNK9__gnu_cxx5__ops14_Val_less_iterclIdPdEEbRT_T0_
	.align	16, 0x90
	.type	_ZNK9__gnu_cxx5__ops14_Val_less_iterclIdPdEEbRT_T0_,@function
_ZNK9__gnu_cxx5__ops14_Val_less_iterclIdPdEEbRT_T0_: # @_ZNK9__gnu_cxx5__ops14_Val_less_iterclIdPdEEbRT_T0_
.Lfunc_begin61:
	.loc	45 71 0                 # /usr/bin/../lib64/gcc/x86_64-unknown-linux-gnu/5.2.0/../../../../include/c++/5.2.0/bits/predefined_ops.h:71:0
	.cfi_startproc
# BB#0:
	pushq	%rbp
.Ltmp566:
	.cfi_def_cfa_offset 16
.Ltmp567:
	.cfi_offset %rbp, -16
	movq	%rsp, %rbp
.Ltmp568:
	.cfi_def_cfa_register %rbp
	movq	%rdi, -8(%rbp)
	movq	%rsi, -16(%rbp)
	movq	%rdx, -24(%rbp)
	.loc	45 71 16 prologue_end   # /usr/bin/../lib64/gcc/x86_64-unknown-linux-gnu/5.2.0/../../../../include/c++/5.2.0/bits/predefined_ops.h:71:16
.Ltmp569:
	movq	-16(%rbp), %rdx
	movsd	(%rdx), %xmm0
	.loc	45 71 25 is_stmt 0      # /usr/bin/../lib64/gcc/x86_64-unknown-linux-gnu/5.2.0/../../../../include/c++/5.2.0/bits/predefined_ops.h:71:25
	movq	-24(%rbp), %rdx
	.loc	45 71 24                # /usr/bin/../lib64/gcc/x86_64-unknown-linux-gnu/5.2.0/../../../../include/c++/5.2.0/bits/predefined_ops.h:71:24
	movsd	(%rdx), %xmm1
	.loc	45 71 16                # /usr/bin/../lib64/gcc/x86_64-unknown-linux-gnu/5.2.0/../../../../include/c++/5.2.0/bits/predefined_ops.h:71:16
	ucomisd	%xmm0, %xmm1
	seta	%al
	.loc	45 71 9                 # /usr/bin/../lib64/gcc/x86_64-unknown-linux-gnu/5.2.0/../../../../include/c++/5.2.0/bits/predefined_ops.h:71:9
	andb	$1, %al
	movzbl	%al, %eax
	popq	%rbp
	retq
.Ltmp570:
.Ltmp571:
	.size	_ZNK9__gnu_cxx5__ops14_Val_less_iterclIdPdEEbRT_T0_, .Ltmp571-_ZNK9__gnu_cxx5__ops14_Val_less_iterclIdPdEEbRT_T0_
.Lfunc_end61:
	.cfi_endproc

	.section	.text._ZNK9__gnu_cxx5__ops15_Iter_less_iterclIPdS3_EEbT_T0_,"axG",@progbits,_ZNK9__gnu_cxx5__ops15_Iter_less_iterclIPdS3_EEbT_T0_,comdat
	.weak	_ZNK9__gnu_cxx5__ops15_Iter_less_iterclIPdS3_EEbT_T0_
	.align	16, 0x90
	.type	_ZNK9__gnu_cxx5__ops15_Iter_less_iterclIPdS3_EEbT_T0_,@function
_ZNK9__gnu_cxx5__ops15_Iter_less_iterclIPdS3_EEbT_T0_: # @_ZNK9__gnu_cxx5__ops15_Iter_less_iterclIPdS3_EEbT_T0_
.Lfunc_begin62:
	.loc	45 43 0 is_stmt 1       # /usr/bin/../lib64/gcc/x86_64-unknown-linux-gnu/5.2.0/../../../../include/c++/5.2.0/bits/predefined_ops.h:43:0
	.cfi_startproc
# BB#0:
	pushq	%rbp
.Ltmp572:
	.cfi_def_cfa_offset 16
.Ltmp573:
	.cfi_offset %rbp, -16
	movq	%rsp, %rbp
.Ltmp574:
	.cfi_def_cfa_register %rbp
	movq	%rdi, -8(%rbp)
	movq	%rsi, -16(%rbp)
	movq	%rdx, -24(%rbp)
	.loc	45 43 17 prologue_end   # /usr/bin/../lib64/gcc/x86_64-unknown-linux-gnu/5.2.0/../../../../include/c++/5.2.0/bits/predefined_ops.h:43:17
.Ltmp575:
	movq	-16(%rbp), %rdx
	.loc	45 43 16 is_stmt 0      # /usr/bin/../lib64/gcc/x86_64-unknown-linux-gnu/5.2.0/../../../../include/c++/5.2.0/bits/predefined_ops.h:43:16
	movsd	(%rdx), %xmm0
	.loc	45 43 26                # /usr/bin/../lib64/gcc/x86_64-unknown-linux-gnu/5.2.0/../../../../include/c++/5.2.0/bits/predefined_ops.h:43:26
	movq	-24(%rbp), %rdx
	.loc	45 43 25                # /usr/bin/../lib64/gcc/x86_64-unknown-linux-gnu/5.2.0/../../../../include/c++/5.2.0/bits/predefined_ops.h:43:25
	movsd	(%rdx), %xmm1
	.loc	45 43 16                # /usr/bin/../lib64/gcc/x86_64-unknown-linux-gnu/5.2.0/../../../../include/c++/5.2.0/bits/predefined_ops.h:43:16
	ucomisd	%xmm0, %xmm1
	seta	%al
	.loc	45 43 9                 # /usr/bin/../lib64/gcc/x86_64-unknown-linux-gnu/5.2.0/../../../../include/c++/5.2.0/bits/predefined_ops.h:43:9
	andb	$1, %al
	movzbl	%al, %eax
	popq	%rbp
	retq
.Ltmp576:
.Ltmp577:
	.size	_ZNK9__gnu_cxx5__ops15_Iter_less_iterclIPdS3_EEbT_T0_, .Ltmp577-_ZNK9__gnu_cxx5__ops15_Iter_less_iterclIPdS3_EEbT_T0_
.Lfunc_end62:
	.cfi_endproc

	.section	.text._ZSt13move_backwardIPdS0_ET0_T_S2_S1_,"axG",@progbits,_ZSt13move_backwardIPdS0_ET0_T_S2_S1_,comdat
	.weak	_ZSt13move_backwardIPdS0_ET0_T_S2_S1_
	.align	16, 0x90
	.type	_ZSt13move_backwardIPdS0_ET0_T_S2_S1_,@function
_ZSt13move_backwardIPdS0_ET0_T_S2_S1_:  # @_ZSt13move_backwardIPdS0_ET0_T_S2_S1_
.Lfunc_begin63:
	.loc	46 671 0 is_stmt 1      # /usr/bin/../lib64/gcc/x86_64-unknown-linux-gnu/5.2.0/../../../../include/c++/5.2.0/bits/stl_algobase.h:671:0
	.cfi_startproc
# BB#0:
	pushq	%rbp
.Ltmp578:
	.cfi_def_cfa_offset 16
.Ltmp579:
	.cfi_offset %rbp, -16
	movq	%rsp, %rbp
.Ltmp580:
	.cfi_def_cfa_register %rbp
	subq	$32, %rsp
	movq	%rdi, -8(%rbp)
	movq	%rsi, -16(%rbp)
	movq	%rdx, -24(%rbp)
	.loc	46 680 67 prologue_end  # /usr/bin/../lib64/gcc/x86_64-unknown-linux-gnu/5.2.0/../../../../include/c++/5.2.0/bits/stl_algobase.h:680:67
.Ltmp581:
	movq	-8(%rbp), %rdi
	.loc	46 680 49 is_stmt 0     # /usr/bin/../lib64/gcc/x86_64-unknown-linux-gnu/5.2.0/../../../../include/c++/5.2.0/bits/stl_algobase.h:680:49
	callq	_ZSt12__miter_baseIPdENSt11_Miter_baseIT_E13iterator_typeES2_
	.loc	46 681 25 is_stmt 1     # /usr/bin/../lib64/gcc/x86_64-unknown-linux-gnu/5.2.0/../../../../include/c++/5.2.0/bits/stl_algobase.h:681:25
	movq	-16(%rbp), %rdi
	.loc	46 681 7 is_stmt 0      # /usr/bin/../lib64/gcc/x86_64-unknown-linux-gnu/5.2.0/../../../../include/c++/5.2.0/bits/stl_algobase.h:681:7
	movq	%rax, -32(%rbp)         # 8-byte Spill
	callq	_ZSt12__miter_baseIPdENSt11_Miter_baseIT_E13iterator_typeES2_
	.loc	46 682 7 is_stmt 1      # /usr/bin/../lib64/gcc/x86_64-unknown-linux-gnu/5.2.0/../../../../include/c++/5.2.0/bits/stl_algobase.h:682:7
	movq	-24(%rbp), %rdx
	.loc	46 680 14               # /usr/bin/../lib64/gcc/x86_64-unknown-linux-gnu/5.2.0/../../../../include/c++/5.2.0/bits/stl_algobase.h:680:14
	movq	-32(%rbp), %rdi         # 8-byte Reload
	movq	%rax, %rsi
	callq	_ZSt23__copy_move_backward_a2ILb1EPdS0_ET1_T0_S2_S1_
	.loc	46 680 7 is_stmt 0      # /usr/bin/../lib64/gcc/x86_64-unknown-linux-gnu/5.2.0/../../../../include/c++/5.2.0/bits/stl_algobase.h:680:7
	addq	$32, %rsp
	popq	%rbp
	retq
.Ltmp582:
.Ltmp583:
	.size	_ZSt13move_backwardIPdS0_ET0_T_S2_S1_, .Ltmp583-_ZSt13move_backwardIPdS0_ET0_T_S2_S1_
.Lfunc_end63:
	.cfi_endproc

	.section	.text._ZSt23__copy_move_backward_a2ILb1EPdS0_ET1_T0_S2_S1_,"axG",@progbits,_ZSt23__copy_move_backward_a2ILb1EPdS0_ET1_T0_S2_S1_,comdat
	.weak	_ZSt23__copy_move_backward_a2ILb1EPdS0_ET1_T0_S2_S1_
	.align	16, 0x90
	.type	_ZSt23__copy_move_backward_a2ILb1EPdS0_ET1_T0_S2_S1_,@function
_ZSt23__copy_move_backward_a2ILb1EPdS0_ET1_T0_S2_S1_: # @_ZSt23__copy_move_backward_a2ILb1EPdS0_ET1_T0_S2_S1_
.Lfunc_begin64:
	.loc	46 608 0 is_stmt 1      # /usr/bin/../lib64/gcc/x86_64-unknown-linux-gnu/5.2.0/../../../../include/c++/5.2.0/bits/stl_algobase.h:608:0
	.cfi_startproc
# BB#0:
	pushq	%rbp
.Ltmp584:
	.cfi_def_cfa_offset 16
.Ltmp585:
	.cfi_offset %rbp, -16
	movq	%rsp, %rbp
.Ltmp586:
	.cfi_def_cfa_register %rbp
	subq	$48, %rsp
	movq	%rdi, -8(%rbp)
	movq	%rsi, -16(%rbp)
	movq	%rdx, -24(%rbp)
	.loc	46 610 24 prologue_end  # /usr/bin/../lib64/gcc/x86_64-unknown-linux-gnu/5.2.0/../../../../include/c++/5.2.0/bits/stl_algobase.h:610:24
.Ltmp587:
	movq	-8(%rbp), %rdi
	.loc	46 610 6 is_stmt 0      # /usr/bin/../lib64/gcc/x86_64-unknown-linux-gnu/5.2.0/../../../../include/c++/5.2.0/bits/stl_algobase.h:610:6
	callq	_ZSt12__niter_baseIPdENSt11_Niter_baseIT_E13iterator_typeES2_
	.loc	46 610 52               # /usr/bin/../lib64/gcc/x86_64-unknown-linux-gnu/5.2.0/../../../../include/c++/5.2.0/bits/stl_algobase.h:610:52
	movq	-16(%rbp), %rdi
	.loc	46 610 34               # /usr/bin/../lib64/gcc/x86_64-unknown-linux-gnu/5.2.0/../../../../include/c++/5.2.0/bits/stl_algobase.h:610:34
	movq	%rax, -32(%rbp)         # 8-byte Spill
	callq	_ZSt12__niter_baseIPdENSt11_Niter_baseIT_E13iterator_typeES2_
	.loc	46 611 24 is_stmt 1     # /usr/bin/../lib64/gcc/x86_64-unknown-linux-gnu/5.2.0/../../../../include/c++/5.2.0/bits/stl_algobase.h:611:24
	movq	-24(%rbp), %rdi
	.loc	46 611 6 is_stmt 0      # /usr/bin/../lib64/gcc/x86_64-unknown-linux-gnu/5.2.0/../../../../include/c++/5.2.0/bits/stl_algobase.h:611:6
	movq	%rax, -40(%rbp)         # 8-byte Spill
	callq	_ZSt12__niter_baseIPdENSt11_Niter_baseIT_E13iterator_typeES2_
	.loc	46 609 19 is_stmt 1     # /usr/bin/../lib64/gcc/x86_64-unknown-linux-gnu/5.2.0/../../../../include/c++/5.2.0/bits/stl_algobase.h:609:19
	movq	-32(%rbp), %rdi         # 8-byte Reload
	movq	-40(%rbp), %rsi         # 8-byte Reload
	movq	%rax, %rdx
	callq	_ZSt22__copy_move_backward_aILb1EPdS0_ET1_T0_S2_S1_
	.loc	46 609 7 is_stmt 0      # /usr/bin/../lib64/gcc/x86_64-unknown-linux-gnu/5.2.0/../../../../include/c++/5.2.0/bits/stl_algobase.h:609:7
	addq	$48, %rsp
	popq	%rbp
	retq
.Ltmp588:
.Ltmp589:
	.size	_ZSt23__copy_move_backward_a2ILb1EPdS0_ET1_T0_S2_S1_, .Ltmp589-_ZSt23__copy_move_backward_a2ILb1EPdS0_ET1_T0_S2_S1_
.Lfunc_end64:
	.cfi_endproc

	.section	.text._ZSt12__miter_baseIPdENSt11_Miter_baseIT_E13iterator_typeES2_,"axG",@progbits,_ZSt12__miter_baseIPdENSt11_Miter_baseIT_E13iterator_typeES2_,comdat
	.weak	_ZSt12__miter_baseIPdENSt11_Miter_baseIT_E13iterator_typeES2_
	.align	16, 0x90
	.type	_ZSt12__miter_baseIPdENSt11_Miter_baseIT_E13iterator_typeES2_,@function
_ZSt12__miter_baseIPdENSt11_Miter_baseIT_E13iterator_typeES2_: # @_ZSt12__miter_baseIPdENSt11_Miter_baseIT_E13iterator_typeES2_
.Lfunc_begin65:
	.loc	46 294 0 is_stmt 1      # /usr/bin/../lib64/gcc/x86_64-unknown-linux-gnu/5.2.0/../../../../include/c++/5.2.0/bits/stl_algobase.h:294:0
	.cfi_startproc
# BB#0:
	pushq	%rbp
.Ltmp590:
	.cfi_def_cfa_offset 16
.Ltmp591:
	.cfi_offset %rbp, -16
	movq	%rsp, %rbp
.Ltmp592:
	.cfi_def_cfa_register %rbp
	subq	$16, %rsp
	movq	%rdi, -8(%rbp)
	.loc	46 294 51 prologue_end  # /usr/bin/../lib64/gcc/x86_64-unknown-linux-gnu/5.2.0/../../../../include/c++/5.2.0/bits/stl_algobase.h:294:51
.Ltmp593:
	movq	-8(%rbp), %rdi
	.loc	46 294 14 is_stmt 0     # /usr/bin/../lib64/gcc/x86_64-unknown-linux-gnu/5.2.0/../../../../include/c++/5.2.0/bits/stl_algobase.h:294:14
	callq	_ZNSt10_Iter_baseIPdLb0EE7_S_baseES0_
	.loc	46 294 7                # /usr/bin/../lib64/gcc/x86_64-unknown-linux-gnu/5.2.0/../../../../include/c++/5.2.0/bits/stl_algobase.h:294:7
	addq	$16, %rsp
	popq	%rbp
	retq
.Ltmp594:
.Ltmp595:
	.size	_ZSt12__miter_baseIPdENSt11_Miter_baseIT_E13iterator_typeES2_, .Ltmp595-_ZSt12__miter_baseIPdENSt11_Miter_baseIT_E13iterator_typeES2_
.Lfunc_end65:
	.cfi_endproc

	.section	.text._ZNSt10_Iter_baseIPdLb0EE7_S_baseES0_,"axG",@progbits,_ZNSt10_Iter_baseIPdLb0EE7_S_baseES0_,comdat
	.weak	_ZNSt10_Iter_baseIPdLb0EE7_S_baseES0_
	.align	16, 0x90
	.type	_ZNSt10_Iter_baseIPdLb0EE7_S_baseES0_,@function
_ZNSt10_Iter_baseIPdLb0EE7_S_baseES0_:  # @_ZNSt10_Iter_baseIPdLb0EE7_S_baseES0_
.Lfunc_begin66:
	.loc	32 216 0 is_stmt 1      # /usr/bin/../lib64/gcc/x86_64-unknown-linux-gnu/5.2.0/../../../../include/c++/5.2.0/bits/stl_iterator_base_types.h:216:0
	.cfi_startproc
# BB#0:
	pushq	%rbp
.Ltmp596:
	.cfi_def_cfa_offset 16
.Ltmp597:
	.cfi_offset %rbp, -16
	movq	%rsp, %rbp
.Ltmp598:
	.cfi_def_cfa_register %rbp
	movq	%rdi, -8(%rbp)
	.loc	32 216 16 prologue_end  # /usr/bin/../lib64/gcc/x86_64-unknown-linux-gnu/5.2.0/../../../../include/c++/5.2.0/bits/stl_iterator_base_types.h:216:16
.Ltmp599:
	movq	-8(%rbp), %rax
	.loc	32 216 9 is_stmt 0      # /usr/bin/../lib64/gcc/x86_64-unknown-linux-gnu/5.2.0/../../../../include/c++/5.2.0/bits/stl_iterator_base_types.h:216:9
	popq	%rbp
	retq
.Ltmp600:
.Ltmp601:
	.size	_ZNSt10_Iter_baseIPdLb0EE7_S_baseES0_, .Ltmp601-_ZNSt10_Iter_baseIPdLb0EE7_S_baseES0_
.Lfunc_end66:
	.cfi_endproc

	.section	.text._ZSt22__copy_move_backward_aILb1EPdS0_ET1_T0_S2_S1_,"axG",@progbits,_ZSt22__copy_move_backward_aILb1EPdS0_ET1_T0_S2_S1_,comdat
	.weak	_ZSt22__copy_move_backward_aILb1EPdS0_ET1_T0_S2_S1_
	.align	16, 0x90
	.type	_ZSt22__copy_move_backward_aILb1EPdS0_ET1_T0_S2_S1_,@function
_ZSt22__copy_move_backward_aILb1EPdS0_ET1_T0_S2_S1_: # @_ZSt22__copy_move_backward_aILb1EPdS0_ET1_T0_S2_S1_
.Lfunc_begin67:
	.loc	46 590 0 is_stmt 1      # /usr/bin/../lib64/gcc/x86_64-unknown-linux-gnu/5.2.0/../../../../include/c++/5.2.0/bits/stl_algobase.h:590:0
	.cfi_startproc
# BB#0:
	pushq	%rbp
.Ltmp602:
	.cfi_def_cfa_offset 16
.Ltmp603:
	.cfi_offset %rbp, -16
	movq	%rsp, %rbp
.Ltmp604:
	.cfi_def_cfa_register %rbp
	subq	$32, %rsp
	movq	%rdi, -8(%rbp)
	movq	%rsi, -16(%rbp)
	movq	%rdx, -24(%rbp)
	.loc	46 594 18 prologue_end  # /usr/bin/../lib64/gcc/x86_64-unknown-linux-gnu/5.2.0/../../../../include/c++/5.2.0/bits/stl_algobase.h:594:18
.Ltmp605:
	movb	$1, -25(%rbp)
	.loc	46 600 59               # /usr/bin/../lib64/gcc/x86_64-unknown-linux-gnu/5.2.0/../../../../include/c++/5.2.0/bits/stl_algobase.h:600:59
	movq	-8(%rbp), %rdi
	.loc	46 601 10               # /usr/bin/../lib64/gcc/x86_64-unknown-linux-gnu/5.2.0/../../../../include/c++/5.2.0/bits/stl_algobase.h:601:10
	movq	-16(%rbp), %rsi
	.loc	46 602 10               # /usr/bin/../lib64/gcc/x86_64-unknown-linux-gnu/5.2.0/../../../../include/c++/5.2.0/bits/stl_algobase.h:602:10
	movq	-24(%rbp), %rdx
	.loc	46 599 14               # /usr/bin/../lib64/gcc/x86_64-unknown-linux-gnu/5.2.0/../../../../include/c++/5.2.0/bits/stl_algobase.h:599:14
	callq	_ZNSt20__copy_move_backwardILb1ELb1ESt26random_access_iterator_tagE13__copy_move_bIdEEPT_PKS3_S6_S4_
	.loc	46 599 7 is_stmt 0      # /usr/bin/../lib64/gcc/x86_64-unknown-linux-gnu/5.2.0/../../../../include/c++/5.2.0/bits/stl_algobase.h:599:7
	addq	$32, %rsp
	popq	%rbp
	retq
.Ltmp606:
.Ltmp607:
	.size	_ZSt22__copy_move_backward_aILb1EPdS0_ET1_T0_S2_S1_, .Ltmp607-_ZSt22__copy_move_backward_aILb1EPdS0_ET1_T0_S2_S1_
.Lfunc_end67:
	.cfi_endproc

	.section	.text._ZSt12__niter_baseIPdENSt11_Niter_baseIT_E13iterator_typeES2_,"axG",@progbits,_ZSt12__niter_baseIPdENSt11_Niter_baseIT_E13iterator_typeES2_,comdat
	.weak	_ZSt12__niter_baseIPdENSt11_Niter_baseIT_E13iterator_typeES2_
	.align	16, 0x90
	.type	_ZSt12__niter_baseIPdENSt11_Niter_baseIT_E13iterator_typeES2_,@function
_ZSt12__niter_baseIPdENSt11_Niter_baseIT_E13iterator_typeES2_: # @_ZSt12__niter_baseIPdENSt11_Niter_baseIT_E13iterator_typeES2_
.Lfunc_begin68:
	.loc	46 283 0 is_stmt 1      # /usr/bin/../lib64/gcc/x86_64-unknown-linux-gnu/5.2.0/../../../../include/c++/5.2.0/bits/stl_algobase.h:283:0
	.cfi_startproc
# BB#0:
	pushq	%rbp
.Ltmp608:
	.cfi_def_cfa_offset 16
.Ltmp609:
	.cfi_offset %rbp, -16
	movq	%rsp, %rbp
.Ltmp610:
	.cfi_def_cfa_register %rbp
	subq	$16, %rsp
	movq	%rdi, -8(%rbp)
	.loc	46 283 51 prologue_end  # /usr/bin/../lib64/gcc/x86_64-unknown-linux-gnu/5.2.0/../../../../include/c++/5.2.0/bits/stl_algobase.h:283:51
.Ltmp611:
	movq	-8(%rbp), %rdi
	.loc	46 283 14 is_stmt 0     # /usr/bin/../lib64/gcc/x86_64-unknown-linux-gnu/5.2.0/../../../../include/c++/5.2.0/bits/stl_algobase.h:283:14
	callq	_ZNSt10_Iter_baseIPdLb0EE7_S_baseES0_
	.loc	46 283 7                # /usr/bin/../lib64/gcc/x86_64-unknown-linux-gnu/5.2.0/../../../../include/c++/5.2.0/bits/stl_algobase.h:283:7
	addq	$16, %rsp
	popq	%rbp
	retq
.Ltmp612:
.Ltmp613:
	.size	_ZSt12__niter_baseIPdENSt11_Niter_baseIT_E13iterator_typeES2_, .Ltmp613-_ZSt12__niter_baseIPdENSt11_Niter_baseIT_E13iterator_typeES2_
.Lfunc_end68:
	.cfi_endproc

	.section	.text._ZNSt20__copy_move_backwardILb1ELb1ESt26random_access_iterator_tagE13__copy_move_bIdEEPT_PKS3_S6_S4_,"axG",@progbits,_ZNSt20__copy_move_backwardILb1ELb1ESt26random_access_iterator_tagE13__copy_move_bIdEEPT_PKS3_S6_S4_,comdat
	.weak	_ZNSt20__copy_move_backwardILb1ELb1ESt26random_access_iterator_tagE13__copy_move_bIdEEPT_PKS3_S6_S4_
	.align	16, 0x90
	.type	_ZNSt20__copy_move_backwardILb1ELb1ESt26random_access_iterator_tagE13__copy_move_bIdEEPT_PKS3_S6_S4_,@function
_ZNSt20__copy_move_backwardILb1ELb1ESt26random_access_iterator_tagE13__copy_move_bIdEEPT_PKS3_S6_S4_: # @_ZNSt20__copy_move_backwardILb1ELb1ESt26random_access_iterator_tagE13__copy_move_bIdEEPT_PKS3_S6_S4_
.Lfunc_begin69:
	.loc	46 574 0 is_stmt 1      # /usr/bin/../lib64/gcc/x86_64-unknown-linux-gnu/5.2.0/../../../../include/c++/5.2.0/bits/stl_algobase.h:574:0
	.cfi_startproc
# BB#0:
	pushq	%rbp
.Ltmp614:
	.cfi_def_cfa_offset 16
.Ltmp615:
	.cfi_offset %rbp, -16
	movq	%rsp, %rbp
.Ltmp616:
	.cfi_def_cfa_register %rbp
	subq	$48, %rsp
	movq	%rdi, -8(%rbp)
	movq	%rsi, -16(%rbp)
	movq	%rdx, -24(%rbp)
	.loc	46 580 27 prologue_end  # /usr/bin/../lib64/gcc/x86_64-unknown-linux-gnu/5.2.0/../../../../include/c++/5.2.0/bits/stl_algobase.h:580:27
.Ltmp617:
	movq	-16(%rbp), %rdx
	.loc	46 580 36 is_stmt 0     # /usr/bin/../lib64/gcc/x86_64-unknown-linux-gnu/5.2.0/../../../../include/c++/5.2.0/bits/stl_algobase.h:580:36
	movq	-8(%rbp), %rsi
	.loc	46 580 27               # /usr/bin/../lib64/gcc/x86_64-unknown-linux-gnu/5.2.0/../../../../include/c++/5.2.0/bits/stl_algobase.h:580:27
	subq	%rsi, %rdx
	sarq	$3, %rdx
	.loc	46 580 20               # /usr/bin/../lib64/gcc/x86_64-unknown-linux-gnu/5.2.0/../../../../include/c++/5.2.0/bits/stl_algobase.h:580:20
	movq	%rdx, -32(%rbp)
	.loc	46 581 8 is_stmt 1      # /usr/bin/../lib64/gcc/x86_64-unknown-linux-gnu/5.2.0/../../../../include/c++/5.2.0/bits/stl_algobase.h:581:8
	cmpq	$0, -32(%rbp)
	je	.LBB69_2
# BB#1:
	xorl	%eax, %eax
	movl	%eax, %ecx
	.loc	46 582 24               # /usr/bin/../lib64/gcc/x86_64-unknown-linux-gnu/5.2.0/../../../../include/c++/5.2.0/bits/stl_algobase.h:582:24
.Ltmp618:
	movq	-24(%rbp), %rdx
	subq	-32(%rbp), %rcx
	shlq	$3, %rcx
	addq	%rcx, %rdx
	.loc	46 582 41 is_stmt 0     # /usr/bin/../lib64/gcc/x86_64-unknown-linux-gnu/5.2.0/../../../../include/c++/5.2.0/bits/stl_algobase.h:582:41
	movq	-8(%rbp), %rcx
	.loc	46 582 64               # /usr/bin/../lib64/gcc/x86_64-unknown-linux-gnu/5.2.0/../../../../include/c++/5.2.0/bits/stl_algobase.h:582:64
	movq	-32(%rbp), %rsi
	.loc	46 582 50               # /usr/bin/../lib64/gcc/x86_64-unknown-linux-gnu/5.2.0/../../../../include/c++/5.2.0/bits/stl_algobase.h:582:50
	shlq	$3, %rsi
	.loc	46 582 6                # /usr/bin/../lib64/gcc/x86_64-unknown-linux-gnu/5.2.0/../../../../include/c++/5.2.0/bits/stl_algobase.h:582:6
	movq	%rdx, %rdi
	movq	%rsi, -40(%rbp)         # 8-byte Spill
	movq	%rcx, %rsi
	movq	-40(%rbp), %rdx         # 8-byte Reload
	callq	memmove
.Ltmp619:
.LBB69_2:
	xorl	%eax, %eax
	movl	%eax, %ecx
	.loc	46 583 11 is_stmt 1     # /usr/bin/../lib64/gcc/x86_64-unknown-linux-gnu/5.2.0/../../../../include/c++/5.2.0/bits/stl_algobase.h:583:11
	movq	-24(%rbp), %rdx
	subq	-32(%rbp), %rcx
	shlq	$3, %rcx
	addq	%rcx, %rdx
	.loc	46 583 4 is_stmt 0      # /usr/bin/../lib64/gcc/x86_64-unknown-linux-gnu/5.2.0/../../../../include/c++/5.2.0/bits/stl_algobase.h:583:4
	movq	%rdx, %rax
	addq	$48, %rsp
	popq	%rbp
	retq
.Ltmp620:
.Ltmp621:
	.size	_ZNSt20__copy_move_backwardILb1ELb1ESt26random_access_iterator_tagE13__copy_move_bIdEEPT_PKS3_S6_S4_, .Ltmp621-_ZNSt20__copy_move_backwardILb1ELb1ESt26random_access_iterator_tagE13__copy_move_bIdEEPT_PKS3_S6_S4_
.Lfunc_end69:
	.cfi_endproc

	.section	.text._ZSt14__partial_sortIPdN9__gnu_cxx5__ops15_Iter_less_iterEEvT_S4_S4_T0_,"axG",@progbits,_ZSt14__partial_sortIPdN9__gnu_cxx5__ops15_Iter_less_iterEEvT_S4_S4_T0_,comdat
	.weak	_ZSt14__partial_sortIPdN9__gnu_cxx5__ops15_Iter_less_iterEEvT_S4_S4_T0_
	.align	16, 0x90
	.type	_ZSt14__partial_sortIPdN9__gnu_cxx5__ops15_Iter_less_iterEEvT_S4_S4_T0_,@function
_ZSt14__partial_sortIPdN9__gnu_cxx5__ops15_Iter_less_iterEEvT_S4_S4_T0_: # @_ZSt14__partial_sortIPdN9__gnu_cxx5__ops15_Iter_less_iterEEvT_S4_S4_T0_
.Lfunc_begin70:
	.loc	11 1927 0 is_stmt 1     # /usr/bin/../lib64/gcc/x86_64-unknown-linux-gnu/5.2.0/../../../../include/c++/5.2.0/bits/stl_algo.h:1927:0
	.cfi_startproc
# BB#0:
	pushq	%rbp
.Ltmp622:
	.cfi_def_cfa_offset 16
.Ltmp623:
	.cfi_offset %rbp, -16
	movq	%rsp, %rbp
.Ltmp624:
	.cfi_def_cfa_register %rbp
	subq	$48, %rsp
	movq	%rdi, -16(%rbp)
	movq	%rsi, -24(%rbp)
	movq	%rdx, -32(%rbp)
	.loc	11 1928 26 prologue_end # /usr/bin/../lib64/gcc/x86_64-unknown-linux-gnu/5.2.0/../../../../include/c++/5.2.0/bits/stl_algo.h:1928:26
.Ltmp625:
	movq	-16(%rbp), %rdi
	.loc	11 1928 35 is_stmt 0    # /usr/bin/../lib64/gcc/x86_64-unknown-linux-gnu/5.2.0/../../../../include/c++/5.2.0/bits/stl_algo.h:1928:35
	movq	-24(%rbp), %rsi
	.loc	11 1928 45              # /usr/bin/../lib64/gcc/x86_64-unknown-linux-gnu/5.2.0/../../../../include/c++/5.2.0/bits/stl_algo.h:1928:45
	movq	-32(%rbp), %rdx
	.loc	11 1928 7               # /usr/bin/../lib64/gcc/x86_64-unknown-linux-gnu/5.2.0/../../../../include/c++/5.2.0/bits/stl_algo.h:1928:7
	callq	_ZSt13__heap_selectIPdN9__gnu_cxx5__ops15_Iter_less_iterEEvT_S4_S4_T0_
	.loc	11 1929 24 is_stmt 1    # /usr/bin/../lib64/gcc/x86_64-unknown-linux-gnu/5.2.0/../../../../include/c++/5.2.0/bits/stl_algo.h:1929:24
	movq	-16(%rbp), %rdi
	.loc	11 1929 33 is_stmt 0    # /usr/bin/../lib64/gcc/x86_64-unknown-linux-gnu/5.2.0/../../../../include/c++/5.2.0/bits/stl_algo.h:1929:33
	movq	-24(%rbp), %rsi
	.loc	11 1929 7               # /usr/bin/../lib64/gcc/x86_64-unknown-linux-gnu/5.2.0/../../../../include/c++/5.2.0/bits/stl_algo.h:1929:7
	callq	_ZSt11__sort_heapIPdN9__gnu_cxx5__ops15_Iter_less_iterEEvT_S4_T0_
	.loc	11 1930 5 is_stmt 1     # /usr/bin/../lib64/gcc/x86_64-unknown-linux-gnu/5.2.0/../../../../include/c++/5.2.0/bits/stl_algo.h:1930:5
	addq	$48, %rsp
	popq	%rbp
	retq
.Ltmp626:
.Ltmp627:
	.size	_ZSt14__partial_sortIPdN9__gnu_cxx5__ops15_Iter_less_iterEEvT_S4_S4_T0_, .Ltmp627-_ZSt14__partial_sortIPdN9__gnu_cxx5__ops15_Iter_less_iterEEvT_S4_S4_T0_
.Lfunc_end70:
	.cfi_endproc

	.section	.text._ZSt27__unguarded_partition_pivotIPdN9__gnu_cxx5__ops15_Iter_less_iterEET_S4_S4_T0_,"axG",@progbits,_ZSt27__unguarded_partition_pivotIPdN9__gnu_cxx5__ops15_Iter_less_iterEET_S4_S4_T0_,comdat
	.weak	_ZSt27__unguarded_partition_pivotIPdN9__gnu_cxx5__ops15_Iter_less_iterEET_S4_S4_T0_
	.align	16, 0x90
	.type	_ZSt27__unguarded_partition_pivotIPdN9__gnu_cxx5__ops15_Iter_less_iterEET_S4_S4_T0_,@function
_ZSt27__unguarded_partition_pivotIPdN9__gnu_cxx5__ops15_Iter_less_iterEET_S4_S4_T0_: # @_ZSt27__unguarded_partition_pivotIPdN9__gnu_cxx5__ops15_Iter_less_iterEET_S4_S4_T0_
.Lfunc_begin71:
	.loc	11 1914 0               # /usr/bin/../lib64/gcc/x86_64-unknown-linux-gnu/5.2.0/../../../../include/c++/5.2.0/bits/stl_algo.h:1914:0
	.cfi_startproc
# BB#0:
	pushq	%rbp
.Ltmp628:
	.cfi_def_cfa_offset 16
.Ltmp629:
	.cfi_offset %rbp, -16
	movq	%rsp, %rbp
.Ltmp630:
	.cfi_def_cfa_register %rbp
	subq	$64, %rsp
	movl	$2, %eax
	movl	%eax, %ecx
	movq	%rdi, -16(%rbp)
	movq	%rsi, -24(%rbp)
	.loc	11 1915 37 prologue_end # /usr/bin/../lib64/gcc/x86_64-unknown-linux-gnu/5.2.0/../../../../include/c++/5.2.0/bits/stl_algo.h:1915:37
.Ltmp631:
	movq	-16(%rbp), %rsi
	.loc	11 1915 48 is_stmt 0    # /usr/bin/../lib64/gcc/x86_64-unknown-linux-gnu/5.2.0/../../../../include/c++/5.2.0/bits/stl_algo.h:1915:48
	movq	-24(%rbp), %rdi
	.loc	11 1915 57              # /usr/bin/../lib64/gcc/x86_64-unknown-linux-gnu/5.2.0/../../../../include/c++/5.2.0/bits/stl_algo.h:1915:57
	movq	-16(%rbp), %rdx
	.loc	11 1915 48              # /usr/bin/../lib64/gcc/x86_64-unknown-linux-gnu/5.2.0/../../../../include/c++/5.2.0/bits/stl_algo.h:1915:48
	subq	%rdx, %rdi
	sarq	$3, %rdi
	.loc	11 1915 47              # /usr/bin/../lib64/gcc/x86_64-unknown-linux-gnu/5.2.0/../../../../include/c++/5.2.0/bits/stl_algo.h:1915:47
	movq	%rdi, %rax
	cqto
	idivq	%rcx
	.loc	11 1915 37              # /usr/bin/../lib64/gcc/x86_64-unknown-linux-gnu/5.2.0/../../../../include/c++/5.2.0/bits/stl_algo.h:1915:37
	shlq	$3, %rax
	addq	%rax, %rsi
	.loc	11 1915 29              # /usr/bin/../lib64/gcc/x86_64-unknown-linux-gnu/5.2.0/../../../../include/c++/5.2.0/bits/stl_algo.h:1915:29
	movq	%rsi, -32(%rbp)
	.loc	11 1916 35 is_stmt 1    # /usr/bin/../lib64/gcc/x86_64-unknown-linux-gnu/5.2.0/../../../../include/c++/5.2.0/bits/stl_algo.h:1916:35
	movq	-16(%rbp), %rdi
	.loc	11 1916 44 is_stmt 0    # /usr/bin/../lib64/gcc/x86_64-unknown-linux-gnu/5.2.0/../../../../include/c++/5.2.0/bits/stl_algo.h:1916:44
	movq	-16(%rbp), %rax
	addq	$8, %rax
	.loc	11 1916 57              # /usr/bin/../lib64/gcc/x86_64-unknown-linux-gnu/5.2.0/../../../../include/c++/5.2.0/bits/stl_algo.h:1916:57
	movq	-32(%rbp), %rcx
	.loc	11 1916 64              # /usr/bin/../lib64/gcc/x86_64-unknown-linux-gnu/5.2.0/../../../../include/c++/5.2.0/bits/stl_algo.h:1916:64
	movq	-24(%rbp), %rsi
	addq	$-8, %rsi
	.loc	11 1916 7               # /usr/bin/../lib64/gcc/x86_64-unknown-linux-gnu/5.2.0/../../../../include/c++/5.2.0/bits/stl_algo.h:1916:7
	movq	%rsi, -56(%rbp)         # 8-byte Spill
	movq	%rax, %rsi
	movq	%rcx, %rdx
	movq	-56(%rbp), %rcx         # 8-byte Reload
	callq	_ZSt22__move_median_to_firstIPdN9__gnu_cxx5__ops15_Iter_less_iterEEvT_S4_S4_S4_T0_
	.loc	11 1918 41 is_stmt 1    # /usr/bin/../lib64/gcc/x86_64-unknown-linux-gnu/5.2.0/../../../../include/c++/5.2.0/bits/stl_algo.h:1918:41
	movq	-16(%rbp), %rax
	addq	$8, %rax
	.loc	11 1918 54 is_stmt 0    # /usr/bin/../lib64/gcc/x86_64-unknown-linux-gnu/5.2.0/../../../../include/c++/5.2.0/bits/stl_algo.h:1918:54
	movq	-24(%rbp), %rsi
	.loc	11 1918 62              # /usr/bin/../lib64/gcc/x86_64-unknown-linux-gnu/5.2.0/../../../../include/c++/5.2.0/bits/stl_algo.h:1918:62
	movq	-16(%rbp), %rdx
	.loc	11 1918 14              # /usr/bin/../lib64/gcc/x86_64-unknown-linux-gnu/5.2.0/../../../../include/c++/5.2.0/bits/stl_algo.h:1918:14
	movq	%rax, %rdi
	callq	_ZSt21__unguarded_partitionIPdN9__gnu_cxx5__ops15_Iter_less_iterEET_S4_S4_S4_T0_
	.loc	11 1918 7               # /usr/bin/../lib64/gcc/x86_64-unknown-linux-gnu/5.2.0/../../../../include/c++/5.2.0/bits/stl_algo.h:1918:7
	addq	$64, %rsp
	popq	%rbp
	retq
.Ltmp632:
.Ltmp633:
	.size	_ZSt27__unguarded_partition_pivotIPdN9__gnu_cxx5__ops15_Iter_less_iterEET_S4_S4_T0_, .Ltmp633-_ZSt27__unguarded_partition_pivotIPdN9__gnu_cxx5__ops15_Iter_less_iterEET_S4_S4_T0_
.Lfunc_end71:
	.cfi_endproc

	.section	.text._ZSt22__move_median_to_firstIPdN9__gnu_cxx5__ops15_Iter_less_iterEEvT_S4_S4_S4_T0_,"axG",@progbits,_ZSt22__move_median_to_firstIPdN9__gnu_cxx5__ops15_Iter_less_iterEEvT_S4_S4_S4_T0_,comdat
	.weak	_ZSt22__move_median_to_firstIPdN9__gnu_cxx5__ops15_Iter_less_iterEEvT_S4_S4_S4_T0_
	.align	16, 0x90
	.type	_ZSt22__move_median_to_firstIPdN9__gnu_cxx5__ops15_Iter_less_iterEEvT_S4_S4_S4_T0_,@function
_ZSt22__move_median_to_firstIPdN9__gnu_cxx5__ops15_Iter_less_iterEEvT_S4_S4_S4_T0_: # @_ZSt22__move_median_to_firstIPdN9__gnu_cxx5__ops15_Iter_less_iterEEvT_S4_S4_S4_T0_
.Lfunc_begin72:
	.loc	11 80 0 is_stmt 1       # /usr/bin/../lib64/gcc/x86_64-unknown-linux-gnu/5.2.0/../../../../include/c++/5.2.0/bits/stl_algo.h:80:0
	.cfi_startproc
# BB#0:
	pushq	%rbp
.Ltmp634:
	.cfi_def_cfa_offset 16
.Ltmp635:
	.cfi_offset %rbp, -16
	movq	%rsp, %rbp
.Ltmp636:
	.cfi_def_cfa_register %rbp
	subq	$48, %rsp
	leaq	-8(%rbp), %rax
	movq	%rdi, -16(%rbp)
	movq	%rsi, -24(%rbp)
	movq	%rdx, -32(%rbp)
	movq	%rcx, -40(%rbp)
	#DEBUG_VALUE: __move_median_to_first<double *, __gnu_cxx::__ops::_Iter_less_iter>:__comp <- RAX
	.loc	11 81 18 prologue_end   # /usr/bin/../lib64/gcc/x86_64-unknown-linux-gnu/5.2.0/../../../../include/c++/5.2.0/bits/stl_algo.h:81:18
.Ltmp637:
	movq	-24(%rbp), %rsi
	.loc	11 81 23 is_stmt 0      # /usr/bin/../lib64/gcc/x86_64-unknown-linux-gnu/5.2.0/../../../../include/c++/5.2.0/bits/stl_algo.h:81:23
	movq	-32(%rbp), %rdx
	.loc	11 81 11                # /usr/bin/../lib64/gcc/x86_64-unknown-linux-gnu/5.2.0/../../../../include/c++/5.2.0/bits/stl_algo.h:81:11
	movq	%rax, %rdi
	callq	_ZNK9__gnu_cxx5__ops15_Iter_less_iterclIPdS3_EEbT_T0_
.Ltmp638:
	.loc	11 81 11                # /usr/bin/../lib64/gcc/x86_64-unknown-linux-gnu/5.2.0/../../../../include/c++/5.2.0/bits/stl_algo.h:81:11
	testb	$1, %al
	jne	.LBB72_1
	jmp	.LBB72_8
.LBB72_1:
	leaq	-8(%rbp), %rdi
	.loc	11 83 15 is_stmt 1      # /usr/bin/../lib64/gcc/x86_64-unknown-linux-gnu/5.2.0/../../../../include/c++/5.2.0/bits/stl_algo.h:83:15
.Ltmp639:
	movq	-32(%rbp), %rsi
	.loc	11 83 20 is_stmt 0      # /usr/bin/../lib64/gcc/x86_64-unknown-linux-gnu/5.2.0/../../../../include/c++/5.2.0/bits/stl_algo.h:83:20
	movq	-40(%rbp), %rdx
	.loc	11 83 8                 # /usr/bin/../lib64/gcc/x86_64-unknown-linux-gnu/5.2.0/../../../../include/c++/5.2.0/bits/stl_algo.h:83:8
	callq	_ZNK9__gnu_cxx5__ops15_Iter_less_iterclIPdS3_EEbT_T0_
.Ltmp640:
	.loc	11 83 8                 # /usr/bin/../lib64/gcc/x86_64-unknown-linux-gnu/5.2.0/../../../../include/c++/5.2.0/bits/stl_algo.h:83:8
	testb	$1, %al
	jne	.LBB72_2
	jmp	.LBB72_3
.LBB72_2:
	.loc	11 84 21 is_stmt 1      # /usr/bin/../lib64/gcc/x86_64-unknown-linux-gnu/5.2.0/../../../../include/c++/5.2.0/bits/stl_algo.h:84:21
.Ltmp641:
	movq	-16(%rbp), %rdi
	.loc	11 84 31 is_stmt 0      # /usr/bin/../lib64/gcc/x86_64-unknown-linux-gnu/5.2.0/../../../../include/c++/5.2.0/bits/stl_algo.h:84:31
	movq	-32(%rbp), %rsi
	.loc	11 84 6                 # /usr/bin/../lib64/gcc/x86_64-unknown-linux-gnu/5.2.0/../../../../include/c++/5.2.0/bits/stl_algo.h:84:6
	callq	_ZSt9iter_swapIPdS0_EvT_T0_
	jmp	.LBB72_7
.LBB72_3:
	leaq	-8(%rbp), %rdi
	.loc	11 85 20 is_stmt 1      # /usr/bin/../lib64/gcc/x86_64-unknown-linux-gnu/5.2.0/../../../../include/c++/5.2.0/bits/stl_algo.h:85:20
.Ltmp642:
	movq	-24(%rbp), %rsi
	.loc	11 85 25 is_stmt 0      # /usr/bin/../lib64/gcc/x86_64-unknown-linux-gnu/5.2.0/../../../../include/c++/5.2.0/bits/stl_algo.h:85:25
	movq	-40(%rbp), %rdx
	.loc	11 85 13                # /usr/bin/../lib64/gcc/x86_64-unknown-linux-gnu/5.2.0/../../../../include/c++/5.2.0/bits/stl_algo.h:85:13
	callq	_ZNK9__gnu_cxx5__ops15_Iter_less_iterclIPdS3_EEbT_T0_
.Ltmp643:
	.loc	11 85 13                # /usr/bin/../lib64/gcc/x86_64-unknown-linux-gnu/5.2.0/../../../../include/c++/5.2.0/bits/stl_algo.h:85:13
	testb	$1, %al
	jne	.LBB72_4
	jmp	.LBB72_5
.LBB72_4:
	.loc	11 86 21 is_stmt 1      # /usr/bin/../lib64/gcc/x86_64-unknown-linux-gnu/5.2.0/../../../../include/c++/5.2.0/bits/stl_algo.h:86:21
.Ltmp644:
	movq	-16(%rbp), %rdi
	.loc	11 86 31 is_stmt 0      # /usr/bin/../lib64/gcc/x86_64-unknown-linux-gnu/5.2.0/../../../../include/c++/5.2.0/bits/stl_algo.h:86:31
	movq	-40(%rbp), %rsi
	.loc	11 86 6                 # /usr/bin/../lib64/gcc/x86_64-unknown-linux-gnu/5.2.0/../../../../include/c++/5.2.0/bits/stl_algo.h:86:6
	callq	_ZSt9iter_swapIPdS0_EvT_T0_
	jmp	.LBB72_6
.LBB72_5:
	.loc	11 88 21 is_stmt 1      # /usr/bin/../lib64/gcc/x86_64-unknown-linux-gnu/5.2.0/../../../../include/c++/5.2.0/bits/stl_algo.h:88:21
	movq	-16(%rbp), %rdi
	.loc	11 88 31 is_stmt 0      # /usr/bin/../lib64/gcc/x86_64-unknown-linux-gnu/5.2.0/../../../../include/c++/5.2.0/bits/stl_algo.h:88:31
	movq	-24(%rbp), %rsi
	.loc	11 88 6                 # /usr/bin/../lib64/gcc/x86_64-unknown-linux-gnu/5.2.0/../../../../include/c++/5.2.0/bits/stl_algo.h:88:6
	callq	_ZSt9iter_swapIPdS0_EvT_T0_
.Ltmp645:
.LBB72_6:
	jmp	.LBB72_7
.LBB72_7:
	.loc	11 89 2 is_stmt 1       # /usr/bin/../lib64/gcc/x86_64-unknown-linux-gnu/5.2.0/../../../../include/c++/5.2.0/bits/stl_algo.h:89:2
	jmp	.LBB72_15
.Ltmp646:
.LBB72_8:
	leaq	-8(%rbp), %rdi
	.loc	11 90 23                # /usr/bin/../lib64/gcc/x86_64-unknown-linux-gnu/5.2.0/../../../../include/c++/5.2.0/bits/stl_algo.h:90:23
.Ltmp647:
	movq	-24(%rbp), %rsi
	.loc	11 90 28 is_stmt 0      # /usr/bin/../lib64/gcc/x86_64-unknown-linux-gnu/5.2.0/../../../../include/c++/5.2.0/bits/stl_algo.h:90:28
	movq	-40(%rbp), %rdx
	.loc	11 90 16                # /usr/bin/../lib64/gcc/x86_64-unknown-linux-gnu/5.2.0/../../../../include/c++/5.2.0/bits/stl_algo.h:90:16
	callq	_ZNK9__gnu_cxx5__ops15_Iter_less_iterclIPdS3_EEbT_T0_
.Ltmp648:
	.loc	11 90 16                # /usr/bin/../lib64/gcc/x86_64-unknown-linux-gnu/5.2.0/../../../../include/c++/5.2.0/bits/stl_algo.h:90:16
	testb	$1, %al
	jne	.LBB72_9
	jmp	.LBB72_10
.LBB72_9:
	.loc	11 91 17 is_stmt 1      # /usr/bin/../lib64/gcc/x86_64-unknown-linux-gnu/5.2.0/../../../../include/c++/5.2.0/bits/stl_algo.h:91:17
.Ltmp649:
	movq	-16(%rbp), %rdi
	.loc	11 91 27 is_stmt 0      # /usr/bin/../lib64/gcc/x86_64-unknown-linux-gnu/5.2.0/../../../../include/c++/5.2.0/bits/stl_algo.h:91:27
	movq	-24(%rbp), %rsi
	.loc	11 91 2                 # /usr/bin/../lib64/gcc/x86_64-unknown-linux-gnu/5.2.0/../../../../include/c++/5.2.0/bits/stl_algo.h:91:2
	callq	_ZSt9iter_swapIPdS0_EvT_T0_
	jmp	.LBB72_14
.LBB72_10:
	leaq	-8(%rbp), %rdi
	.loc	11 92 23 is_stmt 1      # /usr/bin/../lib64/gcc/x86_64-unknown-linux-gnu/5.2.0/../../../../include/c++/5.2.0/bits/stl_algo.h:92:23
.Ltmp650:
	movq	-32(%rbp), %rsi
	.loc	11 92 28 is_stmt 0      # /usr/bin/../lib64/gcc/x86_64-unknown-linux-gnu/5.2.0/../../../../include/c++/5.2.0/bits/stl_algo.h:92:28
	movq	-40(%rbp), %rdx
	.loc	11 92 16                # /usr/bin/../lib64/gcc/x86_64-unknown-linux-gnu/5.2.0/../../../../include/c++/5.2.0/bits/stl_algo.h:92:16
	callq	_ZNK9__gnu_cxx5__ops15_Iter_less_iterclIPdS3_EEbT_T0_
.Ltmp651:
	.loc	11 92 16                # /usr/bin/../lib64/gcc/x86_64-unknown-linux-gnu/5.2.0/../../../../include/c++/5.2.0/bits/stl_algo.h:92:16
	testb	$1, %al
	jne	.LBB72_11
	jmp	.LBB72_12
.LBB72_11:
	.loc	11 93 17 is_stmt 1      # /usr/bin/../lib64/gcc/x86_64-unknown-linux-gnu/5.2.0/../../../../include/c++/5.2.0/bits/stl_algo.h:93:17
.Ltmp652:
	movq	-16(%rbp), %rdi
	.loc	11 93 27 is_stmt 0      # /usr/bin/../lib64/gcc/x86_64-unknown-linux-gnu/5.2.0/../../../../include/c++/5.2.0/bits/stl_algo.h:93:27
	movq	-40(%rbp), %rsi
	.loc	11 93 2                 # /usr/bin/../lib64/gcc/x86_64-unknown-linux-gnu/5.2.0/../../../../include/c++/5.2.0/bits/stl_algo.h:93:2
	callq	_ZSt9iter_swapIPdS0_EvT_T0_
	jmp	.LBB72_13
.LBB72_12:
	.loc	11 95 17 is_stmt 1      # /usr/bin/../lib64/gcc/x86_64-unknown-linux-gnu/5.2.0/../../../../include/c++/5.2.0/bits/stl_algo.h:95:17
	movq	-16(%rbp), %rdi
	.loc	11 95 27 is_stmt 0      # /usr/bin/../lib64/gcc/x86_64-unknown-linux-gnu/5.2.0/../../../../include/c++/5.2.0/bits/stl_algo.h:95:27
	movq	-32(%rbp), %rsi
	.loc	11 95 2                 # /usr/bin/../lib64/gcc/x86_64-unknown-linux-gnu/5.2.0/../../../../include/c++/5.2.0/bits/stl_algo.h:95:2
	callq	_ZSt9iter_swapIPdS0_EvT_T0_
.Ltmp653:
.LBB72_13:
	jmp	.LBB72_14
.LBB72_14:
	jmp	.LBB72_15
.LBB72_15:
	.loc	11 96 5 is_stmt 1       # /usr/bin/../lib64/gcc/x86_64-unknown-linux-gnu/5.2.0/../../../../include/c++/5.2.0/bits/stl_algo.h:96:5
	addq	$48, %rsp
	popq	%rbp
	retq
.Ltmp654:
.Ltmp655:
	.size	_ZSt22__move_median_to_firstIPdN9__gnu_cxx5__ops15_Iter_less_iterEEvT_S4_S4_S4_T0_, .Ltmp655-_ZSt22__move_median_to_firstIPdN9__gnu_cxx5__ops15_Iter_less_iterEEvT_S4_S4_S4_T0_
.Lfunc_end72:
	.cfi_endproc

	.section	.text._ZSt21__unguarded_partitionIPdN9__gnu_cxx5__ops15_Iter_less_iterEET_S4_S4_S4_T0_,"axG",@progbits,_ZSt21__unguarded_partitionIPdN9__gnu_cxx5__ops15_Iter_less_iterEET_S4_S4_S4_T0_,comdat
	.weak	_ZSt21__unguarded_partitionIPdN9__gnu_cxx5__ops15_Iter_less_iterEET_S4_S4_S4_T0_
	.align	16, 0x90
	.type	_ZSt21__unguarded_partitionIPdN9__gnu_cxx5__ops15_Iter_less_iterEET_S4_S4_S4_T0_,@function
_ZSt21__unguarded_partitionIPdN9__gnu_cxx5__ops15_Iter_less_iterEET_S4_S4_S4_T0_: # @_ZSt21__unguarded_partitionIPdN9__gnu_cxx5__ops15_Iter_less_iterEET_S4_S4_S4_T0_
.Lfunc_begin73:
	.loc	11 1894 0               # /usr/bin/../lib64/gcc/x86_64-unknown-linux-gnu/5.2.0/../../../../include/c++/5.2.0/bits/stl_algo.h:1894:0
	.cfi_startproc
# BB#0:
	pushq	%rbp
.Ltmp656:
	.cfi_def_cfa_offset 16
.Ltmp657:
	.cfi_offset %rbp, -16
	movq	%rsp, %rbp
.Ltmp658:
	.cfi_def_cfa_register %rbp
	subq	$32, %rsp
	movq	%rdi, -16(%rbp)
	movq	%rsi, -24(%rbp)
	movq	%rdx, -32(%rbp)
.LBB73_1:                               # =>This Loop Header: Depth=1
                                        #     Child Loop BB73_2 Depth 2
                                        #     Child Loop BB73_5 Depth 2
	.loc	11 1897 4 prologue_end  # /usr/bin/../lib64/gcc/x86_64-unknown-linux-gnu/5.2.0/../../../../include/c++/5.2.0/bits/stl_algo.h:1897:4
.Ltmp659:
	jmp	.LBB73_2
.LBB73_2:                               #   Parent Loop BB73_1 Depth=1
                                        # =>  This Inner Loop Header: Depth=2
	leaq	-8(%rbp), %rdi
	.loc	11 1897 18 is_stmt 0 discriminator 2 # /usr/bin/../lib64/gcc/x86_64-unknown-linux-gnu/5.2.0/../../../../include/c++/5.2.0/bits/stl_algo.h:1897:18
.Ltmp660:
	movq	-16(%rbp), %rsi
.Ltmp661:
	.loc	11 1897 27              # /usr/bin/../lib64/gcc/x86_64-unknown-linux-gnu/5.2.0/../../../../include/c++/5.2.0/bits/stl_algo.h:1897:27
	movq	-32(%rbp), %rdx
	.loc	11 1897 11              # /usr/bin/../lib64/gcc/x86_64-unknown-linux-gnu/5.2.0/../../../../include/c++/5.2.0/bits/stl_algo.h:1897:11
	callq	_ZNK9__gnu_cxx5__ops15_Iter_less_iterclIPdS3_EEbT_T0_
	.loc	11 1897 4               # /usr/bin/../lib64/gcc/x86_64-unknown-linux-gnu/5.2.0/../../../../include/c++/5.2.0/bits/stl_algo.h:1897:4
	testb	$1, %al
	jne	.LBB73_3
	jmp	.LBB73_4
.LBB73_3:                               #   in Loop: Header=BB73_2 Depth=2
	.loc	11 1898 6 is_stmt 1     # /usr/bin/../lib64/gcc/x86_64-unknown-linux-gnu/5.2.0/../../../../include/c++/5.2.0/bits/stl_algo.h:1898:6
	movq	-16(%rbp), %rax
	addq	$8, %rax
	movq	%rax, -16(%rbp)
	.loc	11 1897 4               # /usr/bin/../lib64/gcc/x86_64-unknown-linux-gnu/5.2.0/../../../../include/c++/5.2.0/bits/stl_algo.h:1897:4
	jmp	.LBB73_2
.LBB73_4:                               #   in Loop: Header=BB73_1 Depth=1
	.loc	11 1899 4               # /usr/bin/../lib64/gcc/x86_64-unknown-linux-gnu/5.2.0/../../../../include/c++/5.2.0/bits/stl_algo.h:1899:4
	movq	-24(%rbp), %rax
	addq	$-8, %rax
	movq	%rax, -24(%rbp)
.LBB73_5:                               #   Parent Loop BB73_1 Depth=1
                                        # =>  This Inner Loop Header: Depth=2
	leaq	-8(%rbp), %rdi
	.loc	11 1900 18 discriminator 2 # /usr/bin/../lib64/gcc/x86_64-unknown-linux-gnu/5.2.0/../../../../include/c++/5.2.0/bits/stl_algo.h:1900:18
.Ltmp662:
	movq	-32(%rbp), %rsi
.Ltmp663:
	.loc	11 1900 27 is_stmt 0    # /usr/bin/../lib64/gcc/x86_64-unknown-linux-gnu/5.2.0/../../../../include/c++/5.2.0/bits/stl_algo.h:1900:27
	movq	-24(%rbp), %rdx
	.loc	11 1900 11              # /usr/bin/../lib64/gcc/x86_64-unknown-linux-gnu/5.2.0/../../../../include/c++/5.2.0/bits/stl_algo.h:1900:11
	callq	_ZNK9__gnu_cxx5__ops15_Iter_less_iterclIPdS3_EEbT_T0_
	.loc	11 1900 4               # /usr/bin/../lib64/gcc/x86_64-unknown-linux-gnu/5.2.0/../../../../include/c++/5.2.0/bits/stl_algo.h:1900:4
	testb	$1, %al
	jne	.LBB73_6
	jmp	.LBB73_7
.LBB73_6:                               #   in Loop: Header=BB73_5 Depth=2
	.loc	11 1901 6 is_stmt 1     # /usr/bin/../lib64/gcc/x86_64-unknown-linux-gnu/5.2.0/../../../../include/c++/5.2.0/bits/stl_algo.h:1901:6
	movq	-24(%rbp), %rax
	addq	$-8, %rax
	movq	%rax, -24(%rbp)
	.loc	11 1900 4               # /usr/bin/../lib64/gcc/x86_64-unknown-linux-gnu/5.2.0/../../../../include/c++/5.2.0/bits/stl_algo.h:1900:4
	jmp	.LBB73_5
.LBB73_7:                               #   in Loop: Header=BB73_1 Depth=1
	.loc	11 1902 10              # /usr/bin/../lib64/gcc/x86_64-unknown-linux-gnu/5.2.0/../../../../include/c++/5.2.0/bits/stl_algo.h:1902:10
.Ltmp664:
	movq	-16(%rbp), %rax
.Ltmp665:
	.loc	11 1902 8 is_stmt 0     # /usr/bin/../lib64/gcc/x86_64-unknown-linux-gnu/5.2.0/../../../../include/c++/5.2.0/bits/stl_algo.h:1902:8
	cmpq	-24(%rbp), %rax
	jb	.LBB73_9
# BB#8:
	.loc	11 1903 13 is_stmt 1    # /usr/bin/../lib64/gcc/x86_64-unknown-linux-gnu/5.2.0/../../../../include/c++/5.2.0/bits/stl_algo.h:1903:13
.Ltmp666:
	movq	-16(%rbp), %rax
	.loc	11 1903 6 is_stmt 0     # /usr/bin/../lib64/gcc/x86_64-unknown-linux-gnu/5.2.0/../../../../include/c++/5.2.0/bits/stl_algo.h:1903:6
	addq	$32, %rsp
	popq	%rbp
	retq
.Ltmp667:
.LBB73_9:                               #   in Loop: Header=BB73_1 Depth=1
	.loc	11 1904 19 is_stmt 1    # /usr/bin/../lib64/gcc/x86_64-unknown-linux-gnu/5.2.0/../../../../include/c++/5.2.0/bits/stl_algo.h:1904:19
	movq	-16(%rbp), %rdi
	.loc	11 1904 28 is_stmt 0    # /usr/bin/../lib64/gcc/x86_64-unknown-linux-gnu/5.2.0/../../../../include/c++/5.2.0/bits/stl_algo.h:1904:28
	movq	-24(%rbp), %rsi
	.loc	11 1904 4               # /usr/bin/../lib64/gcc/x86_64-unknown-linux-gnu/5.2.0/../../../../include/c++/5.2.0/bits/stl_algo.h:1904:4
	callq	_ZSt9iter_swapIPdS0_EvT_T0_
	.loc	11 1905 4 is_stmt 1     # /usr/bin/../lib64/gcc/x86_64-unknown-linux-gnu/5.2.0/../../../../include/c++/5.2.0/bits/stl_algo.h:1905:4
	movq	-16(%rbp), %rsi
	addq	$8, %rsi
	movq	%rsi, -16(%rbp)
.Ltmp668:
	.loc	11 1895 7               # /usr/bin/../lib64/gcc/x86_64-unknown-linux-gnu/5.2.0/../../../../include/c++/5.2.0/bits/stl_algo.h:1895:7
	jmp	.LBB73_1
.Ltmp669:
.Ltmp670:
	.size	_ZSt21__unguarded_partitionIPdN9__gnu_cxx5__ops15_Iter_less_iterEET_S4_S4_S4_T0_, .Ltmp670-_ZSt21__unguarded_partitionIPdN9__gnu_cxx5__ops15_Iter_less_iterEET_S4_S4_S4_T0_
.Lfunc_end73:
	.cfi_endproc

	.section	.text._ZSt9iter_swapIPdS0_EvT_T0_,"axG",@progbits,_ZSt9iter_swapIPdS0_EvT_T0_,comdat
	.weak	_ZSt9iter_swapIPdS0_EvT_T0_
	.align	16, 0x90
	.type	_ZSt9iter_swapIPdS0_EvT_T0_,@function
_ZSt9iter_swapIPdS0_EvT_T0_:            # @_ZSt9iter_swapIPdS0_EvT_T0_
.Lfunc_begin74:
	.loc	46 121 0                # /usr/bin/../lib64/gcc/x86_64-unknown-linux-gnu/5.2.0/../../../../include/c++/5.2.0/bits/stl_algobase.h:121:0
	.cfi_startproc
# BB#0:
	pushq	%rbp
.Ltmp671:
	.cfi_def_cfa_offset 16
.Ltmp672:
	.cfi_offset %rbp, -16
	movq	%rsp, %rbp
.Ltmp673:
	.cfi_def_cfa_register %rbp
	subq	$16, %rsp
	movq	%rdi, -8(%rbp)
	movq	%rsi, -16(%rbp)
	.loc	46 148 13 prologue_end  # /usr/bin/../lib64/gcc/x86_64-unknown-linux-gnu/5.2.0/../../../../include/c++/5.2.0/bits/stl_algobase.h:148:13
.Ltmp674:
	movq	-8(%rbp), %rdi
	.loc	46 148 19 is_stmt 0     # /usr/bin/../lib64/gcc/x86_64-unknown-linux-gnu/5.2.0/../../../../include/c++/5.2.0/bits/stl_algobase.h:148:19
	movq	-16(%rbp), %rsi
	.loc	46 148 7                # /usr/bin/../lib64/gcc/x86_64-unknown-linux-gnu/5.2.0/../../../../include/c++/5.2.0/bits/stl_algobase.h:148:7
	callq	_ZSt4swapIdEvRT_S1_
	.loc	46 150 5 is_stmt 1      # /usr/bin/../lib64/gcc/x86_64-unknown-linux-gnu/5.2.0/../../../../include/c++/5.2.0/bits/stl_algobase.h:150:5
	addq	$16, %rsp
	popq	%rbp
	retq
.Ltmp675:
.Ltmp676:
	.size	_ZSt9iter_swapIPdS0_EvT_T0_, .Ltmp676-_ZSt9iter_swapIPdS0_EvT_T0_
.Lfunc_end74:
	.cfi_endproc

	.section	.text._ZSt4swapIdEvRT_S1_,"axG",@progbits,_ZSt4swapIdEvRT_S1_,comdat
	.weak	_ZSt4swapIdEvRT_S1_
	.align	16, 0x90
	.type	_ZSt4swapIdEvRT_S1_,@function
_ZSt4swapIdEvRT_S1_:                    # @_ZSt4swapIdEvRT_S1_
.Lfunc_begin75:
	.loc	66 181 0                # /usr/bin/../lib64/gcc/x86_64-unknown-linux-gnu/5.2.0/../../../../include/c++/5.2.0/bits/move.h:181:0
	.cfi_startproc
# BB#0:
	pushq	%rbp
.Ltmp677:
	.cfi_def_cfa_offset 16
.Ltmp678:
	.cfi_offset %rbp, -16
	movq	%rsp, %rbp
.Ltmp679:
	.cfi_def_cfa_register %rbp
	subq	$32, %rsp
	movq	%rdi, -8(%rbp)
	movq	%rsi, -16(%rbp)
	.loc	66 185 19 prologue_end  # /usr/bin/../lib64/gcc/x86_64-unknown-linux-gnu/5.2.0/../../../../include/c++/5.2.0/bits/move.h:185:19
.Ltmp680:
	movq	-8(%rbp), %rdi
	callq	_ZSt4moveIRdEONSt16remove_referenceIT_E4typeEOS2_
	movsd	(%rax), %xmm0
	.loc	66 185 11 is_stmt 0     # /usr/bin/../lib64/gcc/x86_64-unknown-linux-gnu/5.2.0/../../../../include/c++/5.2.0/bits/move.h:185:11
	movsd	%xmm0, -24(%rbp)
	.loc	66 186 13 is_stmt 1     # /usr/bin/../lib64/gcc/x86_64-unknown-linux-gnu/5.2.0/../../../../include/c++/5.2.0/bits/move.h:186:13
	movq	-16(%rbp), %rdi
	callq	_ZSt4moveIRdEONSt16remove_referenceIT_E4typeEOS2_
	leaq	-24(%rbp), %rdi
	movsd	(%rax), %xmm0
	.loc	66 186 7 is_stmt 0      # /usr/bin/../lib64/gcc/x86_64-unknown-linux-gnu/5.2.0/../../../../include/c++/5.2.0/bits/move.h:186:7
	movq	-8(%rbp), %rax
	movsd	%xmm0, (%rax)
	.loc	66 187 13 is_stmt 1     # /usr/bin/../lib64/gcc/x86_64-unknown-linux-gnu/5.2.0/../../../../include/c++/5.2.0/bits/move.h:187:13
	callq	_ZSt4moveIRdEONSt16remove_referenceIT_E4typeEOS2_
	movsd	(%rax), %xmm0
	.loc	66 187 7 is_stmt 0      # /usr/bin/../lib64/gcc/x86_64-unknown-linux-gnu/5.2.0/../../../../include/c++/5.2.0/bits/move.h:187:7
	movq	-16(%rbp), %rax
	movsd	%xmm0, (%rax)
	.loc	66 188 5 is_stmt 1      # /usr/bin/../lib64/gcc/x86_64-unknown-linux-gnu/5.2.0/../../../../include/c++/5.2.0/bits/move.h:188:5
	addq	$32, %rsp
	popq	%rbp
	retq
.Ltmp681:
.Ltmp682:
	.size	_ZSt4swapIdEvRT_S1_, .Ltmp682-_ZSt4swapIdEvRT_S1_
.Lfunc_end75:
	.cfi_endproc

	.section	.text._ZSt13__heap_selectIPdN9__gnu_cxx5__ops15_Iter_less_iterEEvT_S4_S4_T0_,"axG",@progbits,_ZSt13__heap_selectIPdN9__gnu_cxx5__ops15_Iter_less_iterEEvT_S4_S4_T0_,comdat
	.weak	_ZSt13__heap_selectIPdN9__gnu_cxx5__ops15_Iter_less_iterEEvT_S4_S4_T0_
	.align	16, 0x90
	.type	_ZSt13__heap_selectIPdN9__gnu_cxx5__ops15_Iter_less_iterEEvT_S4_S4_T0_,@function
_ZSt13__heap_selectIPdN9__gnu_cxx5__ops15_Iter_less_iterEEvT_S4_S4_T0_: # @_ZSt13__heap_selectIPdN9__gnu_cxx5__ops15_Iter_less_iterEEvT_S4_S4_T0_
.Lfunc_begin76:
	.loc	11 1668 0               # /usr/bin/../lib64/gcc/x86_64-unknown-linux-gnu/5.2.0/../../../../include/c++/5.2.0/bits/stl_algo.h:1668:0
	.cfi_startproc
# BB#0:
	pushq	%rbp
.Ltmp683:
	.cfi_def_cfa_offset 16
.Ltmp684:
	.cfi_offset %rbp, -16
	movq	%rsp, %rbp
.Ltmp685:
	.cfi_def_cfa_register %rbp
	subq	$64, %rsp
	movq	%rdi, -16(%rbp)
	movq	%rsi, -24(%rbp)
	movq	%rdx, -32(%rbp)
	.loc	11 1669 24 prologue_end # /usr/bin/../lib64/gcc/x86_64-unknown-linux-gnu/5.2.0/../../../../include/c++/5.2.0/bits/stl_algo.h:1669:24
.Ltmp686:
	movq	-16(%rbp), %rdi
	.loc	11 1669 33 is_stmt 0    # /usr/bin/../lib64/gcc/x86_64-unknown-linux-gnu/5.2.0/../../../../include/c++/5.2.0/bits/stl_algo.h:1669:33
	movq	-24(%rbp), %rsi
	.loc	11 1669 7               # /usr/bin/../lib64/gcc/x86_64-unknown-linux-gnu/5.2.0/../../../../include/c++/5.2.0/bits/stl_algo.h:1669:7
	callq	_ZSt11__make_heapIPdN9__gnu_cxx5__ops15_Iter_less_iterEEvT_S4_T0_
	.loc	11 1670 40 is_stmt 1    # /usr/bin/../lib64/gcc/x86_64-unknown-linux-gnu/5.2.0/../../../../include/c++/5.2.0/bits/stl_algo.h:1670:40
.Ltmp687:
	movq	-24(%rbp), %rdx
	.loc	11 1670 34 is_stmt 0    # /usr/bin/../lib64/gcc/x86_64-unknown-linux-gnu/5.2.0/../../../../include/c++/5.2.0/bits/stl_algo.h:1670:34
	movq	%rdx, -48(%rbp)
.LBB76_1:                               # =>This Inner Loop Header: Depth=1
	.loc	11 1670 50 discriminator 2 # /usr/bin/../lib64/gcc/x86_64-unknown-linux-gnu/5.2.0/../../../../include/c++/5.2.0/bits/stl_algo.h:1670:50
.Ltmp688:
	movq	-48(%rbp), %rax
.Ltmp689:
	.loc	11 1670 7               # /usr/bin/../lib64/gcc/x86_64-unknown-linux-gnu/5.2.0/../../../../include/c++/5.2.0/bits/stl_algo.h:1670:7
	cmpq	-32(%rbp), %rax
	jae	.LBB76_6
# BB#2:                                 #   in Loop: Header=BB76_1 Depth=1
	leaq	-8(%rbp), %rdi
	.loc	11 1671 13 is_stmt 1    # /usr/bin/../lib64/gcc/x86_64-unknown-linux-gnu/5.2.0/../../../../include/c++/5.2.0/bits/stl_algo.h:1671:13
.Ltmp690:
	movq	-48(%rbp), %rsi
	.loc	11 1671 18 is_stmt 0    # /usr/bin/../lib64/gcc/x86_64-unknown-linux-gnu/5.2.0/../../../../include/c++/5.2.0/bits/stl_algo.h:1671:18
	movq	-16(%rbp), %rdx
	.loc	11 1671 6               # /usr/bin/../lib64/gcc/x86_64-unknown-linux-gnu/5.2.0/../../../../include/c++/5.2.0/bits/stl_algo.h:1671:6
	callq	_ZNK9__gnu_cxx5__ops15_Iter_less_iterclIPdS3_EEbT_T0_
.Ltmp691:
	.loc	11 1671 6               # /usr/bin/../lib64/gcc/x86_64-unknown-linux-gnu/5.2.0/../../../../include/c++/5.2.0/bits/stl_algo.h:1671:6
	testb	$1, %al
	jne	.LBB76_3
	jmp	.LBB76_4
.LBB76_3:                               #   in Loop: Header=BB76_1 Depth=1
	.loc	11 1672 20 is_stmt 1    # /usr/bin/../lib64/gcc/x86_64-unknown-linux-gnu/5.2.0/../../../../include/c++/5.2.0/bits/stl_algo.h:1672:20
.Ltmp692:
	movq	-16(%rbp), %rdi
	.loc	11 1672 29 is_stmt 0    # /usr/bin/../lib64/gcc/x86_64-unknown-linux-gnu/5.2.0/../../../../include/c++/5.2.0/bits/stl_algo.h:1672:29
	movq	-24(%rbp), %rsi
	.loc	11 1672 39              # /usr/bin/../lib64/gcc/x86_64-unknown-linux-gnu/5.2.0/../../../../include/c++/5.2.0/bits/stl_algo.h:1672:39
	movq	-48(%rbp), %rdx
	.loc	11 1672 4               # /usr/bin/../lib64/gcc/x86_64-unknown-linux-gnu/5.2.0/../../../../include/c++/5.2.0/bits/stl_algo.h:1672:4
	callq	_ZSt10__pop_heapIPdN9__gnu_cxx5__ops15_Iter_less_iterEEvT_S4_S4_T0_
.LBB76_4:                               #   in Loop: Header=BB76_1 Depth=1
	.loc	11 1671 25 is_stmt 1 discriminator 1 # /usr/bin/../lib64/gcc/x86_64-unknown-linux-gnu/5.2.0/../../../../include/c++/5.2.0/bits/stl_algo.h:1671:25
	jmp	.LBB76_5
.Ltmp693:
.LBB76_5:                               #   in Loop: Header=BB76_1 Depth=1
	.loc	11 1670 64              # /usr/bin/../lib64/gcc/x86_64-unknown-linux-gnu/5.2.0/../../../../include/c++/5.2.0/bits/stl_algo.h:1670:64
	movq	-48(%rbp), %rax
	addq	$8, %rax
	movq	%rax, -48(%rbp)
	.loc	11 1670 7 is_stmt 0     # /usr/bin/../lib64/gcc/x86_64-unknown-linux-gnu/5.2.0/../../../../include/c++/5.2.0/bits/stl_algo.h:1670:7
	jmp	.LBB76_1
.Ltmp694:
.LBB76_6:
	.loc	11 1673 5 is_stmt 1     # /usr/bin/../lib64/gcc/x86_64-unknown-linux-gnu/5.2.0/../../../../include/c++/5.2.0/bits/stl_algo.h:1673:5
	addq	$64, %rsp
	popq	%rbp
	retq
.Ltmp695:
.Ltmp696:
	.size	_ZSt13__heap_selectIPdN9__gnu_cxx5__ops15_Iter_less_iterEEvT_S4_S4_T0_, .Ltmp696-_ZSt13__heap_selectIPdN9__gnu_cxx5__ops15_Iter_less_iterEEvT_S4_S4_T0_
.Lfunc_end76:
	.cfi_endproc

	.section	.text._ZSt11__sort_heapIPdN9__gnu_cxx5__ops15_Iter_less_iterEEvT_S4_T0_,"axG",@progbits,_ZSt11__sort_heapIPdN9__gnu_cxx5__ops15_Iter_less_iterEEvT_S4_T0_,comdat
	.weak	_ZSt11__sort_heapIPdN9__gnu_cxx5__ops15_Iter_less_iterEEvT_S4_T0_
	.align	16, 0x90
	.type	_ZSt11__sort_heapIPdN9__gnu_cxx5__ops15_Iter_less_iterEEvT_S4_T0_,@function
_ZSt11__sort_heapIPdN9__gnu_cxx5__ops15_Iter_less_iterEEvT_S4_T0_: # @_ZSt11__sort_heapIPdN9__gnu_cxx5__ops15_Iter_less_iterEEvT_S4_T0_
.Lfunc_begin77:
	.loc	47 392 0                # /usr/bin/../lib64/gcc/x86_64-unknown-linux-gnu/5.2.0/../../../../include/c++/5.2.0/bits/stl_heap.h:392:0
	.cfi_startproc
# BB#0:
	pushq	%rbp
.Ltmp697:
	.cfi_def_cfa_offset 16
.Ltmp698:
	.cfi_offset %rbp, -16
	movq	%rsp, %rbp
.Ltmp699:
	.cfi_def_cfa_register %rbp
	subq	$32, %rsp
	movq	%rdi, -16(%rbp)
	movq	%rsi, -24(%rbp)
.LBB77_1:                               # =>This Inner Loop Header: Depth=1
	.loc	47 393 14 prologue_end discriminator 2 # /usr/bin/../lib64/gcc/x86_64-unknown-linux-gnu/5.2.0/../../../../include/c++/5.2.0/bits/stl_heap.h:393:14
.Ltmp700:
	movq	-24(%rbp), %rax
.Ltmp701:
	.loc	47 393 23 is_stmt 0     # /usr/bin/../lib64/gcc/x86_64-unknown-linux-gnu/5.2.0/../../../../include/c++/5.2.0/bits/stl_heap.h:393:23
	movq	-16(%rbp), %rcx
	.loc	47 393 14               # /usr/bin/../lib64/gcc/x86_64-unknown-linux-gnu/5.2.0/../../../../include/c++/5.2.0/bits/stl_heap.h:393:14
	subq	%rcx, %rax
	sarq	$3, %rax
	.loc	47 393 7                # /usr/bin/../lib64/gcc/x86_64-unknown-linux-gnu/5.2.0/../../../../include/c++/5.2.0/bits/stl_heap.h:393:7
	cmpq	$1, %rax
	jle	.LBB77_3
# BB#2:                                 #   in Loop: Header=BB77_1 Depth=1
	.loc	47 395 4 is_stmt 1      # /usr/bin/../lib64/gcc/x86_64-unknown-linux-gnu/5.2.0/../../../../include/c++/5.2.0/bits/stl_heap.h:395:4
.Ltmp702:
	movq	-24(%rbp), %rax
	addq	$-8, %rax
	movq	%rax, -24(%rbp)
	.loc	47 396 20               # /usr/bin/../lib64/gcc/x86_64-unknown-linux-gnu/5.2.0/../../../../include/c++/5.2.0/bits/stl_heap.h:396:20
	movq	-16(%rbp), %rdi
	.loc	47 396 29 is_stmt 0     # /usr/bin/../lib64/gcc/x86_64-unknown-linux-gnu/5.2.0/../../../../include/c++/5.2.0/bits/stl_heap.h:396:29
	movq	-24(%rbp), %rsi
	.loc	47 396 37               # /usr/bin/../lib64/gcc/x86_64-unknown-linux-gnu/5.2.0/../../../../include/c++/5.2.0/bits/stl_heap.h:396:37
	movq	-24(%rbp), %rdx
	.loc	47 396 4                # /usr/bin/../lib64/gcc/x86_64-unknown-linux-gnu/5.2.0/../../../../include/c++/5.2.0/bits/stl_heap.h:396:4
	callq	_ZSt10__pop_heapIPdN9__gnu_cxx5__ops15_Iter_less_iterEEvT_S4_S4_T0_
.Ltmp703:
	.loc	47 393 7 is_stmt 1      # /usr/bin/../lib64/gcc/x86_64-unknown-linux-gnu/5.2.0/../../../../include/c++/5.2.0/bits/stl_heap.h:393:7
	jmp	.LBB77_1
.LBB77_3:
	.loc	47 398 5                # /usr/bin/../lib64/gcc/x86_64-unknown-linux-gnu/5.2.0/../../../../include/c++/5.2.0/bits/stl_heap.h:398:5
	addq	$32, %rsp
	popq	%rbp
	retq
.Ltmp704:
.Ltmp705:
	.size	_ZSt11__sort_heapIPdN9__gnu_cxx5__ops15_Iter_less_iterEEvT_S4_T0_, .Ltmp705-_ZSt11__sort_heapIPdN9__gnu_cxx5__ops15_Iter_less_iterEEvT_S4_T0_
.Lfunc_end77:
	.cfi_endproc

	.section	.text._ZSt10__pop_heapIPdN9__gnu_cxx5__ops15_Iter_less_iterEEvT_S4_S4_T0_,"axG",@progbits,_ZSt10__pop_heapIPdN9__gnu_cxx5__ops15_Iter_less_iterEEvT_S4_S4_T0_,comdat
	.weak	_ZSt10__pop_heapIPdN9__gnu_cxx5__ops15_Iter_less_iterEEvT_S4_S4_T0_
	.align	16, 0x90
	.type	_ZSt10__pop_heapIPdN9__gnu_cxx5__ops15_Iter_less_iterEEvT_S4_S4_T0_,@function
_ZSt10__pop_heapIPdN9__gnu_cxx5__ops15_Iter_less_iterEEvT_S4_S4_T0_: # @_ZSt10__pop_heapIPdN9__gnu_cxx5__ops15_Iter_less_iterEEvT_S4_S4_T0_
.Lfunc_begin78:
	.loc	47 237 0                # /usr/bin/../lib64/gcc/x86_64-unknown-linux-gnu/5.2.0/../../../../include/c++/5.2.0/bits/stl_heap.h:237:0
	.cfi_startproc
# BB#0:
	pushq	%rbp
.Ltmp706:
	.cfi_def_cfa_offset 16
.Ltmp707:
	.cfi_offset %rbp, -16
	movq	%rsp, %rbp
.Ltmp708:
	.cfi_def_cfa_register %rbp
	subq	$64, %rsp
	movq	%rdi, -16(%rbp)
	movq	%rsi, -24(%rbp)
	movq	%rdx, -32(%rbp)
	.loc	47 243 28 prologue_end  # /usr/bin/../lib64/gcc/x86_64-unknown-linux-gnu/5.2.0/../../../../include/c++/5.2.0/bits/stl_heap.h:243:28
.Ltmp709:
	movq	-32(%rbp), %rdi
	callq	_ZSt4moveIRdEONSt16remove_referenceIT_E4typeEOS2_
	movsd	(%rax), %xmm0
	.loc	47 243 18 is_stmt 0     # /usr/bin/../lib64/gcc/x86_64-unknown-linux-gnu/5.2.0/../../../../include/c++/5.2.0/bits/stl_heap.h:243:18
	movsd	%xmm0, -40(%rbp)
	.loc	47 244 19 is_stmt 1     # /usr/bin/../lib64/gcc/x86_64-unknown-linux-gnu/5.2.0/../../../../include/c++/5.2.0/bits/stl_heap.h:244:19
	movq	-16(%rbp), %rdi
	callq	_ZSt4moveIRdEONSt16remove_referenceIT_E4typeEOS2_
	leaq	-40(%rbp), %rdi
	movsd	(%rax), %xmm0
	.loc	47 244 8 is_stmt 0      # /usr/bin/../lib64/gcc/x86_64-unknown-linux-gnu/5.2.0/../../../../include/c++/5.2.0/bits/stl_heap.h:244:8
	movq	-32(%rbp), %rax
	.loc	47 244 7                # /usr/bin/../lib64/gcc/x86_64-unknown-linux-gnu/5.2.0/../../../../include/c++/5.2.0/bits/stl_heap.h:244:7
	movsd	%xmm0, (%rax)
	.loc	47 245 26 is_stmt 1     # /usr/bin/../lib64/gcc/x86_64-unknown-linux-gnu/5.2.0/../../../../include/c++/5.2.0/bits/stl_heap.h:245:26
	movq	-16(%rbp), %rax
	.loc	47 246 19               # /usr/bin/../lib64/gcc/x86_64-unknown-linux-gnu/5.2.0/../../../../include/c++/5.2.0/bits/stl_heap.h:246:19
	movq	-24(%rbp), %rdx
	.loc	47 246 28 is_stmt 0     # /usr/bin/../lib64/gcc/x86_64-unknown-linux-gnu/5.2.0/../../../../include/c++/5.2.0/bits/stl_heap.h:246:28
	movq	-16(%rbp), %rsi
	.loc	47 246 19               # /usr/bin/../lib64/gcc/x86_64-unknown-linux-gnu/5.2.0/../../../../include/c++/5.2.0/bits/stl_heap.h:246:19
	subq	%rsi, %rdx
	sarq	$3, %rdx
	.loc	47 247 5 is_stmt 1      # /usr/bin/../lib64/gcc/x86_64-unknown-linux-gnu/5.2.0/../../../../include/c++/5.2.0/bits/stl_heap.h:247:5
	movq	%rdx, -56(%rbp)         # 8-byte Spill
	movq	%rax, -64(%rbp)         # 8-byte Spill
	callq	_ZSt4moveIRdEONSt16remove_referenceIT_E4typeEOS2_
	xorl	%ecx, %ecx
	movl	%ecx, %esi
	movsd	(%rax), %xmm0
	.loc	47 245 7                # /usr/bin/../lib64/gcc/x86_64-unknown-linux-gnu/5.2.0/../../../../include/c++/5.2.0/bits/stl_heap.h:245:7
	movq	-64(%rbp), %rdi         # 8-byte Reload
	movq	-56(%rbp), %rdx         # 8-byte Reload
	callq	_ZSt13__adjust_heapIPdldN9__gnu_cxx5__ops15_Iter_less_iterEEvT_T0_S5_T1_T2_
	.loc	47 248 5                # /usr/bin/../lib64/gcc/x86_64-unknown-linux-gnu/5.2.0/../../../../include/c++/5.2.0/bits/stl_heap.h:248:5
	addq	$64, %rsp
	popq	%rbp
	retq
.Ltmp710:
.Ltmp711:
	.size	_ZSt10__pop_heapIPdN9__gnu_cxx5__ops15_Iter_less_iterEEvT_S4_S4_T0_, .Ltmp711-_ZSt10__pop_heapIPdN9__gnu_cxx5__ops15_Iter_less_iterEEvT_S4_S4_T0_
.Lfunc_end78:
	.cfi_endproc

	.section	.text._ZSt13__adjust_heapIPdldN9__gnu_cxx5__ops15_Iter_less_iterEEvT_T0_S5_T1_T2_,"axG",@progbits,_ZSt13__adjust_heapIPdldN9__gnu_cxx5__ops15_Iter_less_iterEEvT_T0_S5_T1_T2_,comdat
	.weak	_ZSt13__adjust_heapIPdldN9__gnu_cxx5__ops15_Iter_less_iterEEvT_T0_S5_T1_T2_
	.align	16, 0x90
	.type	_ZSt13__adjust_heapIPdldN9__gnu_cxx5__ops15_Iter_less_iterEEvT_T0_S5_T1_T2_,@function
_ZSt13__adjust_heapIPdldN9__gnu_cxx5__ops15_Iter_less_iterEEvT_T0_S5_T1_T2_: # @_ZSt13__adjust_heapIPdldN9__gnu_cxx5__ops15_Iter_less_iterEEvT_T0_S5_T1_T2_
.Lfunc_begin79:
	.loc	47 209 0                # /usr/bin/../lib64/gcc/x86_64-unknown-linux-gnu/5.2.0/../../../../include/c++/5.2.0/bits/stl_heap.h:209:0
	.cfi_startproc
# BB#0:
	pushq	%rbp
.Ltmp712:
	.cfi_def_cfa_offset 16
.Ltmp713:
	.cfi_offset %rbp, -16
	movq	%rsp, %rbp
.Ltmp714:
	.cfi_def_cfa_register %rbp
	subq	$128, %rsp
	movq	%rdi, -16(%rbp)
	movq	%rsi, -24(%rbp)
	movq	%rdx, -32(%rbp)
	movsd	%xmm0, -40(%rbp)
	.loc	47 210 36 prologue_end  # /usr/bin/../lib64/gcc/x86_64-unknown-linux-gnu/5.2.0/../../../../include/c++/5.2.0/bits/stl_heap.h:210:36
.Ltmp715:
	movq	-24(%rbp), %rdx
	.loc	47 210 23 is_stmt 0     # /usr/bin/../lib64/gcc/x86_64-unknown-linux-gnu/5.2.0/../../../../include/c++/5.2.0/bits/stl_heap.h:210:23
	movq	%rdx, -48(%rbp)
	.loc	47 211 33 is_stmt 1     # /usr/bin/../lib64/gcc/x86_64-unknown-linux-gnu/5.2.0/../../../../include/c++/5.2.0/bits/stl_heap.h:211:33
	movq	-24(%rbp), %rdx
	.loc	47 211 17 is_stmt 0     # /usr/bin/../lib64/gcc/x86_64-unknown-linux-gnu/5.2.0/../../../../include/c++/5.2.0/bits/stl_heap.h:211:17
	movq	%rdx, -56(%rbp)
.LBB79_1:                               # =>This Inner Loop Header: Depth=1
	movl	$2, %eax
	movl	%eax, %ecx
	.loc	47 212 14 is_stmt 1 discriminator 2 # /usr/bin/../lib64/gcc/x86_64-unknown-linux-gnu/5.2.0/../../../../include/c++/5.2.0/bits/stl_heap.h:212:14
.Ltmp716:
	movq	-56(%rbp), %rdx
.Ltmp717:
	.loc	47 212 31 is_stmt 0     # /usr/bin/../lib64/gcc/x86_64-unknown-linux-gnu/5.2.0/../../../../include/c++/5.2.0/bits/stl_heap.h:212:31
	movq	-32(%rbp), %rsi
	subq	$1, %rsi
	.loc	47 212 30               # /usr/bin/../lib64/gcc/x86_64-unknown-linux-gnu/5.2.0/../../../../include/c++/5.2.0/bits/stl_heap.h:212:30
	movq	%rsi, %rax
	movq	%rdx, -88(%rbp)         # 8-byte Spill
	cqto
	idivq	%rcx
	.loc	47 212 7                # /usr/bin/../lib64/gcc/x86_64-unknown-linux-gnu/5.2.0/../../../../include/c++/5.2.0/bits/stl_heap.h:212:7
	movq	-88(%rbp), %rcx         # 8-byte Reload
	cmpq	%rax, %rcx
	jge	.LBB79_5
# BB#2:                                 #   in Loop: Header=BB79_1 Depth=1
	leaq	-8(%rbp), %rdi
	.loc	47 214 25 is_stmt 1     # /usr/bin/../lib64/gcc/x86_64-unknown-linux-gnu/5.2.0/../../../../include/c++/5.2.0/bits/stl_heap.h:214:25
.Ltmp718:
	movq	-56(%rbp), %rax
	addq	$1, %rax
	.loc	47 214 20 is_stmt 0     # /usr/bin/../lib64/gcc/x86_64-unknown-linux-gnu/5.2.0/../../../../include/c++/5.2.0/bits/stl_heap.h:214:20
	shlq	$1, %rax
	.loc	47 214 4                # /usr/bin/../lib64/gcc/x86_64-unknown-linux-gnu/5.2.0/../../../../include/c++/5.2.0/bits/stl_heap.h:214:4
	movq	%rax, -56(%rbp)
	.loc	47 215 15 is_stmt 1     # /usr/bin/../lib64/gcc/x86_64-unknown-linux-gnu/5.2.0/../../../../include/c++/5.2.0/bits/stl_heap.h:215:15
.Ltmp719:
	movq	-16(%rbp), %rax
	.loc	47 215 25 is_stmt 0     # /usr/bin/../lib64/gcc/x86_64-unknown-linux-gnu/5.2.0/../../../../include/c++/5.2.0/bits/stl_heap.h:215:25
	movq	-56(%rbp), %rcx
	.loc	47 215 15               # /usr/bin/../lib64/gcc/x86_64-unknown-linux-gnu/5.2.0/../../../../include/c++/5.2.0/bits/stl_heap.h:215:15
	shlq	$3, %rcx
	addq	%rcx, %rax
	.loc	47 216 8 is_stmt 1      # /usr/bin/../lib64/gcc/x86_64-unknown-linux-gnu/5.2.0/../../../../include/c++/5.2.0/bits/stl_heap.h:216:8
	movq	-16(%rbp), %rcx
	.loc	47 216 19 is_stmt 0     # /usr/bin/../lib64/gcc/x86_64-unknown-linux-gnu/5.2.0/../../../../include/c++/5.2.0/bits/stl_heap.h:216:19
	movq	-56(%rbp), %rdx
	subq	$1, %rdx
	.loc	47 216 8                # /usr/bin/../lib64/gcc/x86_64-unknown-linux-gnu/5.2.0/../../../../include/c++/5.2.0/bits/stl_heap.h:216:8
	shlq	$3, %rdx
	addq	%rdx, %rcx
	.loc	47 215 8 is_stmt 1      # /usr/bin/../lib64/gcc/x86_64-unknown-linux-gnu/5.2.0/../../../../include/c++/5.2.0/bits/stl_heap.h:215:8
	movq	%rax, %rsi
	movq	%rcx, %rdx
	callq	_ZNK9__gnu_cxx5__ops15_Iter_less_iterclIPdS3_EEbT_T0_
.Ltmp720:
	.loc	47 215 8 is_stmt 0      # /usr/bin/../lib64/gcc/x86_64-unknown-linux-gnu/5.2.0/../../../../include/c++/5.2.0/bits/stl_heap.h:215:8
	testb	$1, %al
	jne	.LBB79_3
	jmp	.LBB79_4
.LBB79_3:                               #   in Loop: Header=BB79_1 Depth=1
	.loc	47 217 6 is_stmt 1      # /usr/bin/../lib64/gcc/x86_64-unknown-linux-gnu/5.2.0/../../../../include/c++/5.2.0/bits/stl_heap.h:217:6
.Ltmp721:
	movq	-56(%rbp), %rax
	addq	$-1, %rax
	movq	%rax, -56(%rbp)
.Ltmp722:
.LBB79_4:                               #   in Loop: Header=BB79_1 Depth=1
	.loc	47 218 31               # /usr/bin/../lib64/gcc/x86_64-unknown-linux-gnu/5.2.0/../../../../include/c++/5.2.0/bits/stl_heap.h:218:31
	movq	-16(%rbp), %rax
	movq	-56(%rbp), %rcx
	shlq	$3, %rcx
	addq	%rcx, %rax
	movq	%rax, %rdi
	callq	_ZSt4moveIRdEONSt16remove_referenceIT_E4typeEOS2_
	movsd	(%rax), %xmm0
	.loc	47 218 6 is_stmt 0      # /usr/bin/../lib64/gcc/x86_64-unknown-linux-gnu/5.2.0/../../../../include/c++/5.2.0/bits/stl_heap.h:218:6
	movq	-16(%rbp), %rax
	.loc	47 218 16               # /usr/bin/../lib64/gcc/x86_64-unknown-linux-gnu/5.2.0/../../../../include/c++/5.2.0/bits/stl_heap.h:218:16
	movq	-24(%rbp), %rcx
	.loc	47 218 4                # /usr/bin/../lib64/gcc/x86_64-unknown-linux-gnu/5.2.0/../../../../include/c++/5.2.0/bits/stl_heap.h:218:4
	movsd	%xmm0, (%rax,%rcx,8)
	.loc	47 219 18 is_stmt 1     # /usr/bin/../lib64/gcc/x86_64-unknown-linux-gnu/5.2.0/../../../../include/c++/5.2.0/bits/stl_heap.h:219:18
	movq	-56(%rbp), %rax
	.loc	47 219 4 is_stmt 0      # /usr/bin/../lib64/gcc/x86_64-unknown-linux-gnu/5.2.0/../../../../include/c++/5.2.0/bits/stl_heap.h:219:4
	movq	%rax, -24(%rbp)
.Ltmp723:
	.loc	47 212 7 is_stmt 1      # /usr/bin/../lib64/gcc/x86_64-unknown-linux-gnu/5.2.0/../../../../include/c++/5.2.0/bits/stl_heap.h:212:7
	jmp	.LBB79_1
.LBB79_5:
	.loc	47 221 12               # /usr/bin/../lib64/gcc/x86_64-unknown-linux-gnu/5.2.0/../../../../include/c++/5.2.0/bits/stl_heap.h:221:12
.Ltmp724:
	movq	-32(%rbp), %rax
	andq	$1, %rax
.Ltmp725:
	.loc	47 221 11 is_stmt 0     # /usr/bin/../lib64/gcc/x86_64-unknown-linux-gnu/5.2.0/../../../../include/c++/5.2.0/bits/stl_heap.h:221:11
	cmpq	$0, %rax
	jne	.LBB79_8
# BB#6:
	movl	$2, %eax
	movl	%eax, %ecx
	.loc	47 221 31 discriminator 1 # /usr/bin/../lib64/gcc/x86_64-unknown-linux-gnu/5.2.0/../../../../include/c++/5.2.0/bits/stl_heap.h:221:31
.Ltmp726:
	movq	-56(%rbp), %rdx
	.loc	47 221 49               # /usr/bin/../lib64/gcc/x86_64-unknown-linux-gnu/5.2.0/../../../../include/c++/5.2.0/bits/stl_heap.h:221:49
	movq	-32(%rbp), %rsi
	subq	$2, %rsi
	.loc	47 221 48               # /usr/bin/../lib64/gcc/x86_64-unknown-linux-gnu/5.2.0/../../../../include/c++/5.2.0/bits/stl_heap.h:221:48
	movq	%rsi, %rax
	movq	%rdx, -96(%rbp)         # 8-byte Spill
	cqto
	idivq	%rcx
.Ltmp727:
	.loc	47 221 11               # /usr/bin/../lib64/gcc/x86_64-unknown-linux-gnu/5.2.0/../../../../include/c++/5.2.0/bits/stl_heap.h:221:11
	movq	-96(%rbp), %rcx         # 8-byte Reload
	cmpq	%rax, %rcx
	jne	.LBB79_8
# BB#7:
	.loc	47 223 25 is_stmt 1     # /usr/bin/../lib64/gcc/x86_64-unknown-linux-gnu/5.2.0/../../../../include/c++/5.2.0/bits/stl_heap.h:223:25
.Ltmp728:
	movq	-56(%rbp), %rax
	addq	$1, %rax
	.loc	47 223 20 is_stmt 0     # /usr/bin/../lib64/gcc/x86_64-unknown-linux-gnu/5.2.0/../../../../include/c++/5.2.0/bits/stl_heap.h:223:20
	shlq	$1, %rax
	.loc	47 223 4                # /usr/bin/../lib64/gcc/x86_64-unknown-linux-gnu/5.2.0/../../../../include/c++/5.2.0/bits/stl_heap.h:223:4
	movq	%rax, -56(%rbp)
	.loc	47 224 31 is_stmt 1     # /usr/bin/../lib64/gcc/x86_64-unknown-linux-gnu/5.2.0/../../../../include/c++/5.2.0/bits/stl_heap.h:224:31
	movq	-16(%rbp), %rax
	movq	-56(%rbp), %rcx
	subq	$1, %rcx
	shlq	$3, %rcx
	addq	%rcx, %rax
	movq	%rax, %rdi
	callq	_ZSt4moveIRdEONSt16remove_referenceIT_E4typeEOS2_
	movsd	(%rax), %xmm0
	.loc	47 224 6 is_stmt 0      # /usr/bin/../lib64/gcc/x86_64-unknown-linux-gnu/5.2.0/../../../../include/c++/5.2.0/bits/stl_heap.h:224:6
	movq	-16(%rbp), %rax
	.loc	47 224 16               # /usr/bin/../lib64/gcc/x86_64-unknown-linux-gnu/5.2.0/../../../../include/c++/5.2.0/bits/stl_heap.h:224:16
	movq	-24(%rbp), %rcx
	.loc	47 224 4                # /usr/bin/../lib64/gcc/x86_64-unknown-linux-gnu/5.2.0/../../../../include/c++/5.2.0/bits/stl_heap.h:224:4
	movsd	%xmm0, (%rax,%rcx,8)
	.loc	47 226 18 is_stmt 1     # /usr/bin/../lib64/gcc/x86_64-unknown-linux-gnu/5.2.0/../../../../include/c++/5.2.0/bits/stl_heap.h:226:18
	movq	-56(%rbp), %rax
	subq	$1, %rax
	.loc	47 226 4 is_stmt 0      # /usr/bin/../lib64/gcc/x86_64-unknown-linux-gnu/5.2.0/../../../../include/c++/5.2.0/bits/stl_heap.h:226:4
	movq	%rax, -24(%rbp)
.Ltmp729:
.LBB79_8:
	leaq	-40(%rbp), %rdi
	.loc	47 228 24 is_stmt 1     # /usr/bin/../lib64/gcc/x86_64-unknown-linux-gnu/5.2.0/../../../../include/c++/5.2.0/bits/stl_heap.h:228:24
	movq	-16(%rbp), %rax
	.loc	47 228 33 is_stmt 0     # /usr/bin/../lib64/gcc/x86_64-unknown-linux-gnu/5.2.0/../../../../include/c++/5.2.0/bits/stl_heap.h:228:33
	movq	-24(%rbp), %rsi
	.loc	47 228 46               # /usr/bin/../lib64/gcc/x86_64-unknown-linux-gnu/5.2.0/../../../../include/c++/5.2.0/bits/stl_heap.h:228:46
	movq	-48(%rbp), %rdx
	.loc	47 229 10 is_stmt 1     # /usr/bin/../lib64/gcc/x86_64-unknown-linux-gnu/5.2.0/../../../../include/c++/5.2.0/bits/stl_heap.h:229:10
	movq	%rdx, -104(%rbp)        # 8-byte Spill
	movq	%rax, -112(%rbp)        # 8-byte Spill
	movq	%rsi, -120(%rbp)        # 8-byte Spill
	callq	_ZSt4moveIRdEONSt16remove_referenceIT_E4typeEOS2_
	movsd	(%rax), %xmm0
	.loc	47 230 10               # /usr/bin/../lib64/gcc/x86_64-unknown-linux-gnu/5.2.0/../../../../include/c++/5.2.0/bits/stl_heap.h:230:10
	movsd	%xmm0, -128(%rbp)       # 8-byte Spill
	callq	_ZN9__gnu_cxx5__ops15__iter_comp_valENS0_15_Iter_less_iterE
	.loc	47 228 7                # /usr/bin/../lib64/gcc/x86_64-unknown-linux-gnu/5.2.0/../../../../include/c++/5.2.0/bits/stl_heap.h:228:7
	movq	-112(%rbp), %rdi        # 8-byte Reload
	movq	-120(%rbp), %rsi        # 8-byte Reload
	movq	-104(%rbp), %rdx        # 8-byte Reload
	movsd	-128(%rbp), %xmm0       # 8-byte Reload
	callq	_ZSt11__push_heapIPdldN9__gnu_cxx5__ops14_Iter_less_valEEvT_T0_S5_T1_T2_
	.loc	47 231 5                # /usr/bin/../lib64/gcc/x86_64-unknown-linux-gnu/5.2.0/../../../../include/c++/5.2.0/bits/stl_heap.h:231:5
	addq	$128, %rsp
	popq	%rbp
	retq
.Ltmp730:
.Ltmp731:
	.size	_ZSt13__adjust_heapIPdldN9__gnu_cxx5__ops15_Iter_less_iterEEvT_T0_S5_T1_T2_, .Ltmp731-_ZSt13__adjust_heapIPdldN9__gnu_cxx5__ops15_Iter_less_iterEEvT_T0_S5_T1_T2_
.Lfunc_end79:
	.cfi_endproc

	.section	.text._ZSt11__push_heapIPdldN9__gnu_cxx5__ops14_Iter_less_valEEvT_T0_S5_T1_T2_,"axG",@progbits,_ZSt11__push_heapIPdldN9__gnu_cxx5__ops14_Iter_less_valEEvT_T0_S5_T1_T2_,comdat
	.weak	_ZSt11__push_heapIPdldN9__gnu_cxx5__ops14_Iter_less_valEEvT_T0_S5_T1_T2_
	.align	16, 0x90
	.type	_ZSt11__push_heapIPdldN9__gnu_cxx5__ops14_Iter_less_valEEvT_T0_S5_T1_T2_,@function
_ZSt11__push_heapIPdldN9__gnu_cxx5__ops14_Iter_less_valEEvT_T0_S5_T1_T2_: # @_ZSt11__push_heapIPdldN9__gnu_cxx5__ops14_Iter_less_valEEvT_T0_S5_T1_T2_
.Lfunc_begin80:
	.loc	47 127 0                # /usr/bin/../lib64/gcc/x86_64-unknown-linux-gnu/5.2.0/../../../../include/c++/5.2.0/bits/stl_heap.h:127:0
	.cfi_startproc
# BB#0:
	pushq	%rbp
.Ltmp732:
	.cfi_def_cfa_offset 16
.Ltmp733:
	.cfi_offset %rbp, -16
	movq	%rsp, %rbp
.Ltmp734:
	.cfi_def_cfa_register %rbp
	subq	$64, %rsp
	movl	$2, %eax
	movl	%eax, %ecx
	movq	%rdi, -16(%rbp)
